ARM GAS  C:\Users\user\AppData\Local\Temp\ccSG9rQF.s 			page 1


   1              		.cpu cortex-m4
   2              		.arch armv7e-m
   3              		.fpu fpv4-sp-d16
   4              		.eabi_attribute 27, 1
   5              		.eabi_attribute 28, 1
   6              		.eabi_attribute 20, 1
   7              		.eabi_attribute 21, 1
   8              		.eabi_attribute 23, 3
   9              		.eabi_attribute 24, 1
  10              		.eabi_attribute 25, 1
  11              		.eabi_attribute 26, 1
  12              		.eabi_attribute 30, 6
  13              		.eabi_attribute 34, 1
  14              		.eabi_attribute 18, 4
  15              		.file	"dma.c"
  16              		.text
  17              		.section	.text.MX_DMA_Init,"ax",%progbits
  18              		.align	1
  19              		.global	MX_DMA_Init
  20              		.syntax unified
  21              		.thumb
  22              		.thumb_func
  24              	MX_DMA_Init:
  25              		@ args = 0, pretend = 0, frame = 8
  26              		@ frame_needed = 1, uses_anonymous_args = 0
  27 0000 80B5     		push	{r7, lr}
  28 0002 82B0     		sub	sp, sp, #8
  29 0004 00AF     		add	r7, sp, #0
  30 0006 0023     		movs	r3, #0
  31 0008 7B60     		str	r3, [r7, #4]
  32 000a 334B     		ldr	r3, .L2
  33 000c 1B6B     		ldr	r3, [r3, #48]
  34 000e 324A     		ldr	r2, .L2
  35 0010 43F40013 		orr	r3, r3, #2097152
  36 0014 1363     		str	r3, [r2, #48]
  37 0016 304B     		ldr	r3, .L2
  38 0018 1B6B     		ldr	r3, [r3, #48]
  39 001a 03F40013 		and	r3, r3, #2097152
  40 001e 7B60     		str	r3, [r7, #4]
  41 0020 7B68     		ldr	r3, [r7, #4]
  42 0022 0023     		movs	r3, #0
  43 0024 3B60     		str	r3, [r7]
  44 0026 2C4B     		ldr	r3, .L2
  45 0028 1B6B     		ldr	r3, [r3, #48]
  46 002a 2B4A     		ldr	r2, .L2
  47 002c 43F48003 		orr	r3, r3, #4194304
  48 0030 1363     		str	r3, [r2, #48]
  49 0032 294B     		ldr	r3, .L2
  50 0034 1B6B     		ldr	r3, [r3, #48]
  51 0036 03F48003 		and	r3, r3, #4194304
  52 003a 3B60     		str	r3, [r7]
  53 003c 3B68     		ldr	r3, [r7]
  54 003e 0022     		movs	r2, #0
  55 0040 0021     		movs	r1, #0
  56 0042 0B20     		movs	r0, #11
  57 0044 FFF7FEFF 		bl	HAL_NVIC_SetPriority
  58 0048 0B20     		movs	r0, #11
ARM GAS  C:\Users\user\AppData\Local\Temp\ccSG9rQF.s 			page 2


  59 004a FFF7FEFF 		bl	HAL_NVIC_EnableIRQ
  60 004e 0022     		movs	r2, #0
  61 0050 0021     		movs	r1, #0
  62 0052 0C20     		movs	r0, #12
  63 0054 FFF7FEFF 		bl	HAL_NVIC_SetPriority
  64 0058 0C20     		movs	r0, #12
  65 005a FFF7FEFF 		bl	HAL_NVIC_EnableIRQ
  66 005e 0022     		movs	r2, #0
  67 0060 0021     		movs	r1, #0
  68 0062 0D20     		movs	r0, #13
  69 0064 FFF7FEFF 		bl	HAL_NVIC_SetPriority
  70 0068 0D20     		movs	r0, #13
  71 006a FFF7FEFF 		bl	HAL_NVIC_EnableIRQ
  72 006e 0022     		movs	r2, #0
  73 0070 0021     		movs	r1, #0
  74 0072 0E20     		movs	r0, #14
  75 0074 FFF7FEFF 		bl	HAL_NVIC_SetPriority
  76 0078 0E20     		movs	r0, #14
  77 007a FFF7FEFF 		bl	HAL_NVIC_EnableIRQ
  78 007e 0022     		movs	r2, #0
  79 0080 0021     		movs	r1, #0
  80 0082 0F20     		movs	r0, #15
  81 0084 FFF7FEFF 		bl	HAL_NVIC_SetPriority
  82 0088 0F20     		movs	r0, #15
  83 008a FFF7FEFF 		bl	HAL_NVIC_EnableIRQ
  84 008e 0022     		movs	r2, #0
  85 0090 0021     		movs	r1, #0
  86 0092 3820     		movs	r0, #56
  87 0094 FFF7FEFF 		bl	HAL_NVIC_SetPriority
  88 0098 3820     		movs	r0, #56
  89 009a FFF7FEFF 		bl	HAL_NVIC_EnableIRQ
  90 009e 0022     		movs	r2, #0
  91 00a0 0021     		movs	r1, #0
  92 00a2 3A20     		movs	r0, #58
  93 00a4 FFF7FEFF 		bl	HAL_NVIC_SetPriority
  94 00a8 3A20     		movs	r0, #58
  95 00aa FFF7FEFF 		bl	HAL_NVIC_EnableIRQ
  96 00ae 0022     		movs	r2, #0
  97 00b0 0021     		movs	r1, #0
  98 00b2 3B20     		movs	r0, #59
  99 00b4 FFF7FEFF 		bl	HAL_NVIC_SetPriority
 100 00b8 3B20     		movs	r0, #59
 101 00ba FFF7FEFF 		bl	HAL_NVIC_EnableIRQ
 102 00be 0022     		movs	r2, #0
 103 00c0 0021     		movs	r1, #0
 104 00c2 4520     		movs	r0, #69
 105 00c4 FFF7FEFF 		bl	HAL_NVIC_SetPriority
 106 00c8 4520     		movs	r0, #69
 107 00ca FFF7FEFF 		bl	HAL_NVIC_EnableIRQ
 108 00ce 00BF     		nop
 109 00d0 0837     		adds	r7, r7, #8
 110 00d2 BD46     		mov	sp, r7
 111              		@ sp needed
 112 00d4 80BD     		pop	{r7, pc}
 113              	.L3:
 114 00d6 00BF     		.align	2
 115              	.L2:
ARM GAS  C:\Users\user\AppData\Local\Temp\ccSG9rQF.s 			page 3


 116 00d8 00380240 		.word	1073887232
 118              		.ident	"GCC: (GNU Tools for STM32 12.3.rel1.20240306-1730) 12.3.1 20230626"
ARM GAS  C:\Users\user\AppData\Local\Temp\ccSG9rQF.s 			page 4


DEFINED SYMBOLS
                            *ABS*:00000000 dma.c
C:\Users\user\AppData\Local\Temp\ccSG9rQF.s:18     .text.MX_DMA_Init:00000000 $t
C:\Users\user\AppData\Local\Temp\ccSG9rQF.s:24     .text.MX_DMA_Init:00000000 MX_DMA_Init
C:\Users\user\AppData\Local\Temp\ccSG9rQF.s:116    .text.MX_DMA_Init:000000d8 $d

UNDEFINED SYMBOLS
HAL_NVIC_SetPriority
HAL_NVIC_EnableIRQ
