ARM GAS  C:\Users\user\AppData\Local\Temp\ccnu1L5f.s 			page 1


   1              		.cpu cortex-m4
   2              		.arch armv7e-m
   3              		.fpu fpv4-sp-d16
   4              		.eabi_attribute 27, 1
   5              		.eabi_attribute 28, 1
   6              		.eabi_attribute 20, 1
   7              		.eabi_attribute 21, 1
   8              		.eabi_attribute 23, 3
   9              		.eabi_attribute 24, 1
  10              		.eabi_attribute 25, 1
  11              		.eabi_attribute 26, 1
  12              		.eabi_attribute 30, 6
  13              		.eabi_attribute 34, 1
  14              		.eabi_attribute 18, 4
  15              		.file	"ff.c"
  16              		.text
  17              		.section	.bss.FatFs,"aw",%nobits
  18              		.align	2
  21              	FatFs:
  22 0000 00000000 		.space	4
  23              		.section	.bss.Fsid,"aw",%nobits
  24              		.align	1
  27              	Fsid:
  28 0000 0000     		.space	2
  29              		.section	.bss.Files,"aw",%nobits
  30              		.align	2
  33              	Files:
  34 0000 00000000 		.space	32
  34      00000000 
  34      00000000 
  34      00000000 
  34      00000000 
  35              		.section	.bss.LfnBuf,"aw",%nobits
  36              		.align	2
  39              	LfnBuf:
  40 0000 00000000 		.space	512
  40      00000000 
  40      00000000 
  40      00000000 
  40      00000000 
  41              		.section	.rodata.ExCvt,"a"
  42              		.align	2
  45              	ExCvt:
  46 0000 43554541 		.ascii	"CUEAAAACEEEIIIAAE\222\222OOOUUYOUO\234O\236\237AIOU"
  46      41414143 
  46      45454549 
  46      49494141 
  46      4592924F 
  47 0024 A5A5A6A7 		.ascii	"\245\245\246\247\250\251\252\253\254\255\256\257\260"
  47      A8A9AAAB 
  47      ACADAEAF 
  47      B0
  48 0031 B1B2B3B4 		.ascii	"\261\262\263\264AAA\270\271\272\273\274\275\276\277"
  48      414141B8 
  48      B9BABBBC 
  48      BDBEBF
  49 0040 C0C1C2C3 		.ascii	"\300\301\302\303\304\305AA\310\311\312\313\314\315\316"
ARM GAS  C:\Users\user\AppData\Local\Temp\ccnu1L5f.s 			page 2


  49      C4C54141 
  49      C8C9CACB 
  49      CCCDCE
  50 004f CFD1D145 		.ascii	"\317\321\321EEEIIII\331\332\333\334\335I\337O\341OO"
  50      45454949 
  50      4949D9DA 
  50      DBDCDD49 
  50      DF4FE14F 
  51 0064 4F4FE6E8 		.ascii	"OO\346\350\350UUUYY\356\357\360\361\362\363\364\365"
  51      E8555555 
  51      5959EEEF 
  51      F0F1F2F3 
  51      F4F5
  52 0076 F6F7F8F9 		.ascii	"\366\367\370\371\372\373\374\375\376\377"
  52      FAFBFCFD 
  52      FEFF
  53              		.section	.text.ld_word,"ax",%progbits
  54              		.align	1
  55              		.syntax unified
  56              		.thumb
  57              		.thumb_func
  59              	ld_word:
  60              		@ args = 0, pretend = 0, frame = 16
  61              		@ frame_needed = 1, uses_anonymous_args = 0
  62              		@ link register save eliminated.
  63 0000 80B4     		push	{r7}
  64 0002 85B0     		sub	sp, sp, #20
  65 0004 00AF     		add	r7, sp, #0
  66 0006 7860     		str	r0, [r7, #4]
  67 0008 7B68     		ldr	r3, [r7, #4]
  68 000a 0133     		adds	r3, r3, #1
  69 000c 1B78     		ldrb	r3, [r3]	@ zero_extendqisi2
  70 000e FB81     		strh	r3, [r7, #14]	@ movhi
  71 0010 FB89     		ldrh	r3, [r7, #14]
  72 0012 1B02     		lsls	r3, r3, #8
  73 0014 1AB2     		sxth	r2, r3
  74 0016 7B68     		ldr	r3, [r7, #4]
  75 0018 1B78     		ldrb	r3, [r3]	@ zero_extendqisi2
  76 001a 1BB2     		sxth	r3, r3
  77 001c 1343     		orrs	r3, r3, r2
  78 001e 1BB2     		sxth	r3, r3
  79 0020 FB81     		strh	r3, [r7, #14]	@ movhi
  80 0022 FB89     		ldrh	r3, [r7, #14]
  81 0024 1846     		mov	r0, r3
  82 0026 1437     		adds	r7, r7, #20
  83 0028 BD46     		mov	sp, r7
  84              		@ sp needed
  85 002a 5DF8047B 		ldr	r7, [sp], #4
  86 002e 7047     		bx	lr
  88              		.section	.text.ld_dword,"ax",%progbits
  89              		.align	1
  90              		.syntax unified
  91              		.thumb
  92              		.thumb_func
  94              	ld_dword:
  95              		@ args = 0, pretend = 0, frame = 16
  96              		@ frame_needed = 1, uses_anonymous_args = 0
ARM GAS  C:\Users\user\AppData\Local\Temp\ccnu1L5f.s 			page 3


  97              		@ link register save eliminated.
  98 0000 80B4     		push	{r7}
  99 0002 85B0     		sub	sp, sp, #20
 100 0004 00AF     		add	r7, sp, #0
 101 0006 7860     		str	r0, [r7, #4]
 102 0008 7B68     		ldr	r3, [r7, #4]
 103 000a 0333     		adds	r3, r3, #3
 104 000c 1B78     		ldrb	r3, [r3]	@ zero_extendqisi2
 105 000e FB60     		str	r3, [r7, #12]
 106 0010 FB68     		ldr	r3, [r7, #12]
 107 0012 1B02     		lsls	r3, r3, #8
 108 0014 7A68     		ldr	r2, [r7, #4]
 109 0016 0232     		adds	r2, r2, #2
 110 0018 1278     		ldrb	r2, [r2]	@ zero_extendqisi2
 111 001a 1343     		orrs	r3, r3, r2
 112 001c FB60     		str	r3, [r7, #12]
 113 001e FB68     		ldr	r3, [r7, #12]
 114 0020 1B02     		lsls	r3, r3, #8
 115 0022 7A68     		ldr	r2, [r7, #4]
 116 0024 0132     		adds	r2, r2, #1
 117 0026 1278     		ldrb	r2, [r2]	@ zero_extendqisi2
 118 0028 1343     		orrs	r3, r3, r2
 119 002a FB60     		str	r3, [r7, #12]
 120 002c FB68     		ldr	r3, [r7, #12]
 121 002e 1B02     		lsls	r3, r3, #8
 122 0030 7A68     		ldr	r2, [r7, #4]
 123 0032 1278     		ldrb	r2, [r2]	@ zero_extendqisi2
 124 0034 1343     		orrs	r3, r3, r2
 125 0036 FB60     		str	r3, [r7, #12]
 126 0038 FB68     		ldr	r3, [r7, #12]
 127 003a 1846     		mov	r0, r3
 128 003c 1437     		adds	r7, r7, #20
 129 003e BD46     		mov	sp, r7
 130              		@ sp needed
 131 0040 5DF8047B 		ldr	r7, [sp], #4
 132 0044 7047     		bx	lr
 134              		.section	.text.st_word,"ax",%progbits
 135              		.align	1
 136              		.syntax unified
 137              		.thumb
 138              		.thumb_func
 140              	st_word:
 141              		@ args = 0, pretend = 0, frame = 8
 142              		@ frame_needed = 1, uses_anonymous_args = 0
 143              		@ link register save eliminated.
 144 0000 80B4     		push	{r7}
 145 0002 83B0     		sub	sp, sp, #12
 146 0004 00AF     		add	r7, sp, #0
 147 0006 7860     		str	r0, [r7, #4]
 148 0008 0B46     		mov	r3, r1
 149 000a 7B80     		strh	r3, [r7, #2]	@ movhi
 150 000c 7B68     		ldr	r3, [r7, #4]
 151 000e 5A1C     		adds	r2, r3, #1
 152 0010 7A60     		str	r2, [r7, #4]
 153 0012 7A88     		ldrh	r2, [r7, #2]	@ movhi
 154 0014 D2B2     		uxtb	r2, r2
 155 0016 1A70     		strb	r2, [r3]
ARM GAS  C:\Users\user\AppData\Local\Temp\ccnu1L5f.s 			page 4


 156 0018 7B88     		ldrh	r3, [r7, #2]
 157 001a 1B0A     		lsrs	r3, r3, #8
 158 001c 7B80     		strh	r3, [r7, #2]	@ movhi
 159 001e 7B68     		ldr	r3, [r7, #4]
 160 0020 5A1C     		adds	r2, r3, #1
 161 0022 7A60     		str	r2, [r7, #4]
 162 0024 7A88     		ldrh	r2, [r7, #2]	@ movhi
 163 0026 D2B2     		uxtb	r2, r2
 164 0028 1A70     		strb	r2, [r3]
 165 002a 00BF     		nop
 166 002c 0C37     		adds	r7, r7, #12
 167 002e BD46     		mov	sp, r7
 168              		@ sp needed
 169 0030 5DF8047B 		ldr	r7, [sp], #4
 170 0034 7047     		bx	lr
 172              		.section	.text.st_dword,"ax",%progbits
 173              		.align	1
 174              		.syntax unified
 175              		.thumb
 176              		.thumb_func
 178              	st_dword:
 179              		@ args = 0, pretend = 0, frame = 8
 180              		@ frame_needed = 1, uses_anonymous_args = 0
 181              		@ link register save eliminated.
 182 0000 80B4     		push	{r7}
 183 0002 83B0     		sub	sp, sp, #12
 184 0004 00AF     		add	r7, sp, #0
 185 0006 7860     		str	r0, [r7, #4]
 186 0008 3960     		str	r1, [r7]
 187 000a 7B68     		ldr	r3, [r7, #4]
 188 000c 5A1C     		adds	r2, r3, #1
 189 000e 7A60     		str	r2, [r7, #4]
 190 0010 3A68     		ldr	r2, [r7]
 191 0012 D2B2     		uxtb	r2, r2
 192 0014 1A70     		strb	r2, [r3]
 193 0016 3B68     		ldr	r3, [r7]
 194 0018 1B0A     		lsrs	r3, r3, #8
 195 001a 3B60     		str	r3, [r7]
 196 001c 7B68     		ldr	r3, [r7, #4]
 197 001e 5A1C     		adds	r2, r3, #1
 198 0020 7A60     		str	r2, [r7, #4]
 199 0022 3A68     		ldr	r2, [r7]
 200 0024 D2B2     		uxtb	r2, r2
 201 0026 1A70     		strb	r2, [r3]
 202 0028 3B68     		ldr	r3, [r7]
 203 002a 1B0A     		lsrs	r3, r3, #8
 204 002c 3B60     		str	r3, [r7]
 205 002e 7B68     		ldr	r3, [r7, #4]
 206 0030 5A1C     		adds	r2, r3, #1
 207 0032 7A60     		str	r2, [r7, #4]
 208 0034 3A68     		ldr	r2, [r7]
 209 0036 D2B2     		uxtb	r2, r2
 210 0038 1A70     		strb	r2, [r3]
 211 003a 3B68     		ldr	r3, [r7]
 212 003c 1B0A     		lsrs	r3, r3, #8
 213 003e 3B60     		str	r3, [r7]
 214 0040 7B68     		ldr	r3, [r7, #4]
ARM GAS  C:\Users\user\AppData\Local\Temp\ccnu1L5f.s 			page 5


 215 0042 5A1C     		adds	r2, r3, #1
 216 0044 7A60     		str	r2, [r7, #4]
 217 0046 3A68     		ldr	r2, [r7]
 218 0048 D2B2     		uxtb	r2, r2
 219 004a 1A70     		strb	r2, [r3]
 220 004c 00BF     		nop
 221 004e 0C37     		adds	r7, r7, #12
 222 0050 BD46     		mov	sp, r7
 223              		@ sp needed
 224 0052 5DF8047B 		ldr	r7, [sp], #4
 225 0056 7047     		bx	lr
 227              		.section	.text.mem_cpy,"ax",%progbits
 228              		.align	1
 229              		.syntax unified
 230              		.thumb
 231              		.thumb_func
 233              	mem_cpy:
 234              		@ args = 0, pretend = 0, frame = 24
 235              		@ frame_needed = 1, uses_anonymous_args = 0
 236              		@ link register save eliminated.
 237 0000 80B4     		push	{r7}
 238 0002 87B0     		sub	sp, sp, #28
 239 0004 00AF     		add	r7, sp, #0
 240 0006 F860     		str	r0, [r7, #12]
 241 0008 B960     		str	r1, [r7, #8]
 242 000a 7A60     		str	r2, [r7, #4]
 243 000c FB68     		ldr	r3, [r7, #12]
 244 000e 7B61     		str	r3, [r7, #20]
 245 0010 BB68     		ldr	r3, [r7, #8]
 246 0012 3B61     		str	r3, [r7, #16]
 247 0014 7B68     		ldr	r3, [r7, #4]
 248 0016 002B     		cmp	r3, #0
 249 0018 0DD0     		beq	.L10
 250              	.L9:
 251 001a 3A69     		ldr	r2, [r7, #16]
 252 001c 531C     		adds	r3, r2, #1
 253 001e 3B61     		str	r3, [r7, #16]
 254 0020 7B69     		ldr	r3, [r7, #20]
 255 0022 591C     		adds	r1, r3, #1
 256 0024 7961     		str	r1, [r7, #20]
 257 0026 1278     		ldrb	r2, [r2]	@ zero_extendqisi2
 258 0028 1A70     		strb	r2, [r3]
 259 002a 7B68     		ldr	r3, [r7, #4]
 260 002c 013B     		subs	r3, r3, #1
 261 002e 7B60     		str	r3, [r7, #4]
 262 0030 7B68     		ldr	r3, [r7, #4]
 263 0032 002B     		cmp	r3, #0
 264 0034 F1D1     		bne	.L9
 265              	.L10:
 266 0036 00BF     		nop
 267 0038 1C37     		adds	r7, r7, #28
 268 003a BD46     		mov	sp, r7
 269              		@ sp needed
 270 003c 5DF8047B 		ldr	r7, [sp], #4
 271 0040 7047     		bx	lr
 273              		.section	.text.mem_set,"ax",%progbits
 274              		.align	1
ARM GAS  C:\Users\user\AppData\Local\Temp\ccnu1L5f.s 			page 6


 275              		.syntax unified
 276              		.thumb
 277              		.thumb_func
 279              	mem_set:
 280              		@ args = 0, pretend = 0, frame = 24
 281              		@ frame_needed = 1, uses_anonymous_args = 0
 282              		@ link register save eliminated.
 283 0000 80B4     		push	{r7}
 284 0002 87B0     		sub	sp, sp, #28
 285 0004 00AF     		add	r7, sp, #0
 286 0006 F860     		str	r0, [r7, #12]
 287 0008 B960     		str	r1, [r7, #8]
 288 000a 7A60     		str	r2, [r7, #4]
 289 000c FB68     		ldr	r3, [r7, #12]
 290 000e 7B61     		str	r3, [r7, #20]
 291              	.L12:
 292 0010 7B69     		ldr	r3, [r7, #20]
 293 0012 5A1C     		adds	r2, r3, #1
 294 0014 7A61     		str	r2, [r7, #20]
 295 0016 BA68     		ldr	r2, [r7, #8]
 296 0018 D2B2     		uxtb	r2, r2
 297 001a 1A70     		strb	r2, [r3]
 298 001c 7B68     		ldr	r3, [r7, #4]
 299 001e 013B     		subs	r3, r3, #1
 300 0020 7B60     		str	r3, [r7, #4]
 301 0022 7B68     		ldr	r3, [r7, #4]
 302 0024 002B     		cmp	r3, #0
 303 0026 F3D1     		bne	.L12
 304 0028 00BF     		nop
 305 002a 00BF     		nop
 306 002c 1C37     		adds	r7, r7, #28
 307 002e BD46     		mov	sp, r7
 308              		@ sp needed
 309 0030 5DF8047B 		ldr	r7, [sp], #4
 310 0034 7047     		bx	lr
 312              		.section	.text.mem_cmp,"ax",%progbits
 313              		.align	1
 314              		.syntax unified
 315              		.thumb
 316              		.thumb_func
 318              	mem_cmp:
 319              		@ args = 0, pretend = 0, frame = 32
 320              		@ frame_needed = 1, uses_anonymous_args = 0
 321              		@ link register save eliminated.
 322 0000 80B4     		push	{r7}
 323 0002 89B0     		sub	sp, sp, #36
 324 0004 00AF     		add	r7, sp, #0
 325 0006 F860     		str	r0, [r7, #12]
 326 0008 B960     		str	r1, [r7, #8]
 327 000a 7A60     		str	r2, [r7, #4]
 328 000c FB68     		ldr	r3, [r7, #12]
 329 000e FB61     		str	r3, [r7, #28]
 330 0010 BB68     		ldr	r3, [r7, #8]
 331 0012 BB61     		str	r3, [r7, #24]
 332 0014 0023     		movs	r3, #0
 333 0016 7B61     		str	r3, [r7, #20]
 334              	.L15:
ARM GAS  C:\Users\user\AppData\Local\Temp\ccnu1L5f.s 			page 7


 335 0018 FB69     		ldr	r3, [r7, #28]
 336 001a 5A1C     		adds	r2, r3, #1
 337 001c FA61     		str	r2, [r7, #28]
 338 001e 1B78     		ldrb	r3, [r3]	@ zero_extendqisi2
 339 0020 1946     		mov	r1, r3
 340 0022 BB69     		ldr	r3, [r7, #24]
 341 0024 5A1C     		adds	r2, r3, #1
 342 0026 BA61     		str	r2, [r7, #24]
 343 0028 1B78     		ldrb	r3, [r3]	@ zero_extendqisi2
 344 002a CB1A     		subs	r3, r1, r3
 345 002c 7B61     		str	r3, [r7, #20]
 346 002e 7B68     		ldr	r3, [r7, #4]
 347 0030 013B     		subs	r3, r3, #1
 348 0032 7B60     		str	r3, [r7, #4]
 349 0034 7B68     		ldr	r3, [r7, #4]
 350 0036 002B     		cmp	r3, #0
 351 0038 02D0     		beq	.L14
 352 003a 7B69     		ldr	r3, [r7, #20]
 353 003c 002B     		cmp	r3, #0
 354 003e EBD0     		beq	.L15
 355              	.L14:
 356 0040 7B69     		ldr	r3, [r7, #20]
 357 0042 1846     		mov	r0, r3
 358 0044 2437     		adds	r7, r7, #36
 359 0046 BD46     		mov	sp, r7
 360              		@ sp needed
 361 0048 5DF8047B 		ldr	r7, [sp], #4
 362 004c 7047     		bx	lr
 364              		.section	.text.chk_chr,"ax",%progbits
 365              		.align	1
 366              		.syntax unified
 367              		.thumb
 368              		.thumb_func
 370              	chk_chr:
 371              		@ args = 0, pretend = 0, frame = 8
 372              		@ frame_needed = 1, uses_anonymous_args = 0
 373              		@ link register save eliminated.
 374 0000 80B4     		push	{r7}
 375 0002 83B0     		sub	sp, sp, #12
 376 0004 00AF     		add	r7, sp, #0
 377 0006 7860     		str	r0, [r7, #4]
 378 0008 3960     		str	r1, [r7]
 379 000a 02E0     		b	.L18
 380              	.L20:
 381 000c 7B68     		ldr	r3, [r7, #4]
 382 000e 0133     		adds	r3, r3, #1
 383 0010 7B60     		str	r3, [r7, #4]
 384              	.L18:
 385 0012 7B68     		ldr	r3, [r7, #4]
 386 0014 1B78     		ldrb	r3, [r3]	@ zero_extendqisi2
 387 0016 002B     		cmp	r3, #0
 388 0018 05D0     		beq	.L19
 389 001a 7B68     		ldr	r3, [r7, #4]
 390 001c 1B78     		ldrb	r3, [r3]	@ zero_extendqisi2
 391 001e 1A46     		mov	r2, r3
 392 0020 3B68     		ldr	r3, [r7]
 393 0022 9342     		cmp	r3, r2
ARM GAS  C:\Users\user\AppData\Local\Temp\ccnu1L5f.s 			page 8


 394 0024 F2D1     		bne	.L20
 395              	.L19:
 396 0026 7B68     		ldr	r3, [r7, #4]
 397 0028 1B78     		ldrb	r3, [r3]	@ zero_extendqisi2
 398 002a 1846     		mov	r0, r3
 399 002c 0C37     		adds	r7, r7, #12
 400 002e BD46     		mov	sp, r7
 401              		@ sp needed
 402 0030 5DF8047B 		ldr	r7, [sp], #4
 403 0034 7047     		bx	lr
 405              		.section	.text.chk_lock,"ax",%progbits
 406              		.align	1
 407              		.syntax unified
 408              		.thumb
 409              		.thumb_func
 411              	chk_lock:
 412              		@ args = 0, pretend = 0, frame = 16
 413              		@ frame_needed = 1, uses_anonymous_args = 0
 414              		@ link register save eliminated.
 415 0000 80B4     		push	{r7}
 416 0002 85B0     		sub	sp, sp, #20
 417 0004 00AF     		add	r7, sp, #0
 418 0006 7860     		str	r0, [r7, #4]
 419 0008 3960     		str	r1, [r7]
 420 000a 0023     		movs	r3, #0
 421 000c BB60     		str	r3, [r7, #8]
 422 000e BB68     		ldr	r3, [r7, #8]
 423 0010 FB60     		str	r3, [r7, #12]
 424 0012 29E0     		b	.L23
 425              	.L27:
 426 0014 274A     		ldr	r2, .L36
 427 0016 FB68     		ldr	r3, [r7, #12]
 428 0018 1B01     		lsls	r3, r3, #4
 429 001a 1344     		add	r3, r3, r2
 430 001c 1B68     		ldr	r3, [r3]
 431 001e 002B     		cmp	r3, #0
 432 0020 1DD0     		beq	.L24
 433 0022 244A     		ldr	r2, .L36
 434 0024 FB68     		ldr	r3, [r7, #12]
 435 0026 1B01     		lsls	r3, r3, #4
 436 0028 1344     		add	r3, r3, r2
 437 002a 1A68     		ldr	r2, [r3]
 438 002c 7B68     		ldr	r3, [r7, #4]
 439 002e 1B68     		ldr	r3, [r3]
 440 0030 9A42     		cmp	r2, r3
 441 0032 16D1     		bne	.L25
 442 0034 1F4A     		ldr	r2, .L36
 443 0036 FB68     		ldr	r3, [r7, #12]
 444 0038 1B01     		lsls	r3, r3, #4
 445 003a 1344     		add	r3, r3, r2
 446 003c 0433     		adds	r3, r3, #4
 447 003e 1A68     		ldr	r2, [r3]
 448 0040 7B68     		ldr	r3, [r7, #4]
 449 0042 9B68     		ldr	r3, [r3, #8]
 450 0044 9A42     		cmp	r2, r3
 451 0046 0CD1     		bne	.L25
 452 0048 1A4A     		ldr	r2, .L36
ARM GAS  C:\Users\user\AppData\Local\Temp\ccnu1L5f.s 			page 9


 453 004a FB68     		ldr	r3, [r7, #12]
 454 004c 1B01     		lsls	r3, r3, #4
 455 004e 1344     		add	r3, r3, r2
 456 0050 0833     		adds	r3, r3, #8
 457 0052 1A68     		ldr	r2, [r3]
 458 0054 7B68     		ldr	r3, [r7, #4]
 459 0056 5B69     		ldr	r3, [r3, #20]
 460 0058 9A42     		cmp	r2, r3
 461 005a 02D1     		bne	.L25
 462 005c 07E0     		b	.L26
 463              	.L24:
 464 005e 0123     		movs	r3, #1
 465 0060 BB60     		str	r3, [r7, #8]
 466              	.L25:
 467 0062 FB68     		ldr	r3, [r7, #12]
 468 0064 0133     		adds	r3, r3, #1
 469 0066 FB60     		str	r3, [r7, #12]
 470              	.L23:
 471 0068 FB68     		ldr	r3, [r7, #12]
 472 006a 012B     		cmp	r3, #1
 473 006c D2D9     		bls	.L27
 474              	.L26:
 475 006e FB68     		ldr	r3, [r7, #12]
 476 0070 022B     		cmp	r3, #2
 477 0072 09D1     		bne	.L28
 478 0074 BB68     		ldr	r3, [r7, #8]
 479 0076 002B     		cmp	r3, #0
 480 0078 02D1     		bne	.L29
 481 007a 3B68     		ldr	r3, [r7]
 482 007c 022B     		cmp	r3, #2
 483 007e 01D1     		bne	.L30
 484              	.L29:
 485 0080 0023     		movs	r3, #0
 486 0082 10E0     		b	.L32
 487              	.L30:
 488 0084 1223     		movs	r3, #18
 489 0086 0EE0     		b	.L32
 490              	.L28:
 491 0088 3B68     		ldr	r3, [r7]
 492 008a 002B     		cmp	r3, #0
 493 008c 08D1     		bne	.L33
 494 008e 094A     		ldr	r2, .L36
 495 0090 FB68     		ldr	r3, [r7, #12]
 496 0092 1B01     		lsls	r3, r3, #4
 497 0094 1344     		add	r3, r3, r2
 498 0096 0C33     		adds	r3, r3, #12
 499 0098 1B88     		ldrh	r3, [r3]
 500 009a B3F5807F 		cmp	r3, #256
 501 009e 01D1     		bne	.L34
 502              	.L33:
 503 00a0 1023     		movs	r3, #16
 504 00a2 00E0     		b	.L32
 505              	.L34:
 506 00a4 0023     		movs	r3, #0
 507              	.L32:
 508 00a6 1846     		mov	r0, r3
 509 00a8 1437     		adds	r7, r7, #20
ARM GAS  C:\Users\user\AppData\Local\Temp\ccnu1L5f.s 			page 10


 510 00aa BD46     		mov	sp, r7
 511              		@ sp needed
 512 00ac 5DF8047B 		ldr	r7, [sp], #4
 513 00b0 7047     		bx	lr
 514              	.L37:
 515 00b2 00BF     		.align	2
 516              	.L36:
 517 00b4 00000000 		.word	Files
 519              		.section	.text.enq_lock,"ax",%progbits
 520              		.align	1
 521              		.syntax unified
 522              		.thumb
 523              		.thumb_func
 525              	enq_lock:
 526              		@ args = 0, pretend = 0, frame = 8
 527              		@ frame_needed = 1, uses_anonymous_args = 0
 528              		@ link register save eliminated.
 529 0000 80B4     		push	{r7}
 530 0002 83B0     		sub	sp, sp, #12
 531 0004 00AF     		add	r7, sp, #0
 532 0006 0023     		movs	r3, #0
 533 0008 7B60     		str	r3, [r7, #4]
 534 000a 02E0     		b	.L39
 535              	.L41:
 536 000c 7B68     		ldr	r3, [r7, #4]
 537 000e 0133     		adds	r3, r3, #1
 538 0010 7B60     		str	r3, [r7, #4]
 539              	.L39:
 540 0012 7B68     		ldr	r3, [r7, #4]
 541 0014 012B     		cmp	r3, #1
 542 0016 06D8     		bhi	.L40
 543 0018 094A     		ldr	r2, .L43
 544 001a 7B68     		ldr	r3, [r7, #4]
 545 001c 1B01     		lsls	r3, r3, #4
 546 001e 1344     		add	r3, r3, r2
 547 0020 1B68     		ldr	r3, [r3]
 548 0022 002B     		cmp	r3, #0
 549 0024 F2D1     		bne	.L41
 550              	.L40:
 551 0026 7B68     		ldr	r3, [r7, #4]
 552 0028 022B     		cmp	r3, #2
 553 002a 14BF     		ite	ne
 554 002c 0123     		movne	r3, #1
 555 002e 0023     		moveq	r3, #0
 556 0030 DBB2     		uxtb	r3, r3
 557 0032 1846     		mov	r0, r3
 558 0034 0C37     		adds	r7, r7, #12
 559 0036 BD46     		mov	sp, r7
 560              		@ sp needed
 561 0038 5DF8047B 		ldr	r7, [sp], #4
 562 003c 7047     		bx	lr
 563              	.L44:
 564 003e 00BF     		.align	2
 565              	.L43:
 566 0040 00000000 		.word	Files
 568              		.section	.text.inc_lock,"ax",%progbits
 569              		.align	1
ARM GAS  C:\Users\user\AppData\Local\Temp\ccnu1L5f.s 			page 11


 570              		.syntax unified
 571              		.thumb
 572              		.thumb_func
 574              	inc_lock:
 575              		@ args = 0, pretend = 0, frame = 16
 576              		@ frame_needed = 1, uses_anonymous_args = 0
 577              		@ link register save eliminated.
 578 0000 80B4     		push	{r7}
 579 0002 85B0     		sub	sp, sp, #20
 580 0004 00AF     		add	r7, sp, #0
 581 0006 7860     		str	r0, [r7, #4]
 582 0008 3960     		str	r1, [r7]
 583 000a 0023     		movs	r3, #0
 584 000c FB60     		str	r3, [r7, #12]
 585 000e 1FE0     		b	.L46
 586              	.L49:
 587 0010 414A     		ldr	r2, .L60
 588 0012 FB68     		ldr	r3, [r7, #12]
 589 0014 1B01     		lsls	r3, r3, #4
 590 0016 1344     		add	r3, r3, r2
 591 0018 1A68     		ldr	r2, [r3]
 592 001a 7B68     		ldr	r3, [r7, #4]
 593 001c 1B68     		ldr	r3, [r3]
 594 001e 9A42     		cmp	r2, r3
 595 0020 13D1     		bne	.L47
 596 0022 3D4A     		ldr	r2, .L60
 597 0024 FB68     		ldr	r3, [r7, #12]
 598 0026 1B01     		lsls	r3, r3, #4
 599 0028 1344     		add	r3, r3, r2
 600 002a 0433     		adds	r3, r3, #4
 601 002c 1A68     		ldr	r2, [r3]
 602 002e 7B68     		ldr	r3, [r7, #4]
 603 0030 9B68     		ldr	r3, [r3, #8]
 604 0032 9A42     		cmp	r2, r3
 605 0034 09D1     		bne	.L47
 606 0036 384A     		ldr	r2, .L60
 607 0038 FB68     		ldr	r3, [r7, #12]
 608 003a 1B01     		lsls	r3, r3, #4
 609 003c 1344     		add	r3, r3, r2
 610 003e 0833     		adds	r3, r3, #8
 611 0040 1A68     		ldr	r2, [r3]
 612 0042 7B68     		ldr	r3, [r7, #4]
 613 0044 5B69     		ldr	r3, [r3, #20]
 614 0046 9A42     		cmp	r2, r3
 615 0048 06D0     		beq	.L59
 616              	.L47:
 617 004a FB68     		ldr	r3, [r7, #12]
 618 004c 0133     		adds	r3, r3, #1
 619 004e FB60     		str	r3, [r7, #12]
 620              	.L46:
 621 0050 FB68     		ldr	r3, [r7, #12]
 622 0052 012B     		cmp	r3, #1
 623 0054 DCD9     		bls	.L49
 624 0056 00E0     		b	.L48
 625              	.L59:
 626 0058 00BF     		nop
 627              	.L48:
ARM GAS  C:\Users\user\AppData\Local\Temp\ccnu1L5f.s 			page 12


 628 005a FB68     		ldr	r3, [r7, #12]
 629 005c 022B     		cmp	r3, #2
 630 005e 32D1     		bne	.L50
 631 0060 0023     		movs	r3, #0
 632 0062 FB60     		str	r3, [r7, #12]
 633 0064 02E0     		b	.L51
 634              	.L53:
 635 0066 FB68     		ldr	r3, [r7, #12]
 636 0068 0133     		adds	r3, r3, #1
 637 006a FB60     		str	r3, [r7, #12]
 638              	.L51:
 639 006c FB68     		ldr	r3, [r7, #12]
 640 006e 012B     		cmp	r3, #1
 641 0070 06D8     		bhi	.L52
 642 0072 294A     		ldr	r2, .L60
 643 0074 FB68     		ldr	r3, [r7, #12]
 644 0076 1B01     		lsls	r3, r3, #4
 645 0078 1344     		add	r3, r3, r2
 646 007a 1B68     		ldr	r3, [r3]
 647 007c 002B     		cmp	r3, #0
 648 007e F2D1     		bne	.L53
 649              	.L52:
 650 0080 FB68     		ldr	r3, [r7, #12]
 651 0082 022B     		cmp	r3, #2
 652 0084 01D1     		bne	.L54
 653 0086 0023     		movs	r3, #0
 654 0088 40E0     		b	.L55
 655              	.L54:
 656 008a 7B68     		ldr	r3, [r7, #4]
 657 008c 1A68     		ldr	r2, [r3]
 658 008e 2249     		ldr	r1, .L60
 659 0090 FB68     		ldr	r3, [r7, #12]
 660 0092 1B01     		lsls	r3, r3, #4
 661 0094 0B44     		add	r3, r3, r1
 662 0096 1A60     		str	r2, [r3]
 663 0098 7B68     		ldr	r3, [r7, #4]
 664 009a 9A68     		ldr	r2, [r3, #8]
 665 009c 1E49     		ldr	r1, .L60
 666 009e FB68     		ldr	r3, [r7, #12]
 667 00a0 1B01     		lsls	r3, r3, #4
 668 00a2 0B44     		add	r3, r3, r1
 669 00a4 0433     		adds	r3, r3, #4
 670 00a6 1A60     		str	r2, [r3]
 671 00a8 7B68     		ldr	r3, [r7, #4]
 672 00aa 5A69     		ldr	r2, [r3, #20]
 673 00ac 1A49     		ldr	r1, .L60
 674 00ae FB68     		ldr	r3, [r7, #12]
 675 00b0 1B01     		lsls	r3, r3, #4
 676 00b2 0B44     		add	r3, r3, r1
 677 00b4 0833     		adds	r3, r3, #8
 678 00b6 1A60     		str	r2, [r3]
 679 00b8 174A     		ldr	r2, .L60
 680 00ba FB68     		ldr	r3, [r7, #12]
 681 00bc 1B01     		lsls	r3, r3, #4
 682 00be 1344     		add	r3, r3, r2
 683 00c0 0C33     		adds	r3, r3, #12
 684 00c2 0022     		movs	r2, #0
ARM GAS  C:\Users\user\AppData\Local\Temp\ccnu1L5f.s 			page 13


 685 00c4 1A80     		strh	r2, [r3]	@ movhi
 686              	.L50:
 687 00c6 3B68     		ldr	r3, [r7]
 688 00c8 002B     		cmp	r3, #0
 689 00ca 09D0     		beq	.L56
 690 00cc 124A     		ldr	r2, .L60
 691 00ce FB68     		ldr	r3, [r7, #12]
 692 00d0 1B01     		lsls	r3, r3, #4
 693 00d2 1344     		add	r3, r3, r2
 694 00d4 0C33     		adds	r3, r3, #12
 695 00d6 1B88     		ldrh	r3, [r3]
 696 00d8 002B     		cmp	r3, #0
 697 00da 01D0     		beq	.L56
 698 00dc 0023     		movs	r3, #0
 699 00de 15E0     		b	.L55
 700              	.L56:
 701 00e0 3B68     		ldr	r3, [r7]
 702 00e2 002B     		cmp	r3, #0
 703 00e4 08D1     		bne	.L57
 704 00e6 0C4A     		ldr	r2, .L60
 705 00e8 FB68     		ldr	r3, [r7, #12]
 706 00ea 1B01     		lsls	r3, r3, #4
 707 00ec 1344     		add	r3, r3, r2
 708 00ee 0C33     		adds	r3, r3, #12
 709 00f0 1B88     		ldrh	r3, [r3]
 710 00f2 0133     		adds	r3, r3, #1
 711 00f4 9AB2     		uxth	r2, r3
 712 00f6 01E0     		b	.L58
 713              	.L57:
 714 00f8 4FF48072 		mov	r2, #256
 715              	.L58:
 716 00fc 0649     		ldr	r1, .L60
 717 00fe FB68     		ldr	r3, [r7, #12]
 718 0100 1B01     		lsls	r3, r3, #4
 719 0102 0B44     		add	r3, r3, r1
 720 0104 0C33     		adds	r3, r3, #12
 721 0106 1A80     		strh	r2, [r3]	@ movhi
 722 0108 FB68     		ldr	r3, [r7, #12]
 723 010a 0133     		adds	r3, r3, #1
 724              	.L55:
 725 010c 1846     		mov	r0, r3
 726 010e 1437     		adds	r7, r7, #20
 727 0110 BD46     		mov	sp, r7
 728              		@ sp needed
 729 0112 5DF8047B 		ldr	r7, [sp], #4
 730 0116 7047     		bx	lr
 731              	.L61:
 732              		.align	2
 733              	.L60:
 734 0118 00000000 		.word	Files
 736              		.section	.text.dec_lock,"ax",%progbits
 737              		.align	1
 738              		.syntax unified
 739              		.thumb
 740              		.thumb_func
 742              	dec_lock:
 743              		@ args = 0, pretend = 0, frame = 16
ARM GAS  C:\Users\user\AppData\Local\Temp\ccnu1L5f.s 			page 14


 744              		@ frame_needed = 1, uses_anonymous_args = 0
 745              		@ link register save eliminated.
 746 0000 80B4     		push	{r7}
 747 0002 85B0     		sub	sp, sp, #20
 748 0004 00AF     		add	r7, sp, #0
 749 0006 7860     		str	r0, [r7, #4]
 750 0008 7B68     		ldr	r3, [r7, #4]
 751 000a 013B     		subs	r3, r3, #1
 752 000c 7B60     		str	r3, [r7, #4]
 753 000e 7B68     		ldr	r3, [r7, #4]
 754 0010 012B     		cmp	r3, #1
 755 0012 25D8     		bhi	.L63
 756 0014 174A     		ldr	r2, .L69
 757 0016 7B68     		ldr	r3, [r7, #4]
 758 0018 1B01     		lsls	r3, r3, #4
 759 001a 1344     		add	r3, r3, r2
 760 001c 0C33     		adds	r3, r3, #12
 761 001e 1B88     		ldrh	r3, [r3]	@ movhi
 762 0020 FB81     		strh	r3, [r7, #14]	@ movhi
 763 0022 FB89     		ldrh	r3, [r7, #14]
 764 0024 B3F5807F 		cmp	r3, #256
 765 0028 01D1     		bne	.L64
 766 002a 0023     		movs	r3, #0
 767 002c FB81     		strh	r3, [r7, #14]	@ movhi
 768              	.L64:
 769 002e FB89     		ldrh	r3, [r7, #14]
 770 0030 002B     		cmp	r3, #0
 771 0032 02D0     		beq	.L65
 772 0034 FB89     		ldrh	r3, [r7, #14]
 773 0036 013B     		subs	r3, r3, #1
 774 0038 FB81     		strh	r3, [r7, #14]	@ movhi
 775              	.L65:
 776 003a 0E4A     		ldr	r2, .L69
 777 003c 7B68     		ldr	r3, [r7, #4]
 778 003e 1B01     		lsls	r3, r3, #4
 779 0040 1344     		add	r3, r3, r2
 780 0042 0C33     		adds	r3, r3, #12
 781 0044 FA89     		ldrh	r2, [r7, #14]	@ movhi
 782 0046 1A80     		strh	r2, [r3]	@ movhi
 783 0048 FB89     		ldrh	r3, [r7, #14]
 784 004a 002B     		cmp	r3, #0
 785 004c 05D1     		bne	.L66
 786 004e 094A     		ldr	r2, .L69
 787 0050 7B68     		ldr	r3, [r7, #4]
 788 0052 1B01     		lsls	r3, r3, #4
 789 0054 1344     		add	r3, r3, r2
 790 0056 0022     		movs	r2, #0
 791 0058 1A60     		str	r2, [r3]
 792              	.L66:
 793 005a 0023     		movs	r3, #0
 794 005c 7B73     		strb	r3, [r7, #13]
 795 005e 01E0     		b	.L67
 796              	.L63:
 797 0060 0223     		movs	r3, #2
 798 0062 7B73     		strb	r3, [r7, #13]
 799              	.L67:
 800 0064 7B7B     		ldrb	r3, [r7, #13]	@ zero_extendqisi2
ARM GAS  C:\Users\user\AppData\Local\Temp\ccnu1L5f.s 			page 15


 801 0066 1846     		mov	r0, r3
 802 0068 1437     		adds	r7, r7, #20
 803 006a BD46     		mov	sp, r7
 804              		@ sp needed
 805 006c 5DF8047B 		ldr	r7, [sp], #4
 806 0070 7047     		bx	lr
 807              	.L70:
 808 0072 00BF     		.align	2
 809              	.L69:
 810 0074 00000000 		.word	Files
 812              		.section	.text.clear_lock,"ax",%progbits
 813              		.align	1
 814              		.syntax unified
 815              		.thumb
 816              		.thumb_func
 818              	clear_lock:
 819              		@ args = 0, pretend = 0, frame = 16
 820              		@ frame_needed = 1, uses_anonymous_args = 0
 821              		@ link register save eliminated.
 822 0000 80B4     		push	{r7}
 823 0002 85B0     		sub	sp, sp, #20
 824 0004 00AF     		add	r7, sp, #0
 825 0006 7860     		str	r0, [r7, #4]
 826 0008 0023     		movs	r3, #0
 827 000a FB60     		str	r3, [r7, #12]
 828 000c 10E0     		b	.L72
 829              	.L74:
 830 000e 0D4A     		ldr	r2, .L75
 831 0010 FB68     		ldr	r3, [r7, #12]
 832 0012 1B01     		lsls	r3, r3, #4
 833 0014 1344     		add	r3, r3, r2
 834 0016 1B68     		ldr	r3, [r3]
 835 0018 7A68     		ldr	r2, [r7, #4]
 836 001a 9A42     		cmp	r2, r3
 837 001c 05D1     		bne	.L73
 838 001e 094A     		ldr	r2, .L75
 839 0020 FB68     		ldr	r3, [r7, #12]
 840 0022 1B01     		lsls	r3, r3, #4
 841 0024 1344     		add	r3, r3, r2
 842 0026 0022     		movs	r2, #0
 843 0028 1A60     		str	r2, [r3]
 844              	.L73:
 845 002a FB68     		ldr	r3, [r7, #12]
 846 002c 0133     		adds	r3, r3, #1
 847 002e FB60     		str	r3, [r7, #12]
 848              	.L72:
 849 0030 FB68     		ldr	r3, [r7, #12]
 850 0032 012B     		cmp	r3, #1
 851 0034 EBD9     		bls	.L74
 852 0036 00BF     		nop
 853 0038 00BF     		nop
 854 003a 1437     		adds	r7, r7, #20
 855 003c BD46     		mov	sp, r7
 856              		@ sp needed
 857 003e 5DF8047B 		ldr	r7, [sp], #4
 858 0042 7047     		bx	lr
 859              	.L76:
ARM GAS  C:\Users\user\AppData\Local\Temp\ccnu1L5f.s 			page 16


 860              		.align	2
 861              	.L75:
 862 0044 00000000 		.word	Files
 864              		.section	.text.sync_window,"ax",%progbits
 865              		.align	1
 866              		.syntax unified
 867              		.thumb
 868              		.thumb_func
 870              	sync_window:
 871              		@ args = 0, pretend = 0, frame = 24
 872              		@ frame_needed = 1, uses_anonymous_args = 0
 873 0000 80B5     		push	{r7, lr}
 874 0002 86B0     		sub	sp, sp, #24
 875 0004 00AF     		add	r7, sp, #0
 876 0006 7860     		str	r0, [r7, #4]
 877 0008 0023     		movs	r3, #0
 878 000a FB73     		strb	r3, [r7, #15]
 879 000c 7B68     		ldr	r3, [r7, #4]
 880 000e DB78     		ldrb	r3, [r3, #3]	@ zero_extendqisi2
 881 0010 002B     		cmp	r3, #0
 882 0012 34D0     		beq	.L78
 883 0014 7B68     		ldr	r3, [r7, #4]
 884 0016 5B6B     		ldr	r3, [r3, #52]
 885 0018 7B61     		str	r3, [r7, #20]
 886 001a 7B68     		ldr	r3, [r7, #4]
 887 001c 5878     		ldrb	r0, [r3, #1]	@ zero_extendqisi2
 888 001e 7B68     		ldr	r3, [r7, #4]
 889 0020 03F13801 		add	r1, r3, #56
 890 0024 0123     		movs	r3, #1
 891 0026 7A69     		ldr	r2, [r7, #20]
 892 0028 FFF7FEFF 		bl	disk_write
 893 002c 0346     		mov	r3, r0
 894 002e 002B     		cmp	r3, #0
 895 0030 02D0     		beq	.L79
 896 0032 0123     		movs	r3, #1
 897 0034 FB73     		strb	r3, [r7, #15]
 898 0036 22E0     		b	.L78
 899              	.L79:
 900 0038 7B68     		ldr	r3, [r7, #4]
 901 003a 0022     		movs	r2, #0
 902 003c DA70     		strb	r2, [r3, #3]
 903 003e 7B68     		ldr	r3, [r7, #4]
 904 0040 9B6A     		ldr	r3, [r3, #40]
 905 0042 7A69     		ldr	r2, [r7, #20]
 906 0044 D21A     		subs	r2, r2, r3
 907 0046 7B68     		ldr	r3, [r7, #4]
 908 0048 1B6A     		ldr	r3, [r3, #32]
 909 004a 9A42     		cmp	r2, r3
 910 004c 17D2     		bcs	.L78
 911 004e 7B68     		ldr	r3, [r7, #4]
 912 0050 9B78     		ldrb	r3, [r3, #2]	@ zero_extendqisi2
 913 0052 3B61     		str	r3, [r7, #16]
 914 0054 10E0     		b	.L80
 915              	.L81:
 916 0056 7B68     		ldr	r3, [r7, #4]
 917 0058 1B6A     		ldr	r3, [r3, #32]
 918 005a 7A69     		ldr	r2, [r7, #20]
ARM GAS  C:\Users\user\AppData\Local\Temp\ccnu1L5f.s 			page 17


 919 005c 1344     		add	r3, r3, r2
 920 005e 7B61     		str	r3, [r7, #20]
 921 0060 7B68     		ldr	r3, [r7, #4]
 922 0062 5878     		ldrb	r0, [r3, #1]	@ zero_extendqisi2
 923 0064 7B68     		ldr	r3, [r7, #4]
 924 0066 03F13801 		add	r1, r3, #56
 925 006a 0123     		movs	r3, #1
 926 006c 7A69     		ldr	r2, [r7, #20]
 927 006e FFF7FEFF 		bl	disk_write
 928 0072 3B69     		ldr	r3, [r7, #16]
 929 0074 013B     		subs	r3, r3, #1
 930 0076 3B61     		str	r3, [r7, #16]
 931              	.L80:
 932 0078 3B69     		ldr	r3, [r7, #16]
 933 007a 012B     		cmp	r3, #1
 934 007c EBD8     		bhi	.L81
 935              	.L78:
 936 007e FB7B     		ldrb	r3, [r7, #15]	@ zero_extendqisi2
 937 0080 1846     		mov	r0, r3
 938 0082 1837     		adds	r7, r7, #24
 939 0084 BD46     		mov	sp, r7
 940              		@ sp needed
 941 0086 80BD     		pop	{r7, pc}
 943              		.section	.text.move_window,"ax",%progbits
 944              		.align	1
 945              		.syntax unified
 946              		.thumb
 947              		.thumb_func
 949              	move_window:
 950              		@ args = 0, pretend = 0, frame = 16
 951              		@ frame_needed = 1, uses_anonymous_args = 0
 952 0000 80B5     		push	{r7, lr}
 953 0002 84B0     		sub	sp, sp, #16
 954 0004 00AF     		add	r7, sp, #0
 955 0006 7860     		str	r0, [r7, #4]
 956 0008 3960     		str	r1, [r7]
 957 000a 0023     		movs	r3, #0
 958 000c FB73     		strb	r3, [r7, #15]
 959 000e 7B68     		ldr	r3, [r7, #4]
 960 0010 5B6B     		ldr	r3, [r3, #52]
 961 0012 3A68     		ldr	r2, [r7]
 962 0014 9A42     		cmp	r2, r3
 963 0016 1BD0     		beq	.L84
 964 0018 7868     		ldr	r0, [r7, #4]
 965 001a FFF7FEFF 		bl	sync_window
 966 001e 0346     		mov	r3, r0
 967 0020 FB73     		strb	r3, [r7, #15]
 968 0022 FB7B     		ldrb	r3, [r7, #15]	@ zero_extendqisi2
 969 0024 002B     		cmp	r3, #0
 970 0026 13D1     		bne	.L84
 971 0028 7B68     		ldr	r3, [r7, #4]
 972 002a 5878     		ldrb	r0, [r3, #1]	@ zero_extendqisi2
 973 002c 7B68     		ldr	r3, [r7, #4]
 974 002e 03F13801 		add	r1, r3, #56
 975 0032 0123     		movs	r3, #1
 976 0034 3A68     		ldr	r2, [r7]
 977 0036 FFF7FEFF 		bl	disk_read
ARM GAS  C:\Users\user\AppData\Local\Temp\ccnu1L5f.s 			page 18


 978 003a 0346     		mov	r3, r0
 979 003c 002B     		cmp	r3, #0
 980 003e 04D0     		beq	.L85
 981 0040 4FF0FF33 		mov	r3, #-1
 982 0044 3B60     		str	r3, [r7]
 983 0046 0123     		movs	r3, #1
 984 0048 FB73     		strb	r3, [r7, #15]
 985              	.L85:
 986 004a 7B68     		ldr	r3, [r7, #4]
 987 004c 3A68     		ldr	r2, [r7]
 988 004e 5A63     		str	r2, [r3, #52]
 989              	.L84:
 990 0050 FB7B     		ldrb	r3, [r7, #15]	@ zero_extendqisi2
 991 0052 1846     		mov	r0, r3
 992 0054 1037     		adds	r7, r7, #16
 993 0056 BD46     		mov	sp, r7
 994              		@ sp needed
 995 0058 80BD     		pop	{r7, pc}
 997              		.section	.text.sync_fs,"ax",%progbits
 998              		.align	1
 999              		.syntax unified
 1000              		.thumb
 1001              		.thumb_func
 1003              	sync_fs:
 1004              		@ args = 0, pretend = 0, frame = 16
 1005              		@ frame_needed = 1, uses_anonymous_args = 0
 1006 0000 80B5     		push	{r7, lr}
 1007 0002 84B0     		sub	sp, sp, #16
 1008 0004 00AF     		add	r7, sp, #0
 1009 0006 7860     		str	r0, [r7, #4]
 1010 0008 7868     		ldr	r0, [r7, #4]
 1011 000a FFF7FEFF 		bl	sync_window
 1012 000e 0346     		mov	r3, r0
 1013 0010 FB73     		strb	r3, [r7, #15]
 1014 0012 FB7B     		ldrb	r3, [r7, #15]	@ zero_extendqisi2
 1015 0014 002B     		cmp	r3, #0
 1016 0016 59D1     		bne	.L88
 1017 0018 7B68     		ldr	r3, [r7, #4]
 1018 001a 1B78     		ldrb	r3, [r3]	@ zero_extendqisi2
 1019 001c 032B     		cmp	r3, #3
 1020 001e 49D1     		bne	.L89
 1021 0020 7B68     		ldr	r3, [r7, #4]
 1022 0022 1B79     		ldrb	r3, [r3, #4]	@ zero_extendqisi2
 1023 0024 012B     		cmp	r3, #1
 1024 0026 45D1     		bne	.L89
 1025 0028 7B68     		ldr	r3, [r7, #4]
 1026 002a 03F13800 		add	r0, r3, #56
 1027 002e 7B68     		ldr	r3, [r7, #4]
 1028 0030 9B89     		ldrh	r3, [r3, #12]
 1029 0032 1A46     		mov	r2, r3
 1030 0034 0021     		movs	r1, #0
 1031 0036 FFF7FEFF 		bl	mem_set
 1032 003a 7B68     		ldr	r3, [r7, #4]
 1033 003c 3833     		adds	r3, r3, #56
 1034 003e 03F5FF73 		add	r3, r3, #510
 1035 0042 4AF65521 		movw	r1, #43605
 1036 0046 1846     		mov	r0, r3
ARM GAS  C:\Users\user\AppData\Local\Temp\ccnu1L5f.s 			page 19


 1037 0048 FFF7FEFF 		bl	st_word
 1038 004c 7B68     		ldr	r3, [r7, #4]
 1039 004e 3833     		adds	r3, r3, #56
 1040 0050 2149     		ldr	r1, .L91
 1041 0052 1846     		mov	r0, r3
 1042 0054 FFF7FEFF 		bl	st_dword
 1043 0058 7B68     		ldr	r3, [r7, #4]
 1044 005a 3833     		adds	r3, r3, #56
 1045 005c 03F5F273 		add	r3, r3, #484
 1046 0060 1E49     		ldr	r1, .L91+4
 1047 0062 1846     		mov	r0, r3
 1048 0064 FFF7FEFF 		bl	st_dword
 1049 0068 7B68     		ldr	r3, [r7, #4]
 1050 006a 3833     		adds	r3, r3, #56
 1051 006c 03F5F472 		add	r2, r3, #488
 1052 0070 7B68     		ldr	r3, [r7, #4]
 1053 0072 9B69     		ldr	r3, [r3, #24]
 1054 0074 1946     		mov	r1, r3
 1055 0076 1046     		mov	r0, r2
 1056 0078 FFF7FEFF 		bl	st_dword
 1057 007c 7B68     		ldr	r3, [r7, #4]
 1058 007e 3833     		adds	r3, r3, #56
 1059 0080 03F5F672 		add	r2, r3, #492
 1060 0084 7B68     		ldr	r3, [r7, #4]
 1061 0086 5B69     		ldr	r3, [r3, #20]
 1062 0088 1946     		mov	r1, r3
 1063 008a 1046     		mov	r0, r2
 1064 008c FFF7FEFF 		bl	st_dword
 1065 0090 7B68     		ldr	r3, [r7, #4]
 1066 0092 5B6A     		ldr	r3, [r3, #36]
 1067 0094 5A1C     		adds	r2, r3, #1
 1068 0096 7B68     		ldr	r3, [r7, #4]
 1069 0098 5A63     		str	r2, [r3, #52]
 1070 009a 7B68     		ldr	r3, [r7, #4]
 1071 009c 5878     		ldrb	r0, [r3, #1]	@ zero_extendqisi2
 1072 009e 7B68     		ldr	r3, [r7, #4]
 1073 00a0 03F13801 		add	r1, r3, #56
 1074 00a4 7B68     		ldr	r3, [r7, #4]
 1075 00a6 5A6B     		ldr	r2, [r3, #52]
 1076 00a8 0123     		movs	r3, #1
 1077 00aa FFF7FEFF 		bl	disk_write
 1078 00ae 7B68     		ldr	r3, [r7, #4]
 1079 00b0 0022     		movs	r2, #0
 1080 00b2 1A71     		strb	r2, [r3, #4]
 1081              	.L89:
 1082 00b4 7B68     		ldr	r3, [r7, #4]
 1083 00b6 5B78     		ldrb	r3, [r3, #1]	@ zero_extendqisi2
 1084 00b8 0022     		movs	r2, #0
 1085 00ba 0021     		movs	r1, #0
 1086 00bc 1846     		mov	r0, r3
 1087 00be FFF7FEFF 		bl	disk_ioctl
 1088 00c2 0346     		mov	r3, r0
 1089 00c4 002B     		cmp	r3, #0
 1090 00c6 01D0     		beq	.L88
 1091 00c8 0123     		movs	r3, #1
 1092 00ca FB73     		strb	r3, [r7, #15]
 1093              	.L88:
ARM GAS  C:\Users\user\AppData\Local\Temp\ccnu1L5f.s 			page 20


 1094 00cc FB7B     		ldrb	r3, [r7, #15]	@ zero_extendqisi2
 1095 00ce 1846     		mov	r0, r3
 1096 00d0 1037     		adds	r7, r7, #16
 1097 00d2 BD46     		mov	sp, r7
 1098              		@ sp needed
 1099 00d4 80BD     		pop	{r7, pc}
 1100              	.L92:
 1101 00d6 00BF     		.align	2
 1102              	.L91:
 1103 00d8 52526141 		.word	1096897106
 1104 00dc 72724161 		.word	1631679090
 1106              		.section	.text.clust2sect,"ax",%progbits
 1107              		.align	1
 1108              		.syntax unified
 1109              		.thumb
 1110              		.thumb_func
 1112              	clust2sect:
 1113              		@ args = 0, pretend = 0, frame = 8
 1114              		@ frame_needed = 1, uses_anonymous_args = 0
 1115              		@ link register save eliminated.
 1116 0000 80B4     		push	{r7}
 1117 0002 83B0     		sub	sp, sp, #12
 1118 0004 00AF     		add	r7, sp, #0
 1119 0006 7860     		str	r0, [r7, #4]
 1120 0008 3960     		str	r1, [r7]
 1121 000a 3B68     		ldr	r3, [r7]
 1122 000c 023B     		subs	r3, r3, #2
 1123 000e 3B60     		str	r3, [r7]
 1124 0010 7B68     		ldr	r3, [r7, #4]
 1125 0012 DB69     		ldr	r3, [r3, #28]
 1126 0014 023B     		subs	r3, r3, #2
 1127 0016 3A68     		ldr	r2, [r7]
 1128 0018 9A42     		cmp	r2, r3
 1129 001a 01D3     		bcc	.L94
 1130 001c 0023     		movs	r3, #0
 1131 001e 08E0     		b	.L95
 1132              	.L94:
 1133 0020 7B68     		ldr	r3, [r7, #4]
 1134 0022 5B89     		ldrh	r3, [r3, #10]
 1135 0024 1A46     		mov	r2, r3
 1136 0026 3B68     		ldr	r3, [r7]
 1137 0028 03FB02F2 		mul	r2, r3, r2
 1138 002c 7B68     		ldr	r3, [r7, #4]
 1139 002e 1B6B     		ldr	r3, [r3, #48]
 1140 0030 1344     		add	r3, r3, r2
 1141              	.L95:
 1142 0032 1846     		mov	r0, r3
 1143 0034 0C37     		adds	r7, r7, #12
 1144 0036 BD46     		mov	sp, r7
 1145              		@ sp needed
 1146 0038 5DF8047B 		ldr	r7, [sp], #4
 1147 003c 7047     		bx	lr
 1149              		.section	.text.get_fat,"ax",%progbits
 1150              		.align	1
 1151              		.syntax unified
 1152              		.thumb
 1153              		.thumb_func
ARM GAS  C:\Users\user\AppData\Local\Temp\ccnu1L5f.s 			page 21


 1155              	get_fat:
 1156              		@ args = 0, pretend = 0, frame = 24
 1157              		@ frame_needed = 1, uses_anonymous_args = 0
 1158 0000 80B5     		push	{r7, lr}
 1159 0002 86B0     		sub	sp, sp, #24
 1160 0004 00AF     		add	r7, sp, #0
 1161 0006 7860     		str	r0, [r7, #4]
 1162 0008 3960     		str	r1, [r7]
 1163 000a 7B68     		ldr	r3, [r7, #4]
 1164 000c 1B68     		ldr	r3, [r3]
 1165 000e 3B61     		str	r3, [r7, #16]
 1166 0010 3B68     		ldr	r3, [r7]
 1167 0012 012B     		cmp	r3, #1
 1168 0014 04D9     		bls	.L97
 1169 0016 3B69     		ldr	r3, [r7, #16]
 1170 0018 DB69     		ldr	r3, [r3, #28]
 1171 001a 3A68     		ldr	r2, [r7]
 1172 001c 9A42     		cmp	r2, r3
 1173 001e 02D3     		bcc	.L98
 1174              	.L97:
 1175 0020 0123     		movs	r3, #1
 1176 0022 7B61     		str	r3, [r7, #20]
 1177 0024 BAE0     		b	.L99
 1178              	.L98:
 1179 0026 4FF0FF33 		mov	r3, #-1
 1180 002a 7B61     		str	r3, [r7, #20]
 1181 002c 3B69     		ldr	r3, [r7, #16]
 1182 002e 1B78     		ldrb	r3, [r3]	@ zero_extendqisi2
 1183 0030 032B     		cmp	r3, #3
 1184 0032 00F08280 		beq	.L100
 1185 0036 032B     		cmp	r3, #3
 1186 0038 00F3A680 		bgt	.L101
 1187 003c 012B     		cmp	r3, #1
 1188 003e 02D0     		beq	.L102
 1189 0040 022B     		cmp	r3, #2
 1190 0042 55D0     		beq	.L103
 1191 0044 A0E0     		b	.L101
 1192              	.L102:
 1193 0046 3B68     		ldr	r3, [r7]
 1194 0048 FB60     		str	r3, [r7, #12]
 1195 004a FB68     		ldr	r3, [r7, #12]
 1196 004c 5B08     		lsrs	r3, r3, #1
 1197 004e FA68     		ldr	r2, [r7, #12]
 1198 0050 1344     		add	r3, r3, r2
 1199 0052 FB60     		str	r3, [r7, #12]
 1200 0054 3B69     		ldr	r3, [r7, #16]
 1201 0056 9A6A     		ldr	r2, [r3, #40]
 1202 0058 3B69     		ldr	r3, [r7, #16]
 1203 005a 9B89     		ldrh	r3, [r3, #12]
 1204 005c 1946     		mov	r1, r3
 1205 005e FB68     		ldr	r3, [r7, #12]
 1206 0060 B3FBF1F3 		udiv	r3, r3, r1
 1207 0064 1344     		add	r3, r3, r2
 1208 0066 1946     		mov	r1, r3
 1209 0068 3869     		ldr	r0, [r7, #16]
 1210 006a FFF7FEFF 		bl	move_window
 1211 006e 0346     		mov	r3, r0
ARM GAS  C:\Users\user\AppData\Local\Temp\ccnu1L5f.s 			page 22


 1212 0070 002B     		cmp	r3, #0
 1213 0072 40F08C80 		bne	.L111
 1214 0076 FB68     		ldr	r3, [r7, #12]
 1215 0078 5A1C     		adds	r2, r3, #1
 1216 007a FA60     		str	r2, [r7, #12]
 1217 007c 3A69     		ldr	r2, [r7, #16]
 1218 007e 9289     		ldrh	r2, [r2, #12]
 1219 0080 B3FBF2F1 		udiv	r1, r3, r2
 1220 0084 01FB02F2 		mul	r2, r1, r2
 1221 0088 9B1A     		subs	r3, r3, r2
 1222 008a 3A69     		ldr	r2, [r7, #16]
 1223 008c 1344     		add	r3, r3, r2
 1224 008e 93F83830 		ldrb	r3, [r3, #56]	@ zero_extendqisi2
 1225 0092 BB60     		str	r3, [r7, #8]
 1226 0094 3B69     		ldr	r3, [r7, #16]
 1227 0096 9A6A     		ldr	r2, [r3, #40]
 1228 0098 3B69     		ldr	r3, [r7, #16]
 1229 009a 9B89     		ldrh	r3, [r3, #12]
 1230 009c 1946     		mov	r1, r3
 1231 009e FB68     		ldr	r3, [r7, #12]
 1232 00a0 B3FBF1F3 		udiv	r3, r3, r1
 1233 00a4 1344     		add	r3, r3, r2
 1234 00a6 1946     		mov	r1, r3
 1235 00a8 3869     		ldr	r0, [r7, #16]
 1236 00aa FFF7FEFF 		bl	move_window
 1237 00ae 0346     		mov	r3, r0
 1238 00b0 002B     		cmp	r3, #0
 1239 00b2 6ED1     		bne	.L112
 1240 00b4 3B69     		ldr	r3, [r7, #16]
 1241 00b6 9B89     		ldrh	r3, [r3, #12]
 1242 00b8 1A46     		mov	r2, r3
 1243 00ba FB68     		ldr	r3, [r7, #12]
 1244 00bc B3FBF2F1 		udiv	r1, r3, r2
 1245 00c0 01FB02F2 		mul	r2, r1, r2
 1246 00c4 9B1A     		subs	r3, r3, r2
 1247 00c6 3A69     		ldr	r2, [r7, #16]
 1248 00c8 1344     		add	r3, r3, r2
 1249 00ca 93F83830 		ldrb	r3, [r3, #56]	@ zero_extendqisi2
 1250 00ce 1B02     		lsls	r3, r3, #8
 1251 00d0 BA68     		ldr	r2, [r7, #8]
 1252 00d2 1343     		orrs	r3, r3, r2
 1253 00d4 BB60     		str	r3, [r7, #8]
 1254 00d6 3B68     		ldr	r3, [r7]
 1255 00d8 03F00103 		and	r3, r3, #1
 1256 00dc 002B     		cmp	r3, #0
 1257 00de 02D0     		beq	.L106
 1258 00e0 BB68     		ldr	r3, [r7, #8]
 1259 00e2 1B09     		lsrs	r3, r3, #4
 1260 00e4 02E0     		b	.L107
 1261              	.L106:
 1262 00e6 BB68     		ldr	r3, [r7, #8]
 1263 00e8 C3F30B03 		ubfx	r3, r3, #0, #12
 1264              	.L107:
 1265 00ec 7B61     		str	r3, [r7, #20]
 1266 00ee 55E0     		b	.L99
 1267              	.L103:
 1268 00f0 3B69     		ldr	r3, [r7, #16]
ARM GAS  C:\Users\user\AppData\Local\Temp\ccnu1L5f.s 			page 23


 1269 00f2 9A6A     		ldr	r2, [r3, #40]
 1270 00f4 3B69     		ldr	r3, [r7, #16]
 1271 00f6 9B89     		ldrh	r3, [r3, #12]
 1272 00f8 5B08     		lsrs	r3, r3, #1
 1273 00fa 9BB2     		uxth	r3, r3
 1274 00fc 1946     		mov	r1, r3
 1275 00fe 3B68     		ldr	r3, [r7]
 1276 0100 B3FBF1F3 		udiv	r3, r3, r1
 1277 0104 1344     		add	r3, r3, r2
 1278 0106 1946     		mov	r1, r3
 1279 0108 3869     		ldr	r0, [r7, #16]
 1280 010a FFF7FEFF 		bl	move_window
 1281 010e 0346     		mov	r3, r0
 1282 0110 002B     		cmp	r3, #0
 1283 0112 40D1     		bne	.L113
 1284 0114 3B69     		ldr	r3, [r7, #16]
 1285 0116 03F13801 		add	r1, r3, #56
 1286 011a 3B68     		ldr	r3, [r7]
 1287 011c 5B00     		lsls	r3, r3, #1
 1288 011e 3A69     		ldr	r2, [r7, #16]
 1289 0120 9289     		ldrh	r2, [r2, #12]
 1290 0122 B3FBF2F0 		udiv	r0, r3, r2
 1291 0126 00FB02F2 		mul	r2, r0, r2
 1292 012a 9B1A     		subs	r3, r3, r2
 1293 012c 0B44     		add	r3, r3, r1
 1294 012e 1846     		mov	r0, r3
 1295 0130 FFF7FEFF 		bl	ld_word
 1296 0134 0346     		mov	r3, r0
 1297 0136 7B61     		str	r3, [r7, #20]
 1298 0138 30E0     		b	.L99
 1299              	.L100:
 1300 013a 3B69     		ldr	r3, [r7, #16]
 1301 013c 9A6A     		ldr	r2, [r3, #40]
 1302 013e 3B69     		ldr	r3, [r7, #16]
 1303 0140 9B89     		ldrh	r3, [r3, #12]
 1304 0142 9B08     		lsrs	r3, r3, #2
 1305 0144 9BB2     		uxth	r3, r3
 1306 0146 1946     		mov	r1, r3
 1307 0148 3B68     		ldr	r3, [r7]
 1308 014a B3FBF1F3 		udiv	r3, r3, r1
 1309 014e 1344     		add	r3, r3, r2
 1310 0150 1946     		mov	r1, r3
 1311 0152 3869     		ldr	r0, [r7, #16]
 1312 0154 FFF7FEFF 		bl	move_window
 1313 0158 0346     		mov	r3, r0
 1314 015a 002B     		cmp	r3, #0
 1315 015c 1DD1     		bne	.L114
 1316 015e 3B69     		ldr	r3, [r7, #16]
 1317 0160 03F13801 		add	r1, r3, #56
 1318 0164 3B68     		ldr	r3, [r7]
 1319 0166 9B00     		lsls	r3, r3, #2
 1320 0168 3A69     		ldr	r2, [r7, #16]
 1321 016a 9289     		ldrh	r2, [r2, #12]
 1322 016c B3FBF2F0 		udiv	r0, r3, r2
 1323 0170 00FB02F2 		mul	r2, r0, r2
 1324 0174 9B1A     		subs	r3, r3, r2
 1325 0176 0B44     		add	r3, r3, r1
ARM GAS  C:\Users\user\AppData\Local\Temp\ccnu1L5f.s 			page 24


 1326 0178 1846     		mov	r0, r3
 1327 017a FFF7FEFF 		bl	ld_dword
 1328 017e 0346     		mov	r3, r0
 1329 0180 23F07043 		bic	r3, r3, #-268435456
 1330 0184 7B61     		str	r3, [r7, #20]
 1331 0186 09E0     		b	.L99
 1332              	.L101:
 1333 0188 0123     		movs	r3, #1
 1334 018a 7B61     		str	r3, [r7, #20]
 1335 018c 06E0     		b	.L99
 1336              	.L111:
 1337 018e 00BF     		nop
 1338 0190 04E0     		b	.L99
 1339              	.L112:
 1340 0192 00BF     		nop
 1341 0194 02E0     		b	.L99
 1342              	.L113:
 1343 0196 00BF     		nop
 1344 0198 00E0     		b	.L99
 1345              	.L114:
 1346 019a 00BF     		nop
 1347              	.L99:
 1348 019c 7B69     		ldr	r3, [r7, #20]
 1349 019e 1846     		mov	r0, r3
 1350 01a0 1837     		adds	r7, r7, #24
 1351 01a2 BD46     		mov	sp, r7
 1352              		@ sp needed
 1353 01a4 80BD     		pop	{r7, pc}
 1355              		.section	.text.put_fat,"ax",%progbits
 1356              		.align	1
 1357              		.syntax unified
 1358              		.thumb
 1359              		.thumb_func
 1361              	put_fat:
 1362              		@ args = 0, pretend = 0, frame = 32
 1363              		@ frame_needed = 1, uses_anonymous_args = 0
 1364 0000 90B5     		push	{r4, r7, lr}
 1365 0002 89B0     		sub	sp, sp, #36
 1366 0004 00AF     		add	r7, sp, #0
 1367 0006 F860     		str	r0, [r7, #12]
 1368 0008 B960     		str	r1, [r7, #8]
 1369 000a 7A60     		str	r2, [r7, #4]
 1370 000c 0223     		movs	r3, #2
 1371 000e FB77     		strb	r3, [r7, #31]
 1372 0010 BB68     		ldr	r3, [r7, #8]
 1373 0012 012B     		cmp	r3, #1
 1374 0014 40F20981 		bls	.L116
 1375 0018 FB68     		ldr	r3, [r7, #12]
 1376 001a DB69     		ldr	r3, [r3, #28]
 1377 001c BA68     		ldr	r2, [r7, #8]
 1378 001e 9A42     		cmp	r2, r3
 1379 0020 80F00381 		bcs	.L116
 1380 0024 FB68     		ldr	r3, [r7, #12]
 1381 0026 1B78     		ldrb	r3, [r3]	@ zero_extendqisi2
 1382 0028 032B     		cmp	r3, #3
 1383 002a 00F0B680 		beq	.L117
 1384 002e 032B     		cmp	r3, #3
ARM GAS  C:\Users\user\AppData\Local\Temp\ccnu1L5f.s 			page 25


 1385 0030 00F3FB80 		bgt	.L116
 1386 0034 012B     		cmp	r3, #1
 1387 0036 03D0     		beq	.L118
 1388 0038 022B     		cmp	r3, #2
 1389 003a 00F08380 		beq	.L119
 1390 003e F4E0     		b	.L116
 1391              	.L118:
 1392 0040 BB68     		ldr	r3, [r7, #8]
 1393 0042 BB61     		str	r3, [r7, #24]
 1394 0044 BB69     		ldr	r3, [r7, #24]
 1395 0046 5B08     		lsrs	r3, r3, #1
 1396 0048 BA69     		ldr	r2, [r7, #24]
 1397 004a 1344     		add	r3, r3, r2
 1398 004c BB61     		str	r3, [r7, #24]
 1399 004e FB68     		ldr	r3, [r7, #12]
 1400 0050 9A6A     		ldr	r2, [r3, #40]
 1401 0052 FB68     		ldr	r3, [r7, #12]
 1402 0054 9B89     		ldrh	r3, [r3, #12]
 1403 0056 1946     		mov	r1, r3
 1404 0058 BB69     		ldr	r3, [r7, #24]
 1405 005a B3FBF1F3 		udiv	r3, r3, r1
 1406 005e 1344     		add	r3, r3, r2
 1407 0060 1946     		mov	r1, r3
 1408 0062 F868     		ldr	r0, [r7, #12]
 1409 0064 FFF7FEFF 		bl	move_window
 1410 0068 0346     		mov	r3, r0
 1411 006a FB77     		strb	r3, [r7, #31]
 1412 006c FB7F     		ldrb	r3, [r7, #31]	@ zero_extendqisi2
 1413 006e 002B     		cmp	r3, #0
 1414 0070 40F0D480 		bne	.L129
 1415 0074 FB68     		ldr	r3, [r7, #12]
 1416 0076 03F13801 		add	r1, r3, #56
 1417 007a BB69     		ldr	r3, [r7, #24]
 1418 007c 5A1C     		adds	r2, r3, #1
 1419 007e BA61     		str	r2, [r7, #24]
 1420 0080 FA68     		ldr	r2, [r7, #12]
 1421 0082 9289     		ldrh	r2, [r2, #12]
 1422 0084 B3FBF2F0 		udiv	r0, r3, r2
 1423 0088 00FB02F2 		mul	r2, r0, r2
 1424 008c 9B1A     		subs	r3, r3, r2
 1425 008e 0B44     		add	r3, r3, r1
 1426 0090 7B61     		str	r3, [r7, #20]
 1427 0092 BB68     		ldr	r3, [r7, #8]
 1428 0094 03F00103 		and	r3, r3, #1
 1429 0098 002B     		cmp	r3, #0
 1430 009a 0DD0     		beq	.L121
 1431 009c 7B69     		ldr	r3, [r7, #20]
 1432 009e 1B78     		ldrb	r3, [r3]	@ zero_extendqisi2
 1433 00a0 5BB2     		sxtb	r3, r3
 1434 00a2 03F00F03 		and	r3, r3, #15
 1435 00a6 5AB2     		sxtb	r2, r3
 1436 00a8 7B68     		ldr	r3, [r7, #4]
 1437 00aa DBB2     		uxtb	r3, r3
 1438 00ac 1B01     		lsls	r3, r3, #4
 1439 00ae 5BB2     		sxtb	r3, r3
 1440 00b0 1343     		orrs	r3, r3, r2
 1441 00b2 5BB2     		sxtb	r3, r3
ARM GAS  C:\Users\user\AppData\Local\Temp\ccnu1L5f.s 			page 26


 1442 00b4 DBB2     		uxtb	r3, r3
 1443 00b6 01E0     		b	.L122
 1444              	.L121:
 1445 00b8 7B68     		ldr	r3, [r7, #4]
 1446 00ba DBB2     		uxtb	r3, r3
 1447              	.L122:
 1448 00bc 7A69     		ldr	r2, [r7, #20]
 1449 00be 1370     		strb	r3, [r2]
 1450 00c0 FB68     		ldr	r3, [r7, #12]
 1451 00c2 0122     		movs	r2, #1
 1452 00c4 DA70     		strb	r2, [r3, #3]
 1453 00c6 FB68     		ldr	r3, [r7, #12]
 1454 00c8 9A6A     		ldr	r2, [r3, #40]
 1455 00ca FB68     		ldr	r3, [r7, #12]
 1456 00cc 9B89     		ldrh	r3, [r3, #12]
 1457 00ce 1946     		mov	r1, r3
 1458 00d0 BB69     		ldr	r3, [r7, #24]
 1459 00d2 B3FBF1F3 		udiv	r3, r3, r1
 1460 00d6 1344     		add	r3, r3, r2
 1461 00d8 1946     		mov	r1, r3
 1462 00da F868     		ldr	r0, [r7, #12]
 1463 00dc FFF7FEFF 		bl	move_window
 1464 00e0 0346     		mov	r3, r0
 1465 00e2 FB77     		strb	r3, [r7, #31]
 1466 00e4 FB7F     		ldrb	r3, [r7, #31]	@ zero_extendqisi2
 1467 00e6 002B     		cmp	r3, #0
 1468 00e8 40F09A80 		bne	.L130
 1469 00ec FB68     		ldr	r3, [r7, #12]
 1470 00ee 03F13801 		add	r1, r3, #56
 1471 00f2 FB68     		ldr	r3, [r7, #12]
 1472 00f4 9B89     		ldrh	r3, [r3, #12]
 1473 00f6 1A46     		mov	r2, r3
 1474 00f8 BB69     		ldr	r3, [r7, #24]
 1475 00fa B3FBF2F0 		udiv	r0, r3, r2
 1476 00fe 00FB02F2 		mul	r2, r0, r2
 1477 0102 9B1A     		subs	r3, r3, r2
 1478 0104 0B44     		add	r3, r3, r1
 1479 0106 7B61     		str	r3, [r7, #20]
 1480 0108 BB68     		ldr	r3, [r7, #8]
 1481 010a 03F00103 		and	r3, r3, #1
 1482 010e 002B     		cmp	r3, #0
 1483 0110 03D0     		beq	.L124
 1484 0112 7B68     		ldr	r3, [r7, #4]
 1485 0114 1B09     		lsrs	r3, r3, #4
 1486 0116 DBB2     		uxtb	r3, r3
 1487 0118 0EE0     		b	.L125
 1488              	.L124:
 1489 011a 7B69     		ldr	r3, [r7, #20]
 1490 011c 1B78     		ldrb	r3, [r3]	@ zero_extendqisi2
 1491 011e 5BB2     		sxtb	r3, r3
 1492 0120 23F00F03 		bic	r3, r3, #15
 1493 0124 5AB2     		sxtb	r2, r3
 1494 0126 7B68     		ldr	r3, [r7, #4]
 1495 0128 1B0A     		lsrs	r3, r3, #8
 1496 012a 5BB2     		sxtb	r3, r3
 1497 012c 03F00F03 		and	r3, r3, #15
 1498 0130 5BB2     		sxtb	r3, r3
ARM GAS  C:\Users\user\AppData\Local\Temp\ccnu1L5f.s 			page 27


 1499 0132 1343     		orrs	r3, r3, r2
 1500 0134 5BB2     		sxtb	r3, r3
 1501 0136 DBB2     		uxtb	r3, r3
 1502              	.L125:
 1503 0138 7A69     		ldr	r2, [r7, #20]
 1504 013a 1370     		strb	r3, [r2]
 1505 013c FB68     		ldr	r3, [r7, #12]
 1506 013e 0122     		movs	r2, #1
 1507 0140 DA70     		strb	r2, [r3, #3]
 1508 0142 72E0     		b	.L116
 1509              	.L119:
 1510 0144 FB68     		ldr	r3, [r7, #12]
 1511 0146 9A6A     		ldr	r2, [r3, #40]
 1512 0148 FB68     		ldr	r3, [r7, #12]
 1513 014a 9B89     		ldrh	r3, [r3, #12]
 1514 014c 5B08     		lsrs	r3, r3, #1
 1515 014e 9BB2     		uxth	r3, r3
 1516 0150 1946     		mov	r1, r3
 1517 0152 BB68     		ldr	r3, [r7, #8]
 1518 0154 B3FBF1F3 		udiv	r3, r3, r1
 1519 0158 1344     		add	r3, r3, r2
 1520 015a 1946     		mov	r1, r3
 1521 015c F868     		ldr	r0, [r7, #12]
 1522 015e FFF7FEFF 		bl	move_window
 1523 0162 0346     		mov	r3, r0
 1524 0164 FB77     		strb	r3, [r7, #31]
 1525 0166 FB7F     		ldrb	r3, [r7, #31]	@ zero_extendqisi2
 1526 0168 002B     		cmp	r3, #0
 1527 016a 5BD1     		bne	.L131
 1528 016c FB68     		ldr	r3, [r7, #12]
 1529 016e 03F13801 		add	r1, r3, #56
 1530 0172 BB68     		ldr	r3, [r7, #8]
 1531 0174 5B00     		lsls	r3, r3, #1
 1532 0176 FA68     		ldr	r2, [r7, #12]
 1533 0178 9289     		ldrh	r2, [r2, #12]
 1534 017a B3FBF2F0 		udiv	r0, r3, r2
 1535 017e 00FB02F2 		mul	r2, r0, r2
 1536 0182 9B1A     		subs	r3, r3, r2
 1537 0184 0B44     		add	r3, r3, r1
 1538 0186 7A68     		ldr	r2, [r7, #4]
 1539 0188 92B2     		uxth	r2, r2
 1540 018a 1146     		mov	r1, r2
 1541 018c 1846     		mov	r0, r3
 1542 018e FFF7FEFF 		bl	st_word
 1543 0192 FB68     		ldr	r3, [r7, #12]
 1544 0194 0122     		movs	r2, #1
 1545 0196 DA70     		strb	r2, [r3, #3]
 1546 0198 47E0     		b	.L116
 1547              	.L117:
 1548 019a FB68     		ldr	r3, [r7, #12]
 1549 019c 9A6A     		ldr	r2, [r3, #40]
 1550 019e FB68     		ldr	r3, [r7, #12]
 1551 01a0 9B89     		ldrh	r3, [r3, #12]
 1552 01a2 9B08     		lsrs	r3, r3, #2
 1553 01a4 9BB2     		uxth	r3, r3
 1554 01a6 1946     		mov	r1, r3
 1555 01a8 BB68     		ldr	r3, [r7, #8]
ARM GAS  C:\Users\user\AppData\Local\Temp\ccnu1L5f.s 			page 28


 1556 01aa B3FBF1F3 		udiv	r3, r3, r1
 1557 01ae 1344     		add	r3, r3, r2
 1558 01b0 1946     		mov	r1, r3
 1559 01b2 F868     		ldr	r0, [r7, #12]
 1560 01b4 FFF7FEFF 		bl	move_window
 1561 01b8 0346     		mov	r3, r0
 1562 01ba FB77     		strb	r3, [r7, #31]
 1563 01bc FB7F     		ldrb	r3, [r7, #31]	@ zero_extendqisi2
 1564 01be 002B     		cmp	r3, #0
 1565 01c0 32D1     		bne	.L132
 1566 01c2 7B68     		ldr	r3, [r7, #4]
 1567 01c4 23F07044 		bic	r4, r3, #-268435456
 1568 01c8 FB68     		ldr	r3, [r7, #12]
 1569 01ca 03F13801 		add	r1, r3, #56
 1570 01ce BB68     		ldr	r3, [r7, #8]
 1571 01d0 9B00     		lsls	r3, r3, #2
 1572 01d2 FA68     		ldr	r2, [r7, #12]
 1573 01d4 9289     		ldrh	r2, [r2, #12]
 1574 01d6 B3FBF2F0 		udiv	r0, r3, r2
 1575 01da 00FB02F2 		mul	r2, r0, r2
 1576 01de 9B1A     		subs	r3, r3, r2
 1577 01e0 0B44     		add	r3, r3, r1
 1578 01e2 1846     		mov	r0, r3
 1579 01e4 FFF7FEFF 		bl	ld_dword
 1580 01e8 0346     		mov	r3, r0
 1581 01ea 03F07043 		and	r3, r3, #-268435456
 1582 01ee 2343     		orrs	r3, r3, r4
 1583 01f0 7B60     		str	r3, [r7, #4]
 1584 01f2 FB68     		ldr	r3, [r7, #12]
 1585 01f4 03F13801 		add	r1, r3, #56
 1586 01f8 BB68     		ldr	r3, [r7, #8]
 1587 01fa 9B00     		lsls	r3, r3, #2
 1588 01fc FA68     		ldr	r2, [r7, #12]
 1589 01fe 9289     		ldrh	r2, [r2, #12]
 1590 0200 B3FBF2F0 		udiv	r0, r3, r2
 1591 0204 00FB02F2 		mul	r2, r0, r2
 1592 0208 9B1A     		subs	r3, r3, r2
 1593 020a 0B44     		add	r3, r3, r1
 1594 020c 7968     		ldr	r1, [r7, #4]
 1595 020e 1846     		mov	r0, r3
 1596 0210 FFF7FEFF 		bl	st_dword
 1597 0214 FB68     		ldr	r3, [r7, #12]
 1598 0216 0122     		movs	r2, #1
 1599 0218 DA70     		strb	r2, [r3, #3]
 1600 021a 06E0     		b	.L116
 1601              	.L129:
 1602 021c 00BF     		nop
 1603 021e 04E0     		b	.L116
 1604              	.L130:
 1605 0220 00BF     		nop
 1606 0222 02E0     		b	.L116
 1607              	.L131:
 1608 0224 00BF     		nop
 1609 0226 00E0     		b	.L116
 1610              	.L132:
 1611 0228 00BF     		nop
 1612              	.L116:
ARM GAS  C:\Users\user\AppData\Local\Temp\ccnu1L5f.s 			page 29


 1613 022a FB7F     		ldrb	r3, [r7, #31]	@ zero_extendqisi2
 1614 022c 1846     		mov	r0, r3
 1615 022e 2437     		adds	r7, r7, #36
 1616 0230 BD46     		mov	sp, r7
 1617              		@ sp needed
 1618 0232 90BD     		pop	{r4, r7, pc}
 1620              		.section	.text.remove_chain,"ax",%progbits
 1621              		.align	1
 1622              		.syntax unified
 1623              		.thumb
 1624              		.thumb_func
 1626              	remove_chain:
 1627              		@ args = 0, pretend = 0, frame = 32
 1628              		@ frame_needed = 1, uses_anonymous_args = 0
 1629 0000 80B5     		push	{r7, lr}
 1630 0002 88B0     		sub	sp, sp, #32
 1631 0004 00AF     		add	r7, sp, #0
 1632 0006 F860     		str	r0, [r7, #12]
 1633 0008 B960     		str	r1, [r7, #8]
 1634 000a 7A60     		str	r2, [r7, #4]
 1635 000c 0023     		movs	r3, #0
 1636 000e FB77     		strb	r3, [r7, #31]
 1637 0010 FB68     		ldr	r3, [r7, #12]
 1638 0012 1B68     		ldr	r3, [r3]
 1639 0014 BB61     		str	r3, [r7, #24]
 1640 0016 BB68     		ldr	r3, [r7, #8]
 1641 0018 012B     		cmp	r3, #1
 1642 001a 04D9     		bls	.L134
 1643 001c BB69     		ldr	r3, [r7, #24]
 1644 001e DB69     		ldr	r3, [r3, #28]
 1645 0020 BA68     		ldr	r2, [r7, #8]
 1646 0022 9A42     		cmp	r2, r3
 1647 0024 01D3     		bcc	.L135
 1648              	.L134:
 1649 0026 0223     		movs	r3, #2
 1650 0028 4BE0     		b	.L136
 1651              	.L135:
 1652 002a 7B68     		ldr	r3, [r7, #4]
 1653 002c 002B     		cmp	r3, #0
 1654 002e 0CD0     		beq	.L144
 1655 0030 4FF0FF32 		mov	r2, #-1
 1656 0034 7968     		ldr	r1, [r7, #4]
 1657 0036 B869     		ldr	r0, [r7, #24]
 1658 0038 FFF7FEFF 		bl	put_fat
 1659 003c 0346     		mov	r3, r0
 1660 003e FB77     		strb	r3, [r7, #31]
 1661 0040 FB7F     		ldrb	r3, [r7, #31]	@ zero_extendqisi2
 1662 0042 002B     		cmp	r3, #0
 1663 0044 01D0     		beq	.L144
 1664 0046 FB7F     		ldrb	r3, [r7, #31]	@ zero_extendqisi2
 1665 0048 3BE0     		b	.L136
 1666              	.L144:
 1667 004a B968     		ldr	r1, [r7, #8]
 1668 004c F868     		ldr	r0, [r7, #12]
 1669 004e FFF7FEFF 		bl	get_fat
 1670 0052 7861     		str	r0, [r7, #20]
 1671 0054 7B69     		ldr	r3, [r7, #20]
ARM GAS  C:\Users\user\AppData\Local\Temp\ccnu1L5f.s 			page 30


 1672 0056 002B     		cmp	r3, #0
 1673 0058 31D0     		beq	.L145
 1674 005a 7B69     		ldr	r3, [r7, #20]
 1675 005c 012B     		cmp	r3, #1
 1676 005e 01D1     		bne	.L140
 1677 0060 0223     		movs	r3, #2
 1678 0062 2EE0     		b	.L136
 1679              	.L140:
 1680 0064 7B69     		ldr	r3, [r7, #20]
 1681 0066 B3F1FF3F 		cmp	r3, #-1
 1682 006a 01D1     		bne	.L141
 1683 006c 0123     		movs	r3, #1
 1684 006e 28E0     		b	.L136
 1685              	.L141:
 1686 0070 0022     		movs	r2, #0
 1687 0072 B968     		ldr	r1, [r7, #8]
 1688 0074 B869     		ldr	r0, [r7, #24]
 1689 0076 FFF7FEFF 		bl	put_fat
 1690 007a 0346     		mov	r3, r0
 1691 007c FB77     		strb	r3, [r7, #31]
 1692 007e FB7F     		ldrb	r3, [r7, #31]	@ zero_extendqisi2
 1693 0080 002B     		cmp	r3, #0
 1694 0082 01D0     		beq	.L142
 1695 0084 FB7F     		ldrb	r3, [r7, #31]	@ zero_extendqisi2
 1696 0086 1CE0     		b	.L136
 1697              	.L142:
 1698 0088 BB69     		ldr	r3, [r7, #24]
 1699 008a 9A69     		ldr	r2, [r3, #24]
 1700 008c BB69     		ldr	r3, [r7, #24]
 1701 008e DB69     		ldr	r3, [r3, #28]
 1702 0090 023B     		subs	r3, r3, #2
 1703 0092 9A42     		cmp	r2, r3
 1704 0094 0BD2     		bcs	.L143
 1705 0096 BB69     		ldr	r3, [r7, #24]
 1706 0098 9B69     		ldr	r3, [r3, #24]
 1707 009a 5A1C     		adds	r2, r3, #1
 1708 009c BB69     		ldr	r3, [r7, #24]
 1709 009e 9A61     		str	r2, [r3, #24]
 1710 00a0 BB69     		ldr	r3, [r7, #24]
 1711 00a2 1B79     		ldrb	r3, [r3, #4]	@ zero_extendqisi2
 1712 00a4 43F00103 		orr	r3, r3, #1
 1713 00a8 DAB2     		uxtb	r2, r3
 1714 00aa BB69     		ldr	r3, [r7, #24]
 1715 00ac 1A71     		strb	r2, [r3, #4]
 1716              	.L143:
 1717 00ae 7B69     		ldr	r3, [r7, #20]
 1718 00b0 BB60     		str	r3, [r7, #8]
 1719 00b2 BB69     		ldr	r3, [r7, #24]
 1720 00b4 DB69     		ldr	r3, [r3, #28]
 1721 00b6 BA68     		ldr	r2, [r7, #8]
 1722 00b8 9A42     		cmp	r2, r3
 1723 00ba C6D3     		bcc	.L144
 1724 00bc 00E0     		b	.L139
 1725              	.L145:
 1726 00be 00BF     		nop
 1727              	.L139:
 1728 00c0 0023     		movs	r3, #0
ARM GAS  C:\Users\user\AppData\Local\Temp\ccnu1L5f.s 			page 31


 1729              	.L136:
 1730 00c2 1846     		mov	r0, r3
 1731 00c4 2037     		adds	r7, r7, #32
 1732 00c6 BD46     		mov	sp, r7
 1733              		@ sp needed
 1734 00c8 80BD     		pop	{r7, pc}
 1736              		.section	.text.create_chain,"ax",%progbits
 1737              		.align	1
 1738              		.syntax unified
 1739              		.thumb
 1740              		.thumb_func
 1742              	create_chain:
 1743              		@ args = 0, pretend = 0, frame = 32
 1744              		@ frame_needed = 1, uses_anonymous_args = 0
 1745 0000 80B5     		push	{r7, lr}
 1746 0002 88B0     		sub	sp, sp, #32
 1747 0004 00AF     		add	r7, sp, #0
 1748 0006 7860     		str	r0, [r7, #4]
 1749 0008 3960     		str	r1, [r7]
 1750 000a 7B68     		ldr	r3, [r7, #4]
 1751 000c 1B68     		ldr	r3, [r3]
 1752 000e 3B61     		str	r3, [r7, #16]
 1753 0010 3B68     		ldr	r3, [r7]
 1754 0012 002B     		cmp	r3, #0
 1755 0014 0DD1     		bne	.L147
 1756 0016 3B69     		ldr	r3, [r7, #16]
 1757 0018 5B69     		ldr	r3, [r3, #20]
 1758 001a BB61     		str	r3, [r7, #24]
 1759 001c BB69     		ldr	r3, [r7, #24]
 1760 001e 002B     		cmp	r3, #0
 1761 0020 04D0     		beq	.L148
 1762 0022 3B69     		ldr	r3, [r7, #16]
 1763 0024 DB69     		ldr	r3, [r3, #28]
 1764 0026 BA69     		ldr	r2, [r7, #24]
 1765 0028 9A42     		cmp	r2, r3
 1766 002a 1BD3     		bcc	.L149
 1767              	.L148:
 1768 002c 0123     		movs	r3, #1
 1769 002e BB61     		str	r3, [r7, #24]
 1770 0030 18E0     		b	.L149
 1771              	.L147:
 1772 0032 3968     		ldr	r1, [r7]
 1773 0034 7868     		ldr	r0, [r7, #4]
 1774 0036 FFF7FEFF 		bl	get_fat
 1775 003a F860     		str	r0, [r7, #12]
 1776 003c FB68     		ldr	r3, [r7, #12]
 1777 003e 012B     		cmp	r3, #1
 1778 0040 01D8     		bhi	.L150
 1779 0042 0123     		movs	r3, #1
 1780 0044 70E0     		b	.L151
 1781              	.L150:
 1782 0046 FB68     		ldr	r3, [r7, #12]
 1783 0048 B3F1FF3F 		cmp	r3, #-1
 1784 004c 01D1     		bne	.L152
 1785 004e FB68     		ldr	r3, [r7, #12]
 1786 0050 6AE0     		b	.L151
 1787              	.L152:
ARM GAS  C:\Users\user\AppData\Local\Temp\ccnu1L5f.s 			page 32


 1788 0052 3B69     		ldr	r3, [r7, #16]
 1789 0054 DB69     		ldr	r3, [r3, #28]
 1790 0056 FA68     		ldr	r2, [r7, #12]
 1791 0058 9A42     		cmp	r2, r3
 1792 005a 01D2     		bcs	.L153
 1793 005c FB68     		ldr	r3, [r7, #12]
 1794 005e 63E0     		b	.L151
 1795              	.L153:
 1796 0060 3B68     		ldr	r3, [r7]
 1797 0062 BB61     		str	r3, [r7, #24]
 1798              	.L149:
 1799 0064 BB69     		ldr	r3, [r7, #24]
 1800 0066 FB61     		str	r3, [r7, #28]
 1801              	.L160:
 1802 0068 FB69     		ldr	r3, [r7, #28]
 1803 006a 0133     		adds	r3, r3, #1
 1804 006c FB61     		str	r3, [r7, #28]
 1805 006e 3B69     		ldr	r3, [r7, #16]
 1806 0070 DB69     		ldr	r3, [r3, #28]
 1807 0072 FA69     		ldr	r2, [r7, #28]
 1808 0074 9A42     		cmp	r2, r3
 1809 0076 07D3     		bcc	.L154
 1810 0078 0223     		movs	r3, #2
 1811 007a FB61     		str	r3, [r7, #28]
 1812 007c FA69     		ldr	r2, [r7, #28]
 1813 007e BB69     		ldr	r3, [r7, #24]
 1814 0080 9A42     		cmp	r2, r3
 1815 0082 01D9     		bls	.L154
 1816 0084 0023     		movs	r3, #0
 1817 0086 4FE0     		b	.L151
 1818              	.L154:
 1819 0088 F969     		ldr	r1, [r7, #28]
 1820 008a 7868     		ldr	r0, [r7, #4]
 1821 008c FFF7FEFF 		bl	get_fat
 1822 0090 F860     		str	r0, [r7, #12]
 1823 0092 FB68     		ldr	r3, [r7, #12]
 1824 0094 002B     		cmp	r3, #0
 1825 0096 0ED0     		beq	.L168
 1826 0098 FB68     		ldr	r3, [r7, #12]
 1827 009a 012B     		cmp	r3, #1
 1828 009c 03D0     		beq	.L157
 1829 009e FB68     		ldr	r3, [r7, #12]
 1830 00a0 B3F1FF3F 		cmp	r3, #-1
 1831 00a4 01D1     		bne	.L158
 1832              	.L157:
 1833 00a6 FB68     		ldr	r3, [r7, #12]
 1834 00a8 3EE0     		b	.L151
 1835              	.L158:
 1836 00aa FA69     		ldr	r2, [r7, #28]
 1837 00ac BB69     		ldr	r3, [r7, #24]
 1838 00ae 9A42     		cmp	r2, r3
 1839 00b0 DAD1     		bne	.L160
 1840 00b2 0023     		movs	r3, #0
 1841 00b4 38E0     		b	.L151
 1842              	.L168:
 1843 00b6 00BF     		nop
 1844 00b8 4FF0FF32 		mov	r2, #-1
ARM GAS  C:\Users\user\AppData\Local\Temp\ccnu1L5f.s 			page 33


 1845 00bc F969     		ldr	r1, [r7, #28]
 1846 00be 3869     		ldr	r0, [r7, #16]
 1847 00c0 FFF7FEFF 		bl	put_fat
 1848 00c4 0346     		mov	r3, r0
 1849 00c6 FB75     		strb	r3, [r7, #23]
 1850 00c8 FB7D     		ldrb	r3, [r7, #23]	@ zero_extendqisi2
 1851 00ca 002B     		cmp	r3, #0
 1852 00cc 09D1     		bne	.L161
 1853 00ce 3B68     		ldr	r3, [r7]
 1854 00d0 002B     		cmp	r3, #0
 1855 00d2 06D0     		beq	.L161
 1856 00d4 FA69     		ldr	r2, [r7, #28]
 1857 00d6 3968     		ldr	r1, [r7]
 1858 00d8 3869     		ldr	r0, [r7, #16]
 1859 00da FFF7FEFF 		bl	put_fat
 1860 00de 0346     		mov	r3, r0
 1861 00e0 FB75     		strb	r3, [r7, #23]
 1862              	.L161:
 1863 00e2 FB7D     		ldrb	r3, [r7, #23]	@ zero_extendqisi2
 1864 00e4 002B     		cmp	r3, #0
 1865 00e6 16D1     		bne	.L162
 1866 00e8 3B69     		ldr	r3, [r7, #16]
 1867 00ea FA69     		ldr	r2, [r7, #28]
 1868 00ec 5A61     		str	r2, [r3, #20]
 1869 00ee 3B69     		ldr	r3, [r7, #16]
 1870 00f0 9A69     		ldr	r2, [r3, #24]
 1871 00f2 3B69     		ldr	r3, [r7, #16]
 1872 00f4 DB69     		ldr	r3, [r3, #28]
 1873 00f6 023B     		subs	r3, r3, #2
 1874 00f8 9A42     		cmp	r2, r3
 1875 00fa 04D8     		bhi	.L163
 1876 00fc 3B69     		ldr	r3, [r7, #16]
 1877 00fe 9B69     		ldr	r3, [r3, #24]
 1878 0100 5A1E     		subs	r2, r3, #1
 1879 0102 3B69     		ldr	r3, [r7, #16]
 1880 0104 9A61     		str	r2, [r3, #24]
 1881              	.L163:
 1882 0106 3B69     		ldr	r3, [r7, #16]
 1883 0108 1B79     		ldrb	r3, [r3, #4]	@ zero_extendqisi2
 1884 010a 43F00103 		orr	r3, r3, #1
 1885 010e DAB2     		uxtb	r2, r3
 1886 0110 3B69     		ldr	r3, [r7, #16]
 1887 0112 1A71     		strb	r2, [r3, #4]
 1888 0114 07E0     		b	.L164
 1889              	.L162:
 1890 0116 FB7D     		ldrb	r3, [r7, #23]	@ zero_extendqisi2
 1891 0118 012B     		cmp	r3, #1
 1892 011a 02D1     		bne	.L165
 1893 011c 4FF0FF33 		mov	r3, #-1
 1894 0120 00E0     		b	.L166
 1895              	.L165:
 1896 0122 0123     		movs	r3, #1
 1897              	.L166:
 1898 0124 FB61     		str	r3, [r7, #28]
 1899              	.L164:
 1900 0126 FB69     		ldr	r3, [r7, #28]
 1901              	.L151:
ARM GAS  C:\Users\user\AppData\Local\Temp\ccnu1L5f.s 			page 34


 1902 0128 1846     		mov	r0, r3
 1903 012a 2037     		adds	r7, r7, #32
 1904 012c BD46     		mov	sp, r7
 1905              		@ sp needed
 1906 012e 80BD     		pop	{r7, pc}
 1908              		.section	.text.clmt_clust,"ax",%progbits
 1909              		.align	1
 1910              		.syntax unified
 1911              		.thumb
 1912              		.thumb_func
 1914              	clmt_clust:
 1915              		@ args = 0, pretend = 0, frame = 24
 1916              		@ frame_needed = 1, uses_anonymous_args = 0
 1917              		@ link register save eliminated.
 1918 0000 80B4     		push	{r7}
 1919 0002 87B0     		sub	sp, sp, #28
 1920 0004 00AF     		add	r7, sp, #0
 1921 0006 7860     		str	r0, [r7, #4]
 1922 0008 3960     		str	r1, [r7]
 1923 000a 7B68     		ldr	r3, [r7, #4]
 1924 000c 1B68     		ldr	r3, [r3]
 1925 000e FB60     		str	r3, [r7, #12]
 1926 0010 7B68     		ldr	r3, [r7, #4]
 1927 0012 DB6A     		ldr	r3, [r3, #44]
 1928 0014 0433     		adds	r3, r3, #4
 1929 0016 3B61     		str	r3, [r7, #16]
 1930 0018 FB68     		ldr	r3, [r7, #12]
 1931 001a 9B89     		ldrh	r3, [r3, #12]
 1932 001c 1A46     		mov	r2, r3
 1933 001e 3B68     		ldr	r3, [r7]
 1934 0020 B3FBF2F3 		udiv	r3, r3, r2
 1935 0024 FA68     		ldr	r2, [r7, #12]
 1936 0026 5289     		ldrh	r2, [r2, #10]
 1937 0028 B3FBF2F3 		udiv	r3, r3, r2
 1938 002c 7B61     		str	r3, [r7, #20]
 1939              	.L174:
 1940 002e 3B69     		ldr	r3, [r7, #16]
 1941 0030 1A1D     		adds	r2, r3, #4
 1942 0032 3A61     		str	r2, [r7, #16]
 1943 0034 1B68     		ldr	r3, [r3]
 1944 0036 BB60     		str	r3, [r7, #8]
 1945 0038 BB68     		ldr	r3, [r7, #8]
 1946 003a 002B     		cmp	r3, #0
 1947 003c 01D1     		bne	.L170
 1948 003e 0023     		movs	r3, #0
 1949 0040 10E0     		b	.L171
 1950              	.L170:
 1951 0042 7A69     		ldr	r2, [r7, #20]
 1952 0044 BB68     		ldr	r3, [r7, #8]
 1953 0046 9A42     		cmp	r2, r3
 1954 0048 07D3     		bcc	.L176
 1955 004a 7A69     		ldr	r2, [r7, #20]
 1956 004c BB68     		ldr	r3, [r7, #8]
 1957 004e D31A     		subs	r3, r2, r3
 1958 0050 7B61     		str	r3, [r7, #20]
 1959 0052 3B69     		ldr	r3, [r7, #16]
 1960 0054 0433     		adds	r3, r3, #4
ARM GAS  C:\Users\user\AppData\Local\Temp\ccnu1L5f.s 			page 35


 1961 0056 3B61     		str	r3, [r7, #16]
 1962 0058 E9E7     		b	.L174
 1963              	.L176:
 1964 005a 00BF     		nop
 1965 005c 3B69     		ldr	r3, [r7, #16]
 1966 005e 1A68     		ldr	r2, [r3]
 1967 0060 7B69     		ldr	r3, [r7, #20]
 1968 0062 1344     		add	r3, r3, r2
 1969              	.L171:
 1970 0064 1846     		mov	r0, r3
 1971 0066 1C37     		adds	r7, r7, #28
 1972 0068 BD46     		mov	sp, r7
 1973              		@ sp needed
 1974 006a 5DF8047B 		ldr	r7, [sp], #4
 1975 006e 7047     		bx	lr
 1977              		.section	.text.dir_sdi,"ax",%progbits
 1978              		.align	1
 1979              		.syntax unified
 1980              		.thumb
 1981              		.thumb_func
 1983              	dir_sdi:
 1984              		@ args = 0, pretend = 0, frame = 24
 1985              		@ frame_needed = 1, uses_anonymous_args = 0
 1986 0000 80B5     		push	{r7, lr}
 1987 0002 86B0     		sub	sp, sp, #24
 1988 0004 00AF     		add	r7, sp, #0
 1989 0006 7860     		str	r0, [r7, #4]
 1990 0008 3960     		str	r1, [r7]
 1991 000a 7B68     		ldr	r3, [r7, #4]
 1992 000c 1B68     		ldr	r3, [r3]
 1993 000e 3B61     		str	r3, [r7, #16]
 1994 0010 3B68     		ldr	r3, [r7]
 1995 0012 B3F5001F 		cmp	r3, #2097152
 1996 0016 04D2     		bcs	.L178
 1997 0018 3B68     		ldr	r3, [r7]
 1998 001a 03F01F03 		and	r3, r3, #31
 1999 001e 002B     		cmp	r3, #0
 2000 0020 01D0     		beq	.L179
 2001              	.L178:
 2002 0022 0223     		movs	r3, #2
 2003 0024 71E0     		b	.L180
 2004              	.L179:
 2005 0026 7B68     		ldr	r3, [r7, #4]
 2006 0028 3A68     		ldr	r2, [r7]
 2007 002a 5A61     		str	r2, [r3, #20]
 2008 002c 7B68     		ldr	r3, [r7, #4]
 2009 002e 9B68     		ldr	r3, [r3, #8]
 2010 0030 7B61     		str	r3, [r7, #20]
 2011 0032 7B69     		ldr	r3, [r7, #20]
 2012 0034 002B     		cmp	r3, #0
 2013 0036 06D1     		bne	.L181
 2014 0038 3B69     		ldr	r3, [r7, #16]
 2015 003a 1B78     		ldrb	r3, [r3]	@ zero_extendqisi2
 2016 003c 022B     		cmp	r3, #2
 2017 003e 02D9     		bls	.L181
 2018 0040 3B69     		ldr	r3, [r7, #16]
 2019 0042 DB6A     		ldr	r3, [r3, #44]
ARM GAS  C:\Users\user\AppData\Local\Temp\ccnu1L5f.s 			page 36


 2020 0044 7B61     		str	r3, [r7, #20]
 2021              	.L181:
 2022 0046 7B69     		ldr	r3, [r7, #20]
 2023 0048 002B     		cmp	r3, #0
 2024 004a 0CD1     		bne	.L182
 2025 004c 3B68     		ldr	r3, [r7]
 2026 004e 5B09     		lsrs	r3, r3, #5
 2027 0050 3A69     		ldr	r2, [r7, #16]
 2028 0052 1289     		ldrh	r2, [r2, #8]
 2029 0054 9342     		cmp	r3, r2
 2030 0056 01D3     		bcc	.L183
 2031 0058 0223     		movs	r3, #2
 2032 005a 56E0     		b	.L180
 2033              	.L183:
 2034 005c 3B69     		ldr	r3, [r7, #16]
 2035 005e DA6A     		ldr	r2, [r3, #44]
 2036 0060 7B68     		ldr	r3, [r7, #4]
 2037 0062 DA61     		str	r2, [r3, #28]
 2038 0064 2DE0     		b	.L184
 2039              	.L182:
 2040 0066 3B69     		ldr	r3, [r7, #16]
 2041 0068 5B89     		ldrh	r3, [r3, #10]
 2042 006a 1A46     		mov	r2, r3
 2043 006c 3B69     		ldr	r3, [r7, #16]
 2044 006e 9B89     		ldrh	r3, [r3, #12]
 2045 0070 02FB03F3 		mul	r3, r2, r3
 2046 0074 FB60     		str	r3, [r7, #12]
 2047 0076 19E0     		b	.L185
 2048              	.L189:
 2049 0078 7B68     		ldr	r3, [r7, #4]
 2050 007a 7969     		ldr	r1, [r7, #20]
 2051 007c 1846     		mov	r0, r3
 2052 007e FFF7FEFF 		bl	get_fat
 2053 0082 7861     		str	r0, [r7, #20]
 2054 0084 7B69     		ldr	r3, [r7, #20]
 2055 0086 B3F1FF3F 		cmp	r3, #-1
 2056 008a 01D1     		bne	.L186
 2057 008c 0123     		movs	r3, #1
 2058 008e 3CE0     		b	.L180
 2059              	.L186:
 2060 0090 7B69     		ldr	r3, [r7, #20]
 2061 0092 012B     		cmp	r3, #1
 2062 0094 04D9     		bls	.L187
 2063 0096 3B69     		ldr	r3, [r7, #16]
 2064 0098 DB69     		ldr	r3, [r3, #28]
 2065 009a 7A69     		ldr	r2, [r7, #20]
 2066 009c 9A42     		cmp	r2, r3
 2067 009e 01D3     		bcc	.L188
 2068              	.L187:
 2069 00a0 0223     		movs	r3, #2
 2070 00a2 32E0     		b	.L180
 2071              	.L188:
 2072 00a4 3A68     		ldr	r2, [r7]
 2073 00a6 FB68     		ldr	r3, [r7, #12]
 2074 00a8 D31A     		subs	r3, r2, r3
 2075 00aa 3B60     		str	r3, [r7]
 2076              	.L185:
ARM GAS  C:\Users\user\AppData\Local\Temp\ccnu1L5f.s 			page 37


 2077 00ac 3A68     		ldr	r2, [r7]
 2078 00ae FB68     		ldr	r3, [r7, #12]
 2079 00b0 9A42     		cmp	r2, r3
 2080 00b2 E1D2     		bcs	.L189
 2081 00b4 7969     		ldr	r1, [r7, #20]
 2082 00b6 3869     		ldr	r0, [r7, #16]
 2083 00b8 FFF7FEFF 		bl	clust2sect
 2084 00bc 0246     		mov	r2, r0
 2085 00be 7B68     		ldr	r3, [r7, #4]
 2086 00c0 DA61     		str	r2, [r3, #28]
 2087              	.L184:
 2088 00c2 7B68     		ldr	r3, [r7, #4]
 2089 00c4 7A69     		ldr	r2, [r7, #20]
 2090 00c6 9A61     		str	r2, [r3, #24]
 2091 00c8 7B68     		ldr	r3, [r7, #4]
 2092 00ca DB69     		ldr	r3, [r3, #28]
 2093 00cc 002B     		cmp	r3, #0
 2094 00ce 01D1     		bne	.L190
 2095 00d0 0223     		movs	r3, #2
 2096 00d2 1AE0     		b	.L180
 2097              	.L190:
 2098 00d4 7B68     		ldr	r3, [r7, #4]
 2099 00d6 DA69     		ldr	r2, [r3, #28]
 2100 00d8 3B69     		ldr	r3, [r7, #16]
 2101 00da 9B89     		ldrh	r3, [r3, #12]
 2102 00dc 1946     		mov	r1, r3
 2103 00de 3B68     		ldr	r3, [r7]
 2104 00e0 B3FBF1F3 		udiv	r3, r3, r1
 2105 00e4 1A44     		add	r2, r2, r3
 2106 00e6 7B68     		ldr	r3, [r7, #4]
 2107 00e8 DA61     		str	r2, [r3, #28]
 2108 00ea 3B69     		ldr	r3, [r7, #16]
 2109 00ec 03F13801 		add	r1, r3, #56
 2110 00f0 3B69     		ldr	r3, [r7, #16]
 2111 00f2 9B89     		ldrh	r3, [r3, #12]
 2112 00f4 1A46     		mov	r2, r3
 2113 00f6 3B68     		ldr	r3, [r7]
 2114 00f8 B3FBF2F0 		udiv	r0, r3, r2
 2115 00fc 00FB02F2 		mul	r2, r0, r2
 2116 0100 9B1A     		subs	r3, r3, r2
 2117 0102 CA18     		adds	r2, r1, r3
 2118 0104 7B68     		ldr	r3, [r7, #4]
 2119 0106 1A62     		str	r2, [r3, #32]
 2120 0108 0023     		movs	r3, #0
 2121              	.L180:
 2122 010a 1846     		mov	r0, r3
 2123 010c 1837     		adds	r7, r7, #24
 2124 010e BD46     		mov	sp, r7
 2125              		@ sp needed
 2126 0110 80BD     		pop	{r7, pc}
 2128              		.section	.text.dir_next,"ax",%progbits
 2129              		.align	1
 2130              		.syntax unified
 2131              		.thumb
 2132              		.thumb_func
 2134              	dir_next:
 2135              		@ args = 0, pretend = 0, frame = 24
ARM GAS  C:\Users\user\AppData\Local\Temp\ccnu1L5f.s 			page 38


 2136              		@ frame_needed = 1, uses_anonymous_args = 0
 2137 0000 80B5     		push	{r7, lr}
 2138 0002 86B0     		sub	sp, sp, #24
 2139 0004 00AF     		add	r7, sp, #0
 2140 0006 7860     		str	r0, [r7, #4]
 2141 0008 3960     		str	r1, [r7]
 2142 000a 7B68     		ldr	r3, [r7, #4]
 2143 000c 1B68     		ldr	r3, [r3]
 2144 000e FB60     		str	r3, [r7, #12]
 2145 0010 7B68     		ldr	r3, [r7, #4]
 2146 0012 5B69     		ldr	r3, [r3, #20]
 2147 0014 2033     		adds	r3, r3, #32
 2148 0016 BB60     		str	r3, [r7, #8]
 2149 0018 7B68     		ldr	r3, [r7, #4]
 2150 001a DB69     		ldr	r3, [r3, #28]
 2151 001c 002B     		cmp	r3, #0
 2152 001e 03D0     		beq	.L192
 2153 0020 BB68     		ldr	r3, [r7, #8]
 2154 0022 B3F5001F 		cmp	r3, #2097152
 2155 0026 01D3     		bcc	.L193
 2156              	.L192:
 2157 0028 0423     		movs	r3, #4
 2158 002a BBE0     		b	.L194
 2159              	.L193:
 2160 002c FB68     		ldr	r3, [r7, #12]
 2161 002e 9B89     		ldrh	r3, [r3, #12]
 2162 0030 1A46     		mov	r2, r3
 2163 0032 BB68     		ldr	r3, [r7, #8]
 2164 0034 B3FBF2F1 		udiv	r1, r3, r2
 2165 0038 01FB02F2 		mul	r2, r1, r2
 2166 003c 9B1A     		subs	r3, r3, r2
 2167 003e 002B     		cmp	r3, #0
 2168 0040 40F09D80 		bne	.L195
 2169 0044 7B68     		ldr	r3, [r7, #4]
 2170 0046 DB69     		ldr	r3, [r3, #28]
 2171 0048 5A1C     		adds	r2, r3, #1
 2172 004a 7B68     		ldr	r3, [r7, #4]
 2173 004c DA61     		str	r2, [r3, #28]
 2174 004e 7B68     		ldr	r3, [r7, #4]
 2175 0050 9B69     		ldr	r3, [r3, #24]
 2176 0052 002B     		cmp	r3, #0
 2177 0054 0BD1     		bne	.L196
 2178 0056 BB68     		ldr	r3, [r7, #8]
 2179 0058 5B09     		lsrs	r3, r3, #5
 2180 005a FA68     		ldr	r2, [r7, #12]
 2181 005c 1289     		ldrh	r2, [r2, #8]
 2182 005e 9342     		cmp	r3, r2
 2183 0060 C0F08D80 		bcc	.L195
 2184 0064 7B68     		ldr	r3, [r7, #4]
 2185 0066 0022     		movs	r2, #0
 2186 0068 DA61     		str	r2, [r3, #28]
 2187 006a 0423     		movs	r3, #4
 2188 006c 9AE0     		b	.L194
 2189              	.L196:
 2190 006e FB68     		ldr	r3, [r7, #12]
 2191 0070 9B89     		ldrh	r3, [r3, #12]
 2192 0072 1A46     		mov	r2, r3
ARM GAS  C:\Users\user\AppData\Local\Temp\ccnu1L5f.s 			page 39


 2193 0074 BB68     		ldr	r3, [r7, #8]
 2194 0076 B3FBF2F3 		udiv	r3, r3, r2
 2195 007a FA68     		ldr	r2, [r7, #12]
 2196 007c 5289     		ldrh	r2, [r2, #10]
 2197 007e 013A     		subs	r2, r2, #1
 2198 0080 1340     		ands	r3, r3, r2
 2199 0082 002B     		cmp	r3, #0
 2200 0084 7BD1     		bne	.L195
 2201 0086 7A68     		ldr	r2, [r7, #4]
 2202 0088 7B68     		ldr	r3, [r7, #4]
 2203 008a 9B69     		ldr	r3, [r3, #24]
 2204 008c 1946     		mov	r1, r3
 2205 008e 1046     		mov	r0, r2
 2206 0090 FFF7FEFF 		bl	get_fat
 2207 0094 7861     		str	r0, [r7, #20]
 2208 0096 7B69     		ldr	r3, [r7, #20]
 2209 0098 012B     		cmp	r3, #1
 2210 009a 01D8     		bhi	.L197
 2211 009c 0223     		movs	r3, #2
 2212 009e 81E0     		b	.L194
 2213              	.L197:
 2214 00a0 7B69     		ldr	r3, [r7, #20]
 2215 00a2 B3F1FF3F 		cmp	r3, #-1
 2216 00a6 01D1     		bne	.L198
 2217 00a8 0123     		movs	r3, #1
 2218 00aa 7BE0     		b	.L194
 2219              	.L198:
 2220 00ac FB68     		ldr	r3, [r7, #12]
 2221 00ae DB69     		ldr	r3, [r3, #28]
 2222 00b0 7A69     		ldr	r2, [r7, #20]
 2223 00b2 9A42     		cmp	r2, r3
 2224 00b4 59D3     		bcc	.L199
 2225 00b6 3B68     		ldr	r3, [r7]
 2226 00b8 002B     		cmp	r3, #0
 2227 00ba 04D1     		bne	.L200
 2228 00bc 7B68     		ldr	r3, [r7, #4]
 2229 00be 0022     		movs	r2, #0
 2230 00c0 DA61     		str	r2, [r3, #28]
 2231 00c2 0423     		movs	r3, #4
 2232 00c4 6EE0     		b	.L194
 2233              	.L200:
 2234 00c6 7A68     		ldr	r2, [r7, #4]
 2235 00c8 7B68     		ldr	r3, [r7, #4]
 2236 00ca 9B69     		ldr	r3, [r3, #24]
 2237 00cc 1946     		mov	r1, r3
 2238 00ce 1046     		mov	r0, r2
 2239 00d0 FFF7FEFF 		bl	create_chain
 2240 00d4 7861     		str	r0, [r7, #20]
 2241 00d6 7B69     		ldr	r3, [r7, #20]
 2242 00d8 002B     		cmp	r3, #0
 2243 00da 01D1     		bne	.L201
 2244 00dc 0723     		movs	r3, #7
 2245 00de 61E0     		b	.L194
 2246              	.L201:
 2247 00e0 7B69     		ldr	r3, [r7, #20]
 2248 00e2 012B     		cmp	r3, #1
 2249 00e4 01D1     		bne	.L202
ARM GAS  C:\Users\user\AppData\Local\Temp\ccnu1L5f.s 			page 40


 2250 00e6 0223     		movs	r3, #2
 2251 00e8 5CE0     		b	.L194
 2252              	.L202:
 2253 00ea 7B69     		ldr	r3, [r7, #20]
 2254 00ec B3F1FF3F 		cmp	r3, #-1
 2255 00f0 01D1     		bne	.L203
 2256 00f2 0123     		movs	r3, #1
 2257 00f4 56E0     		b	.L194
 2258              	.L203:
 2259 00f6 F868     		ldr	r0, [r7, #12]
 2260 00f8 FFF7FEFF 		bl	sync_window
 2261 00fc 0346     		mov	r3, r0
 2262 00fe 002B     		cmp	r3, #0
 2263 0100 01D0     		beq	.L204
 2264 0102 0123     		movs	r3, #1
 2265 0104 4EE0     		b	.L194
 2266              	.L204:
 2267 0106 FB68     		ldr	r3, [r7, #12]
 2268 0108 03F13800 		add	r0, r3, #56
 2269 010c FB68     		ldr	r3, [r7, #12]
 2270 010e 9B89     		ldrh	r3, [r3, #12]
 2271 0110 1A46     		mov	r2, r3
 2272 0112 0021     		movs	r1, #0
 2273 0114 FFF7FEFF 		bl	mem_set
 2274 0118 0023     		movs	r3, #0
 2275 011a 3B61     		str	r3, [r7, #16]
 2276 011c 7969     		ldr	r1, [r7, #20]
 2277 011e F868     		ldr	r0, [r7, #12]
 2278 0120 FFF7FEFF 		bl	clust2sect
 2279 0124 0246     		mov	r2, r0
 2280 0126 FB68     		ldr	r3, [r7, #12]
 2281 0128 5A63     		str	r2, [r3, #52]
 2282 012a 12E0     		b	.L205
 2283              	.L207:
 2284 012c FB68     		ldr	r3, [r7, #12]
 2285 012e 0122     		movs	r2, #1
 2286 0130 DA70     		strb	r2, [r3, #3]
 2287 0132 F868     		ldr	r0, [r7, #12]
 2288 0134 FFF7FEFF 		bl	sync_window
 2289 0138 0346     		mov	r3, r0
 2290 013a 002B     		cmp	r3, #0
 2291 013c 01D0     		beq	.L206
 2292 013e 0123     		movs	r3, #1
 2293 0140 30E0     		b	.L194
 2294              	.L206:
 2295 0142 3B69     		ldr	r3, [r7, #16]
 2296 0144 0133     		adds	r3, r3, #1
 2297 0146 3B61     		str	r3, [r7, #16]
 2298 0148 FB68     		ldr	r3, [r7, #12]
 2299 014a 5B6B     		ldr	r3, [r3, #52]
 2300 014c 5A1C     		adds	r2, r3, #1
 2301 014e FB68     		ldr	r3, [r7, #12]
 2302 0150 5A63     		str	r2, [r3, #52]
 2303              	.L205:
 2304 0152 FB68     		ldr	r3, [r7, #12]
 2305 0154 5B89     		ldrh	r3, [r3, #10]
 2306 0156 1A46     		mov	r2, r3
ARM GAS  C:\Users\user\AppData\Local\Temp\ccnu1L5f.s 			page 41


 2307 0158 3B69     		ldr	r3, [r7, #16]
 2308 015a 9342     		cmp	r3, r2
 2309 015c E6D3     		bcc	.L207
 2310 015e FB68     		ldr	r3, [r7, #12]
 2311 0160 5A6B     		ldr	r2, [r3, #52]
 2312 0162 3B69     		ldr	r3, [r7, #16]
 2313 0164 D21A     		subs	r2, r2, r3
 2314 0166 FB68     		ldr	r3, [r7, #12]
 2315 0168 5A63     		str	r2, [r3, #52]
 2316              	.L199:
 2317 016a 7B68     		ldr	r3, [r7, #4]
 2318 016c 7A69     		ldr	r2, [r7, #20]
 2319 016e 9A61     		str	r2, [r3, #24]
 2320 0170 7969     		ldr	r1, [r7, #20]
 2321 0172 F868     		ldr	r0, [r7, #12]
 2322 0174 FFF7FEFF 		bl	clust2sect
 2323 0178 0246     		mov	r2, r0
 2324 017a 7B68     		ldr	r3, [r7, #4]
 2325 017c DA61     		str	r2, [r3, #28]
 2326              	.L195:
 2327 017e 7B68     		ldr	r3, [r7, #4]
 2328 0180 BA68     		ldr	r2, [r7, #8]
 2329 0182 5A61     		str	r2, [r3, #20]
 2330 0184 FB68     		ldr	r3, [r7, #12]
 2331 0186 03F13801 		add	r1, r3, #56
 2332 018a FB68     		ldr	r3, [r7, #12]
 2333 018c 9B89     		ldrh	r3, [r3, #12]
 2334 018e 1A46     		mov	r2, r3
 2335 0190 BB68     		ldr	r3, [r7, #8]
 2336 0192 B3FBF2F0 		udiv	r0, r3, r2
 2337 0196 00FB02F2 		mul	r2, r0, r2
 2338 019a 9B1A     		subs	r3, r3, r2
 2339 019c CA18     		adds	r2, r1, r3
 2340 019e 7B68     		ldr	r3, [r7, #4]
 2341 01a0 1A62     		str	r2, [r3, #32]
 2342 01a2 0023     		movs	r3, #0
 2343              	.L194:
 2344 01a4 1846     		mov	r0, r3
 2345 01a6 1837     		adds	r7, r7, #24
 2346 01a8 BD46     		mov	sp, r7
 2347              		@ sp needed
 2348 01aa 80BD     		pop	{r7, pc}
 2350              		.section	.text.dir_alloc,"ax",%progbits
 2351              		.align	1
 2352              		.syntax unified
 2353              		.thumb
 2354              		.thumb_func
 2356              	dir_alloc:
 2357              		@ args = 0, pretend = 0, frame = 24
 2358              		@ frame_needed = 1, uses_anonymous_args = 0
 2359 0000 80B5     		push	{r7, lr}
 2360 0002 86B0     		sub	sp, sp, #24
 2361 0004 00AF     		add	r7, sp, #0
 2362 0006 7860     		str	r0, [r7, #4]
 2363 0008 3960     		str	r1, [r7]
 2364 000a 7B68     		ldr	r3, [r7, #4]
 2365 000c 1B68     		ldr	r3, [r3]
ARM GAS  C:\Users\user\AppData\Local\Temp\ccnu1L5f.s 			page 42


 2366 000e FB60     		str	r3, [r7, #12]
 2367 0010 0021     		movs	r1, #0
 2368 0012 7868     		ldr	r0, [r7, #4]
 2369 0014 FFF7FEFF 		bl	dir_sdi
 2370 0018 0346     		mov	r3, r0
 2371 001a FB75     		strb	r3, [r7, #23]
 2372 001c FB7D     		ldrb	r3, [r7, #23]	@ zero_extendqisi2
 2373 001e 002B     		cmp	r3, #0
 2374 0020 2BD1     		bne	.L209
 2375 0022 0023     		movs	r3, #0
 2376 0024 3B61     		str	r3, [r7, #16]
 2377              	.L215:
 2378 0026 7B68     		ldr	r3, [r7, #4]
 2379 0028 DB69     		ldr	r3, [r3, #28]
 2380 002a 1946     		mov	r1, r3
 2381 002c F868     		ldr	r0, [r7, #12]
 2382 002e FFF7FEFF 		bl	move_window
 2383 0032 0346     		mov	r3, r0
 2384 0034 FB75     		strb	r3, [r7, #23]
 2385 0036 FB7D     		ldrb	r3, [r7, #23]	@ zero_extendqisi2
 2386 0038 002B     		cmp	r3, #0
 2387 003a 1DD1     		bne	.L218
 2388 003c 7B68     		ldr	r3, [r7, #4]
 2389 003e 1B6A     		ldr	r3, [r3, #32]
 2390 0040 1B78     		ldrb	r3, [r3]	@ zero_extendqisi2
 2391 0042 E52B     		cmp	r3, #229
 2392 0044 04D0     		beq	.L211
 2393 0046 7B68     		ldr	r3, [r7, #4]
 2394 0048 1B6A     		ldr	r3, [r3, #32]
 2395 004a 1B78     		ldrb	r3, [r3]	@ zero_extendqisi2
 2396 004c 002B     		cmp	r3, #0
 2397 004e 07D1     		bne	.L212
 2398              	.L211:
 2399 0050 3B69     		ldr	r3, [r7, #16]
 2400 0052 0133     		adds	r3, r3, #1
 2401 0054 3B61     		str	r3, [r7, #16]
 2402 0056 3A69     		ldr	r2, [r7, #16]
 2403 0058 3B68     		ldr	r3, [r7]
 2404 005a 9A42     		cmp	r2, r3
 2405 005c 02D1     		bne	.L214
 2406 005e 0CE0     		b	.L209
 2407              	.L212:
 2408 0060 0023     		movs	r3, #0
 2409 0062 3B61     		str	r3, [r7, #16]
 2410              	.L214:
 2411 0064 0121     		movs	r1, #1
 2412 0066 7868     		ldr	r0, [r7, #4]
 2413 0068 FFF7FEFF 		bl	dir_next
 2414 006c 0346     		mov	r3, r0
 2415 006e FB75     		strb	r3, [r7, #23]
 2416 0070 FB7D     		ldrb	r3, [r7, #23]	@ zero_extendqisi2
 2417 0072 002B     		cmp	r3, #0
 2418 0074 D7D0     		beq	.L215
 2419 0076 00E0     		b	.L209
 2420              	.L218:
 2421 0078 00BF     		nop
 2422              	.L209:
ARM GAS  C:\Users\user\AppData\Local\Temp\ccnu1L5f.s 			page 43


 2423 007a FB7D     		ldrb	r3, [r7, #23]	@ zero_extendqisi2
 2424 007c 042B     		cmp	r3, #4
 2425 007e 01D1     		bne	.L216
 2426 0080 0723     		movs	r3, #7
 2427 0082 FB75     		strb	r3, [r7, #23]
 2428              	.L216:
 2429 0084 FB7D     		ldrb	r3, [r7, #23]	@ zero_extendqisi2
 2430 0086 1846     		mov	r0, r3
 2431 0088 1837     		adds	r7, r7, #24
 2432 008a BD46     		mov	sp, r7
 2433              		@ sp needed
 2434 008c 80BD     		pop	{r7, pc}
 2436              		.section	.text.ld_clust,"ax",%progbits
 2437              		.align	1
 2438              		.syntax unified
 2439              		.thumb
 2440              		.thumb_func
 2442              	ld_clust:
 2443              		@ args = 0, pretend = 0, frame = 16
 2444              		@ frame_needed = 1, uses_anonymous_args = 0
 2445 0000 80B5     		push	{r7, lr}
 2446 0002 84B0     		sub	sp, sp, #16
 2447 0004 00AF     		add	r7, sp, #0
 2448 0006 7860     		str	r0, [r7, #4]
 2449 0008 3960     		str	r1, [r7]
 2450 000a 3B68     		ldr	r3, [r7]
 2451 000c 1A33     		adds	r3, r3, #26
 2452 000e 1846     		mov	r0, r3
 2453 0010 FFF7FEFF 		bl	ld_word
 2454 0014 0346     		mov	r3, r0
 2455 0016 FB60     		str	r3, [r7, #12]
 2456 0018 7B68     		ldr	r3, [r7, #4]
 2457 001a 1B78     		ldrb	r3, [r3]	@ zero_extendqisi2
 2458 001c 032B     		cmp	r3, #3
 2459 001e 09D1     		bne	.L220
 2460 0020 3B68     		ldr	r3, [r7]
 2461 0022 1433     		adds	r3, r3, #20
 2462 0024 1846     		mov	r0, r3
 2463 0026 FFF7FEFF 		bl	ld_word
 2464 002a 0346     		mov	r3, r0
 2465 002c 1B04     		lsls	r3, r3, #16
 2466 002e FA68     		ldr	r2, [r7, #12]
 2467 0030 1343     		orrs	r3, r3, r2
 2468 0032 FB60     		str	r3, [r7, #12]
 2469              	.L220:
 2470 0034 FB68     		ldr	r3, [r7, #12]
 2471 0036 1846     		mov	r0, r3
 2472 0038 1037     		adds	r7, r7, #16
 2473 003a BD46     		mov	sp, r7
 2474              		@ sp needed
 2475 003c 80BD     		pop	{r7, pc}
 2477              		.section	.text.st_clust,"ax",%progbits
 2478              		.align	1
 2479              		.syntax unified
 2480              		.thumb
 2481              		.thumb_func
 2483              	st_clust:
ARM GAS  C:\Users\user\AppData\Local\Temp\ccnu1L5f.s 			page 44


 2484              		@ args = 0, pretend = 0, frame = 16
 2485              		@ frame_needed = 1, uses_anonymous_args = 0
 2486 0000 80B5     		push	{r7, lr}
 2487 0002 84B0     		sub	sp, sp, #16
 2488 0004 00AF     		add	r7, sp, #0
 2489 0006 F860     		str	r0, [r7, #12]
 2490 0008 B960     		str	r1, [r7, #8]
 2491 000a 7A60     		str	r2, [r7, #4]
 2492 000c BB68     		ldr	r3, [r7, #8]
 2493 000e 1A33     		adds	r3, r3, #26
 2494 0010 7A68     		ldr	r2, [r7, #4]
 2495 0012 92B2     		uxth	r2, r2
 2496 0014 1146     		mov	r1, r2
 2497 0016 1846     		mov	r0, r3
 2498 0018 FFF7FEFF 		bl	st_word
 2499 001c FB68     		ldr	r3, [r7, #12]
 2500 001e 1B78     		ldrb	r3, [r3]	@ zero_extendqisi2
 2501 0020 032B     		cmp	r3, #3
 2502 0022 09D1     		bne	.L224
 2503 0024 BB68     		ldr	r3, [r7, #8]
 2504 0026 03F11402 		add	r2, r3, #20
 2505 002a 7B68     		ldr	r3, [r7, #4]
 2506 002c 1B0C     		lsrs	r3, r3, #16
 2507 002e 9BB2     		uxth	r3, r3
 2508 0030 1946     		mov	r1, r3
 2509 0032 1046     		mov	r0, r2
 2510 0034 FFF7FEFF 		bl	st_word
 2511              	.L224:
 2512 0038 00BF     		nop
 2513 003a 1037     		adds	r7, r7, #16
 2514 003c BD46     		mov	sp, r7
 2515              		@ sp needed
 2516 003e 80BD     		pop	{r7, pc}
 2518              		.section	.rodata.LfnOfs,"a"
 2519              		.align	2
 2522              	LfnOfs:
 2523 0000 01030507 		.ascii	"\001\003\005\007\011\016\020\022\024\026\030\034\036"
 2523      090E1012 
 2523      1416181C 
 2523      1E
 2524              		.section	.text.cmp_lfn,"ax",%progbits
 2525              		.align	1
 2526              		.syntax unified
 2527              		.thumb
 2528              		.thumb_func
 2530              	cmp_lfn:
 2531              		@ args = 0, pretend = 0, frame = 24
 2532              		@ frame_needed = 1, uses_anonymous_args = 0
 2533 0000 90B5     		push	{r4, r7, lr}
 2534 0002 87B0     		sub	sp, sp, #28
 2535 0004 00AF     		add	r7, sp, #0
 2536 0006 7860     		str	r0, [r7, #4]
 2537 0008 3960     		str	r1, [r7]
 2538 000a 3B68     		ldr	r3, [r7]
 2539 000c 1A33     		adds	r3, r3, #26
 2540 000e 1846     		mov	r0, r3
 2541 0010 FFF7FEFF 		bl	ld_word
ARM GAS  C:\Users\user\AppData\Local\Temp\ccnu1L5f.s 			page 45


 2542 0014 0346     		mov	r3, r0
 2543 0016 002B     		cmp	r3, #0
 2544 0018 01D0     		beq	.L226
 2545 001a 0023     		movs	r3, #0
 2546 001c 59E0     		b	.L227
 2547              	.L226:
 2548 001e 3B68     		ldr	r3, [r7]
 2549 0020 1B78     		ldrb	r3, [r3]	@ zero_extendqisi2
 2550 0022 03F03F03 		and	r3, r3, #63
 2551 0026 5A1E     		subs	r2, r3, #1
 2552 0028 1346     		mov	r3, r2
 2553 002a 5B00     		lsls	r3, r3, #1
 2554 002c 1344     		add	r3, r3, r2
 2555 002e 9B00     		lsls	r3, r3, #2
 2556 0030 1344     		add	r3, r3, r2
 2557 0032 7B61     		str	r3, [r7, #20]
 2558 0034 0123     		movs	r3, #1
 2559 0036 FB81     		strh	r3, [r7, #14]	@ movhi
 2560 0038 0023     		movs	r3, #0
 2561 003a 3B61     		str	r3, [r7, #16]
 2562 003c 33E0     		b	.L228
 2563              	.L233:
 2564 003e 274A     		ldr	r2, .L235
 2565 0040 3B69     		ldr	r3, [r7, #16]
 2566 0042 1344     		add	r3, r3, r2
 2567 0044 1B78     		ldrb	r3, [r3]	@ zero_extendqisi2
 2568 0046 1A46     		mov	r2, r3
 2569 0048 3B68     		ldr	r3, [r7]
 2570 004a 1344     		add	r3, r3, r2
 2571 004c 1846     		mov	r0, r3
 2572 004e FFF7FEFF 		bl	ld_word
 2573 0052 0346     		mov	r3, r0
 2574 0054 BB81     		strh	r3, [r7, #12]	@ movhi
 2575 0056 FB89     		ldrh	r3, [r7, #14]
 2576 0058 002B     		cmp	r3, #0
 2577 005a 1AD0     		beq	.L229
 2578 005c 7B69     		ldr	r3, [r7, #20]
 2579 005e FE2B     		cmp	r3, #254
 2580 0060 12D8     		bhi	.L230
 2581 0062 BB89     		ldrh	r3, [r7, #12]
 2582 0064 1846     		mov	r0, r3
 2583 0066 FFF7FEFF 		bl	ff_wtoupper
 2584 006a 0346     		mov	r3, r0
 2585 006c 1C46     		mov	r4, r3
 2586 006e 7B69     		ldr	r3, [r7, #20]
 2587 0070 5A1C     		adds	r2, r3, #1
 2588 0072 7A61     		str	r2, [r7, #20]
 2589 0074 5B00     		lsls	r3, r3, #1
 2590 0076 7A68     		ldr	r2, [r7, #4]
 2591 0078 1344     		add	r3, r3, r2
 2592 007a 1B88     		ldrh	r3, [r3]
 2593 007c 1846     		mov	r0, r3
 2594 007e FFF7FEFF 		bl	ff_wtoupper
 2595 0082 0346     		mov	r3, r0
 2596 0084 9C42     		cmp	r4, r3
 2597 0086 01D0     		beq	.L231
 2598              	.L230:
ARM GAS  C:\Users\user\AppData\Local\Temp\ccnu1L5f.s 			page 46


 2599 0088 0023     		movs	r3, #0
 2600 008a 22E0     		b	.L227
 2601              	.L231:
 2602 008c BB89     		ldrh	r3, [r7, #12]	@ movhi
 2603 008e FB81     		strh	r3, [r7, #14]	@ movhi
 2604 0090 06E0     		b	.L232
 2605              	.L229:
 2606 0092 BB89     		ldrh	r3, [r7, #12]
 2607 0094 4FF6FF72 		movw	r2, #65535
 2608 0098 9342     		cmp	r3, r2
 2609 009a 01D0     		beq	.L232
 2610 009c 0023     		movs	r3, #0
 2611 009e 18E0     		b	.L227
 2612              	.L232:
 2613 00a0 3B69     		ldr	r3, [r7, #16]
 2614 00a2 0133     		adds	r3, r3, #1
 2615 00a4 3B61     		str	r3, [r7, #16]
 2616              	.L228:
 2617 00a6 3B69     		ldr	r3, [r7, #16]
 2618 00a8 0C2B     		cmp	r3, #12
 2619 00aa C8D9     		bls	.L233
 2620 00ac 3B68     		ldr	r3, [r7]
 2621 00ae 1B78     		ldrb	r3, [r3]	@ zero_extendqisi2
 2622 00b0 03F04003 		and	r3, r3, #64
 2623 00b4 002B     		cmp	r3, #0
 2624 00b6 0BD0     		beq	.L234
 2625 00b8 FB89     		ldrh	r3, [r7, #14]
 2626 00ba 002B     		cmp	r3, #0
 2627 00bc 08D0     		beq	.L234
 2628 00be 7B69     		ldr	r3, [r7, #20]
 2629 00c0 5B00     		lsls	r3, r3, #1
 2630 00c2 7A68     		ldr	r2, [r7, #4]
 2631 00c4 1344     		add	r3, r3, r2
 2632 00c6 1B88     		ldrh	r3, [r3]
 2633 00c8 002B     		cmp	r3, #0
 2634 00ca 01D0     		beq	.L234
 2635 00cc 0023     		movs	r3, #0
 2636 00ce 00E0     		b	.L227
 2637              	.L234:
 2638 00d0 0123     		movs	r3, #1
 2639              	.L227:
 2640 00d2 1846     		mov	r0, r3
 2641 00d4 1C37     		adds	r7, r7, #28
 2642 00d6 BD46     		mov	sp, r7
 2643              		@ sp needed
 2644 00d8 90BD     		pop	{r4, r7, pc}
 2645              	.L236:
 2646 00da 00BF     		.align	2
 2647              	.L235:
 2648 00dc 00000000 		.word	LfnOfs
 2650              		.section	.text.pick_lfn,"ax",%progbits
 2651              		.align	1
 2652              		.syntax unified
 2653              		.thumb
 2654              		.thumb_func
 2656              	pick_lfn:
 2657              		@ args = 0, pretend = 0, frame = 24
ARM GAS  C:\Users\user\AppData\Local\Temp\ccnu1L5f.s 			page 47


 2658              		@ frame_needed = 1, uses_anonymous_args = 0
 2659 0000 80B5     		push	{r7, lr}
 2660 0002 86B0     		sub	sp, sp, #24
 2661 0004 00AF     		add	r7, sp, #0
 2662 0006 7860     		str	r0, [r7, #4]
 2663 0008 3960     		str	r1, [r7]
 2664 000a 3B68     		ldr	r3, [r7]
 2665 000c 1A33     		adds	r3, r3, #26
 2666 000e 1846     		mov	r0, r3
 2667 0010 FFF7FEFF 		bl	ld_word
 2668 0014 0346     		mov	r3, r0
 2669 0016 002B     		cmp	r3, #0
 2670 0018 01D0     		beq	.L238
 2671 001a 0023     		movs	r3, #0
 2672 001c 4DE0     		b	.L239
 2673              	.L238:
 2674 001e 3B68     		ldr	r3, [r7]
 2675 0020 1B78     		ldrb	r3, [r3]	@ zero_extendqisi2
 2676 0022 23F04003 		bic	r3, r3, #64
 2677 0026 5A1E     		subs	r2, r3, #1
 2678 0028 1346     		mov	r3, r2
 2679 002a 5B00     		lsls	r3, r3, #1
 2680 002c 1344     		add	r3, r3, r2
 2681 002e 9B00     		lsls	r3, r3, #2
 2682 0030 1344     		add	r3, r3, r2
 2683 0032 7B61     		str	r3, [r7, #20]
 2684 0034 0123     		movs	r3, #1
 2685 0036 FB81     		strh	r3, [r7, #14]	@ movhi
 2686 0038 0023     		movs	r3, #0
 2687 003a 3B61     		str	r3, [r7, #16]
 2688 003c 28E0     		b	.L240
 2689              	.L244:
 2690 003e 214A     		ldr	r2, .L247
 2691 0040 3B69     		ldr	r3, [r7, #16]
 2692 0042 1344     		add	r3, r3, r2
 2693 0044 1B78     		ldrb	r3, [r3]	@ zero_extendqisi2
 2694 0046 1A46     		mov	r2, r3
 2695 0048 3B68     		ldr	r3, [r7]
 2696 004a 1344     		add	r3, r3, r2
 2697 004c 1846     		mov	r0, r3
 2698 004e FFF7FEFF 		bl	ld_word
 2699 0052 0346     		mov	r3, r0
 2700 0054 BB81     		strh	r3, [r7, #12]	@ movhi
 2701 0056 FB89     		ldrh	r3, [r7, #14]
 2702 0058 002B     		cmp	r3, #0
 2703 005a 0FD0     		beq	.L241
 2704 005c 7B69     		ldr	r3, [r7, #20]
 2705 005e FE2B     		cmp	r3, #254
 2706 0060 01D9     		bls	.L242
 2707 0062 0023     		movs	r3, #0
 2708 0064 29E0     		b	.L239
 2709              	.L242:
 2710 0066 BB89     		ldrh	r3, [r7, #12]	@ movhi
 2711 0068 FB81     		strh	r3, [r7, #14]	@ movhi
 2712 006a 7B69     		ldr	r3, [r7, #20]
 2713 006c 5A1C     		adds	r2, r3, #1
 2714 006e 7A61     		str	r2, [r7, #20]
ARM GAS  C:\Users\user\AppData\Local\Temp\ccnu1L5f.s 			page 48


 2715 0070 5B00     		lsls	r3, r3, #1
 2716 0072 7A68     		ldr	r2, [r7, #4]
 2717 0074 1344     		add	r3, r3, r2
 2718 0076 FA89     		ldrh	r2, [r7, #14]	@ movhi
 2719 0078 1A80     		strh	r2, [r3]	@ movhi
 2720 007a 06E0     		b	.L243
 2721              	.L241:
 2722 007c BB89     		ldrh	r3, [r7, #12]
 2723 007e 4FF6FF72 		movw	r2, #65535
 2724 0082 9342     		cmp	r3, r2
 2725 0084 01D0     		beq	.L243
 2726 0086 0023     		movs	r3, #0
 2727 0088 17E0     		b	.L239
 2728              	.L243:
 2729 008a 3B69     		ldr	r3, [r7, #16]
 2730 008c 0133     		adds	r3, r3, #1
 2731 008e 3B61     		str	r3, [r7, #16]
 2732              	.L240:
 2733 0090 3B69     		ldr	r3, [r7, #16]
 2734 0092 0C2B     		cmp	r3, #12
 2735 0094 D3D9     		bls	.L244
 2736 0096 3B68     		ldr	r3, [r7]
 2737 0098 1B78     		ldrb	r3, [r3]	@ zero_extendqisi2
 2738 009a 03F04003 		and	r3, r3, #64
 2739 009e 002B     		cmp	r3, #0
 2740 00a0 0AD0     		beq	.L245
 2741 00a2 7B69     		ldr	r3, [r7, #20]
 2742 00a4 FE2B     		cmp	r3, #254
 2743 00a6 01D9     		bls	.L246
 2744 00a8 0023     		movs	r3, #0
 2745 00aa 06E0     		b	.L239
 2746              	.L246:
 2747 00ac 7B69     		ldr	r3, [r7, #20]
 2748 00ae 5B00     		lsls	r3, r3, #1
 2749 00b0 7A68     		ldr	r2, [r7, #4]
 2750 00b2 1344     		add	r3, r3, r2
 2751 00b4 0022     		movs	r2, #0
 2752 00b6 1A80     		strh	r2, [r3]	@ movhi
 2753              	.L245:
 2754 00b8 0123     		movs	r3, #1
 2755              	.L239:
 2756 00ba 1846     		mov	r0, r3
 2757 00bc 1837     		adds	r7, r7, #24
 2758 00be BD46     		mov	sp, r7
 2759              		@ sp needed
 2760 00c0 80BD     		pop	{r7, pc}
 2761              	.L248:
 2762 00c2 00BF     		.align	2
 2763              	.L247:
 2764 00c4 00000000 		.word	LfnOfs
 2766              		.section	.text.put_lfn,"ax",%progbits
 2767              		.align	1
 2768              		.syntax unified
 2769              		.thumb
 2770              		.thumb_func
 2772              	put_lfn:
 2773              		@ args = 0, pretend = 0, frame = 32
ARM GAS  C:\Users\user\AppData\Local\Temp\ccnu1L5f.s 			page 49


 2774              		@ frame_needed = 1, uses_anonymous_args = 0
 2775 0000 80B5     		push	{r7, lr}
 2776 0002 88B0     		sub	sp, sp, #32
 2777 0004 00AF     		add	r7, sp, #0
 2778 0006 F860     		str	r0, [r7, #12]
 2779 0008 B960     		str	r1, [r7, #8]
 2780 000a 1146     		mov	r1, r2
 2781 000c 1A46     		mov	r2, r3
 2782 000e 0B46     		mov	r3, r1
 2783 0010 FB71     		strb	r3, [r7, #7]
 2784 0012 1346     		mov	r3, r2
 2785 0014 BB71     		strb	r3, [r7, #6]
 2786 0016 BB68     		ldr	r3, [r7, #8]
 2787 0018 0D33     		adds	r3, r3, #13
 2788 001a BA79     		ldrb	r2, [r7, #6]
 2789 001c 1A70     		strb	r2, [r3]
 2790 001e BB68     		ldr	r3, [r7, #8]
 2791 0020 0B33     		adds	r3, r3, #11
 2792 0022 0F22     		movs	r2, #15
 2793 0024 1A70     		strb	r2, [r3]
 2794 0026 BB68     		ldr	r3, [r7, #8]
 2795 0028 0C33     		adds	r3, r3, #12
 2796 002a 0022     		movs	r2, #0
 2797 002c 1A70     		strb	r2, [r3]
 2798 002e BB68     		ldr	r3, [r7, #8]
 2799 0030 1A33     		adds	r3, r3, #26
 2800 0032 0021     		movs	r1, #0
 2801 0034 1846     		mov	r0, r3
 2802 0036 FFF7FEFF 		bl	st_word
 2803 003a FB79     		ldrb	r3, [r7, #7]	@ zero_extendqisi2
 2804 003c 5A1E     		subs	r2, r3, #1
 2805 003e 1346     		mov	r3, r2
 2806 0040 5B00     		lsls	r3, r3, #1
 2807 0042 1344     		add	r3, r3, r2
 2808 0044 9B00     		lsls	r3, r3, #2
 2809 0046 1344     		add	r3, r3, r2
 2810 0048 FB61     		str	r3, [r7, #28]
 2811 004a 0023     		movs	r3, #0
 2812 004c FB82     		strh	r3, [r7, #22]	@ movhi
 2813 004e 0023     		movs	r3, #0
 2814 0050 BB61     		str	r3, [r7, #24]
 2815              	.L252:
 2816 0052 FB8A     		ldrh	r3, [r7, #22]
 2817 0054 4FF6FF72 		movw	r2, #65535
 2818 0058 9342     		cmp	r3, r2
 2819 005a 07D0     		beq	.L250
 2820 005c FB69     		ldr	r3, [r7, #28]
 2821 005e 5A1C     		adds	r2, r3, #1
 2822 0060 FA61     		str	r2, [r7, #28]
 2823 0062 5B00     		lsls	r3, r3, #1
 2824 0064 FA68     		ldr	r2, [r7, #12]
 2825 0066 1344     		add	r3, r3, r2
 2826 0068 1B88     		ldrh	r3, [r3]	@ movhi
 2827 006a FB82     		strh	r3, [r7, #22]	@ movhi
 2828              	.L250:
 2829 006c 174A     		ldr	r2, .L255
 2830 006e BB69     		ldr	r3, [r7, #24]
ARM GAS  C:\Users\user\AppData\Local\Temp\ccnu1L5f.s 			page 50


 2831 0070 1344     		add	r3, r3, r2
 2832 0072 1B78     		ldrb	r3, [r3]	@ zero_extendqisi2
 2833 0074 1A46     		mov	r2, r3
 2834 0076 BB68     		ldr	r3, [r7, #8]
 2835 0078 1344     		add	r3, r3, r2
 2836 007a FA8A     		ldrh	r2, [r7, #22]
 2837 007c 1146     		mov	r1, r2
 2838 007e 1846     		mov	r0, r3
 2839 0080 FFF7FEFF 		bl	st_word
 2840 0084 FB8A     		ldrh	r3, [r7, #22]
 2841 0086 002B     		cmp	r3, #0
 2842 0088 02D1     		bne	.L251
 2843 008a 4FF6FF73 		movw	r3, #65535
 2844 008e FB82     		strh	r3, [r7, #22]	@ movhi
 2845              	.L251:
 2846 0090 BB69     		ldr	r3, [r7, #24]
 2847 0092 0133     		adds	r3, r3, #1
 2848 0094 BB61     		str	r3, [r7, #24]
 2849 0096 BB69     		ldr	r3, [r7, #24]
 2850 0098 0C2B     		cmp	r3, #12
 2851 009a DAD9     		bls	.L252
 2852 009c FB8A     		ldrh	r3, [r7, #22]
 2853 009e 4FF6FF72 		movw	r2, #65535
 2854 00a2 9342     		cmp	r3, r2
 2855 00a4 06D0     		beq	.L253
 2856 00a6 FB69     		ldr	r3, [r7, #28]
 2857 00a8 5B00     		lsls	r3, r3, #1
 2858 00aa FA68     		ldr	r2, [r7, #12]
 2859 00ac 1344     		add	r3, r3, r2
 2860 00ae 1B88     		ldrh	r3, [r3]
 2861 00b0 002B     		cmp	r3, #0
 2862 00b2 03D1     		bne	.L254
 2863              	.L253:
 2864 00b4 FB79     		ldrb	r3, [r7, #7]
 2865 00b6 43F04003 		orr	r3, r3, #64
 2866 00ba FB71     		strb	r3, [r7, #7]
 2867              	.L254:
 2868 00bc BB68     		ldr	r3, [r7, #8]
 2869 00be FA79     		ldrb	r2, [r7, #7]
 2870 00c0 1A70     		strb	r2, [r3]
 2871 00c2 00BF     		nop
 2872 00c4 2037     		adds	r7, r7, #32
 2873 00c6 BD46     		mov	sp, r7
 2874              		@ sp needed
 2875 00c8 80BD     		pop	{r7, pc}
 2876              	.L256:
 2877 00ca 00BF     		.align	2
 2878              	.L255:
 2879 00cc 00000000 		.word	LfnOfs
 2881              		.section	.text.gen_numname,"ax",%progbits
 2882              		.align	1
 2883              		.syntax unified
 2884              		.thumb
 2885              		.thumb_func
 2887              	gen_numname:
 2888              		@ args = 0, pretend = 0, frame = 48
 2889              		@ frame_needed = 1, uses_anonymous_args = 0
ARM GAS  C:\Users\user\AppData\Local\Temp\ccnu1L5f.s 			page 51


 2890 0000 80B5     		push	{r7, lr}
 2891 0002 8CB0     		sub	sp, sp, #48
 2892 0004 00AF     		add	r7, sp, #0
 2893 0006 F860     		str	r0, [r7, #12]
 2894 0008 B960     		str	r1, [r7, #8]
 2895 000a 7A60     		str	r2, [r7, #4]
 2896 000c 3B60     		str	r3, [r7]
 2897 000e 0B22     		movs	r2, #11
 2898 0010 B968     		ldr	r1, [r7, #8]
 2899 0012 F868     		ldr	r0, [r7, #12]
 2900 0014 FFF7FEFF 		bl	mem_cpy
 2901 0018 3B68     		ldr	r3, [r7]
 2902 001a 052B     		cmp	r3, #5
 2903 001c 2BD9     		bls	.L258
 2904 001e 3B68     		ldr	r3, [r7]
 2905 0020 FB61     		str	r3, [r7, #28]
 2906 0022 22E0     		b	.L259
 2907              	.L263:
 2908 0024 7B68     		ldr	r3, [r7, #4]
 2909 0026 9A1C     		adds	r2, r3, #2
 2910 0028 7A60     		str	r2, [r7, #4]
 2911 002a 1B88     		ldrh	r3, [r3]	@ movhi
 2912 002c 7B84     		strh	r3, [r7, #34]	@ movhi
 2913 002e 0023     		movs	r3, #0
 2914 0030 BB62     		str	r3, [r7, #40]
 2915 0032 17E0     		b	.L260
 2916              	.L262:
 2917 0034 FB69     		ldr	r3, [r7, #28]
 2918 0036 5A00     		lsls	r2, r3, #1
 2919 0038 7B8C     		ldrh	r3, [r7, #34]
 2920 003a 03F00103 		and	r3, r3, #1
 2921 003e 1344     		add	r3, r3, r2
 2922 0040 FB61     		str	r3, [r7, #28]
 2923 0042 7B8C     		ldrh	r3, [r7, #34]
 2924 0044 5B08     		lsrs	r3, r3, #1
 2925 0046 7B84     		strh	r3, [r7, #34]	@ movhi
 2926 0048 FB69     		ldr	r3, [r7, #28]
 2927 004a 03F48033 		and	r3, r3, #65536
 2928 004e 002B     		cmp	r3, #0
 2929 0050 05D0     		beq	.L261
 2930 0052 FB69     		ldr	r3, [r7, #28]
 2931 0054 83F48833 		eor	r3, r3, #69632
 2932 0058 83F02103 		eor	r3, r3, #33
 2933 005c FB61     		str	r3, [r7, #28]
 2934              	.L261:
 2935 005e BB6A     		ldr	r3, [r7, #40]
 2936 0060 0133     		adds	r3, r3, #1
 2937 0062 BB62     		str	r3, [r7, #40]
 2938              	.L260:
 2939 0064 BB6A     		ldr	r3, [r7, #40]
 2940 0066 0F2B     		cmp	r3, #15
 2941 0068 E4D9     		bls	.L262
 2942              	.L259:
 2943 006a 7B68     		ldr	r3, [r7, #4]
 2944 006c 1B88     		ldrh	r3, [r3]
 2945 006e 002B     		cmp	r3, #0
 2946 0070 D8D1     		bne	.L263
ARM GAS  C:\Users\user\AppData\Local\Temp\ccnu1L5f.s 			page 52


 2947 0072 FB69     		ldr	r3, [r7, #28]
 2948 0074 3B60     		str	r3, [r7]
 2949              	.L258:
 2950 0076 0723     		movs	r3, #7
 2951 0078 BB62     		str	r3, [r7, #40]
 2952              	.L265:
 2953 007a 3B68     		ldr	r3, [r7]
 2954 007c DBB2     		uxtb	r3, r3
 2955 007e 03F00F03 		and	r3, r3, #15
 2956 0082 DBB2     		uxtb	r3, r3
 2957 0084 3033     		adds	r3, r3, #48
 2958 0086 87F82F30 		strb	r3, [r7, #47]
 2959 008a 97F82F30 		ldrb	r3, [r7, #47]	@ zero_extendqisi2
 2960 008e 392B     		cmp	r3, #57
 2961 0090 04D9     		bls	.L264
 2962 0092 97F82F30 		ldrb	r3, [r7, #47]
 2963 0096 0733     		adds	r3, r3, #7
 2964 0098 87F82F30 		strb	r3, [r7, #47]
 2965              	.L264:
 2966 009c BB6A     		ldr	r3, [r7, #40]
 2967 009e 5A1E     		subs	r2, r3, #1
 2968 00a0 BA62     		str	r2, [r7, #40]
 2969 00a2 3033     		adds	r3, r3, #48
 2970 00a4 3B44     		add	r3, r3, r7
 2971 00a6 97F82F20 		ldrb	r2, [r7, #47]
 2972 00aa 03F81C2C 		strb	r2, [r3, #-28]
 2973 00ae 3B68     		ldr	r3, [r7]
 2974 00b0 1B09     		lsrs	r3, r3, #4
 2975 00b2 3B60     		str	r3, [r7]
 2976 00b4 3B68     		ldr	r3, [r7]
 2977 00b6 002B     		cmp	r3, #0
 2978 00b8 DFD1     		bne	.L265
 2979 00ba 07F11402 		add	r2, r7, #20
 2980 00be BB6A     		ldr	r3, [r7, #40]
 2981 00c0 1344     		add	r3, r3, r2
 2982 00c2 7E22     		movs	r2, #126
 2983 00c4 1A70     		strb	r2, [r3]
 2984 00c6 0023     		movs	r3, #0
 2985 00c8 7B62     		str	r3, [r7, #36]
 2986 00ca 02E0     		b	.L266
 2987              	.L268:
 2988 00cc 7B6A     		ldr	r3, [r7, #36]
 2989 00ce 0133     		adds	r3, r3, #1
 2990 00d0 7B62     		str	r3, [r7, #36]
 2991              	.L266:
 2992 00d2 7A6A     		ldr	r2, [r7, #36]
 2993 00d4 BB6A     		ldr	r3, [r7, #40]
 2994 00d6 9A42     		cmp	r2, r3
 2995 00d8 05D2     		bcs	.L271
 2996 00da FA68     		ldr	r2, [r7, #12]
 2997 00dc 7B6A     		ldr	r3, [r7, #36]
 2998 00de 1344     		add	r3, r3, r2
 2999 00e0 1B78     		ldrb	r3, [r3]	@ zero_extendqisi2
 3000 00e2 202B     		cmp	r3, #32
 3001 00e4 F2D1     		bne	.L268
 3002              	.L271:
 3003 00e6 BB6A     		ldr	r3, [r7, #40]
ARM GAS  C:\Users\user\AppData\Local\Temp\ccnu1L5f.s 			page 53


 3004 00e8 072B     		cmp	r3, #7
 3005 00ea 07D8     		bhi	.L269
 3006 00ec BB6A     		ldr	r3, [r7, #40]
 3007 00ee 5A1C     		adds	r2, r3, #1
 3008 00f0 BA62     		str	r2, [r7, #40]
 3009 00f2 3033     		adds	r3, r3, #48
 3010 00f4 3B44     		add	r3, r3, r7
 3011 00f6 13F81C1C 		ldrb	r1, [r3, #-28]	@ zero_extendqisi2
 3012 00fa 00E0     		b	.L270
 3013              	.L269:
 3014 00fc 2021     		movs	r1, #32
 3015              	.L270:
 3016 00fe 7B6A     		ldr	r3, [r7, #36]
 3017 0100 5A1C     		adds	r2, r3, #1
 3018 0102 7A62     		str	r2, [r7, #36]
 3019 0104 FA68     		ldr	r2, [r7, #12]
 3020 0106 1344     		add	r3, r3, r2
 3021 0108 0A46     		mov	r2, r1
 3022 010a 1A70     		strb	r2, [r3]
 3023 010c 7B6A     		ldr	r3, [r7, #36]
 3024 010e 072B     		cmp	r3, #7
 3025 0110 E9D9     		bls	.L271
 3026 0112 00BF     		nop
 3027 0114 00BF     		nop
 3028 0116 3037     		adds	r7, r7, #48
 3029 0118 BD46     		mov	sp, r7
 3030              		@ sp needed
 3031 011a 80BD     		pop	{r7, pc}
 3033              		.section	.text.sum_sfn,"ax",%progbits
 3034              		.align	1
 3035              		.syntax unified
 3036              		.thumb
 3037              		.thumb_func
 3039              	sum_sfn:
 3040              		@ args = 0, pretend = 0, frame = 16
 3041              		@ frame_needed = 1, uses_anonymous_args = 0
 3042              		@ link register save eliminated.
 3043 0000 80B4     		push	{r7}
 3044 0002 85B0     		sub	sp, sp, #20
 3045 0004 00AF     		add	r7, sp, #0
 3046 0006 7860     		str	r0, [r7, #4]
 3047 0008 0023     		movs	r3, #0
 3048 000a FB73     		strb	r3, [r7, #15]
 3049 000c 0B23     		movs	r3, #11
 3050 000e BB60     		str	r3, [r7, #8]
 3051              	.L273:
 3052 0010 FB7B     		ldrb	r3, [r7, #15]
 3053 0012 DAB2     		uxtb	r2, r3
 3054 0014 5208     		lsrs	r2, r2, #1
 3055 0016 DB01     		lsls	r3, r3, #7
 3056 0018 1343     		orrs	r3, r3, r2
 3057 001a DAB2     		uxtb	r2, r3
 3058 001c 7B68     		ldr	r3, [r7, #4]
 3059 001e 591C     		adds	r1, r3, #1
 3060 0020 7960     		str	r1, [r7, #4]
 3061 0022 1B78     		ldrb	r3, [r3]	@ zero_extendqisi2
 3062 0024 1344     		add	r3, r3, r2
ARM GAS  C:\Users\user\AppData\Local\Temp\ccnu1L5f.s 			page 54


 3063 0026 FB73     		strb	r3, [r7, #15]
 3064 0028 BB68     		ldr	r3, [r7, #8]
 3065 002a 013B     		subs	r3, r3, #1
 3066 002c BB60     		str	r3, [r7, #8]
 3067 002e BB68     		ldr	r3, [r7, #8]
 3068 0030 002B     		cmp	r3, #0
 3069 0032 EDD1     		bne	.L273
 3070 0034 FB7B     		ldrb	r3, [r7, #15]	@ zero_extendqisi2
 3071 0036 1846     		mov	r0, r3
 3072 0038 1437     		adds	r7, r7, #20
 3073 003a BD46     		mov	sp, r7
 3074              		@ sp needed
 3075 003c 5DF8047B 		ldr	r7, [sp], #4
 3076 0040 7047     		bx	lr
 3078              		.section	.text.dir_read,"ax",%progbits
 3079              		.align	1
 3080              		.syntax unified
 3081              		.thumb
 3082              		.thumb_func
 3084              	dir_read:
 3085              		@ args = 0, pretend = 0, frame = 24
 3086              		@ frame_needed = 1, uses_anonymous_args = 0
 3087 0000 80B5     		push	{r7, lr}
 3088 0002 86B0     		sub	sp, sp, #24
 3089 0004 00AF     		add	r7, sp, #0
 3090 0006 7860     		str	r0, [r7, #4]
 3091 0008 3960     		str	r1, [r7]
 3092 000a 0423     		movs	r3, #4
 3093 000c FB75     		strb	r3, [r7, #23]
 3094 000e 7B68     		ldr	r3, [r7, #4]
 3095 0010 1B68     		ldr	r3, [r3]
 3096 0012 3B61     		str	r3, [r7, #16]
 3097 0014 FF23     		movs	r3, #255
 3098 0016 7B75     		strb	r3, [r7, #21]
 3099 0018 FF23     		movs	r3, #255
 3100 001a 3B75     		strb	r3, [r7, #20]
 3101 001c 81E0     		b	.L276
 3102              	.L289:
 3103 001e 7B68     		ldr	r3, [r7, #4]
 3104 0020 DB69     		ldr	r3, [r3, #28]
 3105 0022 1946     		mov	r1, r3
 3106 0024 3869     		ldr	r0, [r7, #16]
 3107 0026 FFF7FEFF 		bl	move_window
 3108 002a 0346     		mov	r3, r0
 3109 002c FB75     		strb	r3, [r7, #23]
 3110 002e FB7D     		ldrb	r3, [r7, #23]	@ zero_extendqisi2
 3111 0030 002B     		cmp	r3, #0
 3112 0032 7CD1     		bne	.L292
 3113 0034 7B68     		ldr	r3, [r7, #4]
 3114 0036 1B6A     		ldr	r3, [r3, #32]
 3115 0038 1B78     		ldrb	r3, [r3]
 3116 003a BB75     		strb	r3, [r7, #22]
 3117 003c BB7D     		ldrb	r3, [r7, #22]	@ zero_extendqisi2
 3118 003e 002B     		cmp	r3, #0
 3119 0040 02D1     		bne	.L279
 3120 0042 0423     		movs	r3, #4
 3121 0044 FB75     		strb	r3, [r7, #23]
ARM GAS  C:\Users\user\AppData\Local\Temp\ccnu1L5f.s 			page 55


 3122 0046 77E0     		b	.L278
 3123              	.L279:
 3124 0048 7B68     		ldr	r3, [r7, #4]
 3125 004a 1B6A     		ldr	r3, [r3, #32]
 3126 004c 0B33     		adds	r3, r3, #11
 3127 004e 1B78     		ldrb	r3, [r3]	@ zero_extendqisi2
 3128 0050 03F03F03 		and	r3, r3, #63
 3129 0054 FB73     		strb	r3, [r7, #15]
 3130 0056 7B68     		ldr	r3, [r7, #4]
 3131 0058 FA7B     		ldrb	r2, [r7, #15]
 3132 005a 9A71     		strb	r2, [r3, #6]
 3133 005c BB7D     		ldrb	r3, [r7, #22]	@ zero_extendqisi2
 3134 005e E52B     		cmp	r3, #229
 3135 0060 0ED0     		beq	.L280
 3136 0062 BB7D     		ldrb	r3, [r7, #22]	@ zero_extendqisi2
 3137 0064 2E2B     		cmp	r3, #46
 3138 0066 0BD0     		beq	.L280
 3139 0068 FB7B     		ldrb	r3, [r7, #15]	@ zero_extendqisi2
 3140 006a 23F02003 		bic	r3, r3, #32
 3141 006e 082B     		cmp	r3, #8
 3142 0070 0CBF     		ite	eq
 3143 0072 0123     		moveq	r3, #1
 3144 0074 0023     		movne	r3, #0
 3145 0076 DBB2     		uxtb	r3, r3
 3146 0078 1A46     		mov	r2, r3
 3147 007a 3B68     		ldr	r3, [r7]
 3148 007c 9342     		cmp	r3, r2
 3149 007e 02D0     		beq	.L281
 3150              	.L280:
 3151 0080 FF23     		movs	r3, #255
 3152 0082 7B75     		strb	r3, [r7, #21]
 3153 0084 44E0     		b	.L282
 3154              	.L281:
 3155 0086 FB7B     		ldrb	r3, [r7, #15]	@ zero_extendqisi2
 3156 0088 0F2B     		cmp	r3, #15
 3157 008a 2FD1     		bne	.L283
 3158 008c BB7D     		ldrb	r3, [r7, #22]	@ zero_extendqisi2
 3159 008e 03F04003 		and	r3, r3, #64
 3160 0092 002B     		cmp	r3, #0
 3161 0094 0DD0     		beq	.L284
 3162 0096 7B68     		ldr	r3, [r7, #4]
 3163 0098 1B6A     		ldr	r3, [r3, #32]
 3164 009a 5B7B     		ldrb	r3, [r3, #13]
 3165 009c 3B75     		strb	r3, [r7, #20]
 3166 009e BB7D     		ldrb	r3, [r7, #22]
 3167 00a0 23F04003 		bic	r3, r3, #64
 3168 00a4 BB75     		strb	r3, [r7, #22]
 3169 00a6 BB7D     		ldrb	r3, [r7, #22]
 3170 00a8 7B75     		strb	r3, [r7, #21]
 3171 00aa 7B68     		ldr	r3, [r7, #4]
 3172 00ac 5A69     		ldr	r2, [r3, #20]
 3173 00ae 7B68     		ldr	r3, [r7, #4]
 3174 00b0 1A63     		str	r2, [r3, #48]
 3175              	.L284:
 3176 00b2 BA7D     		ldrb	r2, [r7, #22]	@ zero_extendqisi2
 3177 00b4 7B7D     		ldrb	r3, [r7, #21]	@ zero_extendqisi2
 3178 00b6 9A42     		cmp	r2, r3
ARM GAS  C:\Users\user\AppData\Local\Temp\ccnu1L5f.s 			page 56


 3179 00b8 15D1     		bne	.L285
 3180 00ba 7B68     		ldr	r3, [r7, #4]
 3181 00bc 1B6A     		ldr	r3, [r3, #32]
 3182 00be 0D33     		adds	r3, r3, #13
 3183 00c0 1B78     		ldrb	r3, [r3]	@ zero_extendqisi2
 3184 00c2 3A7D     		ldrb	r2, [r7, #20]	@ zero_extendqisi2
 3185 00c4 9A42     		cmp	r2, r3
 3186 00c6 0ED1     		bne	.L285
 3187 00c8 3B69     		ldr	r3, [r7, #16]
 3188 00ca 1A69     		ldr	r2, [r3, #16]
 3189 00cc 7B68     		ldr	r3, [r7, #4]
 3190 00ce 1B6A     		ldr	r3, [r3, #32]
 3191 00d0 1946     		mov	r1, r3
 3192 00d2 1046     		mov	r0, r2
 3193 00d4 FFF7FEFF 		bl	pick_lfn
 3194 00d8 0346     		mov	r3, r0
 3195 00da 002B     		cmp	r3, #0
 3196 00dc 03D0     		beq	.L285
 3197 00de 7B7D     		ldrb	r3, [r7, #21]
 3198 00e0 013B     		subs	r3, r3, #1
 3199 00e2 DBB2     		uxtb	r3, r3
 3200 00e4 00E0     		b	.L286
 3201              	.L285:
 3202 00e6 FF23     		movs	r3, #255
 3203              	.L286:
 3204 00e8 7B75     		strb	r3, [r7, #21]
 3205 00ea 11E0     		b	.L282
 3206              	.L283:
 3207 00ec 7B7D     		ldrb	r3, [r7, #21]	@ zero_extendqisi2
 3208 00ee 002B     		cmp	r3, #0
 3209 00f0 09D1     		bne	.L287
 3210 00f2 7B68     		ldr	r3, [r7, #4]
 3211 00f4 1B6A     		ldr	r3, [r3, #32]
 3212 00f6 1846     		mov	r0, r3
 3213 00f8 FFF7FEFF 		bl	sum_sfn
 3214 00fc 0346     		mov	r3, r0
 3215 00fe 1A46     		mov	r2, r3
 3216 0100 3B7D     		ldrb	r3, [r7, #20]	@ zero_extendqisi2
 3217 0102 9342     		cmp	r3, r2
 3218 0104 15D0     		beq	.L293
 3219              	.L287:
 3220 0106 7B68     		ldr	r3, [r7, #4]
 3221 0108 4FF0FF32 		mov	r2, #-1
 3222 010c 1A63     		str	r2, [r3, #48]
 3223 010e 10E0     		b	.L293
 3224              	.L282:
 3225 0110 0021     		movs	r1, #0
 3226 0112 7868     		ldr	r0, [r7, #4]
 3227 0114 FFF7FEFF 		bl	dir_next
 3228 0118 0346     		mov	r3, r0
 3229 011a FB75     		strb	r3, [r7, #23]
 3230 011c FB7D     		ldrb	r3, [r7, #23]	@ zero_extendqisi2
 3231 011e 002B     		cmp	r3, #0
 3232 0120 09D1     		bne	.L294
 3233              	.L276:
 3234 0122 7B68     		ldr	r3, [r7, #4]
 3235 0124 DB69     		ldr	r3, [r3, #28]
ARM GAS  C:\Users\user\AppData\Local\Temp\ccnu1L5f.s 			page 57


 3236 0126 002B     		cmp	r3, #0
 3237 0128 7FF479AF 		bne	.L289
 3238 012c 04E0     		b	.L278
 3239              	.L292:
 3240 012e 00BF     		nop
 3241 0130 02E0     		b	.L278
 3242              	.L293:
 3243 0132 00BF     		nop
 3244 0134 00E0     		b	.L278
 3245              	.L294:
 3246 0136 00BF     		nop
 3247              	.L278:
 3248 0138 FB7D     		ldrb	r3, [r7, #23]	@ zero_extendqisi2
 3249 013a 002B     		cmp	r3, #0
 3250 013c 02D0     		beq	.L290
 3251 013e 7B68     		ldr	r3, [r7, #4]
 3252 0140 0022     		movs	r2, #0
 3253 0142 DA61     		str	r2, [r3, #28]
 3254              	.L290:
 3255 0144 FB7D     		ldrb	r3, [r7, #23]	@ zero_extendqisi2
 3256 0146 1846     		mov	r0, r3
 3257 0148 1837     		adds	r7, r7, #24
 3258 014a BD46     		mov	sp, r7
 3259              		@ sp needed
 3260 014c 80BD     		pop	{r7, pc}
 3262              		.section	.text.dir_find,"ax",%progbits
 3263              		.align	1
 3264              		.syntax unified
 3265              		.thumb
 3266              		.thumb_func
 3268              	dir_find:
 3269              		@ args = 0, pretend = 0, frame = 24
 3270              		@ frame_needed = 1, uses_anonymous_args = 0
 3271 0000 80B5     		push	{r7, lr}
 3272 0002 86B0     		sub	sp, sp, #24
 3273 0004 00AF     		add	r7, sp, #0
 3274 0006 7860     		str	r0, [r7, #4]
 3275 0008 7B68     		ldr	r3, [r7, #4]
 3276 000a 1B68     		ldr	r3, [r3]
 3277 000c 3B61     		str	r3, [r7, #16]
 3278 000e 0021     		movs	r1, #0
 3279 0010 7868     		ldr	r0, [r7, #4]
 3280 0012 FFF7FEFF 		bl	dir_sdi
 3281 0016 0346     		mov	r3, r0
 3282 0018 FB75     		strb	r3, [r7, #23]
 3283 001a FB7D     		ldrb	r3, [r7, #23]	@ zero_extendqisi2
 3284 001c 002B     		cmp	r3, #0
 3285 001e 01D0     		beq	.L296
 3286 0020 FB7D     		ldrb	r3, [r7, #23]	@ zero_extendqisi2
 3287 0022 A9E0     		b	.L297
 3288              	.L296:
 3289 0024 FF23     		movs	r3, #255
 3290 0026 3B75     		strb	r3, [r7, #20]
 3291 0028 3B7D     		ldrb	r3, [r7, #20]
 3292 002a 7B75     		strb	r3, [r7, #21]
 3293 002c 7B68     		ldr	r3, [r7, #4]
 3294 002e 4FF0FF32 		mov	r2, #-1
ARM GAS  C:\Users\user\AppData\Local\Temp\ccnu1L5f.s 			page 58


 3295 0032 1A63     		str	r2, [r3, #48]
 3296              	.L310:
 3297 0034 7B68     		ldr	r3, [r7, #4]
 3298 0036 DB69     		ldr	r3, [r3, #28]
 3299 0038 1946     		mov	r1, r3
 3300 003a 3869     		ldr	r0, [r7, #16]
 3301 003c FFF7FEFF 		bl	move_window
 3302 0040 0346     		mov	r3, r0
 3303 0042 FB75     		strb	r3, [r7, #23]
 3304 0044 FB7D     		ldrb	r3, [r7, #23]	@ zero_extendqisi2
 3305 0046 002B     		cmp	r3, #0
 3306 0048 40F09080 		bne	.L311
 3307 004c 7B68     		ldr	r3, [r7, #4]
 3308 004e 1B6A     		ldr	r3, [r3, #32]
 3309 0050 1B78     		ldrb	r3, [r3]
 3310 0052 BB75     		strb	r3, [r7, #22]
 3311 0054 BB7D     		ldrb	r3, [r7, #22]	@ zero_extendqisi2
 3312 0056 002B     		cmp	r3, #0
 3313 0058 02D1     		bne	.L300
 3314 005a 0423     		movs	r3, #4
 3315 005c FB75     		strb	r3, [r7, #23]
 3316 005e 8AE0     		b	.L299
 3317              	.L300:
 3318 0060 7B68     		ldr	r3, [r7, #4]
 3319 0062 1B6A     		ldr	r3, [r3, #32]
 3320 0064 0B33     		adds	r3, r3, #11
 3321 0066 1B78     		ldrb	r3, [r3]	@ zero_extendqisi2
 3322 0068 03F03F03 		and	r3, r3, #63
 3323 006c FB73     		strb	r3, [r7, #15]
 3324 006e 7B68     		ldr	r3, [r7, #4]
 3325 0070 FA7B     		ldrb	r2, [r7, #15]
 3326 0072 9A71     		strb	r2, [r3, #6]
 3327 0074 BB7D     		ldrb	r3, [r7, #22]	@ zero_extendqisi2
 3328 0076 E52B     		cmp	r3, #229
 3329 0078 07D0     		beq	.L301
 3330 007a FB7B     		ldrb	r3, [r7, #15]	@ zero_extendqisi2
 3331 007c 03F00803 		and	r3, r3, #8
 3332 0080 002B     		cmp	r3, #0
 3333 0082 09D0     		beq	.L302
 3334 0084 FB7B     		ldrb	r3, [r7, #15]	@ zero_extendqisi2
 3335 0086 0F2B     		cmp	r3, #15
 3336 0088 06D0     		beq	.L302
 3337              	.L301:
 3338 008a FF23     		movs	r3, #255
 3339 008c 7B75     		strb	r3, [r7, #21]
 3340 008e 7B68     		ldr	r3, [r7, #4]
 3341 0090 4FF0FF32 		mov	r2, #-1
 3342 0094 1A63     		str	r2, [r3, #48]
 3343 0096 5EE0     		b	.L303
 3344              	.L302:
 3345 0098 FB7B     		ldrb	r3, [r7, #15]	@ zero_extendqisi2
 3346 009a 0F2B     		cmp	r3, #15
 3347 009c 36D1     		bne	.L304
 3348 009e 7B68     		ldr	r3, [r7, #4]
 3349 00a0 93F82F30 		ldrb	r3, [r3, #47]	@ zero_extendqisi2
 3350 00a4 03F04003 		and	r3, r3, #64
 3351 00a8 002B     		cmp	r3, #0
ARM GAS  C:\Users\user\AppData\Local\Temp\ccnu1L5f.s 			page 59


 3352 00aa 54D1     		bne	.L303
 3353 00ac BB7D     		ldrb	r3, [r7, #22]	@ zero_extendqisi2
 3354 00ae 03F04003 		and	r3, r3, #64
 3355 00b2 002B     		cmp	r3, #0
 3356 00b4 0DD0     		beq	.L305
 3357 00b6 7B68     		ldr	r3, [r7, #4]
 3358 00b8 1B6A     		ldr	r3, [r3, #32]
 3359 00ba 5B7B     		ldrb	r3, [r3, #13]
 3360 00bc 3B75     		strb	r3, [r7, #20]
 3361 00be BB7D     		ldrb	r3, [r7, #22]
 3362 00c0 23F04003 		bic	r3, r3, #64
 3363 00c4 BB75     		strb	r3, [r7, #22]
 3364 00c6 BB7D     		ldrb	r3, [r7, #22]
 3365 00c8 7B75     		strb	r3, [r7, #21]
 3366 00ca 7B68     		ldr	r3, [r7, #4]
 3367 00cc 5A69     		ldr	r2, [r3, #20]
 3368 00ce 7B68     		ldr	r3, [r7, #4]
 3369 00d0 1A63     		str	r2, [r3, #48]
 3370              	.L305:
 3371 00d2 BA7D     		ldrb	r2, [r7, #22]	@ zero_extendqisi2
 3372 00d4 7B7D     		ldrb	r3, [r7, #21]	@ zero_extendqisi2
 3373 00d6 9A42     		cmp	r2, r3
 3374 00d8 15D1     		bne	.L306
 3375 00da 7B68     		ldr	r3, [r7, #4]
 3376 00dc 1B6A     		ldr	r3, [r3, #32]
 3377 00de 0D33     		adds	r3, r3, #13
 3378 00e0 1B78     		ldrb	r3, [r3]	@ zero_extendqisi2
 3379 00e2 3A7D     		ldrb	r2, [r7, #20]	@ zero_extendqisi2
 3380 00e4 9A42     		cmp	r2, r3
 3381 00e6 0ED1     		bne	.L306
 3382 00e8 3B69     		ldr	r3, [r7, #16]
 3383 00ea 1A69     		ldr	r2, [r3, #16]
 3384 00ec 7B68     		ldr	r3, [r7, #4]
 3385 00ee 1B6A     		ldr	r3, [r3, #32]
 3386 00f0 1946     		mov	r1, r3
 3387 00f2 1046     		mov	r0, r2
 3388 00f4 FFF7FEFF 		bl	cmp_lfn
 3389 00f8 0346     		mov	r3, r0
 3390 00fa 002B     		cmp	r3, #0
 3391 00fc 03D0     		beq	.L306
 3392 00fe 7B7D     		ldrb	r3, [r7, #21]
 3393 0100 013B     		subs	r3, r3, #1
 3394 0102 DBB2     		uxtb	r3, r3
 3395 0104 00E0     		b	.L307
 3396              	.L306:
 3397 0106 FF23     		movs	r3, #255
 3398              	.L307:
 3399 0108 7B75     		strb	r3, [r7, #21]
 3400 010a 24E0     		b	.L303
 3401              	.L304:
 3402 010c 7B7D     		ldrb	r3, [r7, #21]	@ zero_extendqisi2
 3403 010e 002B     		cmp	r3, #0
 3404 0110 09D1     		bne	.L308
 3405 0112 7B68     		ldr	r3, [r7, #4]
 3406 0114 1B6A     		ldr	r3, [r3, #32]
 3407 0116 1846     		mov	r0, r3
 3408 0118 FFF7FEFF 		bl	sum_sfn
ARM GAS  C:\Users\user\AppData\Local\Temp\ccnu1L5f.s 			page 60


 3409 011c 0346     		mov	r3, r0
 3410 011e 1A46     		mov	r2, r3
 3411 0120 3B7D     		ldrb	r3, [r7, #20]	@ zero_extendqisi2
 3412 0122 9342     		cmp	r3, r2
 3413 0124 24D0     		beq	.L312
 3414              	.L308:
 3415 0126 7B68     		ldr	r3, [r7, #4]
 3416 0128 93F82F30 		ldrb	r3, [r3, #47]	@ zero_extendqisi2
 3417 012c 03F00103 		and	r3, r3, #1
 3418 0130 002B     		cmp	r3, #0
 3419 0132 0AD1     		bne	.L309
 3420 0134 7B68     		ldr	r3, [r7, #4]
 3421 0136 186A     		ldr	r0, [r3, #32]
 3422 0138 7B68     		ldr	r3, [r7, #4]
 3423 013a 2433     		adds	r3, r3, #36
 3424 013c 0B22     		movs	r2, #11
 3425 013e 1946     		mov	r1, r3
 3426 0140 FFF7FEFF 		bl	mem_cmp
 3427 0144 0346     		mov	r3, r0
 3428 0146 002B     		cmp	r3, #0
 3429 0148 14D0     		beq	.L313
 3430              	.L309:
 3431 014a FF23     		movs	r3, #255
 3432 014c 7B75     		strb	r3, [r7, #21]
 3433 014e 7B68     		ldr	r3, [r7, #4]
 3434 0150 4FF0FF32 		mov	r2, #-1
 3435 0154 1A63     		str	r2, [r3, #48]
 3436              	.L303:
 3437 0156 0021     		movs	r1, #0
 3438 0158 7868     		ldr	r0, [r7, #4]
 3439 015a FFF7FEFF 		bl	dir_next
 3440 015e 0346     		mov	r3, r0
 3441 0160 FB75     		strb	r3, [r7, #23]
 3442 0162 FB7D     		ldrb	r3, [r7, #23]	@ zero_extendqisi2
 3443 0164 002B     		cmp	r3, #0
 3444 0166 3FF465AF 		beq	.L310
 3445 016a 04E0     		b	.L299
 3446              	.L311:
 3447 016c 00BF     		nop
 3448 016e 02E0     		b	.L299
 3449              	.L312:
 3450 0170 00BF     		nop
 3451 0172 00E0     		b	.L299
 3452              	.L313:
 3453 0174 00BF     		nop
 3454              	.L299:
 3455 0176 FB7D     		ldrb	r3, [r7, #23]	@ zero_extendqisi2
 3456              	.L297:
 3457 0178 1846     		mov	r0, r3
 3458 017a 1837     		adds	r7, r7, #24
 3459 017c BD46     		mov	sp, r7
 3460              		@ sp needed
 3461 017e 80BD     		pop	{r7, pc}
 3463              		.section	.text.dir_register,"ax",%progbits
 3464              		.align	1
 3465              		.syntax unified
 3466              		.thumb
ARM GAS  C:\Users\user\AppData\Local\Temp\ccnu1L5f.s 			page 61


 3467              		.thumb_func
 3469              	dir_register:
 3470              		@ args = 0, pretend = 0, frame = 48
 3471              		@ frame_needed = 1, uses_anonymous_args = 0
 3472 0000 80B5     		push	{r7, lr}
 3473 0002 8CB0     		sub	sp, sp, #48
 3474 0004 00AF     		add	r7, sp, #0
 3475 0006 7860     		str	r0, [r7, #4]
 3476 0008 7B68     		ldr	r3, [r7, #4]
 3477 000a 1B68     		ldr	r3, [r3]
 3478 000c FB61     		str	r3, [r7, #28]
 3479 000e 7B68     		ldr	r3, [r7, #4]
 3480 0010 93F82F30 		ldrb	r3, [r3, #47]	@ zero_extendqisi2
 3481 0014 03F0A003 		and	r3, r3, #160
 3482 0018 002B     		cmp	r3, #0
 3483 001a 01D0     		beq	.L315
 3484 001c 0623     		movs	r3, #6
 3485 001e E0E0     		b	.L332
 3486              	.L315:
 3487 0020 0023     		movs	r3, #0
 3488 0022 7B62     		str	r3, [r7, #36]
 3489 0024 02E0     		b	.L317
 3490              	.L318:
 3491 0026 7B6A     		ldr	r3, [r7, #36]
 3492 0028 0133     		adds	r3, r3, #1
 3493 002a 7B62     		str	r3, [r7, #36]
 3494              	.L317:
 3495 002c FB69     		ldr	r3, [r7, #28]
 3496 002e 1A69     		ldr	r2, [r3, #16]
 3497 0030 7B6A     		ldr	r3, [r7, #36]
 3498 0032 5B00     		lsls	r3, r3, #1
 3499 0034 1344     		add	r3, r3, r2
 3500 0036 1B88     		ldrh	r3, [r3]
 3501 0038 002B     		cmp	r3, #0
 3502 003a F4D1     		bne	.L318
 3503 003c 7B68     		ldr	r3, [r7, #4]
 3504 003e 03F12401 		add	r1, r3, #36
 3505 0042 07F10C03 		add	r3, r7, #12
 3506 0046 0C22     		movs	r2, #12
 3507 0048 1846     		mov	r0, r3
 3508 004a FFF7FEFF 		bl	mem_cpy
 3509 004e FB7D     		ldrb	r3, [r7, #23]	@ zero_extendqisi2
 3510 0050 03F00103 		and	r3, r3, #1
 3511 0054 002B     		cmp	r3, #0
 3512 0056 32D0     		beq	.L319
 3513 0058 7B68     		ldr	r3, [r7, #4]
 3514 005a 4022     		movs	r2, #64
 3515 005c 83F82F20 		strb	r2, [r3, #47]
 3516 0060 0123     		movs	r3, #1
 3517 0062 BB62     		str	r3, [r7, #40]
 3518 0064 16E0     		b	.L320
 3519              	.L323:
 3520 0066 7B68     		ldr	r3, [r7, #4]
 3521 0068 03F12400 		add	r0, r3, #36
 3522 006c FB69     		ldr	r3, [r7, #28]
 3523 006e 1A69     		ldr	r2, [r3, #16]
 3524 0070 07F10C01 		add	r1, r7, #12
ARM GAS  C:\Users\user\AppData\Local\Temp\ccnu1L5f.s 			page 62


 3525 0074 BB6A     		ldr	r3, [r7, #40]
 3526 0076 FFF7FEFF 		bl	gen_numname
 3527 007a 7868     		ldr	r0, [r7, #4]
 3528 007c FFF7FEFF 		bl	dir_find
 3529 0080 0346     		mov	r3, r0
 3530 0082 87F82F30 		strb	r3, [r7, #47]
 3531 0086 97F82F30 		ldrb	r3, [r7, #47]	@ zero_extendqisi2
 3532 008a 002B     		cmp	r3, #0
 3533 008c 06D1     		bne	.L333
 3534 008e BB6A     		ldr	r3, [r7, #40]
 3535 0090 0133     		adds	r3, r3, #1
 3536 0092 BB62     		str	r3, [r7, #40]
 3537              	.L320:
 3538 0094 BB6A     		ldr	r3, [r7, #40]
 3539 0096 632B     		cmp	r3, #99
 3540 0098 E5D9     		bls	.L323
 3541 009a 00E0     		b	.L322
 3542              	.L333:
 3543 009c 00BF     		nop
 3544              	.L322:
 3545 009e BB6A     		ldr	r3, [r7, #40]
 3546 00a0 642B     		cmp	r3, #100
 3547 00a2 01D1     		bne	.L324
 3548 00a4 0723     		movs	r3, #7
 3549 00a6 9CE0     		b	.L332
 3550              	.L324:
 3551 00a8 97F82F30 		ldrb	r3, [r7, #47]	@ zero_extendqisi2
 3552 00ac 042B     		cmp	r3, #4
 3553 00ae 02D0     		beq	.L325
 3554 00b0 97F82F30 		ldrb	r3, [r7, #47]	@ zero_extendqisi2
 3555 00b4 95E0     		b	.L332
 3556              	.L325:
 3557 00b6 FA7D     		ldrb	r2, [r7, #23]	@ zero_extendqisi2
 3558 00b8 7B68     		ldr	r3, [r7, #4]
 3559 00ba 83F82F20 		strb	r2, [r3, #47]
 3560              	.L319:
 3561 00be FB7D     		ldrb	r3, [r7, #23]	@ zero_extendqisi2
 3562 00c0 03F00203 		and	r3, r3, #2
 3563 00c4 002B     		cmp	r3, #0
 3564 00c6 07D0     		beq	.L326
 3565 00c8 7B6A     		ldr	r3, [r7, #36]
 3566 00ca 0C33     		adds	r3, r3, #12
 3567 00cc 474A     		ldr	r2, .L335
 3568 00ce A2FB0323 		umull	r2, r3, r2, r3
 3569 00d2 9B08     		lsrs	r3, r3, #2
 3570 00d4 0133     		adds	r3, r3, #1
 3571 00d6 00E0     		b	.L327
 3572              	.L326:
 3573 00d8 0123     		movs	r3, #1
 3574              	.L327:
 3575 00da 3B62     		str	r3, [r7, #32]
 3576 00dc 396A     		ldr	r1, [r7, #32]
 3577 00de 7868     		ldr	r0, [r7, #4]
 3578 00e0 FFF7FEFF 		bl	dir_alloc
 3579 00e4 0346     		mov	r3, r0
 3580 00e6 87F82F30 		strb	r3, [r7, #47]
 3581 00ea 97F82F30 		ldrb	r3, [r7, #47]	@ zero_extendqisi2
ARM GAS  C:\Users\user\AppData\Local\Temp\ccnu1L5f.s 			page 63


 3582 00ee 002B     		cmp	r3, #0
 3583 00f0 48D1     		bne	.L328
 3584 00f2 3B6A     		ldr	r3, [r7, #32]
 3585 00f4 013B     		subs	r3, r3, #1
 3586 00f6 3B62     		str	r3, [r7, #32]
 3587 00f8 3B6A     		ldr	r3, [r7, #32]
 3588 00fa 002B     		cmp	r3, #0
 3589 00fc 42D0     		beq	.L328
 3590 00fe 7B68     		ldr	r3, [r7, #4]
 3591 0100 5A69     		ldr	r2, [r3, #20]
 3592 0102 3B6A     		ldr	r3, [r7, #32]
 3593 0104 5B01     		lsls	r3, r3, #5
 3594 0106 D31A     		subs	r3, r2, r3
 3595 0108 1946     		mov	r1, r3
 3596 010a 7868     		ldr	r0, [r7, #4]
 3597 010c FFF7FEFF 		bl	dir_sdi
 3598 0110 0346     		mov	r3, r0
 3599 0112 87F82F30 		strb	r3, [r7, #47]
 3600 0116 97F82F30 		ldrb	r3, [r7, #47]	@ zero_extendqisi2
 3601 011a 002B     		cmp	r3, #0
 3602 011c 32D1     		bne	.L328
 3603 011e 7B68     		ldr	r3, [r7, #4]
 3604 0120 2433     		adds	r3, r3, #36
 3605 0122 1846     		mov	r0, r3
 3606 0124 FFF7FEFF 		bl	sum_sfn
 3607 0128 0346     		mov	r3, r0
 3608 012a FB76     		strb	r3, [r7, #27]
 3609              	.L330:
 3610 012c 7B68     		ldr	r3, [r7, #4]
 3611 012e DB69     		ldr	r3, [r3, #28]
 3612 0130 1946     		mov	r1, r3
 3613 0132 F869     		ldr	r0, [r7, #28]
 3614 0134 FFF7FEFF 		bl	move_window
 3615 0138 0346     		mov	r3, r0
 3616 013a 87F82F30 		strb	r3, [r7, #47]
 3617 013e 97F82F30 		ldrb	r3, [r7, #47]	@ zero_extendqisi2
 3618 0142 002B     		cmp	r3, #0
 3619 0144 1DD1     		bne	.L334
 3620 0146 FB69     		ldr	r3, [r7, #28]
 3621 0148 1869     		ldr	r0, [r3, #16]
 3622 014a 7B68     		ldr	r3, [r7, #4]
 3623 014c 196A     		ldr	r1, [r3, #32]
 3624 014e 3B6A     		ldr	r3, [r7, #32]
 3625 0150 DAB2     		uxtb	r2, r3
 3626 0152 FB7E     		ldrb	r3, [r7, #27]	@ zero_extendqisi2
 3627 0154 FFF7FEFF 		bl	put_lfn
 3628 0158 FB69     		ldr	r3, [r7, #28]
 3629 015a 0122     		movs	r2, #1
 3630 015c DA70     		strb	r2, [r3, #3]
 3631 015e 0021     		movs	r1, #0
 3632 0160 7868     		ldr	r0, [r7, #4]
 3633 0162 FFF7FEFF 		bl	dir_next
 3634 0166 0346     		mov	r3, r0
 3635 0168 87F82F30 		strb	r3, [r7, #47]
 3636 016c 97F82F30 		ldrb	r3, [r7, #47]	@ zero_extendqisi2
 3637 0170 002B     		cmp	r3, #0
 3638 0172 07D1     		bne	.L328
ARM GAS  C:\Users\user\AppData\Local\Temp\ccnu1L5f.s 			page 64


 3639 0174 3B6A     		ldr	r3, [r7, #32]
 3640 0176 013B     		subs	r3, r3, #1
 3641 0178 3B62     		str	r3, [r7, #32]
 3642 017a 3B6A     		ldr	r3, [r7, #32]
 3643 017c 002B     		cmp	r3, #0
 3644 017e D5D1     		bne	.L330
 3645 0180 00E0     		b	.L328
 3646              	.L334:
 3647 0182 00BF     		nop
 3648              	.L328:
 3649 0184 97F82F30 		ldrb	r3, [r7, #47]	@ zero_extendqisi2
 3650 0188 002B     		cmp	r3, #0
 3651 018a 28D1     		bne	.L331
 3652 018c 7B68     		ldr	r3, [r7, #4]
 3653 018e DB69     		ldr	r3, [r3, #28]
 3654 0190 1946     		mov	r1, r3
 3655 0192 F869     		ldr	r0, [r7, #28]
 3656 0194 FFF7FEFF 		bl	move_window
 3657 0198 0346     		mov	r3, r0
 3658 019a 87F82F30 		strb	r3, [r7, #47]
 3659 019e 97F82F30 		ldrb	r3, [r7, #47]	@ zero_extendqisi2
 3660 01a2 002B     		cmp	r3, #0
 3661 01a4 1BD1     		bne	.L331
 3662 01a6 7B68     		ldr	r3, [r7, #4]
 3663 01a8 1B6A     		ldr	r3, [r3, #32]
 3664 01aa 2022     		movs	r2, #32
 3665 01ac 0021     		movs	r1, #0
 3666 01ae 1846     		mov	r0, r3
 3667 01b0 FFF7FEFF 		bl	mem_set
 3668 01b4 7B68     		ldr	r3, [r7, #4]
 3669 01b6 186A     		ldr	r0, [r3, #32]
 3670 01b8 7B68     		ldr	r3, [r7, #4]
 3671 01ba 2433     		adds	r3, r3, #36
 3672 01bc 0B22     		movs	r2, #11
 3673 01be 1946     		mov	r1, r3
 3674 01c0 FFF7FEFF 		bl	mem_cpy
 3675 01c4 7B68     		ldr	r3, [r7, #4]
 3676 01c6 93F82F20 		ldrb	r2, [r3, #47]	@ zero_extendqisi2
 3677 01ca 7B68     		ldr	r3, [r7, #4]
 3678 01cc 1B6A     		ldr	r3, [r3, #32]
 3679 01ce 0C33     		adds	r3, r3, #12
 3680 01d0 02F01802 		and	r2, r2, #24
 3681 01d4 D2B2     		uxtb	r2, r2
 3682 01d6 1A70     		strb	r2, [r3]
 3683 01d8 FB69     		ldr	r3, [r7, #28]
 3684 01da 0122     		movs	r2, #1
 3685 01dc DA70     		strb	r2, [r3, #3]
 3686              	.L331:
 3687 01de 97F82F30 		ldrb	r3, [r7, #47]	@ zero_extendqisi2
 3688              	.L332:
 3689 01e2 1846     		mov	r0, r3
 3690 01e4 3037     		adds	r7, r7, #48
 3691 01e6 BD46     		mov	sp, r7
 3692              		@ sp needed
 3693 01e8 80BD     		pop	{r7, pc}
 3694              	.L336:
 3695 01ea 00BF     		.align	2
ARM GAS  C:\Users\user\AppData\Local\Temp\ccnu1L5f.s 			page 65


 3696              	.L335:
 3697 01ec 4FECC44E 		.word	1321528399
 3699              		.section	.text.dir_remove,"ax",%progbits
 3700              		.align	1
 3701              		.syntax unified
 3702              		.thumb
 3703              		.thumb_func
 3705              	dir_remove:
 3706              		@ args = 0, pretend = 0, frame = 24
 3707              		@ frame_needed = 1, uses_anonymous_args = 0
 3708 0000 80B5     		push	{r7, lr}
 3709 0002 86B0     		sub	sp, sp, #24
 3710 0004 00AF     		add	r7, sp, #0
 3711 0006 7860     		str	r0, [r7, #4]
 3712 0008 7B68     		ldr	r3, [r7, #4]
 3713 000a 1B68     		ldr	r3, [r3]
 3714 000c 3B61     		str	r3, [r7, #16]
 3715 000e 7B68     		ldr	r3, [r7, #4]
 3716 0010 5B69     		ldr	r3, [r3, #20]
 3717 0012 FB60     		str	r3, [r7, #12]
 3718 0014 7B68     		ldr	r3, [r7, #4]
 3719 0016 1B6B     		ldr	r3, [r3, #48]
 3720 0018 B3F1FF3F 		cmp	r3, #-1
 3721 001c 07D0     		beq	.L338
 3722 001e 7B68     		ldr	r3, [r7, #4]
 3723 0020 1B6B     		ldr	r3, [r3, #48]
 3724 0022 1946     		mov	r1, r3
 3725 0024 7868     		ldr	r0, [r7, #4]
 3726 0026 FFF7FEFF 		bl	dir_sdi
 3727 002a 0346     		mov	r3, r0
 3728 002c 00E0     		b	.L339
 3729              	.L338:
 3730 002e 0023     		movs	r3, #0
 3731              	.L339:
 3732 0030 FB75     		strb	r3, [r7, #23]
 3733 0032 FB7D     		ldrb	r3, [r7, #23]	@ zero_extendqisi2
 3734 0034 002B     		cmp	r3, #0
 3735 0036 28D1     		bne	.L340
 3736              	.L344:
 3737 0038 7B68     		ldr	r3, [r7, #4]
 3738 003a DB69     		ldr	r3, [r3, #28]
 3739 003c 1946     		mov	r1, r3
 3740 003e 3869     		ldr	r0, [r7, #16]
 3741 0040 FFF7FEFF 		bl	move_window
 3742 0044 0346     		mov	r3, r0
 3743 0046 FB75     		strb	r3, [r7, #23]
 3744 0048 FB7D     		ldrb	r3, [r7, #23]	@ zero_extendqisi2
 3745 004a 002B     		cmp	r3, #0
 3746 004c 15D1     		bne	.L346
 3747 004e 7B68     		ldr	r3, [r7, #4]
 3748 0050 1B6A     		ldr	r3, [r3, #32]
 3749 0052 E522     		movs	r2, #229
 3750 0054 1A70     		strb	r2, [r3]
 3751 0056 3B69     		ldr	r3, [r7, #16]
 3752 0058 0122     		movs	r2, #1
 3753 005a DA70     		strb	r2, [r3, #3]
 3754 005c 7B68     		ldr	r3, [r7, #4]
ARM GAS  C:\Users\user\AppData\Local\Temp\ccnu1L5f.s 			page 66


 3755 005e 5B69     		ldr	r3, [r3, #20]
 3756 0060 FA68     		ldr	r2, [r7, #12]
 3757 0062 9A42     		cmp	r2, r3
 3758 0064 0BD9     		bls	.L347
 3759 0066 0021     		movs	r1, #0
 3760 0068 7868     		ldr	r0, [r7, #4]
 3761 006a FFF7FEFF 		bl	dir_next
 3762 006e 0346     		mov	r3, r0
 3763 0070 FB75     		strb	r3, [r7, #23]
 3764 0072 FB7D     		ldrb	r3, [r7, #23]	@ zero_extendqisi2
 3765 0074 002B     		cmp	r3, #0
 3766 0076 DFD0     		beq	.L344
 3767 0078 02E0     		b	.L342
 3768              	.L346:
 3769 007a 00BF     		nop
 3770 007c 00E0     		b	.L342
 3771              	.L347:
 3772 007e 00BF     		nop
 3773              	.L342:
 3774 0080 FB7D     		ldrb	r3, [r7, #23]	@ zero_extendqisi2
 3775 0082 042B     		cmp	r3, #4
 3776 0084 01D1     		bne	.L340
 3777 0086 0223     		movs	r3, #2
 3778 0088 FB75     		strb	r3, [r7, #23]
 3779              	.L340:
 3780 008a FB7D     		ldrb	r3, [r7, #23]	@ zero_extendqisi2
 3781 008c 1846     		mov	r0, r3
 3782 008e 1837     		adds	r7, r7, #24
 3783 0090 BD46     		mov	sp, r7
 3784              		@ sp needed
 3785 0092 80BD     		pop	{r7, pc}
 3787              		.section	.text.get_fileinfo,"ax",%progbits
 3788              		.align	1
 3789              		.syntax unified
 3790              		.thumb
 3791              		.thumb_func
 3793              	get_fileinfo:
 3794              		@ args = 0, pretend = 0, frame = 32
 3795              		@ frame_needed = 1, uses_anonymous_args = 0
 3796 0000 80B5     		push	{r7, lr}
 3797 0002 88B0     		sub	sp, sp, #32
 3798 0004 00AF     		add	r7, sp, #0
 3799 0006 7860     		str	r0, [r7, #4]
 3800 0008 3960     		str	r1, [r7]
 3801 000a 7B68     		ldr	r3, [r7, #4]
 3802 000c 1B68     		ldr	r3, [r3]
 3803 000e 3B61     		str	r3, [r7, #16]
 3804 0010 3B68     		ldr	r3, [r7]
 3805 0012 0022     		movs	r2, #0
 3806 0014 9A75     		strb	r2, [r3, #22]
 3807 0016 7B68     		ldr	r3, [r7, #4]
 3808 0018 DB69     		ldr	r3, [r3, #28]
 3809 001a 002B     		cmp	r3, #0
 3810 001c 00F0CA80 		beq	.L369
 3811 0020 7B68     		ldr	r3, [r7, #4]
 3812 0022 1B6B     		ldr	r3, [r3, #48]
 3813 0024 B3F1FF3F 		cmp	r3, #-1
ARM GAS  C:\Users\user\AppData\Local\Temp\ccnu1L5f.s 			page 67


 3814 0028 32D0     		beq	.L351
 3815 002a 0023     		movs	r3, #0
 3816 002c BB61     		str	r3, [r7, #24]
 3817 002e BB69     		ldr	r3, [r7, #24]
 3818 0030 FB61     		str	r3, [r7, #28]
 3819 0032 1BE0     		b	.L352
 3820              	.L356:
 3821 0034 FB89     		ldrh	r3, [r7, #14]
 3822 0036 0021     		movs	r1, #0
 3823 0038 1846     		mov	r0, r3
 3824 003a FFF7FEFF 		bl	ff_convert
 3825 003e 0346     		mov	r3, r0
 3826 0040 FB81     		strh	r3, [r7, #14]	@ movhi
 3827 0042 FB89     		ldrh	r3, [r7, #14]
 3828 0044 002B     		cmp	r3, #0
 3829 0046 02D1     		bne	.L353
 3830 0048 0023     		movs	r3, #0
 3831 004a FB61     		str	r3, [r7, #28]
 3832 004c 1AE0     		b	.L354
 3833              	.L353:
 3834 004e FB69     		ldr	r3, [r7, #28]
 3835 0050 FE2B     		cmp	r3, #254
 3836 0052 02D9     		bls	.L355
 3837 0054 0023     		movs	r3, #0
 3838 0056 FB61     		str	r3, [r7, #28]
 3839 0058 14E0     		b	.L354
 3840              	.L355:
 3841 005a FB69     		ldr	r3, [r7, #28]
 3842 005c 5A1C     		adds	r2, r3, #1
 3843 005e FA61     		str	r2, [r7, #28]
 3844 0060 FA89     		ldrh	r2, [r7, #14]	@ movhi
 3845 0062 D1B2     		uxtb	r1, r2
 3846 0064 3A68     		ldr	r2, [r7]
 3847 0066 1344     		add	r3, r3, r2
 3848 0068 0A46     		mov	r2, r1
 3849 006a 9A75     		strb	r2, [r3, #22]
 3850              	.L352:
 3851 006c 3B69     		ldr	r3, [r7, #16]
 3852 006e 1A69     		ldr	r2, [r3, #16]
 3853 0070 BB69     		ldr	r3, [r7, #24]
 3854 0072 591C     		adds	r1, r3, #1
 3855 0074 B961     		str	r1, [r7, #24]
 3856 0076 5B00     		lsls	r3, r3, #1
 3857 0078 1344     		add	r3, r3, r2
 3858 007a 1B88     		ldrh	r3, [r3]	@ movhi
 3859 007c FB81     		strh	r3, [r7, #14]	@ movhi
 3860 007e FB89     		ldrh	r3, [r7, #14]
 3861 0080 002B     		cmp	r3, #0
 3862 0082 D7D1     		bne	.L356
 3863              	.L354:
 3864 0084 3A68     		ldr	r2, [r7]
 3865 0086 FB69     		ldr	r3, [r7, #28]
 3866 0088 1344     		add	r3, r3, r2
 3867 008a 1633     		adds	r3, r3, #22
 3868 008c 0022     		movs	r2, #0
 3869 008e 1A70     		strb	r2, [r3]
 3870              	.L351:
ARM GAS  C:\Users\user\AppData\Local\Temp\ccnu1L5f.s 			page 68


 3871 0090 0023     		movs	r3, #0
 3872 0092 BB61     		str	r3, [r7, #24]
 3873 0094 BB69     		ldr	r3, [r7, #24]
 3874 0096 FB61     		str	r3, [r7, #28]
 3875 0098 3A68     		ldr	r2, [r7]
 3876 009a FB69     		ldr	r3, [r7, #28]
 3877 009c 1344     		add	r3, r3, r2
 3878 009e 1633     		adds	r3, r3, #22
 3879 00a0 1B78     		ldrb	r3, [r3]	@ zero_extendqisi2
 3880 00a2 BB81     		strh	r3, [r7, #12]	@ movhi
 3881 00a4 4DE0     		b	.L357
 3882              	.L367:
 3883 00a6 7B68     		ldr	r3, [r7, #4]
 3884 00a8 1A6A     		ldr	r2, [r3, #32]
 3885 00aa FB69     		ldr	r3, [r7, #28]
 3886 00ac 591C     		adds	r1, r3, #1
 3887 00ae F961     		str	r1, [r7, #28]
 3888 00b0 1344     		add	r3, r3, r2
 3889 00b2 1B78     		ldrb	r3, [r3]
 3890 00b4 FB75     		strb	r3, [r7, #23]
 3891 00b6 FB7D     		ldrb	r3, [r7, #23]	@ zero_extendqisi2
 3892 00b8 202B     		cmp	r3, #32
 3893 00ba 41D0     		beq	.L370
 3894 00bc FB7D     		ldrb	r3, [r7, #23]	@ zero_extendqisi2
 3895 00be 052B     		cmp	r3, #5
 3896 00c0 01D1     		bne	.L360
 3897 00c2 E523     		movs	r3, #229
 3898 00c4 FB75     		strb	r3, [r7, #23]
 3899              	.L360:
 3900 00c6 FB69     		ldr	r3, [r7, #28]
 3901 00c8 092B     		cmp	r3, #9
 3902 00ca 0FD1     		bne	.L361
 3903 00cc BB89     		ldrh	r3, [r7, #12]
 3904 00ce 002B     		cmp	r3, #0
 3905 00d0 05D1     		bne	.L362
 3906 00d2 3A68     		ldr	r2, [r7]
 3907 00d4 BB69     		ldr	r3, [r7, #24]
 3908 00d6 1344     		add	r3, r3, r2
 3909 00d8 1633     		adds	r3, r3, #22
 3910 00da 2E22     		movs	r2, #46
 3911 00dc 1A70     		strb	r2, [r3]
 3912              	.L362:
 3913 00de BB69     		ldr	r3, [r7, #24]
 3914 00e0 5A1C     		adds	r2, r3, #1
 3915 00e2 BA61     		str	r2, [r7, #24]
 3916 00e4 3A68     		ldr	r2, [r7]
 3917 00e6 1344     		add	r3, r3, r2
 3918 00e8 2E22     		movs	r2, #46
 3919 00ea 5A72     		strb	r2, [r3, #9]
 3920              	.L361:
 3921 00ec 3A68     		ldr	r2, [r7]
 3922 00ee BB69     		ldr	r3, [r7, #24]
 3923 00f0 1344     		add	r3, r3, r2
 3924 00f2 0933     		adds	r3, r3, #9
 3925 00f4 FA7D     		ldrb	r2, [r7, #23]
 3926 00f6 1A70     		strb	r2, [r3]
 3927 00f8 BB89     		ldrh	r3, [r7, #12]
ARM GAS  C:\Users\user\AppData\Local\Temp\ccnu1L5f.s 			page 69


 3928 00fa 002B     		cmp	r3, #0
 3929 00fc 1CD1     		bne	.L363
 3930 00fe FB7D     		ldrb	r3, [r7, #23]	@ zero_extendqisi2
 3931 0100 402B     		cmp	r3, #64
 3932 0102 13D9     		bls	.L364
 3933 0104 FB7D     		ldrb	r3, [r7, #23]	@ zero_extendqisi2
 3934 0106 5A2B     		cmp	r3, #90
 3935 0108 10D8     		bhi	.L364
 3936 010a 7B68     		ldr	r3, [r7, #4]
 3937 010c 1B6A     		ldr	r3, [r3, #32]
 3938 010e 0C33     		adds	r3, r3, #12
 3939 0110 1B78     		ldrb	r3, [r3]	@ zero_extendqisi2
 3940 0112 1A46     		mov	r2, r3
 3941 0114 FB69     		ldr	r3, [r7, #28]
 3942 0116 082B     		cmp	r3, #8
 3943 0118 01D9     		bls	.L365
 3944 011a 1023     		movs	r3, #16
 3945 011c 00E0     		b	.L366
 3946              	.L365:
 3947 011e 0823     		movs	r3, #8
 3948              	.L366:
 3949 0120 1340     		ands	r3, r3, r2
 3950 0122 002B     		cmp	r3, #0
 3951 0124 02D0     		beq	.L364
 3952 0126 FB7D     		ldrb	r3, [r7, #23]
 3953 0128 2033     		adds	r3, r3, #32
 3954 012a FB75     		strb	r3, [r7, #23]
 3955              	.L364:
 3956 012c 3A68     		ldr	r2, [r7]
 3957 012e BB69     		ldr	r3, [r7, #24]
 3958 0130 1344     		add	r3, r3, r2
 3959 0132 1633     		adds	r3, r3, #22
 3960 0134 FA7D     		ldrb	r2, [r7, #23]
 3961 0136 1A70     		strb	r2, [r3]
 3962              	.L363:
 3963 0138 BB69     		ldr	r3, [r7, #24]
 3964 013a 0133     		adds	r3, r3, #1
 3965 013c BB61     		str	r3, [r7, #24]
 3966 013e 00E0     		b	.L357
 3967              	.L370:
 3968 0140 00BF     		nop
 3969              	.L357:
 3970 0142 FB69     		ldr	r3, [r7, #28]
 3971 0144 0A2B     		cmp	r3, #10
 3972 0146 AED9     		bls	.L367
 3973 0148 BB89     		ldrh	r3, [r7, #12]
 3974 014a 002B     		cmp	r3, #0
 3975 014c 0DD1     		bne	.L368
 3976 014e 3A68     		ldr	r2, [r7]
 3977 0150 BB69     		ldr	r3, [r7, #24]
 3978 0152 1344     		add	r3, r3, r2
 3979 0154 1633     		adds	r3, r3, #22
 3980 0156 0022     		movs	r2, #0
 3981 0158 1A70     		strb	r2, [r3]
 3982 015a 7B68     		ldr	r3, [r7, #4]
 3983 015c 1B6A     		ldr	r3, [r3, #32]
 3984 015e 0C33     		adds	r3, r3, #12
ARM GAS  C:\Users\user\AppData\Local\Temp\ccnu1L5f.s 			page 70


 3985 0160 1B78     		ldrb	r3, [r3]	@ zero_extendqisi2
 3986 0162 002B     		cmp	r3, #0
 3987 0164 01D1     		bne	.L368
 3988 0166 0023     		movs	r3, #0
 3989 0168 BB61     		str	r3, [r7, #24]
 3990              	.L368:
 3991 016a 3A68     		ldr	r2, [r7]
 3992 016c BB69     		ldr	r3, [r7, #24]
 3993 016e 1344     		add	r3, r3, r2
 3994 0170 0933     		adds	r3, r3, #9
 3995 0172 0022     		movs	r2, #0
 3996 0174 1A70     		strb	r2, [r3]
 3997 0176 7B68     		ldr	r3, [r7, #4]
 3998 0178 1B6A     		ldr	r3, [r3, #32]
 3999 017a DA7A     		ldrb	r2, [r3, #11]	@ zero_extendqisi2
 4000 017c 3B68     		ldr	r3, [r7]
 4001 017e 1A72     		strb	r2, [r3, #8]
 4002 0180 7B68     		ldr	r3, [r7, #4]
 4003 0182 1B6A     		ldr	r3, [r3, #32]
 4004 0184 1C33     		adds	r3, r3, #28
 4005 0186 1846     		mov	r0, r3
 4006 0188 FFF7FEFF 		bl	ld_dword
 4007 018c 0246     		mov	r2, r0
 4008 018e 3B68     		ldr	r3, [r7]
 4009 0190 1A60     		str	r2, [r3]
 4010 0192 7B68     		ldr	r3, [r7, #4]
 4011 0194 1B6A     		ldr	r3, [r3, #32]
 4012 0196 1633     		adds	r3, r3, #22
 4013 0198 1846     		mov	r0, r3
 4014 019a FFF7FEFF 		bl	ld_dword
 4015 019e B860     		str	r0, [r7, #8]
 4016 01a0 BB68     		ldr	r3, [r7, #8]
 4017 01a2 9AB2     		uxth	r2, r3
 4018 01a4 3B68     		ldr	r3, [r7]
 4019 01a6 DA80     		strh	r2, [r3, #6]	@ movhi
 4020 01a8 BB68     		ldr	r3, [r7, #8]
 4021 01aa 1B0C     		lsrs	r3, r3, #16
 4022 01ac 9AB2     		uxth	r2, r3
 4023 01ae 3B68     		ldr	r3, [r7]
 4024 01b0 9A80     		strh	r2, [r3, #4]	@ movhi
 4025 01b2 00E0     		b	.L348
 4026              	.L369:
 4027 01b4 00BF     		nop
 4028              	.L348:
 4029 01b6 2037     		adds	r7, r7, #32
 4030 01b8 BD46     		mov	sp, r7
 4031              		@ sp needed
 4032 01ba 80BD     		pop	{r7, pc}
 4034              		.section	.rodata
 4035              		.align	2
 4036              	.LC0:
 4037 0000 222A3A3C 		.ascii	"\"*:<>?|\177\000"
 4037      3E3F7C7F 
 4037      00
 4038 0009 000000   		.align	2
 4039              	.LC1:
 4040 000c 2B2C3B3D 		.ascii	"+,;=[]\000"
ARM GAS  C:\Users\user\AppData\Local\Temp\ccnu1L5f.s 			page 71


 4040      5B5D00
 4041              		.section	.text.create_name,"ax",%progbits
 4042              		.align	1
 4043              		.syntax unified
 4044              		.thumb
 4045              		.thumb_func
 4047              	create_name:
 4048              		@ args = 0, pretend = 0, frame = 40
 4049              		@ frame_needed = 1, uses_anonymous_args = 0
 4050 0000 80B5     		push	{r7, lr}
 4051 0002 8AB0     		sub	sp, sp, #40
 4052 0004 00AF     		add	r7, sp, #0
 4053 0006 7860     		str	r0, [r7, #4]
 4054 0008 3960     		str	r1, [r7]
 4055 000a 3B68     		ldr	r3, [r7]
 4056 000c 1B68     		ldr	r3, [r3]
 4057 000e 3B61     		str	r3, [r7, #16]
 4058 0010 7B68     		ldr	r3, [r7, #4]
 4059 0012 1B68     		ldr	r3, [r3]
 4060 0014 1B69     		ldr	r3, [r3, #16]
 4061 0016 FB60     		str	r3, [r7, #12]
 4062 0018 0023     		movs	r3, #0
 4063 001a 7B61     		str	r3, [r7, #20]
 4064 001c 7B69     		ldr	r3, [r7, #20]
 4065 001e BB61     		str	r3, [r7, #24]
 4066              	.L382:
 4067 0020 BB69     		ldr	r3, [r7, #24]
 4068 0022 5A1C     		adds	r2, r3, #1
 4069 0024 BA61     		str	r2, [r7, #24]
 4070 0026 3A69     		ldr	r2, [r7, #16]
 4071 0028 1344     		add	r3, r3, r2
 4072 002a 1B78     		ldrb	r3, [r3]	@ zero_extendqisi2
 4073 002c BB84     		strh	r3, [r7, #36]	@ movhi
 4074 002e BB8C     		ldrh	r3, [r7, #36]
 4075 0030 1F2B     		cmp	r3, #31
 4076 0032 40D9     		bls	.L419
 4077 0034 BB8C     		ldrh	r3, [r7, #36]
 4078 0036 2F2B     		cmp	r3, #47
 4079 0038 06D0     		beq	.L376
 4080 003a BB8C     		ldrh	r3, [r7, #36]
 4081 003c 5C2B     		cmp	r3, #92
 4082 003e 10D1     		bne	.L375
 4083 0040 02E0     		b	.L376
 4084              	.L377:
 4085 0042 BB69     		ldr	r3, [r7, #24]
 4086 0044 0133     		adds	r3, r3, #1
 4087 0046 BB61     		str	r3, [r7, #24]
 4088              	.L376:
 4089 0048 3A69     		ldr	r2, [r7, #16]
 4090 004a BB69     		ldr	r3, [r7, #24]
 4091 004c 1344     		add	r3, r3, r2
 4092 004e 1B78     		ldrb	r3, [r3]	@ zero_extendqisi2
 4093 0050 2F2B     		cmp	r3, #47
 4094 0052 F6D0     		beq	.L377
 4095 0054 3A69     		ldr	r2, [r7, #16]
 4096 0056 BB69     		ldr	r3, [r7, #24]
 4097 0058 1344     		add	r3, r3, r2
ARM GAS  C:\Users\user\AppData\Local\Temp\ccnu1L5f.s 			page 72


 4098 005a 1B78     		ldrb	r3, [r3]	@ zero_extendqisi2
 4099 005c 5C2B     		cmp	r3, #92
 4100 005e F0D0     		beq	.L377
 4101 0060 2AE0     		b	.L373
 4102              	.L375:
 4103 0062 7B69     		ldr	r3, [r7, #20]
 4104 0064 FE2B     		cmp	r3, #254
 4105 0066 01D9     		bls	.L378
 4106 0068 0623     		movs	r3, #6
 4107 006a 7DE1     		b	.L379
 4108              	.L378:
 4109 006c BB8C     		ldrh	r3, [r7, #36]	@ movhi
 4110 006e DBB2     		uxtb	r3, r3
 4111 0070 BB84     		strh	r3, [r7, #36]	@ movhi
 4112 0072 BB8C     		ldrh	r3, [r7, #36]
 4113 0074 0121     		movs	r1, #1
 4114 0076 1846     		mov	r0, r3
 4115 0078 FFF7FEFF 		bl	ff_convert
 4116 007c 0346     		mov	r3, r0
 4117 007e BB84     		strh	r3, [r7, #36]	@ movhi
 4118 0080 BB8C     		ldrh	r3, [r7, #36]
 4119 0082 002B     		cmp	r3, #0
 4120 0084 01D1     		bne	.L380
 4121 0086 0623     		movs	r3, #6
 4122 0088 6EE1     		b	.L379
 4123              	.L380:
 4124 008a BB8C     		ldrh	r3, [r7, #36]
 4125 008c 7F2B     		cmp	r3, #127
 4126 008e 09D8     		bhi	.L381
 4127 0090 BB8C     		ldrh	r3, [r7, #36]
 4128 0092 1946     		mov	r1, r3
 4129 0094 8D48     		ldr	r0, .L423
 4130 0096 FFF7FEFF 		bl	chk_chr
 4131 009a 0346     		mov	r3, r0
 4132 009c 002B     		cmp	r3, #0
 4133 009e 01D0     		beq	.L381
 4134 00a0 0623     		movs	r3, #6
 4135 00a2 61E1     		b	.L379
 4136              	.L381:
 4137 00a4 7B69     		ldr	r3, [r7, #20]
 4138 00a6 5A1C     		adds	r2, r3, #1
 4139 00a8 7A61     		str	r2, [r7, #20]
 4140 00aa 5B00     		lsls	r3, r3, #1
 4141 00ac FA68     		ldr	r2, [r7, #12]
 4142 00ae 1344     		add	r3, r3, r2
 4143 00b0 BA8C     		ldrh	r2, [r7, #36]	@ movhi
 4144 00b2 1A80     		strh	r2, [r3]	@ movhi
 4145 00b4 B4E7     		b	.L382
 4146              	.L419:
 4147 00b6 00BF     		nop
 4148              	.L373:
 4149 00b8 3A69     		ldr	r2, [r7, #16]
 4150 00ba BB69     		ldr	r3, [r7, #24]
 4151 00bc 1A44     		add	r2, r2, r3
 4152 00be 3B68     		ldr	r3, [r7]
 4153 00c0 1A60     		str	r2, [r3]
 4154 00c2 BB8C     		ldrh	r3, [r7, #36]
ARM GAS  C:\Users\user\AppData\Local\Temp\ccnu1L5f.s 			page 73


 4155 00c4 1F2B     		cmp	r3, #31
 4156 00c6 01D8     		bhi	.L383
 4157 00c8 0423     		movs	r3, #4
 4158 00ca 00E0     		b	.L384
 4159              	.L383:
 4160 00cc 0023     		movs	r3, #0
 4161              	.L384:
 4162 00ce 87F82730 		strb	r3, [r7, #39]
 4163 00d2 11E0     		b	.L385
 4164              	.L388:
 4165 00d4 7B69     		ldr	r3, [r7, #20]
 4166 00d6 03F10043 		add	r3, r3, #-2147483648
 4167 00da 013B     		subs	r3, r3, #1
 4168 00dc 5B00     		lsls	r3, r3, #1
 4169 00de FA68     		ldr	r2, [r7, #12]
 4170 00e0 1344     		add	r3, r3, r2
 4171 00e2 1B88     		ldrh	r3, [r3]	@ movhi
 4172 00e4 BB84     		strh	r3, [r7, #36]	@ movhi
 4173 00e6 BB8C     		ldrh	r3, [r7, #36]
 4174 00e8 202B     		cmp	r3, #32
 4175 00ea 02D0     		beq	.L386
 4176 00ec BB8C     		ldrh	r3, [r7, #36]
 4177 00ee 2E2B     		cmp	r3, #46
 4178 00f0 06D1     		bne	.L420
 4179              	.L386:
 4180 00f2 7B69     		ldr	r3, [r7, #20]
 4181 00f4 013B     		subs	r3, r3, #1
 4182 00f6 7B61     		str	r3, [r7, #20]
 4183              	.L385:
 4184 00f8 7B69     		ldr	r3, [r7, #20]
 4185 00fa 002B     		cmp	r3, #0
 4186 00fc EAD1     		bne	.L388
 4187 00fe 00E0     		b	.L387
 4188              	.L420:
 4189 0100 00BF     		nop
 4190              	.L387:
 4191 0102 7B69     		ldr	r3, [r7, #20]
 4192 0104 5B00     		lsls	r3, r3, #1
 4193 0106 FA68     		ldr	r2, [r7, #12]
 4194 0108 1344     		add	r3, r3, r2
 4195 010a 0022     		movs	r2, #0
 4196 010c 1A80     		strh	r2, [r3]	@ movhi
 4197 010e 7B69     		ldr	r3, [r7, #20]
 4198 0110 002B     		cmp	r3, #0
 4199 0112 01D1     		bne	.L389
 4200 0114 0623     		movs	r3, #6
 4201 0116 27E1     		b	.L379
 4202              	.L389:
 4203 0118 7B68     		ldr	r3, [r7, #4]
 4204 011a 2433     		adds	r3, r3, #36
 4205 011c 0B22     		movs	r2, #11
 4206 011e 2021     		movs	r1, #32
 4207 0120 1846     		mov	r0, r3
 4208 0122 FFF7FEFF 		bl	mem_set
 4209 0126 0023     		movs	r3, #0
 4210 0128 BB61     		str	r3, [r7, #24]
 4211 012a 02E0     		b	.L390
ARM GAS  C:\Users\user\AppData\Local\Temp\ccnu1L5f.s 			page 74


 4212              	.L391:
 4213 012c BB69     		ldr	r3, [r7, #24]
 4214 012e 0133     		adds	r3, r3, #1
 4215 0130 BB61     		str	r3, [r7, #24]
 4216              	.L390:
 4217 0132 BB69     		ldr	r3, [r7, #24]
 4218 0134 5B00     		lsls	r3, r3, #1
 4219 0136 FA68     		ldr	r2, [r7, #12]
 4220 0138 1344     		add	r3, r3, r2
 4221 013a 1B88     		ldrh	r3, [r3]
 4222 013c 202B     		cmp	r3, #32
 4223 013e F5D0     		beq	.L391
 4224 0140 BB69     		ldr	r3, [r7, #24]
 4225 0142 5B00     		lsls	r3, r3, #1
 4226 0144 FA68     		ldr	r2, [r7, #12]
 4227 0146 1344     		add	r3, r3, r2
 4228 0148 1B88     		ldrh	r3, [r3]
 4229 014a 2E2B     		cmp	r3, #46
 4230 014c EED0     		beq	.L391
 4231 014e BB69     		ldr	r3, [r7, #24]
 4232 0150 002B     		cmp	r3, #0
 4233 0152 09D0     		beq	.L393
 4234 0154 97F82730 		ldrb	r3, [r7, #39]
 4235 0158 43F00303 		orr	r3, r3, #3
 4236 015c 87F82730 		strb	r3, [r7, #39]
 4237 0160 02E0     		b	.L393
 4238              	.L395:
 4239 0162 7B69     		ldr	r3, [r7, #20]
 4240 0164 013B     		subs	r3, r3, #1
 4241 0166 7B61     		str	r3, [r7, #20]
 4242              	.L393:
 4243 0168 7B69     		ldr	r3, [r7, #20]
 4244 016a 002B     		cmp	r3, #0
 4245 016c 09D0     		beq	.L394
 4246 016e 7B69     		ldr	r3, [r7, #20]
 4247 0170 03F10043 		add	r3, r3, #-2147483648
 4248 0174 013B     		subs	r3, r3, #1
 4249 0176 5B00     		lsls	r3, r3, #1
 4250 0178 FA68     		ldr	r2, [r7, #12]
 4251 017a 1344     		add	r3, r3, r2
 4252 017c 1B88     		ldrh	r3, [r3]
 4253 017e 2E2B     		cmp	r3, #46
 4254 0180 EFD1     		bne	.L395
 4255              	.L394:
 4256 0182 0023     		movs	r3, #0
 4257 0184 87F82630 		strb	r3, [r7, #38]
 4258 0188 0023     		movs	r3, #0
 4259 018a 3B62     		str	r3, [r7, #32]
 4260 018c 0823     		movs	r3, #8
 4261 018e FB61     		str	r3, [r7, #28]
 4262              	.L412:
 4263 0190 BB69     		ldr	r3, [r7, #24]
 4264 0192 5A1C     		adds	r2, r3, #1
 4265 0194 BA61     		str	r2, [r7, #24]
 4266 0196 5B00     		lsls	r3, r3, #1
 4267 0198 FA68     		ldr	r2, [r7, #12]
 4268 019a 1344     		add	r3, r3, r2
ARM GAS  C:\Users\user\AppData\Local\Temp\ccnu1L5f.s 			page 75


 4269 019c 1B88     		ldrh	r3, [r3]	@ movhi
 4270 019e BB84     		strh	r3, [r7, #36]	@ movhi
 4271 01a0 BB8C     		ldrh	r3, [r7, #36]
 4272 01a2 002B     		cmp	r3, #0
 4273 01a4 00F09080 		beq	.L421
 4274 01a8 BB8C     		ldrh	r3, [r7, #36]
 4275 01aa 202B     		cmp	r3, #32
 4276 01ac 06D0     		beq	.L398
 4277 01ae BB8C     		ldrh	r3, [r7, #36]
 4278 01b0 2E2B     		cmp	r3, #46
 4279 01b2 0AD1     		bne	.L399
 4280 01b4 BA69     		ldr	r2, [r7, #24]
 4281 01b6 7B69     		ldr	r3, [r7, #20]
 4282 01b8 9A42     		cmp	r2, r3
 4283 01ba 06D0     		beq	.L399
 4284              	.L398:
 4285 01bc 97F82730 		ldrb	r3, [r7, #39]
 4286 01c0 43F00303 		orr	r3, r3, #3
 4287 01c4 87F82730 		strb	r3, [r7, #39]
 4288 01c8 7DE0     		b	.L400
 4289              	.L399:
 4290 01ca 3A6A     		ldr	r2, [r7, #32]
 4291 01cc FB69     		ldr	r3, [r7, #28]
 4292 01ce 9A42     		cmp	r2, r3
 4293 01d0 03D2     		bcs	.L401
 4294 01d2 BA69     		ldr	r2, [r7, #24]
 4295 01d4 7B69     		ldr	r3, [r7, #20]
 4296 01d6 9A42     		cmp	r2, r3
 4297 01d8 23D1     		bne	.L402
 4298              	.L401:
 4299 01da FB69     		ldr	r3, [r7, #28]
 4300 01dc 0B2B     		cmp	r3, #11
 4301 01de 06D1     		bne	.L403
 4302 01e0 97F82730 		ldrb	r3, [r7, #39]
 4303 01e4 43F00303 		orr	r3, r3, #3
 4304 01e8 87F82730 		strb	r3, [r7, #39]
 4305 01ec 75E0     		b	.L397
 4306              	.L403:
 4307 01ee BA69     		ldr	r2, [r7, #24]
 4308 01f0 7B69     		ldr	r3, [r7, #20]
 4309 01f2 9A42     		cmp	r2, r3
 4310 01f4 05D0     		beq	.L404
 4311 01f6 97F82730 		ldrb	r3, [r7, #39]
 4312 01fa 43F00303 		orr	r3, r3, #3
 4313 01fe 87F82730 		strb	r3, [r7, #39]
 4314              	.L404:
 4315 0202 BA69     		ldr	r2, [r7, #24]
 4316 0204 7B69     		ldr	r3, [r7, #20]
 4317 0206 9A42     		cmp	r2, r3
 4318 0208 66D8     		bhi	.L422
 4319 020a 7B69     		ldr	r3, [r7, #20]
 4320 020c BB61     		str	r3, [r7, #24]
 4321 020e 0823     		movs	r3, #8
 4322 0210 3B62     		str	r3, [r7, #32]
 4323 0212 0B23     		movs	r3, #11
 4324 0214 FB61     		str	r3, [r7, #28]
 4325 0216 97F82630 		ldrb	r3, [r7, #38]
ARM GAS  C:\Users\user\AppData\Local\Temp\ccnu1L5f.s 			page 76


 4326 021a 9B00     		lsls	r3, r3, #2
 4327 021c 87F82630 		strb	r3, [r7, #38]
 4328 0220 51E0     		b	.L400
 4329              	.L402:
 4330 0222 BB8C     		ldrh	r3, [r7, #36]
 4331 0224 7F2B     		cmp	r3, #127
 4332 0226 14D9     		bls	.L406
 4333 0228 BB8C     		ldrh	r3, [r7, #36]
 4334 022a 0021     		movs	r1, #0
 4335 022c 1846     		mov	r0, r3
 4336 022e FFF7FEFF 		bl	ff_convert
 4337 0232 0346     		mov	r3, r0
 4338 0234 BB84     		strh	r3, [r7, #36]	@ movhi
 4339 0236 BB8C     		ldrh	r3, [r7, #36]
 4340 0238 002B     		cmp	r3, #0
 4341 023a 04D0     		beq	.L407
 4342 023c BB8C     		ldrh	r3, [r7, #36]
 4343 023e 803B     		subs	r3, r3, #128
 4344 0240 234A     		ldr	r2, .L423+4
 4345 0242 D35C     		ldrb	r3, [r2, r3]	@ zero_extendqisi2
 4346 0244 BB84     		strh	r3, [r7, #36]	@ movhi
 4347              	.L407:
 4348 0246 97F82730 		ldrb	r3, [r7, #39]
 4349 024a 43F00203 		orr	r3, r3, #2
 4350 024e 87F82730 		strb	r3, [r7, #39]
 4351              	.L406:
 4352 0252 BB8C     		ldrh	r3, [r7, #36]
 4353 0254 002B     		cmp	r3, #0
 4354 0256 07D0     		beq	.L408
 4355 0258 BB8C     		ldrh	r3, [r7, #36]
 4356 025a 1946     		mov	r1, r3
 4357 025c 1D48     		ldr	r0, .L423+8
 4358 025e FFF7FEFF 		bl	chk_chr
 4359 0262 0346     		mov	r3, r0
 4360 0264 002B     		cmp	r3, #0
 4361 0266 08D0     		beq	.L409
 4362              	.L408:
 4363 0268 5F23     		movs	r3, #95
 4364 026a BB84     		strh	r3, [r7, #36]	@ movhi
 4365 026c 97F82730 		ldrb	r3, [r7, #39]
 4366 0270 43F00303 		orr	r3, r3, #3
 4367 0274 87F82730 		strb	r3, [r7, #39]
 4368 0278 1BE0     		b	.L410
 4369              	.L409:
 4370 027a BB8C     		ldrh	r3, [r7, #36]
 4371 027c 402B     		cmp	r3, #64
 4372 027e 09D9     		bls	.L411
 4373 0280 BB8C     		ldrh	r3, [r7, #36]
 4374 0282 5A2B     		cmp	r3, #90
 4375 0284 06D8     		bhi	.L411
 4376 0286 97F82630 		ldrb	r3, [r7, #38]
 4377 028a 43F00203 		orr	r3, r3, #2
 4378 028e 87F82630 		strb	r3, [r7, #38]
 4379 0292 0EE0     		b	.L410
 4380              	.L411:
 4381 0294 BB8C     		ldrh	r3, [r7, #36]
 4382 0296 602B     		cmp	r3, #96
ARM GAS  C:\Users\user\AppData\Local\Temp\ccnu1L5f.s 			page 77


 4383 0298 0BD9     		bls	.L410
 4384 029a BB8C     		ldrh	r3, [r7, #36]
 4385 029c 7A2B     		cmp	r3, #122
 4386 029e 08D8     		bhi	.L410
 4387 02a0 97F82630 		ldrb	r3, [r7, #38]
 4388 02a4 43F00103 		orr	r3, r3, #1
 4389 02a8 87F82630 		strb	r3, [r7, #38]
 4390 02ac BB8C     		ldrh	r3, [r7, #36]	@ movhi
 4391 02ae 203B     		subs	r3, r3, #32
 4392 02b0 BB84     		strh	r3, [r7, #36]	@ movhi
 4393              	.L410:
 4394 02b2 3B6A     		ldr	r3, [r7, #32]
 4395 02b4 5A1C     		adds	r2, r3, #1
 4396 02b6 3A62     		str	r2, [r7, #32]
 4397 02b8 BA8C     		ldrh	r2, [r7, #36]	@ movhi
 4398 02ba D1B2     		uxtb	r1, r2
 4399 02bc 7A68     		ldr	r2, [r7, #4]
 4400 02be 1344     		add	r3, r3, r2
 4401 02c0 0A46     		mov	r2, r1
 4402 02c2 83F82420 		strb	r2, [r3, #36]
 4403              	.L400:
 4404 02c6 63E7     		b	.L412
 4405              	.L421:
 4406 02c8 00BF     		nop
 4407 02ca 06E0     		b	.L397
 4408              	.L424:
 4409              		.align	2
 4410              	.L423:
 4411 02cc 00000000 		.word	.LC0
 4412 02d0 00000000 		.word	ExCvt
 4413 02d4 0C000000 		.word	.LC1
 4414              	.L422:
 4415 02d8 00BF     		nop
 4416              	.L397:
 4417 02da 7B68     		ldr	r3, [r7, #4]
 4418 02dc 93F82430 		ldrb	r3, [r3, #36]	@ zero_extendqisi2
 4419 02e0 E52B     		cmp	r3, #229
 4420 02e2 03D1     		bne	.L413
 4421 02e4 7B68     		ldr	r3, [r7, #4]
 4422 02e6 0522     		movs	r2, #5
 4423 02e8 83F82420 		strb	r2, [r3, #36]
 4424              	.L413:
 4425 02ec FB69     		ldr	r3, [r7, #28]
 4426 02ee 082B     		cmp	r3, #8
 4427 02f0 04D1     		bne	.L414
 4428 02f2 97F82630 		ldrb	r3, [r7, #38]
 4429 02f6 9B00     		lsls	r3, r3, #2
 4430 02f8 87F82630 		strb	r3, [r7, #38]
 4431              	.L414:
 4432 02fc 97F82630 		ldrb	r3, [r7, #38]	@ zero_extendqisi2
 4433 0300 03F00C03 		and	r3, r3, #12
 4434 0304 0C2B     		cmp	r3, #12
 4435 0306 05D0     		beq	.L415
 4436 0308 97F82630 		ldrb	r3, [r7, #38]	@ zero_extendqisi2
 4437 030c 03F00303 		and	r3, r3, #3
 4438 0310 032B     		cmp	r3, #3
 4439 0312 05D1     		bne	.L416
ARM GAS  C:\Users\user\AppData\Local\Temp\ccnu1L5f.s 			page 78


 4440              	.L415:
 4441 0314 97F82730 		ldrb	r3, [r7, #39]
 4442 0318 43F00203 		orr	r3, r3, #2
 4443 031c 87F82730 		strb	r3, [r7, #39]
 4444              	.L416:
 4445 0320 97F82730 		ldrb	r3, [r7, #39]	@ zero_extendqisi2
 4446 0324 03F00203 		and	r3, r3, #2
 4447 0328 002B     		cmp	r3, #0
 4448 032a 17D1     		bne	.L417
 4449 032c 97F82630 		ldrb	r3, [r7, #38]	@ zero_extendqisi2
 4450 0330 03F00303 		and	r3, r3, #3
 4451 0334 012B     		cmp	r3, #1
 4452 0336 05D1     		bne	.L418
 4453 0338 97F82730 		ldrb	r3, [r7, #39]
 4454 033c 43F01003 		orr	r3, r3, #16
 4455 0340 87F82730 		strb	r3, [r7, #39]
 4456              	.L418:
 4457 0344 97F82630 		ldrb	r3, [r7, #38]	@ zero_extendqisi2
 4458 0348 03F00C03 		and	r3, r3, #12
 4459 034c 042B     		cmp	r3, #4
 4460 034e 05D1     		bne	.L417
 4461 0350 97F82730 		ldrb	r3, [r7, #39]
 4462 0354 43F00803 		orr	r3, r3, #8
 4463 0358 87F82730 		strb	r3, [r7, #39]
 4464              	.L417:
 4465 035c 7B68     		ldr	r3, [r7, #4]
 4466 035e 97F82720 		ldrb	r2, [r7, #39]
 4467 0362 83F82F20 		strb	r2, [r3, #47]
 4468 0366 0023     		movs	r3, #0
 4469              	.L379:
 4470 0368 1846     		mov	r0, r3
 4471 036a 2837     		adds	r7, r7, #40
 4472 036c BD46     		mov	sp, r7
 4473              		@ sp needed
 4474 036e 80BD     		pop	{r7, pc}
 4476              		.section	.text.follow_path,"ax",%progbits
 4477              		.align	1
 4478              		.syntax unified
 4479              		.thumb
 4480              		.thumb_func
 4482              	follow_path:
 4483              		@ args = 0, pretend = 0, frame = 24
 4484              		@ frame_needed = 1, uses_anonymous_args = 0
 4485 0000 80B5     		push	{r7, lr}
 4486 0002 86B0     		sub	sp, sp, #24
 4487 0004 00AF     		add	r7, sp, #0
 4488 0006 7860     		str	r0, [r7, #4]
 4489 0008 3960     		str	r1, [r7]
 4490 000a 7B68     		ldr	r3, [r7, #4]
 4491 000c 3B61     		str	r3, [r7, #16]
 4492 000e 3B69     		ldr	r3, [r7, #16]
 4493 0010 1B68     		ldr	r3, [r3]
 4494 0012 FB60     		str	r3, [r7, #12]
 4495 0014 02E0     		b	.L426
 4496              	.L427:
 4497 0016 3B68     		ldr	r3, [r7]
 4498 0018 0133     		adds	r3, r3, #1
ARM GAS  C:\Users\user\AppData\Local\Temp\ccnu1L5f.s 			page 79


 4499 001a 3B60     		str	r3, [r7]
 4500              	.L426:
 4501 001c 3B68     		ldr	r3, [r7]
 4502 001e 1B78     		ldrb	r3, [r3]	@ zero_extendqisi2
 4503 0020 2F2B     		cmp	r3, #47
 4504 0022 F8D0     		beq	.L427
 4505 0024 3B68     		ldr	r3, [r7]
 4506 0026 1B78     		ldrb	r3, [r3]	@ zero_extendqisi2
 4507 0028 5C2B     		cmp	r3, #92
 4508 002a F4D0     		beq	.L427
 4509 002c 3B69     		ldr	r3, [r7, #16]
 4510 002e 0022     		movs	r2, #0
 4511 0030 9A60     		str	r2, [r3, #8]
 4512 0032 3B68     		ldr	r3, [r7]
 4513 0034 1B78     		ldrb	r3, [r3]	@ zero_extendqisi2
 4514 0036 1F2B     		cmp	r3, #31
 4515 0038 0AD8     		bhi	.L428
 4516 003a 7B68     		ldr	r3, [r7, #4]
 4517 003c 8022     		movs	r2, #128
 4518 003e 83F82F20 		strb	r2, [r3, #47]
 4519 0042 0021     		movs	r1, #0
 4520 0044 7868     		ldr	r0, [r7, #4]
 4521 0046 FFF7FEFF 		bl	dir_sdi
 4522 004a 0346     		mov	r3, r0
 4523 004c FB75     		strb	r3, [r7, #23]
 4524 004e 48E0     		b	.L429
 4525              	.L428:
 4526 0050 3B46     		mov	r3, r7
 4527 0052 1946     		mov	r1, r3
 4528 0054 7868     		ldr	r0, [r7, #4]
 4529 0056 FFF7FEFF 		bl	create_name
 4530 005a 0346     		mov	r3, r0
 4531 005c FB75     		strb	r3, [r7, #23]
 4532 005e FB7D     		ldrb	r3, [r7, #23]	@ zero_extendqisi2
 4533 0060 002B     		cmp	r3, #0
 4534 0062 39D1     		bne	.L436
 4535 0064 7868     		ldr	r0, [r7, #4]
 4536 0066 FFF7FEFF 		bl	dir_find
 4537 006a 0346     		mov	r3, r0
 4538 006c FB75     		strb	r3, [r7, #23]
 4539 006e 7B68     		ldr	r3, [r7, #4]
 4540 0070 93F82F30 		ldrb	r3, [r3, #47]
 4541 0074 FB72     		strb	r3, [r7, #11]
 4542 0076 FB7D     		ldrb	r3, [r7, #23]	@ zero_extendqisi2
 4543 0078 002B     		cmp	r3, #0
 4544 007a 0AD0     		beq	.L431
 4545 007c FB7D     		ldrb	r3, [r7, #23]	@ zero_extendqisi2
 4546 007e 042B     		cmp	r3, #4
 4547 0080 2CD1     		bne	.L437
 4548 0082 FB7A     		ldrb	r3, [r7, #11]	@ zero_extendqisi2
 4549 0084 03F00403 		and	r3, r3, #4
 4550 0088 002B     		cmp	r3, #0
 4551 008a 27D1     		bne	.L437
 4552 008c 0523     		movs	r3, #5
 4553 008e FB75     		strb	r3, [r7, #23]
 4554 0090 24E0     		b	.L437
 4555              	.L431:
ARM GAS  C:\Users\user\AppData\Local\Temp\ccnu1L5f.s 			page 80


 4556 0092 FB7A     		ldrb	r3, [r7, #11]	@ zero_extendqisi2
 4557 0094 03F00403 		and	r3, r3, #4
 4558 0098 002B     		cmp	r3, #0
 4559 009a 21D1     		bne	.L438
 4560 009c 3B69     		ldr	r3, [r7, #16]
 4561 009e 9B79     		ldrb	r3, [r3, #6]	@ zero_extendqisi2
 4562 00a0 03F01003 		and	r3, r3, #16
 4563 00a4 002B     		cmp	r3, #0
 4564 00a6 02D1     		bne	.L434
 4565 00a8 0523     		movs	r3, #5
 4566 00aa FB75     		strb	r3, [r7, #23]
 4567 00ac 19E0     		b	.L429
 4568              	.L434:
 4569 00ae FB68     		ldr	r3, [r7, #12]
 4570 00b0 03F13801 		add	r1, r3, #56
 4571 00b4 7B68     		ldr	r3, [r7, #4]
 4572 00b6 5B69     		ldr	r3, [r3, #20]
 4573 00b8 FA68     		ldr	r2, [r7, #12]
 4574 00ba 9289     		ldrh	r2, [r2, #12]
 4575 00bc B3FBF2F0 		udiv	r0, r3, r2
 4576 00c0 00FB02F2 		mul	r2, r0, r2
 4577 00c4 9B1A     		subs	r3, r3, r2
 4578 00c6 0B44     		add	r3, r3, r1
 4579 00c8 1946     		mov	r1, r3
 4580 00ca F868     		ldr	r0, [r7, #12]
 4581 00cc FFF7FEFF 		bl	ld_clust
 4582 00d0 0246     		mov	r2, r0
 4583 00d2 3B69     		ldr	r3, [r7, #16]
 4584 00d4 9A60     		str	r2, [r3, #8]
 4585 00d6 BBE7     		b	.L428
 4586              	.L436:
 4587 00d8 00BF     		nop
 4588 00da 02E0     		b	.L429
 4589              	.L437:
 4590 00dc 00BF     		nop
 4591 00de 00E0     		b	.L429
 4592              	.L438:
 4593 00e0 00BF     		nop
 4594              	.L429:
 4595 00e2 FB7D     		ldrb	r3, [r7, #23]	@ zero_extendqisi2
 4596 00e4 1846     		mov	r0, r3
 4597 00e6 1837     		adds	r7, r7, #24
 4598 00e8 BD46     		mov	sp, r7
 4599              		@ sp needed
 4600 00ea 80BD     		pop	{r7, pc}
 4602              		.section	.text.get_ldnumber,"ax",%progbits
 4603              		.align	1
 4604              		.syntax unified
 4605              		.thumb
 4606              		.thumb_func
 4608              	get_ldnumber:
 4609              		@ args = 0, pretend = 0, frame = 24
 4610              		@ frame_needed = 1, uses_anonymous_args = 0
 4611              		@ link register save eliminated.
 4612 0000 80B4     		push	{r7}
 4613 0002 87B0     		sub	sp, sp, #28
 4614 0004 00AF     		add	r7, sp, #0
ARM GAS  C:\Users\user\AppData\Local\Temp\ccnu1L5f.s 			page 81


 4615 0006 7860     		str	r0, [r7, #4]
 4616 0008 4FF0FF33 		mov	r3, #-1
 4617 000c 3B61     		str	r3, [r7, #16]
 4618 000e 7B68     		ldr	r3, [r7, #4]
 4619 0010 1B68     		ldr	r3, [r3]
 4620 0012 002B     		cmp	r3, #0
 4621 0014 31D0     		beq	.L440
 4622 0016 7B68     		ldr	r3, [r7, #4]
 4623 0018 1B68     		ldr	r3, [r3]
 4624 001a 7B61     		str	r3, [r7, #20]
 4625 001c 02E0     		b	.L441
 4626              	.L443:
 4627 001e 7B69     		ldr	r3, [r7, #20]
 4628 0020 0133     		adds	r3, r3, #1
 4629 0022 7B61     		str	r3, [r7, #20]
 4630              	.L441:
 4631 0024 7B69     		ldr	r3, [r7, #20]
 4632 0026 1B78     		ldrb	r3, [r3]	@ zero_extendqisi2
 4633 0028 1F2B     		cmp	r3, #31
 4634 002a 03D9     		bls	.L442
 4635 002c 7B69     		ldr	r3, [r7, #20]
 4636 002e 1B78     		ldrb	r3, [r3]	@ zero_extendqisi2
 4637 0030 3A2B     		cmp	r3, #58
 4638 0032 F4D1     		bne	.L443
 4639              	.L442:
 4640 0034 7B69     		ldr	r3, [r7, #20]
 4641 0036 1B78     		ldrb	r3, [r3]	@ zero_extendqisi2
 4642 0038 3A2B     		cmp	r3, #58
 4643 003a 1CD1     		bne	.L444
 4644 003c 7B68     		ldr	r3, [r7, #4]
 4645 003e 1B68     		ldr	r3, [r3]
 4646 0040 FB60     		str	r3, [r7, #12]
 4647 0042 FB68     		ldr	r3, [r7, #12]
 4648 0044 5A1C     		adds	r2, r3, #1
 4649 0046 FA60     		str	r2, [r7, #12]
 4650 0048 1B78     		ldrb	r3, [r3]	@ zero_extendqisi2
 4651 004a 303B     		subs	r3, r3, #48
 4652 004c BB60     		str	r3, [r7, #8]
 4653 004e BB68     		ldr	r3, [r7, #8]
 4654 0050 092B     		cmp	r3, #9
 4655 0052 0ED8     		bhi	.L445
 4656 0054 FA68     		ldr	r2, [r7, #12]
 4657 0056 7B69     		ldr	r3, [r7, #20]
 4658 0058 9A42     		cmp	r2, r3
 4659 005a 0AD1     		bne	.L445
 4660 005c BB68     		ldr	r3, [r7, #8]
 4661 005e 002B     		cmp	r3, #0
 4662 0060 07D1     		bne	.L445
 4663 0062 BB68     		ldr	r3, [r7, #8]
 4664 0064 3B61     		str	r3, [r7, #16]
 4665 0066 7B69     		ldr	r3, [r7, #20]
 4666 0068 0133     		adds	r3, r3, #1
 4667 006a 7B61     		str	r3, [r7, #20]
 4668 006c 7B68     		ldr	r3, [r7, #4]
 4669 006e 7A69     		ldr	r2, [r7, #20]
 4670 0070 1A60     		str	r2, [r3]
 4671              	.L445:
ARM GAS  C:\Users\user\AppData\Local\Temp\ccnu1L5f.s 			page 82


 4672 0072 3B69     		ldr	r3, [r7, #16]
 4673 0074 02E0     		b	.L446
 4674              	.L444:
 4675 0076 0023     		movs	r3, #0
 4676 0078 3B61     		str	r3, [r7, #16]
 4677              	.L440:
 4678 007a 3B69     		ldr	r3, [r7, #16]
 4679              	.L446:
 4680 007c 1846     		mov	r0, r3
 4681 007e 1C37     		adds	r7, r7, #28
 4682 0080 BD46     		mov	sp, r7
 4683              		@ sp needed
 4684 0082 5DF8047B 		ldr	r7, [sp], #4
 4685 0086 7047     		bx	lr
 4687              		.section	.text.check_fs,"ax",%progbits
 4688              		.align	1
 4689              		.syntax unified
 4690              		.thumb
 4691              		.thumb_func
 4693              	check_fs:
 4694              		@ args = 0, pretend = 0, frame = 8
 4695              		@ frame_needed = 1, uses_anonymous_args = 0
 4696 0000 80B5     		push	{r7, lr}
 4697 0002 82B0     		sub	sp, sp, #8
 4698 0004 00AF     		add	r7, sp, #0
 4699 0006 7860     		str	r0, [r7, #4]
 4700 0008 3960     		str	r1, [r7]
 4701 000a 7B68     		ldr	r3, [r7, #4]
 4702 000c 0022     		movs	r2, #0
 4703 000e DA70     		strb	r2, [r3, #3]
 4704 0010 7B68     		ldr	r3, [r7, #4]
 4705 0012 4FF0FF32 		mov	r2, #-1
 4706 0016 5A63     		str	r2, [r3, #52]
 4707 0018 3968     		ldr	r1, [r7]
 4708 001a 7868     		ldr	r0, [r7, #4]
 4709 001c FFF7FEFF 		bl	move_window
 4710 0020 0346     		mov	r3, r0
 4711 0022 002B     		cmp	r3, #0
 4712 0024 01D0     		beq	.L448
 4713 0026 0423     		movs	r3, #4
 4714 0028 38E0     		b	.L449
 4715              	.L448:
 4716 002a 7B68     		ldr	r3, [r7, #4]
 4717 002c 3833     		adds	r3, r3, #56
 4718 002e 03F5FF73 		add	r3, r3, #510
 4719 0032 1846     		mov	r0, r3
 4720 0034 FFF7FEFF 		bl	ld_word
 4721 0038 0346     		mov	r3, r0
 4722 003a 1A46     		mov	r2, r3
 4723 003c 4AF65523 		movw	r3, #43605
 4724 0040 9A42     		cmp	r2, r3
 4725 0042 01D0     		beq	.L450
 4726 0044 0323     		movs	r3, #3
 4727 0046 29E0     		b	.L449
 4728              	.L450:
 4729 0048 7B68     		ldr	r3, [r7, #4]
 4730 004a 93F83830 		ldrb	r3, [r3, #56]	@ zero_extendqisi2
ARM GAS  C:\Users\user\AppData\Local\Temp\ccnu1L5f.s 			page 83


 4731 004e E92B     		cmp	r3, #233
 4732 0050 09D0     		beq	.L451
 4733 0052 7B68     		ldr	r3, [r7, #4]
 4734 0054 93F83830 		ldrb	r3, [r3, #56]	@ zero_extendqisi2
 4735 0058 EB2B     		cmp	r3, #235
 4736 005a 1ED1     		bne	.L452
 4737 005c 7B68     		ldr	r3, [r7, #4]
 4738 005e 93F83A30 		ldrb	r3, [r3, #58]	@ zero_extendqisi2
 4739 0062 902B     		cmp	r3, #144
 4740 0064 19D1     		bne	.L452
 4741              	.L451:
 4742 0066 7B68     		ldr	r3, [r7, #4]
 4743 0068 3833     		adds	r3, r3, #56
 4744 006a 3633     		adds	r3, r3, #54
 4745 006c 1846     		mov	r0, r3
 4746 006e FFF7FEFF 		bl	ld_dword
 4747 0072 0346     		mov	r3, r0
 4748 0074 23F07F43 		bic	r3, r3, #-16777216
 4749 0078 0A4A     		ldr	r2, .L454
 4750 007a 9342     		cmp	r3, r2
 4751 007c 01D1     		bne	.L453
 4752 007e 0023     		movs	r3, #0
 4753 0080 0CE0     		b	.L449
 4754              	.L453:
 4755 0082 7B68     		ldr	r3, [r7, #4]
 4756 0084 3833     		adds	r3, r3, #56
 4757 0086 5233     		adds	r3, r3, #82
 4758 0088 1846     		mov	r0, r3
 4759 008a FFF7FEFF 		bl	ld_dword
 4760 008e 0346     		mov	r3, r0
 4761 0090 054A     		ldr	r2, .L454+4
 4762 0092 9342     		cmp	r3, r2
 4763 0094 01D1     		bne	.L452
 4764 0096 0023     		movs	r3, #0
 4765 0098 00E0     		b	.L449
 4766              	.L452:
 4767 009a 0223     		movs	r3, #2
 4768              	.L449:
 4769 009c 1846     		mov	r0, r3
 4770 009e 0837     		adds	r7, r7, #8
 4771 00a0 BD46     		mov	sp, r7
 4772              		@ sp needed
 4773 00a2 80BD     		pop	{r7, pc}
 4774              	.L455:
 4775              		.align	2
 4776              	.L454:
 4777 00a4 46415400 		.word	5521734
 4778 00a8 46415433 		.word	861159750
 4780              		.section	.text.find_volume,"ax",%progbits
 4781              		.align	1
 4782              		.syntax unified
 4783              		.thumb
 4784              		.thumb_func
 4786              	find_volume:
 4787              		@ args = 0, pretend = 0, frame = 88
 4788              		@ frame_needed = 1, uses_anonymous_args = 0
 4789 0000 80B5     		push	{r7, lr}
ARM GAS  C:\Users\user\AppData\Local\Temp\ccnu1L5f.s 			page 84


 4790 0002 96B0     		sub	sp, sp, #88
 4791 0004 00AF     		add	r7, sp, #0
 4792 0006 F860     		str	r0, [r7, #12]
 4793 0008 B960     		str	r1, [r7, #8]
 4794 000a 1346     		mov	r3, r2
 4795 000c FB71     		strb	r3, [r7, #7]
 4796 000e BB68     		ldr	r3, [r7, #8]
 4797 0010 0022     		movs	r2, #0
 4798 0012 1A60     		str	r2, [r3]
 4799 0014 F868     		ldr	r0, [r7, #12]
 4800 0016 FFF7FEFF 		bl	get_ldnumber
 4801 001a F863     		str	r0, [r7, #60]
 4802 001c FB6B     		ldr	r3, [r7, #60]
 4803 001e 002B     		cmp	r3, #0
 4804 0020 01DA     		bge	.L457
 4805 0022 0B23     		movs	r3, #11
 4806 0024 65E2     		b	.L499
 4807              	.L457:
 4808 0026 9F4A     		ldr	r2, .L500
 4809 0028 FB6B     		ldr	r3, [r7, #60]
 4810 002a 52F82330 		ldr	r3, [r2, r3, lsl #2]
 4811 002e BB63     		str	r3, [r7, #56]
 4812 0030 BB6B     		ldr	r3, [r7, #56]
 4813 0032 002B     		cmp	r3, #0
 4814 0034 01D1     		bne	.L459
 4815 0036 0C23     		movs	r3, #12
 4816 0038 5BE2     		b	.L499
 4817              	.L459:
 4818 003a BB68     		ldr	r3, [r7, #8]
 4819 003c BA6B     		ldr	r2, [r7, #56]
 4820 003e 1A60     		str	r2, [r3]
 4821 0040 FB79     		ldrb	r3, [r7, #7]
 4822 0042 23F00103 		bic	r3, r3, #1
 4823 0046 FB71     		strb	r3, [r7, #7]
 4824 0048 BB6B     		ldr	r3, [r7, #56]
 4825 004a 1B78     		ldrb	r3, [r3]	@ zero_extendqisi2
 4826 004c 002B     		cmp	r3, #0
 4827 004e 1AD0     		beq	.L460
 4828 0050 BB6B     		ldr	r3, [r7, #56]
 4829 0052 5B78     		ldrb	r3, [r3, #1]	@ zero_extendqisi2
 4830 0054 1846     		mov	r0, r3
 4831 0056 FFF7FEFF 		bl	disk_status
 4832 005a 0346     		mov	r3, r0
 4833 005c 87F83730 		strb	r3, [r7, #55]
 4834 0060 97F83730 		ldrb	r3, [r7, #55]	@ zero_extendqisi2
 4835 0064 03F00103 		and	r3, r3, #1
 4836 0068 002B     		cmp	r3, #0
 4837 006a 0CD1     		bne	.L460
 4838 006c FB79     		ldrb	r3, [r7, #7]	@ zero_extendqisi2
 4839 006e 002B     		cmp	r3, #0
 4840 0070 07D0     		beq	.L461
 4841 0072 97F83730 		ldrb	r3, [r7, #55]	@ zero_extendqisi2
 4842 0076 03F00403 		and	r3, r3, #4
 4843 007a 002B     		cmp	r3, #0
 4844 007c 01D0     		beq	.L461
 4845 007e 0A23     		movs	r3, #10
 4846 0080 37E2     		b	.L499
ARM GAS  C:\Users\user\AppData\Local\Temp\ccnu1L5f.s 			page 85


 4847              	.L461:
 4848 0082 0023     		movs	r3, #0
 4849 0084 35E2     		b	.L499
 4850              	.L460:
 4851 0086 BB6B     		ldr	r3, [r7, #56]
 4852 0088 0022     		movs	r2, #0
 4853 008a 1A70     		strb	r2, [r3]
 4854 008c FB6B     		ldr	r3, [r7, #60]
 4855 008e DAB2     		uxtb	r2, r3
 4856 0090 BB6B     		ldr	r3, [r7, #56]
 4857 0092 5A70     		strb	r2, [r3, #1]
 4858 0094 BB6B     		ldr	r3, [r7, #56]
 4859 0096 5B78     		ldrb	r3, [r3, #1]	@ zero_extendqisi2
 4860 0098 1846     		mov	r0, r3
 4861 009a FFF7FEFF 		bl	disk_initialize
 4862 009e 0346     		mov	r3, r0
 4863 00a0 87F83730 		strb	r3, [r7, #55]
 4864 00a4 97F83730 		ldrb	r3, [r7, #55]	@ zero_extendqisi2
 4865 00a8 03F00103 		and	r3, r3, #1
 4866 00ac 002B     		cmp	r3, #0
 4867 00ae 01D0     		beq	.L462
 4868 00b0 0323     		movs	r3, #3
 4869 00b2 1EE2     		b	.L499
 4870              	.L462:
 4871 00b4 FB79     		ldrb	r3, [r7, #7]	@ zero_extendqisi2
 4872 00b6 002B     		cmp	r3, #0
 4873 00b8 07D0     		beq	.L463
 4874 00ba 97F83730 		ldrb	r3, [r7, #55]	@ zero_extendqisi2
 4875 00be 03F00403 		and	r3, r3, #4
 4876 00c2 002B     		cmp	r3, #0
 4877 00c4 01D0     		beq	.L463
 4878 00c6 0A23     		movs	r3, #10
 4879 00c8 13E2     		b	.L499
 4880              	.L463:
 4881 00ca BB6B     		ldr	r3, [r7, #56]
 4882 00cc 5878     		ldrb	r0, [r3, #1]	@ zero_extendqisi2
 4883 00ce BB6B     		ldr	r3, [r7, #56]
 4884 00d0 0C33     		adds	r3, r3, #12
 4885 00d2 1A46     		mov	r2, r3
 4886 00d4 0221     		movs	r1, #2
 4887 00d6 FFF7FEFF 		bl	disk_ioctl
 4888 00da 0346     		mov	r3, r0
 4889 00dc 002B     		cmp	r3, #0
 4890 00de 01D0     		beq	.L464
 4891 00e0 0123     		movs	r3, #1
 4892 00e2 06E2     		b	.L499
 4893              	.L464:
 4894 00e4 BB6B     		ldr	r3, [r7, #56]
 4895 00e6 9B89     		ldrh	r3, [r3, #12]
 4896 00e8 B3F5805F 		cmp	r3, #4096
 4897 00ec 0DD8     		bhi	.L465
 4898 00ee BB6B     		ldr	r3, [r7, #56]
 4899 00f0 9B89     		ldrh	r3, [r3, #12]
 4900 00f2 B3F5007F 		cmp	r3, #512
 4901 00f6 08D3     		bcc	.L465
 4902 00f8 BB6B     		ldr	r3, [r7, #56]
 4903 00fa 9B89     		ldrh	r3, [r3, #12]
ARM GAS  C:\Users\user\AppData\Local\Temp\ccnu1L5f.s 			page 86


 4904 00fc 1A46     		mov	r2, r3
 4905 00fe BB6B     		ldr	r3, [r7, #56]
 4906 0100 9B89     		ldrh	r3, [r3, #12]
 4907 0102 013B     		subs	r3, r3, #1
 4908 0104 1340     		ands	r3, r3, r2
 4909 0106 002B     		cmp	r3, #0
 4910 0108 01D0     		beq	.L466
 4911              	.L465:
 4912 010a 0123     		movs	r3, #1
 4913 010c F1E1     		b	.L499
 4914              	.L466:
 4915 010e 0023     		movs	r3, #0
 4916 0110 3B65     		str	r3, [r7, #80]
 4917 0112 396D     		ldr	r1, [r7, #80]
 4918 0114 B86B     		ldr	r0, [r7, #56]
 4919 0116 FFF7FEFF 		bl	check_fs
 4920 011a 0346     		mov	r3, r0
 4921 011c 87F85730 		strb	r3, [r7, #87]
 4922 0120 97F85730 		ldrb	r3, [r7, #87]	@ zero_extendqisi2
 4923 0124 022B     		cmp	r3, #2
 4924 0126 49D1     		bne	.L467
 4925 0128 0023     		movs	r3, #0
 4926 012a 3B64     		str	r3, [r7, #64]
 4927 012c 1EE0     		b	.L468
 4928              	.L471:
 4929 012e BB6B     		ldr	r3, [r7, #56]
 4930 0130 03F13802 		add	r2, r3, #56
 4931 0134 3B6C     		ldr	r3, [r7, #64]
 4932 0136 1B01     		lsls	r3, r3, #4
 4933 0138 03F5DF73 		add	r3, r3, #446
 4934 013c 1344     		add	r3, r3, r2
 4935 013e 3B63     		str	r3, [r7, #48]
 4936 0140 3B6B     		ldr	r3, [r7, #48]
 4937 0142 0433     		adds	r3, r3, #4
 4938 0144 1B78     		ldrb	r3, [r3]	@ zero_extendqisi2
 4939 0146 002B     		cmp	r3, #0
 4940 0148 06D0     		beq	.L469
 4941 014a 3B6B     		ldr	r3, [r7, #48]
 4942 014c 0833     		adds	r3, r3, #8
 4943 014e 1846     		mov	r0, r3
 4944 0150 FFF7FEFF 		bl	ld_dword
 4945 0154 0246     		mov	r2, r0
 4946 0156 00E0     		b	.L470
 4947              	.L469:
 4948 0158 0022     		movs	r2, #0
 4949              	.L470:
 4950 015a 3B6C     		ldr	r3, [r7, #64]
 4951 015c 9B00     		lsls	r3, r3, #2
 4952 015e 5833     		adds	r3, r3, #88
 4953 0160 3B44     		add	r3, r3, r7
 4954 0162 43F8442C 		str	r2, [r3, #-68]
 4955 0166 3B6C     		ldr	r3, [r7, #64]
 4956 0168 0133     		adds	r3, r3, #1
 4957 016a 3B64     		str	r3, [r7, #64]
 4958              	.L468:
 4959 016c 3B6C     		ldr	r3, [r7, #64]
 4960 016e 032B     		cmp	r3, #3
ARM GAS  C:\Users\user\AppData\Local\Temp\ccnu1L5f.s 			page 87


 4961 0170 DDD9     		bls	.L471
 4962 0172 0023     		movs	r3, #0
 4963 0174 3B64     		str	r3, [r7, #64]
 4964 0176 3B6C     		ldr	r3, [r7, #64]
 4965 0178 002B     		cmp	r3, #0
 4966 017a 02D0     		beq	.L475
 4967 017c 3B6C     		ldr	r3, [r7, #64]
 4968 017e 013B     		subs	r3, r3, #1
 4969 0180 3B64     		str	r3, [r7, #64]
 4970              	.L475:
 4971 0182 3B6C     		ldr	r3, [r7, #64]
 4972 0184 9B00     		lsls	r3, r3, #2
 4973 0186 5833     		adds	r3, r3, #88
 4974 0188 3B44     		add	r3, r3, r7
 4975 018a 53F8443C 		ldr	r3, [r3, #-68]
 4976 018e 3B65     		str	r3, [r7, #80]
 4977 0190 3B6D     		ldr	r3, [r7, #80]
 4978 0192 002B     		cmp	r3, #0
 4979 0194 05D0     		beq	.L473
 4980 0196 396D     		ldr	r1, [r7, #80]
 4981 0198 B86B     		ldr	r0, [r7, #56]
 4982 019a FFF7FEFF 		bl	check_fs
 4983 019e 0346     		mov	r3, r0
 4984 01a0 00E0     		b	.L474
 4985              	.L473:
 4986 01a2 0323     		movs	r3, #3
 4987              	.L474:
 4988 01a4 87F85730 		strb	r3, [r7, #87]
 4989 01a8 97F85730 		ldrb	r3, [r7, #87]	@ zero_extendqisi2
 4990 01ac 012B     		cmp	r3, #1
 4991 01ae 05D9     		bls	.L467
 4992 01b0 3B6C     		ldr	r3, [r7, #64]
 4993 01b2 0133     		adds	r3, r3, #1
 4994 01b4 3B64     		str	r3, [r7, #64]
 4995 01b6 3B6C     		ldr	r3, [r7, #64]
 4996 01b8 032B     		cmp	r3, #3
 4997 01ba E2D9     		bls	.L475
 4998              	.L467:
 4999 01bc 97F85730 		ldrb	r3, [r7, #87]	@ zero_extendqisi2
 5000 01c0 042B     		cmp	r3, #4
 5001 01c2 01D1     		bne	.L476
 5002 01c4 0123     		movs	r3, #1
 5003 01c6 94E1     		b	.L499
 5004              	.L476:
 5005 01c8 97F85730 		ldrb	r3, [r7, #87]	@ zero_extendqisi2
 5006 01cc 012B     		cmp	r3, #1
 5007 01ce 01D9     		bls	.L477
 5008 01d0 0D23     		movs	r3, #13
 5009 01d2 8EE1     		b	.L499
 5010              	.L477:
 5011 01d4 BB6B     		ldr	r3, [r7, #56]
 5012 01d6 3833     		adds	r3, r3, #56
 5013 01d8 0B33     		adds	r3, r3, #11
 5014 01da 1846     		mov	r0, r3
 5015 01dc FFF7FEFF 		bl	ld_word
 5016 01e0 0346     		mov	r3, r0
 5017 01e2 1A46     		mov	r2, r3
ARM GAS  C:\Users\user\AppData\Local\Temp\ccnu1L5f.s 			page 88


 5018 01e4 BB6B     		ldr	r3, [r7, #56]
 5019 01e6 9B89     		ldrh	r3, [r3, #12]
 5020 01e8 9A42     		cmp	r2, r3
 5021 01ea 01D0     		beq	.L478
 5022 01ec 0D23     		movs	r3, #13
 5023 01ee 80E1     		b	.L499
 5024              	.L478:
 5025 01f0 BB6B     		ldr	r3, [r7, #56]
 5026 01f2 3833     		adds	r3, r3, #56
 5027 01f4 1633     		adds	r3, r3, #22
 5028 01f6 1846     		mov	r0, r3
 5029 01f8 FFF7FEFF 		bl	ld_word
 5030 01fc 0346     		mov	r3, r0
 5031 01fe FB64     		str	r3, [r7, #76]
 5032 0200 FB6C     		ldr	r3, [r7, #76]
 5033 0202 002B     		cmp	r3, #0
 5034 0204 06D1     		bne	.L479
 5035 0206 BB6B     		ldr	r3, [r7, #56]
 5036 0208 3833     		adds	r3, r3, #56
 5037 020a 2433     		adds	r3, r3, #36
 5038 020c 1846     		mov	r0, r3
 5039 020e FFF7FEFF 		bl	ld_dword
 5040 0212 F864     		str	r0, [r7, #76]
 5041              	.L479:
 5042 0214 BB6B     		ldr	r3, [r7, #56]
 5043 0216 FA6C     		ldr	r2, [r7, #76]
 5044 0218 1A62     		str	r2, [r3, #32]
 5045 021a BB6B     		ldr	r3, [r7, #56]
 5046 021c 93F84820 		ldrb	r2, [r3, #72]	@ zero_extendqisi2
 5047 0220 BB6B     		ldr	r3, [r7, #56]
 5048 0222 9A70     		strb	r2, [r3, #2]
 5049 0224 BB6B     		ldr	r3, [r7, #56]
 5050 0226 9B78     		ldrb	r3, [r3, #2]	@ zero_extendqisi2
 5051 0228 012B     		cmp	r3, #1
 5052 022a 05D0     		beq	.L480
 5053 022c BB6B     		ldr	r3, [r7, #56]
 5054 022e 9B78     		ldrb	r3, [r3, #2]	@ zero_extendqisi2
 5055 0230 022B     		cmp	r3, #2
 5056 0232 01D0     		beq	.L480
 5057 0234 0D23     		movs	r3, #13
 5058 0236 5CE1     		b	.L499
 5059              	.L480:
 5060 0238 BB6B     		ldr	r3, [r7, #56]
 5061 023a 9B78     		ldrb	r3, [r3, #2]	@ zero_extendqisi2
 5062 023c 1A46     		mov	r2, r3
 5063 023e FB6C     		ldr	r3, [r7, #76]
 5064 0240 02FB03F3 		mul	r3, r2, r3
 5065 0244 FB64     		str	r3, [r7, #76]
 5066 0246 BB6B     		ldr	r3, [r7, #56]
 5067 0248 93F84530 		ldrb	r3, [r3, #69]	@ zero_extendqisi2
 5068 024c 1A46     		mov	r2, r3
 5069 024e BB6B     		ldr	r3, [r7, #56]
 5070 0250 5A81     		strh	r2, [r3, #10]	@ movhi
 5071 0252 BB6B     		ldr	r3, [r7, #56]
 5072 0254 5B89     		ldrh	r3, [r3, #10]
 5073 0256 002B     		cmp	r3, #0
 5074 0258 08D0     		beq	.L481
ARM GAS  C:\Users\user\AppData\Local\Temp\ccnu1L5f.s 			page 89


 5075 025a BB6B     		ldr	r3, [r7, #56]
 5076 025c 5B89     		ldrh	r3, [r3, #10]
 5077 025e 1A46     		mov	r2, r3
 5078 0260 BB6B     		ldr	r3, [r7, #56]
 5079 0262 5B89     		ldrh	r3, [r3, #10]
 5080 0264 013B     		subs	r3, r3, #1
 5081 0266 1340     		ands	r3, r3, r2
 5082 0268 002B     		cmp	r3, #0
 5083 026a 01D0     		beq	.L482
 5084              	.L481:
 5085 026c 0D23     		movs	r3, #13
 5086 026e 40E1     		b	.L499
 5087              	.L482:
 5088 0270 BB6B     		ldr	r3, [r7, #56]
 5089 0272 3833     		adds	r3, r3, #56
 5090 0274 1133     		adds	r3, r3, #17
 5091 0276 1846     		mov	r0, r3
 5092 0278 FFF7FEFF 		bl	ld_word
 5093 027c 0346     		mov	r3, r0
 5094 027e 1A46     		mov	r2, r3
 5095 0280 BB6B     		ldr	r3, [r7, #56]
 5096 0282 1A81     		strh	r2, [r3, #8]	@ movhi
 5097 0284 BB6B     		ldr	r3, [r7, #56]
 5098 0286 1B89     		ldrh	r3, [r3, #8]
 5099 0288 BA6B     		ldr	r2, [r7, #56]
 5100 028a 9289     		ldrh	r2, [r2, #12]
 5101 028c 5209     		lsrs	r2, r2, #5
 5102 028e 92B2     		uxth	r2, r2
 5103 0290 B3FBF2F1 		udiv	r1, r3, r2
 5104 0294 01FB02F2 		mul	r2, r1, r2
 5105 0298 9B1A     		subs	r3, r3, r2
 5106 029a 9BB2     		uxth	r3, r3
 5107 029c 002B     		cmp	r3, #0
 5108 029e 03D0     		beq	.L483
 5109 02a0 0D23     		movs	r3, #13
 5110 02a2 26E1     		b	.L499
 5111              	.L501:
 5112              		.align	2
 5113              	.L500:
 5114 02a4 00000000 		.word	FatFs
 5115              	.L483:
 5116 02a8 BB6B     		ldr	r3, [r7, #56]
 5117 02aa 3833     		adds	r3, r3, #56
 5118 02ac 1333     		adds	r3, r3, #19
 5119 02ae 1846     		mov	r0, r3
 5120 02b0 FFF7FEFF 		bl	ld_word
 5121 02b4 0346     		mov	r3, r0
 5122 02b6 BB64     		str	r3, [r7, #72]
 5123 02b8 BB6C     		ldr	r3, [r7, #72]
 5124 02ba 002B     		cmp	r3, #0
 5125 02bc 06D1     		bne	.L484
 5126 02be BB6B     		ldr	r3, [r7, #56]
 5127 02c0 3833     		adds	r3, r3, #56
 5128 02c2 2033     		adds	r3, r3, #32
 5129 02c4 1846     		mov	r0, r3
 5130 02c6 FFF7FEFF 		bl	ld_dword
 5131 02ca B864     		str	r0, [r7, #72]
ARM GAS  C:\Users\user\AppData\Local\Temp\ccnu1L5f.s 			page 90


 5132              	.L484:
 5133 02cc BB6B     		ldr	r3, [r7, #56]
 5134 02ce 3833     		adds	r3, r3, #56
 5135 02d0 0E33     		adds	r3, r3, #14
 5136 02d2 1846     		mov	r0, r3
 5137 02d4 FFF7FEFF 		bl	ld_word
 5138 02d8 0346     		mov	r3, r0
 5139 02da FB85     		strh	r3, [r7, #46]	@ movhi
 5140 02dc FB8D     		ldrh	r3, [r7, #46]
 5141 02de 002B     		cmp	r3, #0
 5142 02e0 01D1     		bne	.L485
 5143 02e2 0D23     		movs	r3, #13
 5144 02e4 05E1     		b	.L499
 5145              	.L485:
 5146 02e6 FA8D     		ldrh	r2, [r7, #46]
 5147 02e8 FB6C     		ldr	r3, [r7, #76]
 5148 02ea 1344     		add	r3, r3, r2
 5149 02ec BA6B     		ldr	r2, [r7, #56]
 5150 02ee 1189     		ldrh	r1, [r2, #8]
 5151 02f0 BA6B     		ldr	r2, [r7, #56]
 5152 02f2 9289     		ldrh	r2, [r2, #12]
 5153 02f4 5209     		lsrs	r2, r2, #5
 5154 02f6 92B2     		uxth	r2, r2
 5155 02f8 B1FBF2F2 		udiv	r2, r1, r2
 5156 02fc 92B2     		uxth	r2, r2
 5157 02fe 1344     		add	r3, r3, r2
 5158 0300 BB62     		str	r3, [r7, #40]
 5159 0302 BA6C     		ldr	r2, [r7, #72]
 5160 0304 BB6A     		ldr	r3, [r7, #40]
 5161 0306 9A42     		cmp	r2, r3
 5162 0308 01D2     		bcs	.L486
 5163 030a 0D23     		movs	r3, #13
 5164 030c F1E0     		b	.L499
 5165              	.L486:
 5166 030e BA6C     		ldr	r2, [r7, #72]
 5167 0310 BB6A     		ldr	r3, [r7, #40]
 5168 0312 D31A     		subs	r3, r2, r3
 5169 0314 BA6B     		ldr	r2, [r7, #56]
 5170 0316 5289     		ldrh	r2, [r2, #10]
 5171 0318 B3FBF2F3 		udiv	r3, r3, r2
 5172 031c 7B62     		str	r3, [r7, #36]
 5173 031e 7B6A     		ldr	r3, [r7, #36]
 5174 0320 002B     		cmp	r3, #0
 5175 0322 01D1     		bne	.L487
 5176 0324 0D23     		movs	r3, #13
 5177 0326 E4E0     		b	.L499
 5178              	.L487:
 5179 0328 0323     		movs	r3, #3
 5180 032a 87F85730 		strb	r3, [r7, #87]
 5181 032e 7B6A     		ldr	r3, [r7, #36]
 5182 0330 4FF6F572 		movw	r2, #65525
 5183 0334 9342     		cmp	r3, r2
 5184 0336 02D8     		bhi	.L488
 5185 0338 0223     		movs	r3, #2
 5186 033a 87F85730 		strb	r3, [r7, #87]
 5187              	.L488:
 5188 033e 7B6A     		ldr	r3, [r7, #36]
ARM GAS  C:\Users\user\AppData\Local\Temp\ccnu1L5f.s 			page 91


 5189 0340 40F6F572 		movw	r2, #4085
 5190 0344 9342     		cmp	r3, r2
 5191 0346 02D8     		bhi	.L489
 5192 0348 0123     		movs	r3, #1
 5193 034a 87F85730 		strb	r3, [r7, #87]
 5194              	.L489:
 5195 034e 7B6A     		ldr	r3, [r7, #36]
 5196 0350 9A1C     		adds	r2, r3, #2
 5197 0352 BB6B     		ldr	r3, [r7, #56]
 5198 0354 DA61     		str	r2, [r3, #28]
 5199 0356 BB6B     		ldr	r3, [r7, #56]
 5200 0358 3A6D     		ldr	r2, [r7, #80]
 5201 035a 5A62     		str	r2, [r3, #36]
 5202 035c FA8D     		ldrh	r2, [r7, #46]
 5203 035e 3B6D     		ldr	r3, [r7, #80]
 5204 0360 1A44     		add	r2, r2, r3
 5205 0362 BB6B     		ldr	r3, [r7, #56]
 5206 0364 9A62     		str	r2, [r3, #40]
 5207 0366 3A6D     		ldr	r2, [r7, #80]
 5208 0368 BB6A     		ldr	r3, [r7, #40]
 5209 036a 1A44     		add	r2, r2, r3
 5210 036c BB6B     		ldr	r3, [r7, #56]
 5211 036e 1A63     		str	r2, [r3, #48]
 5212 0370 97F85730 		ldrb	r3, [r7, #87]	@ zero_extendqisi2
 5213 0374 032B     		cmp	r3, #3
 5214 0376 1ED1     		bne	.L490
 5215 0378 BB6B     		ldr	r3, [r7, #56]
 5216 037a 3833     		adds	r3, r3, #56
 5217 037c 2A33     		adds	r3, r3, #42
 5218 037e 1846     		mov	r0, r3
 5219 0380 FFF7FEFF 		bl	ld_word
 5220 0384 0346     		mov	r3, r0
 5221 0386 002B     		cmp	r3, #0
 5222 0388 01D0     		beq	.L491
 5223 038a 0D23     		movs	r3, #13
 5224 038c B1E0     		b	.L499
 5225              	.L491:
 5226 038e BB6B     		ldr	r3, [r7, #56]
 5227 0390 1B89     		ldrh	r3, [r3, #8]
 5228 0392 002B     		cmp	r3, #0
 5229 0394 01D0     		beq	.L492
 5230 0396 0D23     		movs	r3, #13
 5231 0398 ABE0     		b	.L499
 5232              	.L492:
 5233 039a BB6B     		ldr	r3, [r7, #56]
 5234 039c 3833     		adds	r3, r3, #56
 5235 039e 2C33     		adds	r3, r3, #44
 5236 03a0 1846     		mov	r0, r3
 5237 03a2 FFF7FEFF 		bl	ld_dword
 5238 03a6 0246     		mov	r2, r0
 5239 03a8 BB6B     		ldr	r3, [r7, #56]
 5240 03aa DA62     		str	r2, [r3, #44]
 5241 03ac BB6B     		ldr	r3, [r7, #56]
 5242 03ae DB69     		ldr	r3, [r3, #28]
 5243 03b0 9B00     		lsls	r3, r3, #2
 5244 03b2 7B64     		str	r3, [r7, #68]
 5245 03b4 1FE0     		b	.L493
ARM GAS  C:\Users\user\AppData\Local\Temp\ccnu1L5f.s 			page 92


 5246              	.L490:
 5247 03b6 BB6B     		ldr	r3, [r7, #56]
 5248 03b8 1B89     		ldrh	r3, [r3, #8]
 5249 03ba 002B     		cmp	r3, #0
 5250 03bc 01D1     		bne	.L494
 5251 03be 0D23     		movs	r3, #13
 5252 03c0 97E0     		b	.L499
 5253              	.L494:
 5254 03c2 BB6B     		ldr	r3, [r7, #56]
 5255 03c4 9A6A     		ldr	r2, [r3, #40]
 5256 03c6 FB6C     		ldr	r3, [r7, #76]
 5257 03c8 1A44     		add	r2, r2, r3
 5258 03ca BB6B     		ldr	r3, [r7, #56]
 5259 03cc DA62     		str	r2, [r3, #44]
 5260 03ce 97F85730 		ldrb	r3, [r7, #87]	@ zero_extendqisi2
 5261 03d2 022B     		cmp	r3, #2
 5262 03d4 03D1     		bne	.L495
 5263 03d6 BB6B     		ldr	r3, [r7, #56]
 5264 03d8 DB69     		ldr	r3, [r3, #28]
 5265 03da 5B00     		lsls	r3, r3, #1
 5266 03dc 0AE0     		b	.L496
 5267              	.L495:
 5268 03de BB6B     		ldr	r3, [r7, #56]
 5269 03e0 DA69     		ldr	r2, [r3, #28]
 5270 03e2 1346     		mov	r3, r2
 5271 03e4 5B00     		lsls	r3, r3, #1
 5272 03e6 1344     		add	r3, r3, r2
 5273 03e8 5A08     		lsrs	r2, r3, #1
 5274 03ea BB6B     		ldr	r3, [r7, #56]
 5275 03ec DB69     		ldr	r3, [r3, #28]
 5276 03ee 03F00103 		and	r3, r3, #1
 5277 03f2 1344     		add	r3, r3, r2
 5278              	.L496:
 5279 03f4 7B64     		str	r3, [r7, #68]
 5280              	.L493:
 5281 03f6 BB6B     		ldr	r3, [r7, #56]
 5282 03f8 1A6A     		ldr	r2, [r3, #32]
 5283 03fa BB6B     		ldr	r3, [r7, #56]
 5284 03fc 9B89     		ldrh	r3, [r3, #12]
 5285 03fe 1946     		mov	r1, r3
 5286 0400 7B6C     		ldr	r3, [r7, #68]
 5287 0402 0B44     		add	r3, r3, r1
 5288 0404 013B     		subs	r3, r3, #1
 5289 0406 B96B     		ldr	r1, [r7, #56]
 5290 0408 8989     		ldrh	r1, [r1, #12]
 5291 040a B3FBF1F3 		udiv	r3, r3, r1
 5292 040e 9A42     		cmp	r2, r3
 5293 0410 01D2     		bcs	.L497
 5294 0412 0D23     		movs	r3, #13
 5295 0414 6DE0     		b	.L499
 5296              	.L497:
 5297 0416 BB6B     		ldr	r3, [r7, #56]
 5298 0418 4FF0FF32 		mov	r2, #-1
 5299 041c 9A61     		str	r2, [r3, #24]
 5300 041e BB6B     		ldr	r3, [r7, #56]
 5301 0420 9A69     		ldr	r2, [r3, #24]
 5302 0422 BB6B     		ldr	r3, [r7, #56]
ARM GAS  C:\Users\user\AppData\Local\Temp\ccnu1L5f.s 			page 93


 5303 0424 5A61     		str	r2, [r3, #20]
 5304 0426 BB6B     		ldr	r3, [r7, #56]
 5305 0428 8022     		movs	r2, #128
 5306 042a 1A71     		strb	r2, [r3, #4]
 5307 042c 97F85730 		ldrb	r3, [r7, #87]	@ zero_extendqisi2
 5308 0430 032B     		cmp	r3, #3
 5309 0432 49D1     		bne	.L498
 5310 0434 BB6B     		ldr	r3, [r7, #56]
 5311 0436 3833     		adds	r3, r3, #56
 5312 0438 3033     		adds	r3, r3, #48
 5313 043a 1846     		mov	r0, r3
 5314 043c FFF7FEFF 		bl	ld_word
 5315 0440 0346     		mov	r3, r0
 5316 0442 012B     		cmp	r3, #1
 5317 0444 40D1     		bne	.L498
 5318 0446 3B6D     		ldr	r3, [r7, #80]
 5319 0448 0133     		adds	r3, r3, #1
 5320 044a 1946     		mov	r1, r3
 5321 044c B86B     		ldr	r0, [r7, #56]
 5322 044e FFF7FEFF 		bl	move_window
 5323 0452 0346     		mov	r3, r0
 5324 0454 002B     		cmp	r3, #0
 5325 0456 37D1     		bne	.L498
 5326 0458 BB6B     		ldr	r3, [r7, #56]
 5327 045a 0022     		movs	r2, #0
 5328 045c 1A71     		strb	r2, [r3, #4]
 5329 045e BB6B     		ldr	r3, [r7, #56]
 5330 0460 3833     		adds	r3, r3, #56
 5331 0462 03F5FF73 		add	r3, r3, #510
 5332 0466 1846     		mov	r0, r3
 5333 0468 FFF7FEFF 		bl	ld_word
 5334 046c 0346     		mov	r3, r0
 5335 046e 1A46     		mov	r2, r3
 5336 0470 4AF65523 		movw	r3, #43605
 5337 0474 9A42     		cmp	r2, r3
 5338 0476 27D1     		bne	.L498
 5339 0478 BB6B     		ldr	r3, [r7, #56]
 5340 047a 3833     		adds	r3, r3, #56
 5341 047c 1846     		mov	r0, r3
 5342 047e FFF7FEFF 		bl	ld_dword
 5343 0482 0346     		mov	r3, r0
 5344 0484 1D4A     		ldr	r2, .L502
 5345 0486 9342     		cmp	r3, r2
 5346 0488 1ED1     		bne	.L498
 5347 048a BB6B     		ldr	r3, [r7, #56]
 5348 048c 3833     		adds	r3, r3, #56
 5349 048e 03F5F273 		add	r3, r3, #484
 5350 0492 1846     		mov	r0, r3
 5351 0494 FFF7FEFF 		bl	ld_dword
 5352 0498 0346     		mov	r3, r0
 5353 049a 194A     		ldr	r2, .L502+4
 5354 049c 9342     		cmp	r3, r2
 5355 049e 13D1     		bne	.L498
 5356 04a0 BB6B     		ldr	r3, [r7, #56]
 5357 04a2 3833     		adds	r3, r3, #56
 5358 04a4 03F5F473 		add	r3, r3, #488
 5359 04a8 1846     		mov	r0, r3
ARM GAS  C:\Users\user\AppData\Local\Temp\ccnu1L5f.s 			page 94


 5360 04aa FFF7FEFF 		bl	ld_dword
 5361 04ae 0246     		mov	r2, r0
 5362 04b0 BB6B     		ldr	r3, [r7, #56]
 5363 04b2 9A61     		str	r2, [r3, #24]
 5364 04b4 BB6B     		ldr	r3, [r7, #56]
 5365 04b6 3833     		adds	r3, r3, #56
 5366 04b8 03F5F673 		add	r3, r3, #492
 5367 04bc 1846     		mov	r0, r3
 5368 04be FFF7FEFF 		bl	ld_dword
 5369 04c2 0246     		mov	r2, r0
 5370 04c4 BB6B     		ldr	r3, [r7, #56]
 5371 04c6 5A61     		str	r2, [r3, #20]
 5372              	.L498:
 5373 04c8 BB6B     		ldr	r3, [r7, #56]
 5374 04ca 97F85720 		ldrb	r2, [r7, #87]
 5375 04ce 1A70     		strb	r2, [r3]
 5376 04d0 0C4B     		ldr	r3, .L502+8
 5377 04d2 1B88     		ldrh	r3, [r3]
 5378 04d4 0133     		adds	r3, r3, #1
 5379 04d6 9AB2     		uxth	r2, r3
 5380 04d8 0A4B     		ldr	r3, .L502+8
 5381 04da 1A80     		strh	r2, [r3]	@ movhi
 5382 04dc 094B     		ldr	r3, .L502+8
 5383 04de 1A88     		ldrh	r2, [r3]
 5384 04e0 BB6B     		ldr	r3, [r7, #56]
 5385 04e2 DA80     		strh	r2, [r3, #6]	@ movhi
 5386 04e4 BB6B     		ldr	r3, [r7, #56]
 5387 04e6 084A     		ldr	r2, .L502+12
 5388 04e8 1A61     		str	r2, [r3, #16]
 5389 04ea B86B     		ldr	r0, [r7, #56]
 5390 04ec FFF7FEFF 		bl	clear_lock
 5391 04f0 0023     		movs	r3, #0
 5392              	.L499:
 5393 04f2 1846     		mov	r0, r3
 5394 04f4 5837     		adds	r7, r7, #88
 5395 04f6 BD46     		mov	sp, r7
 5396              		@ sp needed
 5397 04f8 80BD     		pop	{r7, pc}
 5398              	.L503:
 5399 04fa 00BF     		.align	2
 5400              	.L502:
 5401 04fc 52526141 		.word	1096897106
 5402 0500 72724161 		.word	1631679090
 5403 0504 00000000 		.word	Fsid
 5404 0508 00000000 		.word	LfnBuf
 5406              		.section	.text.validate,"ax",%progbits
 5407              		.align	1
 5408              		.syntax unified
 5409              		.thumb
 5410              		.thumb_func
 5412              	validate:
 5413              		@ args = 0, pretend = 0, frame = 16
 5414              		@ frame_needed = 1, uses_anonymous_args = 0
 5415 0000 80B5     		push	{r7, lr}
 5416 0002 84B0     		sub	sp, sp, #16
 5417 0004 00AF     		add	r7, sp, #0
 5418 0006 7860     		str	r0, [r7, #4]
ARM GAS  C:\Users\user\AppData\Local\Temp\ccnu1L5f.s 			page 95


 5419 0008 3960     		str	r1, [r7]
 5420 000a 0923     		movs	r3, #9
 5421 000c FB73     		strb	r3, [r7, #15]
 5422 000e 7B68     		ldr	r3, [r7, #4]
 5423 0010 002B     		cmp	r3, #0
 5424 0012 1CD0     		beq	.L505
 5425 0014 7B68     		ldr	r3, [r7, #4]
 5426 0016 1B68     		ldr	r3, [r3]
 5427 0018 002B     		cmp	r3, #0
 5428 001a 18D0     		beq	.L505
 5429 001c 7B68     		ldr	r3, [r7, #4]
 5430 001e 1B68     		ldr	r3, [r3]
 5431 0020 1B78     		ldrb	r3, [r3]	@ zero_extendqisi2
 5432 0022 002B     		cmp	r3, #0
 5433 0024 13D0     		beq	.L505
 5434 0026 7B68     		ldr	r3, [r7, #4]
 5435 0028 9A88     		ldrh	r2, [r3, #4]
 5436 002a 7B68     		ldr	r3, [r7, #4]
 5437 002c 1B68     		ldr	r3, [r3]
 5438 002e DB88     		ldrh	r3, [r3, #6]
 5439 0030 9A42     		cmp	r2, r3
 5440 0032 0CD1     		bne	.L505
 5441 0034 7B68     		ldr	r3, [r7, #4]
 5442 0036 1B68     		ldr	r3, [r3]
 5443 0038 5B78     		ldrb	r3, [r3, #1]	@ zero_extendqisi2
 5444 003a 1846     		mov	r0, r3
 5445 003c FFF7FEFF 		bl	disk_status
 5446 0040 0346     		mov	r3, r0
 5447 0042 03F00103 		and	r3, r3, #1
 5448 0046 002B     		cmp	r3, #0
 5449 0048 01D1     		bne	.L505
 5450 004a 0023     		movs	r3, #0
 5451 004c FB73     		strb	r3, [r7, #15]
 5452              	.L505:
 5453 004e FB7B     		ldrb	r3, [r7, #15]	@ zero_extendqisi2
 5454 0050 002B     		cmp	r3, #0
 5455 0052 02D1     		bne	.L506
 5456 0054 7B68     		ldr	r3, [r7, #4]
 5457 0056 1B68     		ldr	r3, [r3]
 5458 0058 00E0     		b	.L507
 5459              	.L506:
 5460 005a 0023     		movs	r3, #0
 5461              	.L507:
 5462 005c 3A68     		ldr	r2, [r7]
 5463 005e 1360     		str	r3, [r2]
 5464 0060 FB7B     		ldrb	r3, [r7, #15]	@ zero_extendqisi2
 5465 0062 1846     		mov	r0, r3
 5466 0064 1037     		adds	r7, r7, #16
 5467 0066 BD46     		mov	sp, r7
 5468              		@ sp needed
 5469 0068 80BD     		pop	{r7, pc}
 5471              		.section	.text.f_mount,"ax",%progbits
 5472              		.align	1
 5473              		.global	f_mount
 5474              		.syntax unified
 5475              		.thumb
 5476              		.thumb_func
ARM GAS  C:\Users\user\AppData\Local\Temp\ccnu1L5f.s 			page 96


 5478              	f_mount:
 5479              		@ args = 0, pretend = 0, frame = 32
 5480              		@ frame_needed = 1, uses_anonymous_args = 0
 5481 0000 80B5     		push	{r7, lr}
 5482 0002 88B0     		sub	sp, sp, #32
 5483 0004 00AF     		add	r7, sp, #0
 5484 0006 F860     		str	r0, [r7, #12]
 5485 0008 B960     		str	r1, [r7, #8]
 5486 000a 1346     		mov	r3, r2
 5487 000c FB71     		strb	r3, [r7, #7]
 5488 000e BB68     		ldr	r3, [r7, #8]
 5489 0010 3B61     		str	r3, [r7, #16]
 5490 0012 07F11003 		add	r3, r7, #16
 5491 0016 1846     		mov	r0, r3
 5492 0018 FFF7FEFF 		bl	get_ldnumber
 5493 001c F861     		str	r0, [r7, #28]
 5494 001e FB69     		ldr	r3, [r7, #28]
 5495 0020 002B     		cmp	r3, #0
 5496 0022 01DA     		bge	.L510
 5497 0024 0B23     		movs	r3, #11
 5498 0026 2BE0     		b	.L516
 5499              	.L510:
 5500 0028 174A     		ldr	r2, .L517
 5501 002a FB69     		ldr	r3, [r7, #28]
 5502 002c 52F82330 		ldr	r3, [r2, r3, lsl #2]
 5503 0030 BB61     		str	r3, [r7, #24]
 5504 0032 BB69     		ldr	r3, [r7, #24]
 5505 0034 002B     		cmp	r3, #0
 5506 0036 05D0     		beq	.L512
 5507 0038 B869     		ldr	r0, [r7, #24]
 5508 003a FFF7FEFF 		bl	clear_lock
 5509 003e BB69     		ldr	r3, [r7, #24]
 5510 0040 0022     		movs	r2, #0
 5511 0042 1A70     		strb	r2, [r3]
 5512              	.L512:
 5513 0044 FB68     		ldr	r3, [r7, #12]
 5514 0046 002B     		cmp	r3, #0
 5515 0048 02D0     		beq	.L513
 5516 004a FB68     		ldr	r3, [r7, #12]
 5517 004c 0022     		movs	r2, #0
 5518 004e 1A70     		strb	r2, [r3]
 5519              	.L513:
 5520 0050 FA68     		ldr	r2, [r7, #12]
 5521 0052 0D49     		ldr	r1, .L517
 5522 0054 FB69     		ldr	r3, [r7, #28]
 5523 0056 41F82320 		str	r2, [r1, r3, lsl #2]
 5524 005a FB68     		ldr	r3, [r7, #12]
 5525 005c 002B     		cmp	r3, #0
 5526 005e 02D0     		beq	.L514
 5527 0060 FB79     		ldrb	r3, [r7, #7]	@ zero_extendqisi2
 5528 0062 012B     		cmp	r3, #1
 5529 0064 01D0     		beq	.L515
 5530              	.L514:
 5531 0066 0023     		movs	r3, #0
 5532 0068 0AE0     		b	.L516
 5533              	.L515:
 5534 006a 07F10C01 		add	r1, r7, #12
ARM GAS  C:\Users\user\AppData\Local\Temp\ccnu1L5f.s 			page 97


 5535 006e 07F10803 		add	r3, r7, #8
 5536 0072 0022     		movs	r2, #0
 5537 0074 1846     		mov	r0, r3
 5538 0076 FFF7FEFF 		bl	find_volume
 5539 007a 0346     		mov	r3, r0
 5540 007c FB75     		strb	r3, [r7, #23]
 5541 007e FB7D     		ldrb	r3, [r7, #23]	@ zero_extendqisi2
 5542              	.L516:
 5543 0080 1846     		mov	r0, r3
 5544 0082 2037     		adds	r7, r7, #32
 5545 0084 BD46     		mov	sp, r7
 5546              		@ sp needed
 5547 0086 80BD     		pop	{r7, pc}
 5548              	.L518:
 5549              		.align	2
 5550              	.L517:
 5551 0088 00000000 		.word	FatFs
 5553              		.section	.text.f_open,"ax",%progbits
 5554              		.align	1
 5555              		.global	f_open
 5556              		.syntax unified
 5557              		.thumb
 5558              		.thumb_func
 5560              	f_open:
 5561              		@ args = 0, pretend = 0, frame = 104
 5562              		@ frame_needed = 1, uses_anonymous_args = 0
 5563 0000 80B5     		push	{r7, lr}
 5564 0002 9AB0     		sub	sp, sp, #104
 5565 0004 00AF     		add	r7, sp, #0
 5566 0006 F860     		str	r0, [r7, #12]
 5567 0008 B960     		str	r1, [r7, #8]
 5568 000a 1346     		mov	r3, r2
 5569 000c FB71     		strb	r3, [r7, #7]
 5570 000e FB68     		ldr	r3, [r7, #12]
 5571 0010 002B     		cmp	r3, #0
 5572 0012 01D1     		bne	.L520
 5573 0014 0923     		movs	r3, #9
 5574 0016 B7E1     		b	.L543
 5575              	.L520:
 5576 0018 FB79     		ldrb	r3, [r7, #7]
 5577 001a 03F03F03 		and	r3, r3, #63
 5578 001e FB71     		strb	r3, [r7, #7]
 5579 0020 FA79     		ldrb	r2, [r7, #7]	@ zero_extendqisi2
 5580 0022 07F11401 		add	r1, r7, #20
 5581 0026 07F10803 		add	r3, r7, #8
 5582 002a 1846     		mov	r0, r3
 5583 002c FFF7FEFF 		bl	find_volume
 5584 0030 0346     		mov	r3, r0
 5585 0032 87F86730 		strb	r3, [r7, #103]
 5586 0036 97F86730 		ldrb	r3, [r7, #103]	@ zero_extendqisi2
 5587 003a 002B     		cmp	r3, #0
 5588 003c 40F09B81 		bne	.L522
 5589 0040 7B69     		ldr	r3, [r7, #20]
 5590 0042 BB61     		str	r3, [r7, #24]
 5591 0044 BA68     		ldr	r2, [r7, #8]
 5592 0046 07F11803 		add	r3, r7, #24
 5593 004a 1146     		mov	r1, r2
ARM GAS  C:\Users\user\AppData\Local\Temp\ccnu1L5f.s 			page 98


 5594 004c 1846     		mov	r0, r3
 5595 004e FFF7FEFF 		bl	follow_path
 5596 0052 0346     		mov	r3, r0
 5597 0054 87F86730 		strb	r3, [r7, #103]
 5598 0058 97F86730 		ldrb	r3, [r7, #103]	@ zero_extendqisi2
 5599 005c 002B     		cmp	r3, #0
 5600 005e 18D1     		bne	.L523
 5601 0060 97F84730 		ldrb	r3, [r7, #71]	@ zero_extendqisi2
 5602 0064 5BB2     		sxtb	r3, r3
 5603 0066 002B     		cmp	r3, #0
 5604 0068 03DA     		bge	.L524
 5605 006a 0623     		movs	r3, #6
 5606 006c 87F86730 		strb	r3, [r7, #103]
 5607 0070 0FE0     		b	.L523
 5608              	.L524:
 5609 0072 FB79     		ldrb	r3, [r7, #7]	@ zero_extendqisi2
 5610 0074 012B     		cmp	r3, #1
 5611 0076 8CBF     		ite	hi
 5612 0078 0123     		movhi	r3, #1
 5613 007a 0023     		movls	r3, #0
 5614 007c DBB2     		uxtb	r3, r3
 5615 007e 1A46     		mov	r2, r3
 5616 0080 07F11803 		add	r3, r7, #24
 5617 0084 1146     		mov	r1, r2
 5618 0086 1846     		mov	r0, r3
 5619 0088 FFF7FEFF 		bl	chk_lock
 5620 008c 0346     		mov	r3, r0
 5621 008e 87F86730 		strb	r3, [r7, #103]
 5622              	.L523:
 5623 0092 FB79     		ldrb	r3, [r7, #7]	@ zero_extendqisi2
 5624 0094 03F01C03 		and	r3, r3, #28
 5625 0098 002B     		cmp	r3, #0
 5626 009a 7FD0     		beq	.L525
 5627 009c 97F86730 		ldrb	r3, [r7, #103]	@ zero_extendqisi2
 5628 00a0 002B     		cmp	r3, #0
 5629 00a2 17D0     		beq	.L526
 5630 00a4 97F86730 		ldrb	r3, [r7, #103]	@ zero_extendqisi2
 5631 00a8 042B     		cmp	r3, #4
 5632 00aa 0ED1     		bne	.L527
 5633 00ac FFF7FEFF 		bl	enq_lock
 5634 00b0 0346     		mov	r3, r0
 5635 00b2 002B     		cmp	r3, #0
 5636 00b4 06D0     		beq	.L528
 5637 00b6 07F11803 		add	r3, r7, #24
 5638 00ba 1846     		mov	r0, r3
 5639 00bc FFF7FEFF 		bl	dir_register
 5640 00c0 0346     		mov	r3, r0
 5641 00c2 00E0     		b	.L529
 5642              	.L528:
 5643 00c4 1223     		movs	r3, #18
 5644              	.L529:
 5645 00c6 87F86730 		strb	r3, [r7, #103]
 5646              	.L527:
 5647 00ca FB79     		ldrb	r3, [r7, #7]
 5648 00cc 43F00803 		orr	r3, r3, #8
 5649 00d0 FB71     		strb	r3, [r7, #7]
 5650 00d2 10E0     		b	.L530
ARM GAS  C:\Users\user\AppData\Local\Temp\ccnu1L5f.s 			page 99


 5651              	.L526:
 5652 00d4 BB7F     		ldrb	r3, [r7, #30]	@ zero_extendqisi2
 5653 00d6 03F01103 		and	r3, r3, #17
 5654 00da 002B     		cmp	r3, #0
 5655 00dc 03D0     		beq	.L531
 5656 00de 0723     		movs	r3, #7
 5657 00e0 87F86730 		strb	r3, [r7, #103]
 5658 00e4 07E0     		b	.L530
 5659              	.L531:
 5660 00e6 FB79     		ldrb	r3, [r7, #7]	@ zero_extendqisi2
 5661 00e8 03F00403 		and	r3, r3, #4
 5662 00ec 002B     		cmp	r3, #0
 5663 00ee 02D0     		beq	.L530
 5664 00f0 0823     		movs	r3, #8
 5665 00f2 87F86730 		strb	r3, [r7, #103]
 5666              	.L530:
 5667 00f6 97F86730 		ldrb	r3, [r7, #103]	@ zero_extendqisi2
 5668 00fa 002B     		cmp	r3, #0
 5669 00fc 68D1     		bne	.L532
 5670 00fe FB79     		ldrb	r3, [r7, #7]	@ zero_extendqisi2
 5671 0100 03F00803 		and	r3, r3, #8
 5672 0104 002B     		cmp	r3, #0
 5673 0106 63D0     		beq	.L532
 5674 0108 FFF7FEFF 		bl	get_fattime
 5675 010c B865     		str	r0, [r7, #88]
 5676 010e BB6B     		ldr	r3, [r7, #56]
 5677 0110 0E33     		adds	r3, r3, #14
 5678 0112 B96D     		ldr	r1, [r7, #88]
 5679 0114 1846     		mov	r0, r3
 5680 0116 FFF7FEFF 		bl	st_dword
 5681 011a BB6B     		ldr	r3, [r7, #56]
 5682 011c 1633     		adds	r3, r3, #22
 5683 011e B96D     		ldr	r1, [r7, #88]
 5684 0120 1846     		mov	r0, r3
 5685 0122 FFF7FEFF 		bl	st_dword
 5686 0126 BB6B     		ldr	r3, [r7, #56]
 5687 0128 0B33     		adds	r3, r3, #11
 5688 012a 2022     		movs	r2, #32
 5689 012c 1A70     		strb	r2, [r3]
 5690 012e 7B69     		ldr	r3, [r7, #20]
 5691 0130 BA6B     		ldr	r2, [r7, #56]
 5692 0132 1146     		mov	r1, r2
 5693 0134 1846     		mov	r0, r3
 5694 0136 FFF7FEFF 		bl	ld_clust
 5695 013a 7865     		str	r0, [r7, #84]
 5696 013c 7B69     		ldr	r3, [r7, #20]
 5697 013e B96B     		ldr	r1, [r7, #56]
 5698 0140 0022     		movs	r2, #0
 5699 0142 1846     		mov	r0, r3
 5700 0144 FFF7FEFF 		bl	st_clust
 5701 0148 BB6B     		ldr	r3, [r7, #56]
 5702 014a 1C33     		adds	r3, r3, #28
 5703 014c 0021     		movs	r1, #0
 5704 014e 1846     		mov	r0, r3
 5705 0150 FFF7FEFF 		bl	st_dword
 5706 0154 7B69     		ldr	r3, [r7, #20]
 5707 0156 0122     		movs	r2, #1
ARM GAS  C:\Users\user\AppData\Local\Temp\ccnu1L5f.s 			page 100


 5708 0158 DA70     		strb	r2, [r3, #3]
 5709 015a 7B6D     		ldr	r3, [r7, #84]
 5710 015c 002B     		cmp	r3, #0
 5711 015e 37D0     		beq	.L532
 5712 0160 7B69     		ldr	r3, [r7, #20]
 5713 0162 5B6B     		ldr	r3, [r3, #52]
 5714 0164 BB65     		str	r3, [r7, #88]
 5715 0166 07F11803 		add	r3, r7, #24
 5716 016a 0022     		movs	r2, #0
 5717 016c 796D     		ldr	r1, [r7, #84]
 5718 016e 1846     		mov	r0, r3
 5719 0170 FFF7FEFF 		bl	remove_chain
 5720 0174 0346     		mov	r3, r0
 5721 0176 87F86730 		strb	r3, [r7, #103]
 5722 017a 97F86730 		ldrb	r3, [r7, #103]	@ zero_extendqisi2
 5723 017e 002B     		cmp	r3, #0
 5724 0180 26D1     		bne	.L532
 5725 0182 7B69     		ldr	r3, [r7, #20]
 5726 0184 B96D     		ldr	r1, [r7, #88]
 5727 0186 1846     		mov	r0, r3
 5728 0188 FFF7FEFF 		bl	move_window
 5729 018c 0346     		mov	r3, r0
 5730 018e 87F86730 		strb	r3, [r7, #103]
 5731 0192 7B69     		ldr	r3, [r7, #20]
 5732 0194 7A6D     		ldr	r2, [r7, #84]
 5733 0196 013A     		subs	r2, r2, #1
 5734 0198 5A61     		str	r2, [r3, #20]
 5735 019a 19E0     		b	.L532
 5736              	.L525:
 5737 019c 97F86730 		ldrb	r3, [r7, #103]	@ zero_extendqisi2
 5738 01a0 002B     		cmp	r3, #0
 5739 01a2 15D1     		bne	.L532
 5740 01a4 BB7F     		ldrb	r3, [r7, #30]	@ zero_extendqisi2
 5741 01a6 03F01003 		and	r3, r3, #16
 5742 01aa 002B     		cmp	r3, #0
 5743 01ac 03D0     		beq	.L533
 5744 01ae 0423     		movs	r3, #4
 5745 01b0 87F86730 		strb	r3, [r7, #103]
 5746 01b4 0CE0     		b	.L532
 5747              	.L533:
 5748 01b6 FB79     		ldrb	r3, [r7, #7]	@ zero_extendqisi2
 5749 01b8 03F00203 		and	r3, r3, #2
 5750 01bc 002B     		cmp	r3, #0
 5751 01be 07D0     		beq	.L532
 5752 01c0 BB7F     		ldrb	r3, [r7, #30]	@ zero_extendqisi2
 5753 01c2 03F00103 		and	r3, r3, #1
 5754 01c6 002B     		cmp	r3, #0
 5755 01c8 02D0     		beq	.L532
 5756 01ca 0723     		movs	r3, #7
 5757 01cc 87F86730 		strb	r3, [r7, #103]
 5758              	.L532:
 5759 01d0 97F86730 		ldrb	r3, [r7, #103]	@ zero_extendqisi2
 5760 01d4 002B     		cmp	r3, #0
 5761 01d6 26D1     		bne	.L534
 5762 01d8 FB79     		ldrb	r3, [r7, #7]	@ zero_extendqisi2
 5763 01da 03F00803 		and	r3, r3, #8
 5764 01de 002B     		cmp	r3, #0
ARM GAS  C:\Users\user\AppData\Local\Temp\ccnu1L5f.s 			page 101


 5765 01e0 03D0     		beq	.L535
 5766 01e2 FB79     		ldrb	r3, [r7, #7]
 5767 01e4 43F04003 		orr	r3, r3, #64
 5768 01e8 FB71     		strb	r3, [r7, #7]
 5769              	.L535:
 5770 01ea 7B69     		ldr	r3, [r7, #20]
 5771 01ec 5A6B     		ldr	r2, [r3, #52]
 5772 01ee FB68     		ldr	r3, [r7, #12]
 5773 01f0 5A62     		str	r2, [r3, #36]
 5774 01f2 BA6B     		ldr	r2, [r7, #56]
 5775 01f4 FB68     		ldr	r3, [r7, #12]
 5776 01f6 9A62     		str	r2, [r3, #40]
 5777 01f8 FB79     		ldrb	r3, [r7, #7]	@ zero_extendqisi2
 5778 01fa 012B     		cmp	r3, #1
 5779 01fc 8CBF     		ite	hi
 5780 01fe 0123     		movhi	r3, #1
 5781 0200 0023     		movls	r3, #0
 5782 0202 DBB2     		uxtb	r3, r3
 5783 0204 1A46     		mov	r2, r3
 5784 0206 07F11803 		add	r3, r7, #24
 5785 020a 1146     		mov	r1, r2
 5786 020c 1846     		mov	r0, r3
 5787 020e FFF7FEFF 		bl	inc_lock
 5788 0212 0246     		mov	r2, r0
 5789 0214 FB68     		ldr	r3, [r7, #12]
 5790 0216 1A61     		str	r2, [r3, #16]
 5791 0218 FB68     		ldr	r3, [r7, #12]
 5792 021a 1B69     		ldr	r3, [r3, #16]
 5793 021c 002B     		cmp	r3, #0
 5794 021e 02D1     		bne	.L534
 5795 0220 0223     		movs	r3, #2
 5796 0222 87F86730 		strb	r3, [r7, #103]
 5797              	.L534:
 5798 0226 97F86730 		ldrb	r3, [r7, #103]	@ zero_extendqisi2
 5799 022a 002B     		cmp	r3, #0
 5800 022c 40F0A380 		bne	.L522
 5801 0230 7B69     		ldr	r3, [r7, #20]
 5802 0232 BA6B     		ldr	r2, [r7, #56]
 5803 0234 1146     		mov	r1, r2
 5804 0236 1846     		mov	r0, r3
 5805 0238 FFF7FEFF 		bl	ld_clust
 5806 023c 0246     		mov	r2, r0
 5807 023e FB68     		ldr	r3, [r7, #12]
 5808 0240 9A60     		str	r2, [r3, #8]
 5809 0242 BB6B     		ldr	r3, [r7, #56]
 5810 0244 1C33     		adds	r3, r3, #28
 5811 0246 1846     		mov	r0, r3
 5812 0248 FFF7FEFF 		bl	ld_dword
 5813 024c 0246     		mov	r2, r0
 5814 024e FB68     		ldr	r3, [r7, #12]
 5815 0250 DA60     		str	r2, [r3, #12]
 5816 0252 FB68     		ldr	r3, [r7, #12]
 5817 0254 0022     		movs	r2, #0
 5818 0256 DA62     		str	r2, [r3, #44]
 5819 0258 7A69     		ldr	r2, [r7, #20]
 5820 025a FB68     		ldr	r3, [r7, #12]
 5821 025c 1A60     		str	r2, [r3]
ARM GAS  C:\Users\user\AppData\Local\Temp\ccnu1L5f.s 			page 102


 5822 025e 7B69     		ldr	r3, [r7, #20]
 5823 0260 DA88     		ldrh	r2, [r3, #6]
 5824 0262 FB68     		ldr	r3, [r7, #12]
 5825 0264 9A80     		strh	r2, [r3, #4]	@ movhi
 5826 0266 FB68     		ldr	r3, [r7, #12]
 5827 0268 FA79     		ldrb	r2, [r7, #7]
 5828 026a 1A75     		strb	r2, [r3, #20]
 5829 026c FB68     		ldr	r3, [r7, #12]
 5830 026e 0022     		movs	r2, #0
 5831 0270 5A75     		strb	r2, [r3, #21]
 5832 0272 FB68     		ldr	r3, [r7, #12]
 5833 0274 0022     		movs	r2, #0
 5834 0276 1A62     		str	r2, [r3, #32]
 5835 0278 FB68     		ldr	r3, [r7, #12]
 5836 027a 0022     		movs	r2, #0
 5837 027c 9A61     		str	r2, [r3, #24]
 5838 027e FB68     		ldr	r3, [r7, #12]
 5839 0280 3033     		adds	r3, r3, #48
 5840 0282 4FF48052 		mov	r2, #4096
 5841 0286 0021     		movs	r1, #0
 5842 0288 1846     		mov	r0, r3
 5843 028a FFF7FEFF 		bl	mem_set
 5844 028e FB79     		ldrb	r3, [r7, #7]	@ zero_extendqisi2
 5845 0290 03F02003 		and	r3, r3, #32
 5846 0294 002B     		cmp	r3, #0
 5847 0296 6ED0     		beq	.L522
 5848 0298 FB68     		ldr	r3, [r7, #12]
 5849 029a DB68     		ldr	r3, [r3, #12]
 5850 029c 002B     		cmp	r3, #0
 5851 029e 6AD0     		beq	.L522
 5852 02a0 FB68     		ldr	r3, [r7, #12]
 5853 02a2 DA68     		ldr	r2, [r3, #12]
 5854 02a4 FB68     		ldr	r3, [r7, #12]
 5855 02a6 9A61     		str	r2, [r3, #24]
 5856 02a8 7B69     		ldr	r3, [r7, #20]
 5857 02aa 5B89     		ldrh	r3, [r3, #10]
 5858 02ac 1A46     		mov	r2, r3
 5859 02ae 7B69     		ldr	r3, [r7, #20]
 5860 02b0 9B89     		ldrh	r3, [r3, #12]
 5861 02b2 02FB03F3 		mul	r3, r2, r3
 5862 02b6 3B65     		str	r3, [r7, #80]
 5863 02b8 FB68     		ldr	r3, [r7, #12]
 5864 02ba 9B68     		ldr	r3, [r3, #8]
 5865 02bc 3B66     		str	r3, [r7, #96]
 5866 02be FB68     		ldr	r3, [r7, #12]
 5867 02c0 DB68     		ldr	r3, [r3, #12]
 5868 02c2 FB65     		str	r3, [r7, #92]
 5869 02c4 16E0     		b	.L536
 5870              	.L540:
 5871 02c6 FB68     		ldr	r3, [r7, #12]
 5872 02c8 396E     		ldr	r1, [r7, #96]
 5873 02ca 1846     		mov	r0, r3
 5874 02cc FFF7FEFF 		bl	get_fat
 5875 02d0 3866     		str	r0, [r7, #96]
 5876 02d2 3B6E     		ldr	r3, [r7, #96]
 5877 02d4 012B     		cmp	r3, #1
 5878 02d6 02D8     		bhi	.L537
ARM GAS  C:\Users\user\AppData\Local\Temp\ccnu1L5f.s 			page 103


 5879 02d8 0223     		movs	r3, #2
 5880 02da 87F86730 		strb	r3, [r7, #103]
 5881              	.L537:
 5882 02de 3B6E     		ldr	r3, [r7, #96]
 5883 02e0 B3F1FF3F 		cmp	r3, #-1
 5884 02e4 02D1     		bne	.L538
 5885 02e6 0123     		movs	r3, #1
 5886 02e8 87F86730 		strb	r3, [r7, #103]
 5887              	.L538:
 5888 02ec FA6D     		ldr	r2, [r7, #92]
 5889 02ee 3B6D     		ldr	r3, [r7, #80]
 5890 02f0 D31A     		subs	r3, r2, r3
 5891 02f2 FB65     		str	r3, [r7, #92]
 5892              	.L536:
 5893 02f4 97F86730 		ldrb	r3, [r7, #103]	@ zero_extendqisi2
 5894 02f8 002B     		cmp	r3, #0
 5895 02fa 03D1     		bne	.L539
 5896 02fc FA6D     		ldr	r2, [r7, #92]
 5897 02fe 3B6D     		ldr	r3, [r7, #80]
 5898 0300 9A42     		cmp	r2, r3
 5899 0302 E0D8     		bhi	.L540
 5900              	.L539:
 5901 0304 FB68     		ldr	r3, [r7, #12]
 5902 0306 3A6E     		ldr	r2, [r7, #96]
 5903 0308 DA61     		str	r2, [r3, #28]
 5904 030a 97F86730 		ldrb	r3, [r7, #103]	@ zero_extendqisi2
 5905 030e 002B     		cmp	r3, #0
 5906 0310 31D1     		bne	.L522
 5907 0312 7B69     		ldr	r3, [r7, #20]
 5908 0314 9B89     		ldrh	r3, [r3, #12]
 5909 0316 1A46     		mov	r2, r3
 5910 0318 FB6D     		ldr	r3, [r7, #92]
 5911 031a B3FBF2F1 		udiv	r1, r3, r2
 5912 031e 01FB02F2 		mul	r2, r1, r2
 5913 0322 9B1A     		subs	r3, r3, r2
 5914 0324 002B     		cmp	r3, #0
 5915 0326 26D0     		beq	.L522
 5916 0328 7B69     		ldr	r3, [r7, #20]
 5917 032a 396E     		ldr	r1, [r7, #96]
 5918 032c 1846     		mov	r0, r3
 5919 032e FFF7FEFF 		bl	clust2sect
 5920 0332 F864     		str	r0, [r7, #76]
 5921 0334 FB6C     		ldr	r3, [r7, #76]
 5922 0336 002B     		cmp	r3, #0
 5923 0338 03D1     		bne	.L541
 5924 033a 0223     		movs	r3, #2
 5925 033c 87F86730 		strb	r3, [r7, #103]
 5926 0340 19E0     		b	.L522
 5927              	.L541:
 5928 0342 7B69     		ldr	r3, [r7, #20]
 5929 0344 9B89     		ldrh	r3, [r3, #12]
 5930 0346 1A46     		mov	r2, r3
 5931 0348 FB6D     		ldr	r3, [r7, #92]
 5932 034a B3FBF2F2 		udiv	r2, r3, r2
 5933 034e FB6C     		ldr	r3, [r7, #76]
 5934 0350 1A44     		add	r2, r2, r3
 5935 0352 FB68     		ldr	r3, [r7, #12]
ARM GAS  C:\Users\user\AppData\Local\Temp\ccnu1L5f.s 			page 104


 5936 0354 1A62     		str	r2, [r3, #32]
 5937 0356 7B69     		ldr	r3, [r7, #20]
 5938 0358 5878     		ldrb	r0, [r3, #1]	@ zero_extendqisi2
 5939 035a FB68     		ldr	r3, [r7, #12]
 5940 035c 03F13001 		add	r1, r3, #48
 5941 0360 FB68     		ldr	r3, [r7, #12]
 5942 0362 1A6A     		ldr	r2, [r3, #32]
 5943 0364 0123     		movs	r3, #1
 5944 0366 FFF7FEFF 		bl	disk_read
 5945 036a 0346     		mov	r3, r0
 5946 036c 002B     		cmp	r3, #0
 5947 036e 02D0     		beq	.L522
 5948 0370 0123     		movs	r3, #1
 5949 0372 87F86730 		strb	r3, [r7, #103]
 5950              	.L522:
 5951 0376 97F86730 		ldrb	r3, [r7, #103]	@ zero_extendqisi2
 5952 037a 002B     		cmp	r3, #0
 5953 037c 02D0     		beq	.L542
 5954 037e FB68     		ldr	r3, [r7, #12]
 5955 0380 0022     		movs	r2, #0
 5956 0382 1A60     		str	r2, [r3]
 5957              	.L542:
 5958 0384 97F86730 		ldrb	r3, [r7, #103]	@ zero_extendqisi2
 5959              	.L543:
 5960 0388 1846     		mov	r0, r3
 5961 038a 6837     		adds	r7, r7, #104
 5962 038c BD46     		mov	sp, r7
 5963              		@ sp needed
 5964 038e 80BD     		pop	{r7, pc}
 5966              		.section	.text.f_read,"ax",%progbits
 5967              		.align	1
 5968              		.global	f_read
 5969              		.syntax unified
 5970              		.thumb
 5971              		.thumb_func
 5973              	f_read:
 5974              		@ args = 0, pretend = 0, frame = 56
 5975              		@ frame_needed = 1, uses_anonymous_args = 0
 5976 0000 80B5     		push	{r7, lr}
 5977 0002 8EB0     		sub	sp, sp, #56
 5978 0004 00AF     		add	r7, sp, #0
 5979 0006 F860     		str	r0, [r7, #12]
 5980 0008 B960     		str	r1, [r7, #8]
 5981 000a 7A60     		str	r2, [r7, #4]
 5982 000c 3B60     		str	r3, [r7]
 5983 000e BB68     		ldr	r3, [r7, #8]
 5984 0010 7B62     		str	r3, [r7, #36]
 5985 0012 3B68     		ldr	r3, [r7]
 5986 0014 0022     		movs	r2, #0
 5987 0016 1A60     		str	r2, [r3]
 5988 0018 FB68     		ldr	r3, [r7, #12]
 5989 001a 07F11402 		add	r2, r7, #20
 5990 001e 1146     		mov	r1, r2
 5991 0020 1846     		mov	r0, r3
 5992 0022 FFF7FEFF 		bl	validate
 5993 0026 0346     		mov	r3, r0
 5994 0028 87F83730 		strb	r3, [r7, #55]
ARM GAS  C:\Users\user\AppData\Local\Temp\ccnu1L5f.s 			page 105


 5995 002c 97F83730 		ldrb	r3, [r7, #55]	@ zero_extendqisi2
 5996 0030 002B     		cmp	r3, #0
 5997 0032 07D1     		bne	.L545
 5998 0034 FB68     		ldr	r3, [r7, #12]
 5999 0036 5B7D     		ldrb	r3, [r3, #21]
 6000 0038 87F83730 		strb	r3, [r7, #55]
 6001 003c 97F83730 		ldrb	r3, [r7, #55]	@ zero_extendqisi2
 6002 0040 002B     		cmp	r3, #0
 6003 0042 02D0     		beq	.L546
 6004              	.L545:
 6005 0044 97F83730 		ldrb	r3, [r7, #55]	@ zero_extendqisi2
 6006 0048 35E1     		b	.L569
 6007              	.L546:
 6008 004a FB68     		ldr	r3, [r7, #12]
 6009 004c 1B7D     		ldrb	r3, [r3, #20]	@ zero_extendqisi2
 6010 004e 03F00103 		and	r3, r3, #1
 6011 0052 002B     		cmp	r3, #0
 6012 0054 01D1     		bne	.L548
 6013 0056 0723     		movs	r3, #7
 6014 0058 2DE1     		b	.L569
 6015              	.L548:
 6016 005a FB68     		ldr	r3, [r7, #12]
 6017 005c DA68     		ldr	r2, [r3, #12]
 6018 005e FB68     		ldr	r3, [r7, #12]
 6019 0060 9B69     		ldr	r3, [r3, #24]
 6020 0062 D31A     		subs	r3, r2, r3
 6021 0064 3B62     		str	r3, [r7, #32]
 6022 0066 7A68     		ldr	r2, [r7, #4]
 6023 0068 3B6A     		ldr	r3, [r7, #32]
 6024 006a 9A42     		cmp	r2, r3
 6025 006c 40F21E81 		bls	.L550
 6026 0070 3B6A     		ldr	r3, [r7, #32]
 6027 0072 7B60     		str	r3, [r7, #4]
 6028 0074 1AE1     		b	.L550
 6029              	.L568:
 6030 0076 FB68     		ldr	r3, [r7, #12]
 6031 0078 9B69     		ldr	r3, [r3, #24]
 6032 007a 7A69     		ldr	r2, [r7, #20]
 6033 007c 9289     		ldrh	r2, [r2, #12]
 6034 007e B3FBF2F1 		udiv	r1, r3, r2
 6035 0082 01FB02F2 		mul	r2, r1, r2
 6036 0086 9B1A     		subs	r3, r3, r2
 6037 0088 002B     		cmp	r3, #0
 6038 008a 40F0D580 		bne	.L551
 6039 008e FB68     		ldr	r3, [r7, #12]
 6040 0090 9B69     		ldr	r3, [r3, #24]
 6041 0092 7A69     		ldr	r2, [r7, #20]
 6042 0094 9289     		ldrh	r2, [r2, #12]
 6043 0096 B3FBF2F3 		udiv	r3, r3, r2
 6044 009a 7A69     		ldr	r2, [r7, #20]
 6045 009c 5289     		ldrh	r2, [r2, #10]
 6046 009e 013A     		subs	r2, r2, #1
 6047 00a0 1340     		ands	r3, r3, r2
 6048 00a2 FB61     		str	r3, [r7, #28]
 6049 00a4 FB69     		ldr	r3, [r7, #28]
 6050 00a6 002B     		cmp	r3, #0
 6051 00a8 2FD1     		bne	.L552
ARM GAS  C:\Users\user\AppData\Local\Temp\ccnu1L5f.s 			page 106


 6052 00aa FB68     		ldr	r3, [r7, #12]
 6053 00ac 9B69     		ldr	r3, [r3, #24]
 6054 00ae 002B     		cmp	r3, #0
 6055 00b0 03D1     		bne	.L553
 6056 00b2 FB68     		ldr	r3, [r7, #12]
 6057 00b4 9B68     		ldr	r3, [r3, #8]
 6058 00b6 3B63     		str	r3, [r7, #48]
 6059 00b8 13E0     		b	.L554
 6060              	.L553:
 6061 00ba FB68     		ldr	r3, [r7, #12]
 6062 00bc DB6A     		ldr	r3, [r3, #44]
 6063 00be 002B     		cmp	r3, #0
 6064 00c0 07D0     		beq	.L555
 6065 00c2 FB68     		ldr	r3, [r7, #12]
 6066 00c4 9B69     		ldr	r3, [r3, #24]
 6067 00c6 1946     		mov	r1, r3
 6068 00c8 F868     		ldr	r0, [r7, #12]
 6069 00ca FFF7FEFF 		bl	clmt_clust
 6070 00ce 3863     		str	r0, [r7, #48]
 6071 00d0 07E0     		b	.L554
 6072              	.L555:
 6073 00d2 FA68     		ldr	r2, [r7, #12]
 6074 00d4 FB68     		ldr	r3, [r7, #12]
 6075 00d6 DB69     		ldr	r3, [r3, #28]
 6076 00d8 1946     		mov	r1, r3
 6077 00da 1046     		mov	r0, r2
 6078 00dc FFF7FEFF 		bl	get_fat
 6079 00e0 3863     		str	r0, [r7, #48]
 6080              	.L554:
 6081 00e2 3B6B     		ldr	r3, [r7, #48]
 6082 00e4 012B     		cmp	r3, #1
 6083 00e6 04D8     		bhi	.L556
 6084 00e8 FB68     		ldr	r3, [r7, #12]
 6085 00ea 0222     		movs	r2, #2
 6086 00ec 5A75     		strb	r2, [r3, #21]
 6087 00ee 0223     		movs	r3, #2
 6088 00f0 E1E0     		b	.L569
 6089              	.L556:
 6090 00f2 3B6B     		ldr	r3, [r7, #48]
 6091 00f4 B3F1FF3F 		cmp	r3, #-1
 6092 00f8 04D1     		bne	.L557
 6093 00fa FB68     		ldr	r3, [r7, #12]
 6094 00fc 0122     		movs	r2, #1
 6095 00fe 5A75     		strb	r2, [r3, #21]
 6096 0100 0123     		movs	r3, #1
 6097 0102 D8E0     		b	.L569
 6098              	.L557:
 6099 0104 FB68     		ldr	r3, [r7, #12]
 6100 0106 3A6B     		ldr	r2, [r7, #48]
 6101 0108 DA61     		str	r2, [r3, #28]
 6102              	.L552:
 6103 010a 7A69     		ldr	r2, [r7, #20]
 6104 010c FB68     		ldr	r3, [r7, #12]
 6105 010e DB69     		ldr	r3, [r3, #28]
 6106 0110 1946     		mov	r1, r3
 6107 0112 1046     		mov	r0, r2
 6108 0114 FFF7FEFF 		bl	clust2sect
ARM GAS  C:\Users\user\AppData\Local\Temp\ccnu1L5f.s 			page 107


 6109 0118 B861     		str	r0, [r7, #24]
 6110 011a BB69     		ldr	r3, [r7, #24]
 6111 011c 002B     		cmp	r3, #0
 6112 011e 04D1     		bne	.L558
 6113 0120 FB68     		ldr	r3, [r7, #12]
 6114 0122 0222     		movs	r2, #2
 6115 0124 5A75     		strb	r2, [r3, #21]
 6116 0126 0223     		movs	r3, #2
 6117 0128 C5E0     		b	.L569
 6118              	.L558:
 6119 012a BA69     		ldr	r2, [r7, #24]
 6120 012c FB69     		ldr	r3, [r7, #28]
 6121 012e 1344     		add	r3, r3, r2
 6122 0130 BB61     		str	r3, [r7, #24]
 6123 0132 7B69     		ldr	r3, [r7, #20]
 6124 0134 9B89     		ldrh	r3, [r3, #12]
 6125 0136 1A46     		mov	r2, r3
 6126 0138 7B68     		ldr	r3, [r7, #4]
 6127 013a B3FBF2F3 		udiv	r3, r3, r2
 6128 013e BB62     		str	r3, [r7, #40]
 6129 0140 BB6A     		ldr	r3, [r7, #40]
 6130 0142 002B     		cmp	r3, #0
 6131 0144 41D0     		beq	.L559
 6132 0146 FA69     		ldr	r2, [r7, #28]
 6133 0148 BB6A     		ldr	r3, [r7, #40]
 6134 014a 1344     		add	r3, r3, r2
 6135 014c 7A69     		ldr	r2, [r7, #20]
 6136 014e 5289     		ldrh	r2, [r2, #10]
 6137 0150 9342     		cmp	r3, r2
 6138 0152 05D9     		bls	.L560
 6139 0154 7B69     		ldr	r3, [r7, #20]
 6140 0156 5B89     		ldrh	r3, [r3, #10]
 6141 0158 1A46     		mov	r2, r3
 6142 015a FB69     		ldr	r3, [r7, #28]
 6143 015c D31A     		subs	r3, r2, r3
 6144 015e BB62     		str	r3, [r7, #40]
 6145              	.L560:
 6146 0160 7B69     		ldr	r3, [r7, #20]
 6147 0162 5878     		ldrb	r0, [r3, #1]	@ zero_extendqisi2
 6148 0164 BB6A     		ldr	r3, [r7, #40]
 6149 0166 BA69     		ldr	r2, [r7, #24]
 6150 0168 796A     		ldr	r1, [r7, #36]
 6151 016a FFF7FEFF 		bl	disk_read
 6152 016e 0346     		mov	r3, r0
 6153 0170 002B     		cmp	r3, #0
 6154 0172 04D0     		beq	.L561
 6155 0174 FB68     		ldr	r3, [r7, #12]
 6156 0176 0122     		movs	r2, #1
 6157 0178 5A75     		strb	r2, [r3, #21]
 6158 017a 0123     		movs	r3, #1
 6159 017c 9BE0     		b	.L569
 6160              	.L561:
 6161 017e FB68     		ldr	r3, [r7, #12]
 6162 0180 1B7D     		ldrb	r3, [r3, #20]	@ zero_extendqisi2
 6163 0182 5BB2     		sxtb	r3, r3
 6164 0184 002B     		cmp	r3, #0
 6165 0186 18DA     		bge	.L562
ARM GAS  C:\Users\user\AppData\Local\Temp\ccnu1L5f.s 			page 108


 6166 0188 FB68     		ldr	r3, [r7, #12]
 6167 018a 1A6A     		ldr	r2, [r3, #32]
 6168 018c BB69     		ldr	r3, [r7, #24]
 6169 018e D31A     		subs	r3, r2, r3
 6170 0190 BA6A     		ldr	r2, [r7, #40]
 6171 0192 9A42     		cmp	r2, r3
 6172 0194 11D9     		bls	.L562
 6173 0196 FB68     		ldr	r3, [r7, #12]
 6174 0198 1A6A     		ldr	r2, [r3, #32]
 6175 019a BB69     		ldr	r3, [r7, #24]
 6176 019c D31A     		subs	r3, r2, r3
 6177 019e 7A69     		ldr	r2, [r7, #20]
 6178 01a0 9289     		ldrh	r2, [r2, #12]
 6179 01a2 02FB03F3 		mul	r3, r2, r3
 6180 01a6 7A6A     		ldr	r2, [r7, #36]
 6181 01a8 D018     		adds	r0, r2, r3
 6182 01aa FB68     		ldr	r3, [r7, #12]
 6183 01ac 03F13001 		add	r1, r3, #48
 6184 01b0 7B69     		ldr	r3, [r7, #20]
 6185 01b2 9B89     		ldrh	r3, [r3, #12]
 6186 01b4 1A46     		mov	r2, r3
 6187 01b6 FFF7FEFF 		bl	mem_cpy
 6188              	.L562:
 6189 01ba 7B69     		ldr	r3, [r7, #20]
 6190 01bc 9B89     		ldrh	r3, [r3, #12]
 6191 01be 1A46     		mov	r2, r3
 6192 01c0 BB6A     		ldr	r3, [r7, #40]
 6193 01c2 02FB03F3 		mul	r3, r2, r3
 6194 01c6 FB62     		str	r3, [r7, #44]
 6195 01c8 5CE0     		b	.L563
 6196              	.L559:
 6197 01ca FB68     		ldr	r3, [r7, #12]
 6198 01cc 1B6A     		ldr	r3, [r3, #32]
 6199 01ce BA69     		ldr	r2, [r7, #24]
 6200 01d0 9A42     		cmp	r2, r3
 6201 01d2 2ED0     		beq	.L564
 6202 01d4 FB68     		ldr	r3, [r7, #12]
 6203 01d6 1B7D     		ldrb	r3, [r3, #20]	@ zero_extendqisi2
 6204 01d8 5BB2     		sxtb	r3, r3
 6205 01da 002B     		cmp	r3, #0
 6206 01dc 18DA     		bge	.L565
 6207 01de 7B69     		ldr	r3, [r7, #20]
 6208 01e0 5878     		ldrb	r0, [r3, #1]	@ zero_extendqisi2
 6209 01e2 FB68     		ldr	r3, [r7, #12]
 6210 01e4 03F13001 		add	r1, r3, #48
 6211 01e8 FB68     		ldr	r3, [r7, #12]
 6212 01ea 1A6A     		ldr	r2, [r3, #32]
 6213 01ec 0123     		movs	r3, #1
 6214 01ee FFF7FEFF 		bl	disk_write
 6215 01f2 0346     		mov	r3, r0
 6216 01f4 002B     		cmp	r3, #0
 6217 01f6 04D0     		beq	.L566
 6218 01f8 FB68     		ldr	r3, [r7, #12]
 6219 01fa 0122     		movs	r2, #1
 6220 01fc 5A75     		strb	r2, [r3, #21]
 6221 01fe 0123     		movs	r3, #1
 6222 0200 59E0     		b	.L569
ARM GAS  C:\Users\user\AppData\Local\Temp\ccnu1L5f.s 			page 109


 6223              	.L566:
 6224 0202 FB68     		ldr	r3, [r7, #12]
 6225 0204 1B7D     		ldrb	r3, [r3, #20]	@ zero_extendqisi2
 6226 0206 03F07F03 		and	r3, r3, #127
 6227 020a DAB2     		uxtb	r2, r3
 6228 020c FB68     		ldr	r3, [r7, #12]
 6229 020e 1A75     		strb	r2, [r3, #20]
 6230              	.L565:
 6231 0210 7B69     		ldr	r3, [r7, #20]
 6232 0212 5878     		ldrb	r0, [r3, #1]	@ zero_extendqisi2
 6233 0214 FB68     		ldr	r3, [r7, #12]
 6234 0216 03F13001 		add	r1, r3, #48
 6235 021a 0123     		movs	r3, #1
 6236 021c BA69     		ldr	r2, [r7, #24]
 6237 021e FFF7FEFF 		bl	disk_read
 6238 0222 0346     		mov	r3, r0
 6239 0224 002B     		cmp	r3, #0
 6240 0226 04D0     		beq	.L564
 6241 0228 FB68     		ldr	r3, [r7, #12]
 6242 022a 0122     		movs	r2, #1
 6243 022c 5A75     		strb	r2, [r3, #21]
 6244 022e 0123     		movs	r3, #1
 6245 0230 41E0     		b	.L569
 6246              	.L564:
 6247 0232 FB68     		ldr	r3, [r7, #12]
 6248 0234 BA69     		ldr	r2, [r7, #24]
 6249 0236 1A62     		str	r2, [r3, #32]
 6250              	.L551:
 6251 0238 7B69     		ldr	r3, [r7, #20]
 6252 023a 9B89     		ldrh	r3, [r3, #12]
 6253 023c 1846     		mov	r0, r3
 6254 023e FB68     		ldr	r3, [r7, #12]
 6255 0240 9B69     		ldr	r3, [r3, #24]
 6256 0242 7A69     		ldr	r2, [r7, #20]
 6257 0244 9289     		ldrh	r2, [r2, #12]
 6258 0246 B3FBF2F1 		udiv	r1, r3, r2
 6259 024a 01FB02F2 		mul	r2, r1, r2
 6260 024e 9B1A     		subs	r3, r3, r2
 6261 0250 C31A     		subs	r3, r0, r3
 6262 0252 FB62     		str	r3, [r7, #44]
 6263 0254 FA6A     		ldr	r2, [r7, #44]
 6264 0256 7B68     		ldr	r3, [r7, #4]
 6265 0258 9A42     		cmp	r2, r3
 6266 025a 01D9     		bls	.L567
 6267 025c 7B68     		ldr	r3, [r7, #4]
 6268 025e FB62     		str	r3, [r7, #44]
 6269              	.L567:
 6270 0260 FB68     		ldr	r3, [r7, #12]
 6271 0262 03F13001 		add	r1, r3, #48
 6272 0266 FB68     		ldr	r3, [r7, #12]
 6273 0268 9B69     		ldr	r3, [r3, #24]
 6274 026a 7A69     		ldr	r2, [r7, #20]
 6275 026c 9289     		ldrh	r2, [r2, #12]
 6276 026e B3FBF2F0 		udiv	r0, r3, r2
 6277 0272 00FB02F2 		mul	r2, r0, r2
 6278 0276 9B1A     		subs	r3, r3, r2
 6279 0278 0B44     		add	r3, r3, r1
ARM GAS  C:\Users\user\AppData\Local\Temp\ccnu1L5f.s 			page 110


 6280 027a FA6A     		ldr	r2, [r7, #44]
 6281 027c 1946     		mov	r1, r3
 6282 027e 786A     		ldr	r0, [r7, #36]
 6283 0280 FFF7FEFF 		bl	mem_cpy
 6284              	.L563:
 6285 0284 7A6A     		ldr	r2, [r7, #36]
 6286 0286 FB6A     		ldr	r3, [r7, #44]
 6287 0288 1344     		add	r3, r3, r2
 6288 028a 7B62     		str	r3, [r7, #36]
 6289 028c FB68     		ldr	r3, [r7, #12]
 6290 028e 9A69     		ldr	r2, [r3, #24]
 6291 0290 FB6A     		ldr	r3, [r7, #44]
 6292 0292 1A44     		add	r2, r2, r3
 6293 0294 FB68     		ldr	r3, [r7, #12]
 6294 0296 9A61     		str	r2, [r3, #24]
 6295 0298 3B68     		ldr	r3, [r7]
 6296 029a 1A68     		ldr	r2, [r3]
 6297 029c FB6A     		ldr	r3, [r7, #44]
 6298 029e 1A44     		add	r2, r2, r3
 6299 02a0 3B68     		ldr	r3, [r7]
 6300 02a2 1A60     		str	r2, [r3]
 6301 02a4 7A68     		ldr	r2, [r7, #4]
 6302 02a6 FB6A     		ldr	r3, [r7, #44]
 6303 02a8 D31A     		subs	r3, r2, r3
 6304 02aa 7B60     		str	r3, [r7, #4]
 6305              	.L550:
 6306 02ac 7B68     		ldr	r3, [r7, #4]
 6307 02ae 002B     		cmp	r3, #0
 6308 02b0 7FF4E1AE 		bne	.L568
 6309 02b4 0023     		movs	r3, #0
 6310              	.L569:
 6311 02b6 1846     		mov	r0, r3
 6312 02b8 3837     		adds	r7, r7, #56
 6313 02ba BD46     		mov	sp, r7
 6314              		@ sp needed
 6315 02bc 80BD     		pop	{r7, pc}
 6317              		.section	.text.f_write,"ax",%progbits
 6318              		.align	1
 6319              		.global	f_write
 6320              		.syntax unified
 6321              		.thumb
 6322              		.thumb_func
 6324              	f_write:
 6325              		@ args = 0, pretend = 0, frame = 48
 6326              		@ frame_needed = 1, uses_anonymous_args = 0
 6327 0000 80B5     		push	{r7, lr}
 6328 0002 8CB0     		sub	sp, sp, #48
 6329 0004 00AF     		add	r7, sp, #0
 6330 0006 F860     		str	r0, [r7, #12]
 6331 0008 B960     		str	r1, [r7, #8]
 6332 000a 7A60     		str	r2, [r7, #4]
 6333 000c 3B60     		str	r3, [r7]
 6334 000e BB68     		ldr	r3, [r7, #8]
 6335 0010 FB61     		str	r3, [r7, #28]
 6336 0012 3B68     		ldr	r3, [r7]
 6337 0014 0022     		movs	r2, #0
 6338 0016 1A60     		str	r2, [r3]
ARM GAS  C:\Users\user\AppData\Local\Temp\ccnu1L5f.s 			page 111


 6339 0018 FB68     		ldr	r3, [r7, #12]
 6340 001a 07F11002 		add	r2, r7, #16
 6341 001e 1146     		mov	r1, r2
 6342 0020 1846     		mov	r0, r3
 6343 0022 FFF7FEFF 		bl	validate
 6344 0026 0346     		mov	r3, r0
 6345 0028 87F82F30 		strb	r3, [r7, #47]
 6346 002c 97F82F30 		ldrb	r3, [r7, #47]	@ zero_extendqisi2
 6347 0030 002B     		cmp	r3, #0
 6348 0032 07D1     		bne	.L571
 6349 0034 FB68     		ldr	r3, [r7, #12]
 6350 0036 5B7D     		ldrb	r3, [r3, #21]
 6351 0038 87F82F30 		strb	r3, [r7, #47]
 6352 003c 97F82F30 		ldrb	r3, [r7, #47]	@ zero_extendqisi2
 6353 0040 002B     		cmp	r3, #0
 6354 0042 02D0     		beq	.L572
 6355              	.L571:
 6356 0044 97F82F30 		ldrb	r3, [r7, #47]	@ zero_extendqisi2
 6357 0048 6AE1     		b	.L597
 6358              	.L572:
 6359 004a FB68     		ldr	r3, [r7, #12]
 6360 004c 1B7D     		ldrb	r3, [r3, #20]	@ zero_extendqisi2
 6361 004e 03F00203 		and	r3, r3, #2
 6362 0052 002B     		cmp	r3, #0
 6363 0054 01D1     		bne	.L574
 6364 0056 0723     		movs	r3, #7
 6365 0058 62E1     		b	.L597
 6366              	.L574:
 6367 005a FB68     		ldr	r3, [r7, #12]
 6368 005c 9A69     		ldr	r2, [r3, #24]
 6369 005e 7B68     		ldr	r3, [r7, #4]
 6370 0060 1A44     		add	r2, r2, r3
 6371 0062 FB68     		ldr	r3, [r7, #12]
 6372 0064 9B69     		ldr	r3, [r3, #24]
 6373 0066 9A42     		cmp	r2, r3
 6374 0068 80F04C81 		bcs	.L576
 6375 006c FB68     		ldr	r3, [r7, #12]
 6376 006e 9B69     		ldr	r3, [r3, #24]
 6377 0070 DB43     		mvns	r3, r3
 6378 0072 7B60     		str	r3, [r7, #4]
 6379 0074 46E1     		b	.L576
 6380              	.L596:
 6381 0076 FB68     		ldr	r3, [r7, #12]
 6382 0078 9B69     		ldr	r3, [r3, #24]
 6383 007a 3A69     		ldr	r2, [r7, #16]
 6384 007c 9289     		ldrh	r2, [r2, #12]
 6385 007e B3FBF2F1 		udiv	r1, r3, r2
 6386 0082 01FB02F2 		mul	r2, r1, r2
 6387 0086 9B1A     		subs	r3, r3, r2
 6388 0088 002B     		cmp	r3, #0
 6389 008a 40F0F180 		bne	.L577
 6390 008e FB68     		ldr	r3, [r7, #12]
 6391 0090 9B69     		ldr	r3, [r3, #24]
 6392 0092 3A69     		ldr	r2, [r7, #16]
 6393 0094 9289     		ldrh	r2, [r2, #12]
 6394 0096 B3FBF2F3 		udiv	r3, r3, r2
 6395 009a 3A69     		ldr	r2, [r7, #16]
ARM GAS  C:\Users\user\AppData\Local\Temp\ccnu1L5f.s 			page 112


 6396 009c 5289     		ldrh	r2, [r2, #10]
 6397 009e 013A     		subs	r2, r2, #1
 6398 00a0 1340     		ands	r3, r3, r2
 6399 00a2 BB61     		str	r3, [r7, #24]
 6400 00a4 BB69     		ldr	r3, [r7, #24]
 6401 00a6 002B     		cmp	r3, #0
 6402 00a8 43D1     		bne	.L578
 6403 00aa FB68     		ldr	r3, [r7, #12]
 6404 00ac 9B69     		ldr	r3, [r3, #24]
 6405 00ae 002B     		cmp	r3, #0
 6406 00b0 0CD1     		bne	.L579
 6407 00b2 FB68     		ldr	r3, [r7, #12]
 6408 00b4 9B68     		ldr	r3, [r3, #8]
 6409 00b6 BB62     		str	r3, [r7, #40]
 6410 00b8 BB6A     		ldr	r3, [r7, #40]
 6411 00ba 002B     		cmp	r3, #0
 6412 00bc 1AD1     		bne	.L580
 6413 00be FB68     		ldr	r3, [r7, #12]
 6414 00c0 0021     		movs	r1, #0
 6415 00c2 1846     		mov	r0, r3
 6416 00c4 FFF7FEFF 		bl	create_chain
 6417 00c8 B862     		str	r0, [r7, #40]
 6418 00ca 13E0     		b	.L580
 6419              	.L579:
 6420 00cc FB68     		ldr	r3, [r7, #12]
 6421 00ce DB6A     		ldr	r3, [r3, #44]
 6422 00d0 002B     		cmp	r3, #0
 6423 00d2 07D0     		beq	.L581
 6424 00d4 FB68     		ldr	r3, [r7, #12]
 6425 00d6 9B69     		ldr	r3, [r3, #24]
 6426 00d8 1946     		mov	r1, r3
 6427 00da F868     		ldr	r0, [r7, #12]
 6428 00dc FFF7FEFF 		bl	clmt_clust
 6429 00e0 B862     		str	r0, [r7, #40]
 6430 00e2 07E0     		b	.L580
 6431              	.L581:
 6432 00e4 FA68     		ldr	r2, [r7, #12]
 6433 00e6 FB68     		ldr	r3, [r7, #12]
 6434 00e8 DB69     		ldr	r3, [r3, #28]
 6435 00ea 1946     		mov	r1, r3
 6436 00ec 1046     		mov	r0, r2
 6437 00ee FFF7FEFF 		bl	create_chain
 6438 00f2 B862     		str	r0, [r7, #40]
 6439              	.L580:
 6440 00f4 BB6A     		ldr	r3, [r7, #40]
 6441 00f6 002B     		cmp	r3, #0
 6442 00f8 00F00981 		beq	.L598
 6443 00fc BB6A     		ldr	r3, [r7, #40]
 6444 00fe 012B     		cmp	r3, #1
 6445 0100 04D1     		bne	.L584
 6446 0102 FB68     		ldr	r3, [r7, #12]
 6447 0104 0222     		movs	r2, #2
 6448 0106 5A75     		strb	r2, [r3, #21]
 6449 0108 0223     		movs	r3, #2
 6450 010a 09E1     		b	.L597
 6451              	.L584:
 6452 010c BB6A     		ldr	r3, [r7, #40]
ARM GAS  C:\Users\user\AppData\Local\Temp\ccnu1L5f.s 			page 113


 6453 010e B3F1FF3F 		cmp	r3, #-1
 6454 0112 04D1     		bne	.L585
 6455 0114 FB68     		ldr	r3, [r7, #12]
 6456 0116 0122     		movs	r2, #1
 6457 0118 5A75     		strb	r2, [r3, #21]
 6458 011a 0123     		movs	r3, #1
 6459 011c 00E1     		b	.L597
 6460              	.L585:
 6461 011e FB68     		ldr	r3, [r7, #12]
 6462 0120 BA6A     		ldr	r2, [r7, #40]
 6463 0122 DA61     		str	r2, [r3, #28]
 6464 0124 FB68     		ldr	r3, [r7, #12]
 6465 0126 9B68     		ldr	r3, [r3, #8]
 6466 0128 002B     		cmp	r3, #0
 6467 012a 02D1     		bne	.L578
 6468 012c FB68     		ldr	r3, [r7, #12]
 6469 012e BA6A     		ldr	r2, [r7, #40]
 6470 0130 9A60     		str	r2, [r3, #8]
 6471              	.L578:
 6472 0132 FB68     		ldr	r3, [r7, #12]
 6473 0134 1B7D     		ldrb	r3, [r3, #20]	@ zero_extendqisi2
 6474 0136 5BB2     		sxtb	r3, r3
 6475 0138 002B     		cmp	r3, #0
 6476 013a 18DA     		bge	.L586
 6477 013c 3B69     		ldr	r3, [r7, #16]
 6478 013e 5878     		ldrb	r0, [r3, #1]	@ zero_extendqisi2
 6479 0140 FB68     		ldr	r3, [r7, #12]
 6480 0142 03F13001 		add	r1, r3, #48
 6481 0146 FB68     		ldr	r3, [r7, #12]
 6482 0148 1A6A     		ldr	r2, [r3, #32]
 6483 014a 0123     		movs	r3, #1
 6484 014c FFF7FEFF 		bl	disk_write
 6485 0150 0346     		mov	r3, r0
 6486 0152 002B     		cmp	r3, #0
 6487 0154 04D0     		beq	.L587
 6488 0156 FB68     		ldr	r3, [r7, #12]
 6489 0158 0122     		movs	r2, #1
 6490 015a 5A75     		strb	r2, [r3, #21]
 6491 015c 0123     		movs	r3, #1
 6492 015e DFE0     		b	.L597
 6493              	.L587:
 6494 0160 FB68     		ldr	r3, [r7, #12]
 6495 0162 1B7D     		ldrb	r3, [r3, #20]	@ zero_extendqisi2
 6496 0164 03F07F03 		and	r3, r3, #127
 6497 0168 DAB2     		uxtb	r2, r3
 6498 016a FB68     		ldr	r3, [r7, #12]
 6499 016c 1A75     		strb	r2, [r3, #20]
 6500              	.L586:
 6501 016e 3A69     		ldr	r2, [r7, #16]
 6502 0170 FB68     		ldr	r3, [r7, #12]
 6503 0172 DB69     		ldr	r3, [r3, #28]
 6504 0174 1946     		mov	r1, r3
 6505 0176 1046     		mov	r0, r2
 6506 0178 FFF7FEFF 		bl	clust2sect
 6507 017c 7861     		str	r0, [r7, #20]
 6508 017e 7B69     		ldr	r3, [r7, #20]
 6509 0180 002B     		cmp	r3, #0
ARM GAS  C:\Users\user\AppData\Local\Temp\ccnu1L5f.s 			page 114


 6510 0182 04D1     		bne	.L588
 6511 0184 FB68     		ldr	r3, [r7, #12]
 6512 0186 0222     		movs	r2, #2
 6513 0188 5A75     		strb	r2, [r3, #21]
 6514 018a 0223     		movs	r3, #2
 6515 018c C8E0     		b	.L597
 6516              	.L588:
 6517 018e 7A69     		ldr	r2, [r7, #20]
 6518 0190 BB69     		ldr	r3, [r7, #24]
 6519 0192 1344     		add	r3, r3, r2
 6520 0194 7B61     		str	r3, [r7, #20]
 6521 0196 3B69     		ldr	r3, [r7, #16]
 6522 0198 9B89     		ldrh	r3, [r3, #12]
 6523 019a 1A46     		mov	r2, r3
 6524 019c 7B68     		ldr	r3, [r7, #4]
 6525 019e B3FBF2F3 		udiv	r3, r3, r2
 6526 01a2 3B62     		str	r3, [r7, #32]
 6527 01a4 3B6A     		ldr	r3, [r7, #32]
 6528 01a6 002B     		cmp	r3, #0
 6529 01a8 43D0     		beq	.L589
 6530 01aa BA69     		ldr	r2, [r7, #24]
 6531 01ac 3B6A     		ldr	r3, [r7, #32]
 6532 01ae 1344     		add	r3, r3, r2
 6533 01b0 3A69     		ldr	r2, [r7, #16]
 6534 01b2 5289     		ldrh	r2, [r2, #10]
 6535 01b4 9342     		cmp	r3, r2
 6536 01b6 05D9     		bls	.L590
 6537 01b8 3B69     		ldr	r3, [r7, #16]
 6538 01ba 5B89     		ldrh	r3, [r3, #10]
 6539 01bc 1A46     		mov	r2, r3
 6540 01be BB69     		ldr	r3, [r7, #24]
 6541 01c0 D31A     		subs	r3, r2, r3
 6542 01c2 3B62     		str	r3, [r7, #32]
 6543              	.L590:
 6544 01c4 3B69     		ldr	r3, [r7, #16]
 6545 01c6 5878     		ldrb	r0, [r3, #1]	@ zero_extendqisi2
 6546 01c8 3B6A     		ldr	r3, [r7, #32]
 6547 01ca 7A69     		ldr	r2, [r7, #20]
 6548 01cc F969     		ldr	r1, [r7, #28]
 6549 01ce FFF7FEFF 		bl	disk_write
 6550 01d2 0346     		mov	r3, r0
 6551 01d4 002B     		cmp	r3, #0
 6552 01d6 04D0     		beq	.L591
 6553 01d8 FB68     		ldr	r3, [r7, #12]
 6554 01da 0122     		movs	r2, #1
 6555 01dc 5A75     		strb	r2, [r3, #21]
 6556 01de 0123     		movs	r3, #1
 6557 01e0 9EE0     		b	.L597
 6558              	.L591:
 6559 01e2 FB68     		ldr	r3, [r7, #12]
 6560 01e4 1A6A     		ldr	r2, [r3, #32]
 6561 01e6 7B69     		ldr	r3, [r7, #20]
 6562 01e8 D31A     		subs	r3, r2, r3
 6563 01ea 3A6A     		ldr	r2, [r7, #32]
 6564 01ec 9A42     		cmp	r2, r3
 6565 01ee 18D9     		bls	.L592
 6566 01f0 FB68     		ldr	r3, [r7, #12]
ARM GAS  C:\Users\user\AppData\Local\Temp\ccnu1L5f.s 			page 115


 6567 01f2 03F13000 		add	r0, r3, #48
 6568 01f6 FB68     		ldr	r3, [r7, #12]
 6569 01f8 1A6A     		ldr	r2, [r3, #32]
 6570 01fa 7B69     		ldr	r3, [r7, #20]
 6571 01fc D31A     		subs	r3, r2, r3
 6572 01fe 3A69     		ldr	r2, [r7, #16]
 6573 0200 9289     		ldrh	r2, [r2, #12]
 6574 0202 02FB03F3 		mul	r3, r2, r3
 6575 0206 FA69     		ldr	r2, [r7, #28]
 6576 0208 D118     		adds	r1, r2, r3
 6577 020a 3B69     		ldr	r3, [r7, #16]
 6578 020c 9B89     		ldrh	r3, [r3, #12]
 6579 020e 1A46     		mov	r2, r3
 6580 0210 FFF7FEFF 		bl	mem_cpy
 6581 0214 FB68     		ldr	r3, [r7, #12]
 6582 0216 1B7D     		ldrb	r3, [r3, #20]	@ zero_extendqisi2
 6583 0218 03F07F03 		and	r3, r3, #127
 6584 021c DAB2     		uxtb	r2, r3
 6585 021e FB68     		ldr	r3, [r7, #12]
 6586 0220 1A75     		strb	r2, [r3, #20]
 6587              	.L592:
 6588 0222 3B69     		ldr	r3, [r7, #16]
 6589 0224 9B89     		ldrh	r3, [r3, #12]
 6590 0226 1A46     		mov	r2, r3
 6591 0228 3B6A     		ldr	r3, [r7, #32]
 6592 022a 02FB03F3 		mul	r3, r2, r3
 6593 022e 7B62     		str	r3, [r7, #36]
 6594 0230 4BE0     		b	.L593
 6595              	.L589:
 6596 0232 FB68     		ldr	r3, [r7, #12]
 6597 0234 1B6A     		ldr	r3, [r3, #32]
 6598 0236 7A69     		ldr	r2, [r7, #20]
 6599 0238 9A42     		cmp	r2, r3
 6600 023a 16D0     		beq	.L594
 6601 023c FB68     		ldr	r3, [r7, #12]
 6602 023e 9A69     		ldr	r2, [r3, #24]
 6603 0240 FB68     		ldr	r3, [r7, #12]
 6604 0242 DB68     		ldr	r3, [r3, #12]
 6605 0244 9A42     		cmp	r2, r3
 6606 0246 10D2     		bcs	.L594
 6607 0248 3B69     		ldr	r3, [r7, #16]
 6608 024a 5878     		ldrb	r0, [r3, #1]	@ zero_extendqisi2
 6609 024c FB68     		ldr	r3, [r7, #12]
 6610 024e 03F13001 		add	r1, r3, #48
 6611 0252 0123     		movs	r3, #1
 6612 0254 7A69     		ldr	r2, [r7, #20]
 6613 0256 FFF7FEFF 		bl	disk_read
 6614 025a 0346     		mov	r3, r0
 6615 025c 002B     		cmp	r3, #0
 6616 025e 04D0     		beq	.L594
 6617 0260 FB68     		ldr	r3, [r7, #12]
 6618 0262 0122     		movs	r2, #1
 6619 0264 5A75     		strb	r2, [r3, #21]
 6620 0266 0123     		movs	r3, #1
 6621 0268 5AE0     		b	.L597
 6622              	.L594:
 6623 026a FB68     		ldr	r3, [r7, #12]
ARM GAS  C:\Users\user\AppData\Local\Temp\ccnu1L5f.s 			page 116


 6624 026c 7A69     		ldr	r2, [r7, #20]
 6625 026e 1A62     		str	r2, [r3, #32]
 6626              	.L577:
 6627 0270 3B69     		ldr	r3, [r7, #16]
 6628 0272 9B89     		ldrh	r3, [r3, #12]
 6629 0274 1846     		mov	r0, r3
 6630 0276 FB68     		ldr	r3, [r7, #12]
 6631 0278 9B69     		ldr	r3, [r3, #24]
 6632 027a 3A69     		ldr	r2, [r7, #16]
 6633 027c 9289     		ldrh	r2, [r2, #12]
 6634 027e B3FBF2F1 		udiv	r1, r3, r2
 6635 0282 01FB02F2 		mul	r2, r1, r2
 6636 0286 9B1A     		subs	r3, r3, r2
 6637 0288 C31A     		subs	r3, r0, r3
 6638 028a 7B62     		str	r3, [r7, #36]
 6639 028c 7A6A     		ldr	r2, [r7, #36]
 6640 028e 7B68     		ldr	r3, [r7, #4]
 6641 0290 9A42     		cmp	r2, r3
 6642 0292 01D9     		bls	.L595
 6643 0294 7B68     		ldr	r3, [r7, #4]
 6644 0296 7B62     		str	r3, [r7, #36]
 6645              	.L595:
 6646 0298 FB68     		ldr	r3, [r7, #12]
 6647 029a 03F13001 		add	r1, r3, #48
 6648 029e FB68     		ldr	r3, [r7, #12]
 6649 02a0 9B69     		ldr	r3, [r3, #24]
 6650 02a2 3A69     		ldr	r2, [r7, #16]
 6651 02a4 9289     		ldrh	r2, [r2, #12]
 6652 02a6 B3FBF2F0 		udiv	r0, r3, r2
 6653 02aa 00FB02F2 		mul	r2, r0, r2
 6654 02ae 9B1A     		subs	r3, r3, r2
 6655 02b0 0B44     		add	r3, r3, r1
 6656 02b2 7A6A     		ldr	r2, [r7, #36]
 6657 02b4 F969     		ldr	r1, [r7, #28]
 6658 02b6 1846     		mov	r0, r3
 6659 02b8 FFF7FEFF 		bl	mem_cpy
 6660 02bc FB68     		ldr	r3, [r7, #12]
 6661 02be 1B7D     		ldrb	r3, [r3, #20]	@ zero_extendqisi2
 6662 02c0 63F07F03 		orn	r3, r3, #127
 6663 02c4 DAB2     		uxtb	r2, r3
 6664 02c6 FB68     		ldr	r3, [r7, #12]
 6665 02c8 1A75     		strb	r2, [r3, #20]
 6666              	.L593:
 6667 02ca FA69     		ldr	r2, [r7, #28]
 6668 02cc 7B6A     		ldr	r3, [r7, #36]
 6669 02ce 1344     		add	r3, r3, r2
 6670 02d0 FB61     		str	r3, [r7, #28]
 6671 02d2 FB68     		ldr	r3, [r7, #12]
 6672 02d4 9A69     		ldr	r2, [r3, #24]
 6673 02d6 7B6A     		ldr	r3, [r7, #36]
 6674 02d8 1A44     		add	r2, r2, r3
 6675 02da FB68     		ldr	r3, [r7, #12]
 6676 02dc 9A61     		str	r2, [r3, #24]
 6677 02de FB68     		ldr	r3, [r7, #12]
 6678 02e0 DA68     		ldr	r2, [r3, #12]
 6679 02e2 FB68     		ldr	r3, [r7, #12]
 6680 02e4 9B69     		ldr	r3, [r3, #24]
ARM GAS  C:\Users\user\AppData\Local\Temp\ccnu1L5f.s 			page 117


 6681 02e6 9A42     		cmp	r2, r3
 6682 02e8 38BF     		it	cc
 6683 02ea 1A46     		movcc	r2, r3
 6684 02ec FB68     		ldr	r3, [r7, #12]
 6685 02ee DA60     		str	r2, [r3, #12]
 6686 02f0 3B68     		ldr	r3, [r7]
 6687 02f2 1A68     		ldr	r2, [r3]
 6688 02f4 7B6A     		ldr	r3, [r7, #36]
 6689 02f6 1A44     		add	r2, r2, r3
 6690 02f8 3B68     		ldr	r3, [r7]
 6691 02fa 1A60     		str	r2, [r3]
 6692 02fc 7A68     		ldr	r2, [r7, #4]
 6693 02fe 7B6A     		ldr	r3, [r7, #36]
 6694 0300 D31A     		subs	r3, r2, r3
 6695 0302 7B60     		str	r3, [r7, #4]
 6696              	.L576:
 6697 0304 7B68     		ldr	r3, [r7, #4]
 6698 0306 002B     		cmp	r3, #0
 6699 0308 7FF4B5AE 		bne	.L596
 6700 030c 00E0     		b	.L583
 6701              	.L598:
 6702 030e 00BF     		nop
 6703              	.L583:
 6704 0310 FB68     		ldr	r3, [r7, #12]
 6705 0312 1B7D     		ldrb	r3, [r3, #20]	@ zero_extendqisi2
 6706 0314 43F04003 		orr	r3, r3, #64
 6707 0318 DAB2     		uxtb	r2, r3
 6708 031a FB68     		ldr	r3, [r7, #12]
 6709 031c 1A75     		strb	r2, [r3, #20]
 6710 031e 0023     		movs	r3, #0
 6711              	.L597:
 6712 0320 1846     		mov	r0, r3
 6713 0322 3037     		adds	r7, r7, #48
 6714 0324 BD46     		mov	sp, r7
 6715              		@ sp needed
 6716 0326 80BD     		pop	{r7, pc}
 6718              		.section	.text.f_sync,"ax",%progbits
 6719              		.align	1
 6720              		.global	f_sync
 6721              		.syntax unified
 6722              		.thumb
 6723              		.thumb_func
 6725              	f_sync:
 6726              		@ args = 0, pretend = 0, frame = 24
 6727              		@ frame_needed = 1, uses_anonymous_args = 0
 6728 0000 80B5     		push	{r7, lr}
 6729 0002 86B0     		sub	sp, sp, #24
 6730 0004 00AF     		add	r7, sp, #0
 6731 0006 7860     		str	r0, [r7, #4]
 6732 0008 7B68     		ldr	r3, [r7, #4]
 6733 000a 07F10802 		add	r2, r7, #8
 6734 000e 1146     		mov	r1, r2
 6735 0010 1846     		mov	r0, r3
 6736 0012 FFF7FEFF 		bl	validate
 6737 0016 0346     		mov	r3, r0
 6738 0018 FB75     		strb	r3, [r7, #23]
 6739 001a FB7D     		ldrb	r3, [r7, #23]	@ zero_extendqisi2
ARM GAS  C:\Users\user\AppData\Local\Temp\ccnu1L5f.s 			page 118


 6740 001c 002B     		cmp	r3, #0
 6741 001e 68D1     		bne	.L600
 6742 0020 7B68     		ldr	r3, [r7, #4]
 6743 0022 1B7D     		ldrb	r3, [r3, #20]	@ zero_extendqisi2
 6744 0024 03F04003 		and	r3, r3, #64
 6745 0028 002B     		cmp	r3, #0
 6746 002a 62D0     		beq	.L600
 6747 002c 7B68     		ldr	r3, [r7, #4]
 6748 002e 1B7D     		ldrb	r3, [r3, #20]	@ zero_extendqisi2
 6749 0030 5BB2     		sxtb	r3, r3
 6750 0032 002B     		cmp	r3, #0
 6751 0034 15DA     		bge	.L601
 6752 0036 BB68     		ldr	r3, [r7, #8]
 6753 0038 5878     		ldrb	r0, [r3, #1]	@ zero_extendqisi2
 6754 003a 7B68     		ldr	r3, [r7, #4]
 6755 003c 03F13001 		add	r1, r3, #48
 6756 0040 7B68     		ldr	r3, [r7, #4]
 6757 0042 1A6A     		ldr	r2, [r3, #32]
 6758 0044 0123     		movs	r3, #1
 6759 0046 FFF7FEFF 		bl	disk_write
 6760 004a 0346     		mov	r3, r0
 6761 004c 002B     		cmp	r3, #0
 6762 004e 01D0     		beq	.L602
 6763 0050 0123     		movs	r3, #1
 6764 0052 4FE0     		b	.L604
 6765              	.L602:
 6766 0054 7B68     		ldr	r3, [r7, #4]
 6767 0056 1B7D     		ldrb	r3, [r3, #20]	@ zero_extendqisi2
 6768 0058 03F07F03 		and	r3, r3, #127
 6769 005c DAB2     		uxtb	r2, r3
 6770 005e 7B68     		ldr	r3, [r7, #4]
 6771 0060 1A75     		strb	r2, [r3, #20]
 6772              	.L601:
 6773 0062 FFF7FEFF 		bl	get_fattime
 6774 0066 3861     		str	r0, [r7, #16]
 6775 0068 BA68     		ldr	r2, [r7, #8]
 6776 006a 7B68     		ldr	r3, [r7, #4]
 6777 006c 5B6A     		ldr	r3, [r3, #36]
 6778 006e 1946     		mov	r1, r3
 6779 0070 1046     		mov	r0, r2
 6780 0072 FFF7FEFF 		bl	move_window
 6781 0076 0346     		mov	r3, r0
 6782 0078 FB75     		strb	r3, [r7, #23]
 6783 007a FB7D     		ldrb	r3, [r7, #23]	@ zero_extendqisi2
 6784 007c 002B     		cmp	r3, #0
 6785 007e 38D1     		bne	.L600
 6786 0080 7B68     		ldr	r3, [r7, #4]
 6787 0082 9B6A     		ldr	r3, [r3, #40]
 6788 0084 FB60     		str	r3, [r7, #12]
 6789 0086 FB68     		ldr	r3, [r7, #12]
 6790 0088 0B33     		adds	r3, r3, #11
 6791 008a 1A78     		ldrb	r2, [r3]	@ zero_extendqisi2
 6792 008c FB68     		ldr	r3, [r7, #12]
 6793 008e 0B33     		adds	r3, r3, #11
 6794 0090 42F02002 		orr	r2, r2, #32
 6795 0094 D2B2     		uxtb	r2, r2
 6796 0096 1A70     		strb	r2, [r3]
ARM GAS  C:\Users\user\AppData\Local\Temp\ccnu1L5f.s 			page 119


 6797 0098 7B68     		ldr	r3, [r7, #4]
 6798 009a 1868     		ldr	r0, [r3]
 6799 009c 7B68     		ldr	r3, [r7, #4]
 6800 009e 9B68     		ldr	r3, [r3, #8]
 6801 00a0 1A46     		mov	r2, r3
 6802 00a2 F968     		ldr	r1, [r7, #12]
 6803 00a4 FFF7FEFF 		bl	st_clust
 6804 00a8 FB68     		ldr	r3, [r7, #12]
 6805 00aa 03F11C02 		add	r2, r3, #28
 6806 00ae 7B68     		ldr	r3, [r7, #4]
 6807 00b0 DB68     		ldr	r3, [r3, #12]
 6808 00b2 1946     		mov	r1, r3
 6809 00b4 1046     		mov	r0, r2
 6810 00b6 FFF7FEFF 		bl	st_dword
 6811 00ba FB68     		ldr	r3, [r7, #12]
 6812 00bc 1633     		adds	r3, r3, #22
 6813 00be 3969     		ldr	r1, [r7, #16]
 6814 00c0 1846     		mov	r0, r3
 6815 00c2 FFF7FEFF 		bl	st_dword
 6816 00c6 FB68     		ldr	r3, [r7, #12]
 6817 00c8 1233     		adds	r3, r3, #18
 6818 00ca 0021     		movs	r1, #0
 6819 00cc 1846     		mov	r0, r3
 6820 00ce FFF7FEFF 		bl	st_word
 6821 00d2 BB68     		ldr	r3, [r7, #8]
 6822 00d4 0122     		movs	r2, #1
 6823 00d6 DA70     		strb	r2, [r3, #3]
 6824 00d8 BB68     		ldr	r3, [r7, #8]
 6825 00da 1846     		mov	r0, r3
 6826 00dc FFF7FEFF 		bl	sync_fs
 6827 00e0 0346     		mov	r3, r0
 6828 00e2 FB75     		strb	r3, [r7, #23]
 6829 00e4 7B68     		ldr	r3, [r7, #4]
 6830 00e6 1B7D     		ldrb	r3, [r3, #20]	@ zero_extendqisi2
 6831 00e8 23F04003 		bic	r3, r3, #64
 6832 00ec DAB2     		uxtb	r2, r3
 6833 00ee 7B68     		ldr	r3, [r7, #4]
 6834 00f0 1A75     		strb	r2, [r3, #20]
 6835              	.L600:
 6836 00f2 FB7D     		ldrb	r3, [r7, #23]	@ zero_extendqisi2
 6837              	.L604:
 6838 00f4 1846     		mov	r0, r3
 6839 00f6 1837     		adds	r7, r7, #24
 6840 00f8 BD46     		mov	sp, r7
 6841              		@ sp needed
 6842 00fa 80BD     		pop	{r7, pc}
 6844              		.section	.text.f_close,"ax",%progbits
 6845              		.align	1
 6846              		.global	f_close
 6847              		.syntax unified
 6848              		.thumb
 6849              		.thumb_func
 6851              	f_close:
 6852              		@ args = 0, pretend = 0, frame = 16
 6853              		@ frame_needed = 1, uses_anonymous_args = 0
 6854 0000 80B5     		push	{r7, lr}
 6855 0002 84B0     		sub	sp, sp, #16
ARM GAS  C:\Users\user\AppData\Local\Temp\ccnu1L5f.s 			page 120


 6856 0004 00AF     		add	r7, sp, #0
 6857 0006 7860     		str	r0, [r7, #4]
 6858 0008 7868     		ldr	r0, [r7, #4]
 6859 000a FFF7FEFF 		bl	f_sync
 6860 000e 0346     		mov	r3, r0
 6861 0010 FB73     		strb	r3, [r7, #15]
 6862 0012 FB7B     		ldrb	r3, [r7, #15]	@ zero_extendqisi2
 6863 0014 002B     		cmp	r3, #0
 6864 0016 18D1     		bne	.L606
 6865 0018 7B68     		ldr	r3, [r7, #4]
 6866 001a 07F10802 		add	r2, r7, #8
 6867 001e 1146     		mov	r1, r2
 6868 0020 1846     		mov	r0, r3
 6869 0022 FFF7FEFF 		bl	validate
 6870 0026 0346     		mov	r3, r0
 6871 0028 FB73     		strb	r3, [r7, #15]
 6872 002a FB7B     		ldrb	r3, [r7, #15]	@ zero_extendqisi2
 6873 002c 002B     		cmp	r3, #0
 6874 002e 0CD1     		bne	.L606
 6875 0030 7B68     		ldr	r3, [r7, #4]
 6876 0032 1B69     		ldr	r3, [r3, #16]
 6877 0034 1846     		mov	r0, r3
 6878 0036 FFF7FEFF 		bl	dec_lock
 6879 003a 0346     		mov	r3, r0
 6880 003c FB73     		strb	r3, [r7, #15]
 6881 003e FB7B     		ldrb	r3, [r7, #15]	@ zero_extendqisi2
 6882 0040 002B     		cmp	r3, #0
 6883 0042 02D1     		bne	.L606
 6884 0044 7B68     		ldr	r3, [r7, #4]
 6885 0046 0022     		movs	r2, #0
 6886 0048 1A60     		str	r2, [r3]
 6887              	.L606:
 6888 004a FB7B     		ldrb	r3, [r7, #15]	@ zero_extendqisi2
 6889 004c 1846     		mov	r0, r3
 6890 004e 1037     		adds	r7, r7, #16
 6891 0050 BD46     		mov	sp, r7
 6892              		@ sp needed
 6893 0052 80BD     		pop	{r7, pc}
 6895              		.section	.text.f_lseek,"ax",%progbits
 6896              		.align	1
 6897              		.global	f_lseek
 6898              		.syntax unified
 6899              		.thumb
 6900              		.thumb_func
 6902              	f_lseek:
 6903              		@ args = 0, pretend = 0, frame = 64
 6904              		@ frame_needed = 1, uses_anonymous_args = 0
 6905 0000 80B5     		push	{r7, lr}
 6906 0002 90B0     		sub	sp, sp, #64
 6907 0004 00AF     		add	r7, sp, #0
 6908 0006 7860     		str	r0, [r7, #4]
 6909 0008 3960     		str	r1, [r7]
 6910 000a 7B68     		ldr	r3, [r7, #4]
 6911 000c 07F10802 		add	r2, r7, #8
 6912 0010 1146     		mov	r1, r2
 6913 0012 1846     		mov	r0, r3
 6914 0014 FFF7FEFF 		bl	validate
ARM GAS  C:\Users\user\AppData\Local\Temp\ccnu1L5f.s 			page 121


 6915 0018 0346     		mov	r3, r0
 6916 001a 87F83F30 		strb	r3, [r7, #63]
 6917 001e 97F83F30 		ldrb	r3, [r7, #63]	@ zero_extendqisi2
 6918 0022 002B     		cmp	r3, #0
 6919 0024 03D1     		bne	.L609
 6920 0026 7B68     		ldr	r3, [r7, #4]
 6921 0028 5B7D     		ldrb	r3, [r3, #21]
 6922 002a 87F83F30 		strb	r3, [r7, #63]
 6923              	.L609:
 6924 002e 97F83F30 		ldrb	r3, [r7, #63]	@ zero_extendqisi2
 6925 0032 002B     		cmp	r3, #0
 6926 0034 02D0     		beq	.L610
 6927 0036 97F83F30 		ldrb	r3, [r7, #63]	@ zero_extendqisi2
 6928 003a 01E2     		b	.L647
 6929              	.L610:
 6930 003c 7B68     		ldr	r3, [r7, #4]
 6931 003e DB6A     		ldr	r3, [r3, #44]
 6932 0040 002B     		cmp	r3, #0
 6933 0042 00F0D980 		beq	.L612
 6934 0046 3B68     		ldr	r3, [r7]
 6935 0048 B3F1FF3F 		cmp	r3, #-1
 6936 004c 5AD1     		bne	.L613
 6937 004e 7B68     		ldr	r3, [r7, #4]
 6938 0050 DB6A     		ldr	r3, [r3, #44]
 6939 0052 7B62     		str	r3, [r7, #36]
 6940 0054 7B6A     		ldr	r3, [r7, #36]
 6941 0056 1A1D     		adds	r2, r3, #4
 6942 0058 7A62     		str	r2, [r7, #36]
 6943 005a 1B68     		ldr	r3, [r3]
 6944 005c 7B61     		str	r3, [r7, #20]
 6945 005e 0223     		movs	r3, #2
 6946 0060 BB62     		str	r3, [r7, #40]
 6947 0062 7B68     		ldr	r3, [r7, #4]
 6948 0064 9B68     		ldr	r3, [r3, #8]
 6949 0066 3B63     		str	r3, [r7, #48]
 6950 0068 3B6B     		ldr	r3, [r7, #48]
 6951 006a 002B     		cmp	r3, #0
 6952 006c 3AD0     		beq	.L614
 6953              	.L619:
 6954 006e 3B6B     		ldr	r3, [r7, #48]
 6955 0070 3B61     		str	r3, [r7, #16]
 6956 0072 0023     		movs	r3, #0
 6957 0074 FB62     		str	r3, [r7, #44]
 6958 0076 BB6A     		ldr	r3, [r7, #40]
 6959 0078 0233     		adds	r3, r3, #2
 6960 007a BB62     		str	r3, [r7, #40]
 6961              	.L617:
 6962 007c 3B6B     		ldr	r3, [r7, #48]
 6963 007e FB60     		str	r3, [r7, #12]
 6964 0080 FB6A     		ldr	r3, [r7, #44]
 6965 0082 0133     		adds	r3, r3, #1
 6966 0084 FB62     		str	r3, [r7, #44]
 6967 0086 7B68     		ldr	r3, [r7, #4]
 6968 0088 396B     		ldr	r1, [r7, #48]
 6969 008a 1846     		mov	r0, r3
 6970 008c FFF7FEFF 		bl	get_fat
 6971 0090 3863     		str	r0, [r7, #48]
ARM GAS  C:\Users\user\AppData\Local\Temp\ccnu1L5f.s 			page 122


 6972 0092 3B6B     		ldr	r3, [r7, #48]
 6973 0094 012B     		cmp	r3, #1
 6974 0096 04D8     		bhi	.L615
 6975 0098 7B68     		ldr	r3, [r7, #4]
 6976 009a 0222     		movs	r2, #2
 6977 009c 5A75     		strb	r2, [r3, #21]
 6978 009e 0223     		movs	r3, #2
 6979 00a0 CEE1     		b	.L647
 6980              	.L615:
 6981 00a2 3B6B     		ldr	r3, [r7, #48]
 6982 00a4 B3F1FF3F 		cmp	r3, #-1
 6983 00a8 04D1     		bne	.L616
 6984 00aa 7B68     		ldr	r3, [r7, #4]
 6985 00ac 0122     		movs	r2, #1
 6986 00ae 5A75     		strb	r2, [r3, #21]
 6987 00b0 0123     		movs	r3, #1
 6988 00b2 C5E1     		b	.L647
 6989              	.L616:
 6990 00b4 FB68     		ldr	r3, [r7, #12]
 6991 00b6 0133     		adds	r3, r3, #1
 6992 00b8 3A6B     		ldr	r2, [r7, #48]
 6993 00ba 9A42     		cmp	r2, r3
 6994 00bc DED0     		beq	.L617
 6995 00be BA6A     		ldr	r2, [r7, #40]
 6996 00c0 7B69     		ldr	r3, [r7, #20]
 6997 00c2 9A42     		cmp	r2, r3
 6998 00c4 09D8     		bhi	.L618
 6999 00c6 7B6A     		ldr	r3, [r7, #36]
 7000 00c8 1A1D     		adds	r2, r3, #4
 7001 00ca 7A62     		str	r2, [r7, #36]
 7002 00cc FA6A     		ldr	r2, [r7, #44]
 7003 00ce 1A60     		str	r2, [r3]
 7004 00d0 7B6A     		ldr	r3, [r7, #36]
 7005 00d2 1A1D     		adds	r2, r3, #4
 7006 00d4 7A62     		str	r2, [r7, #36]
 7007 00d6 3A69     		ldr	r2, [r7, #16]
 7008 00d8 1A60     		str	r2, [r3]
 7009              	.L618:
 7010 00da BB68     		ldr	r3, [r7, #8]
 7011 00dc DB69     		ldr	r3, [r3, #28]
 7012 00de 3A6B     		ldr	r2, [r7, #48]
 7013 00e0 9A42     		cmp	r2, r3
 7014 00e2 C4D3     		bcc	.L619
 7015              	.L614:
 7016 00e4 7B68     		ldr	r3, [r7, #4]
 7017 00e6 DB6A     		ldr	r3, [r3, #44]
 7018 00e8 BA6A     		ldr	r2, [r7, #40]
 7019 00ea 1A60     		str	r2, [r3]
 7020 00ec BA6A     		ldr	r2, [r7, #40]
 7021 00ee 7B69     		ldr	r3, [r7, #20]
 7022 00f0 9A42     		cmp	r2, r3
 7023 00f2 03D8     		bhi	.L620
 7024 00f4 7B6A     		ldr	r3, [r7, #36]
 7025 00f6 0022     		movs	r2, #0
 7026 00f8 1A60     		str	r2, [r3]
 7027 00fa 9FE1     		b	.L621
 7028              	.L620:
ARM GAS  C:\Users\user\AppData\Local\Temp\ccnu1L5f.s 			page 123


 7029 00fc 1123     		movs	r3, #17
 7030 00fe 87F83F30 		strb	r3, [r7, #63]
 7031 0102 9BE1     		b	.L621
 7032              	.L613:
 7033 0104 7B68     		ldr	r3, [r7, #4]
 7034 0106 DB68     		ldr	r3, [r3, #12]
 7035 0108 3A68     		ldr	r2, [r7]
 7036 010a 9A42     		cmp	r2, r3
 7037 010c 02D9     		bls	.L622
 7038 010e 7B68     		ldr	r3, [r7, #4]
 7039 0110 DB68     		ldr	r3, [r3, #12]
 7040 0112 3B60     		str	r3, [r7]
 7041              	.L622:
 7042 0114 7B68     		ldr	r3, [r7, #4]
 7043 0116 3A68     		ldr	r2, [r7]
 7044 0118 9A61     		str	r2, [r3, #24]
 7045 011a 3B68     		ldr	r3, [r7]
 7046 011c 002B     		cmp	r3, #0
 7047 011e 00F08D81 		beq	.L621
 7048 0122 3B68     		ldr	r3, [r7]
 7049 0124 013B     		subs	r3, r3, #1
 7050 0126 1946     		mov	r1, r3
 7051 0128 7868     		ldr	r0, [r7, #4]
 7052 012a FFF7FEFF 		bl	clmt_clust
 7053 012e 0246     		mov	r2, r0
 7054 0130 7B68     		ldr	r3, [r7, #4]
 7055 0132 DA61     		str	r2, [r3, #28]
 7056 0134 BA68     		ldr	r2, [r7, #8]
 7057 0136 7B68     		ldr	r3, [r7, #4]
 7058 0138 DB69     		ldr	r3, [r3, #28]
 7059 013a 1946     		mov	r1, r3
 7060 013c 1046     		mov	r0, r2
 7061 013e FFF7FEFF 		bl	clust2sect
 7062 0142 B861     		str	r0, [r7, #24]
 7063 0144 BB69     		ldr	r3, [r7, #24]
 7064 0146 002B     		cmp	r3, #0
 7065 0148 04D1     		bne	.L623
 7066 014a 7B68     		ldr	r3, [r7, #4]
 7067 014c 0222     		movs	r2, #2
 7068 014e 5A75     		strb	r2, [r3, #21]
 7069 0150 0223     		movs	r3, #2
 7070 0152 75E1     		b	.L647
 7071              	.L623:
 7072 0154 3B68     		ldr	r3, [r7]
 7073 0156 013B     		subs	r3, r3, #1
 7074 0158 BA68     		ldr	r2, [r7, #8]
 7075 015a 9289     		ldrh	r2, [r2, #12]
 7076 015c B3FBF2F3 		udiv	r3, r3, r2
 7077 0160 BA68     		ldr	r2, [r7, #8]
 7078 0162 5289     		ldrh	r2, [r2, #10]
 7079 0164 013A     		subs	r2, r2, #1
 7080 0166 1340     		ands	r3, r3, r2
 7081 0168 BA69     		ldr	r2, [r7, #24]
 7082 016a 1344     		add	r3, r3, r2
 7083 016c BB61     		str	r3, [r7, #24]
 7084 016e 7B68     		ldr	r3, [r7, #4]
 7085 0170 9B69     		ldr	r3, [r3, #24]
ARM GAS  C:\Users\user\AppData\Local\Temp\ccnu1L5f.s 			page 124


 7086 0172 BA68     		ldr	r2, [r7, #8]
 7087 0174 9289     		ldrh	r2, [r2, #12]
 7088 0176 B3FBF2F1 		udiv	r1, r3, r2
 7089 017a 01FB02F2 		mul	r2, r1, r2
 7090 017e 9B1A     		subs	r3, r3, r2
 7091 0180 002B     		cmp	r3, #0
 7092 0182 00F05B81 		beq	.L621
 7093 0186 7B68     		ldr	r3, [r7, #4]
 7094 0188 1B6A     		ldr	r3, [r3, #32]
 7095 018a BA69     		ldr	r2, [r7, #24]
 7096 018c 9A42     		cmp	r2, r3
 7097 018e 00F05581 		beq	.L621
 7098 0192 7B68     		ldr	r3, [r7, #4]
 7099 0194 1B7D     		ldrb	r3, [r3, #20]	@ zero_extendqisi2
 7100 0196 5BB2     		sxtb	r3, r3
 7101 0198 002B     		cmp	r3, #0
 7102 019a 18DA     		bge	.L624
 7103 019c BB68     		ldr	r3, [r7, #8]
 7104 019e 5878     		ldrb	r0, [r3, #1]	@ zero_extendqisi2
 7105 01a0 7B68     		ldr	r3, [r7, #4]
 7106 01a2 03F13001 		add	r1, r3, #48
 7107 01a6 7B68     		ldr	r3, [r7, #4]
 7108 01a8 1A6A     		ldr	r2, [r3, #32]
 7109 01aa 0123     		movs	r3, #1
 7110 01ac FFF7FEFF 		bl	disk_write
 7111 01b0 0346     		mov	r3, r0
 7112 01b2 002B     		cmp	r3, #0
 7113 01b4 04D0     		beq	.L625
 7114 01b6 7B68     		ldr	r3, [r7, #4]
 7115 01b8 0122     		movs	r2, #1
 7116 01ba 5A75     		strb	r2, [r3, #21]
 7117 01bc 0123     		movs	r3, #1
 7118 01be 3FE1     		b	.L647
 7119              	.L625:
 7120 01c0 7B68     		ldr	r3, [r7, #4]
 7121 01c2 1B7D     		ldrb	r3, [r3, #20]	@ zero_extendqisi2
 7122 01c4 03F07F03 		and	r3, r3, #127
 7123 01c8 DAB2     		uxtb	r2, r3
 7124 01ca 7B68     		ldr	r3, [r7, #4]
 7125 01cc 1A75     		strb	r2, [r3, #20]
 7126              	.L624:
 7127 01ce BB68     		ldr	r3, [r7, #8]
 7128 01d0 5878     		ldrb	r0, [r3, #1]	@ zero_extendqisi2
 7129 01d2 7B68     		ldr	r3, [r7, #4]
 7130 01d4 03F13001 		add	r1, r3, #48
 7131 01d8 0123     		movs	r3, #1
 7132 01da BA69     		ldr	r2, [r7, #24]
 7133 01dc FFF7FEFF 		bl	disk_read
 7134 01e0 0346     		mov	r3, r0
 7135 01e2 002B     		cmp	r3, #0
 7136 01e4 04D0     		beq	.L626
 7137 01e6 7B68     		ldr	r3, [r7, #4]
 7138 01e8 0122     		movs	r2, #1
 7139 01ea 5A75     		strb	r2, [r3, #21]
 7140 01ec 0123     		movs	r3, #1
 7141 01ee 27E1     		b	.L647
 7142              	.L626:
ARM GAS  C:\Users\user\AppData\Local\Temp\ccnu1L5f.s 			page 125


 7143 01f0 7B68     		ldr	r3, [r7, #4]
 7144 01f2 BA69     		ldr	r2, [r7, #24]
 7145 01f4 1A62     		str	r2, [r3, #32]
 7146 01f6 21E1     		b	.L621
 7147              	.L612:
 7148 01f8 7B68     		ldr	r3, [r7, #4]
 7149 01fa DB68     		ldr	r3, [r3, #12]
 7150 01fc 3A68     		ldr	r2, [r7]
 7151 01fe 9A42     		cmp	r2, r3
 7152 0200 08D9     		bls	.L627
 7153 0202 7B68     		ldr	r3, [r7, #4]
 7154 0204 1B7D     		ldrb	r3, [r3, #20]	@ zero_extendqisi2
 7155 0206 03F00203 		and	r3, r3, #2
 7156 020a 002B     		cmp	r3, #0
 7157 020c 02D1     		bne	.L627
 7158 020e 7B68     		ldr	r3, [r7, #4]
 7159 0210 DB68     		ldr	r3, [r3, #12]
 7160 0212 3B60     		str	r3, [r7]
 7161              	.L627:
 7162 0214 7B68     		ldr	r3, [r7, #4]
 7163 0216 9B69     		ldr	r3, [r3, #24]
 7164 0218 3B62     		str	r3, [r7, #32]
 7165 021a 0023     		movs	r3, #0
 7166 021c 7B63     		str	r3, [r7, #52]
 7167 021e 7B68     		ldr	r3, [r7, #4]
 7168 0220 7A6B     		ldr	r2, [r7, #52]
 7169 0222 9A61     		str	r2, [r3, #24]
 7170 0224 3B68     		ldr	r3, [r7]
 7171 0226 002B     		cmp	r3, #0
 7172 0228 00F0B580 		beq	.L628
 7173 022c BB68     		ldr	r3, [r7, #8]
 7174 022e 5B89     		ldrh	r3, [r3, #10]
 7175 0230 1A46     		mov	r2, r3
 7176 0232 BB68     		ldr	r3, [r7, #8]
 7177 0234 9B89     		ldrh	r3, [r3, #12]
 7178 0236 02FB03F3 		mul	r3, r2, r3
 7179 023a FB61     		str	r3, [r7, #28]
 7180 023c 3B6A     		ldr	r3, [r7, #32]
 7181 023e 002B     		cmp	r3, #0
 7182 0240 1BD0     		beq	.L629
 7183 0242 3B68     		ldr	r3, [r7]
 7184 0244 5A1E     		subs	r2, r3, #1
 7185 0246 FB69     		ldr	r3, [r7, #28]
 7186 0248 B2FBF3F2 		udiv	r2, r2, r3
 7187 024c 3B6A     		ldr	r3, [r7, #32]
 7188 024e 591E     		subs	r1, r3, #1
 7189 0250 FB69     		ldr	r3, [r7, #28]
 7190 0252 B1FBF3F3 		udiv	r3, r1, r3
 7191 0256 9A42     		cmp	r2, r3
 7192 0258 0FD3     		bcc	.L629
 7193 025a 3B6A     		ldr	r3, [r7, #32]
 7194 025c 5A1E     		subs	r2, r3, #1
 7195 025e FB69     		ldr	r3, [r7, #28]
 7196 0260 5B42     		rsbs	r3, r3, #0
 7197 0262 1A40     		ands	r2, r2, r3
 7198 0264 7B68     		ldr	r3, [r7, #4]
 7199 0266 9A61     		str	r2, [r3, #24]
ARM GAS  C:\Users\user\AppData\Local\Temp\ccnu1L5f.s 			page 126


 7200 0268 7B68     		ldr	r3, [r7, #4]
 7201 026a 9B69     		ldr	r3, [r3, #24]
 7202 026c 3A68     		ldr	r2, [r7]
 7203 026e D31A     		subs	r3, r2, r3
 7204 0270 3B60     		str	r3, [r7]
 7205 0272 7B68     		ldr	r3, [r7, #4]
 7206 0274 DB69     		ldr	r3, [r3, #28]
 7207 0276 BB63     		str	r3, [r7, #56]
 7208 0278 22E0     		b	.L630
 7209              	.L629:
 7210 027a 7B68     		ldr	r3, [r7, #4]
 7211 027c 9B68     		ldr	r3, [r3, #8]
 7212 027e BB63     		str	r3, [r7, #56]
 7213 0280 BB6B     		ldr	r3, [r7, #56]
 7214 0282 002B     		cmp	r3, #0
 7215 0284 19D1     		bne	.L631
 7216 0286 7B68     		ldr	r3, [r7, #4]
 7217 0288 0021     		movs	r1, #0
 7218 028a 1846     		mov	r0, r3
 7219 028c FFF7FEFF 		bl	create_chain
 7220 0290 B863     		str	r0, [r7, #56]
 7221 0292 BB6B     		ldr	r3, [r7, #56]
 7222 0294 012B     		cmp	r3, #1
 7223 0296 04D1     		bne	.L632
 7224 0298 7B68     		ldr	r3, [r7, #4]
 7225 029a 0222     		movs	r2, #2
 7226 029c 5A75     		strb	r2, [r3, #21]
 7227 029e 0223     		movs	r3, #2
 7228 02a0 CEE0     		b	.L647
 7229              	.L632:
 7230 02a2 BB6B     		ldr	r3, [r7, #56]
 7231 02a4 B3F1FF3F 		cmp	r3, #-1
 7232 02a8 04D1     		bne	.L633
 7233 02aa 7B68     		ldr	r3, [r7, #4]
 7234 02ac 0122     		movs	r2, #1
 7235 02ae 5A75     		strb	r2, [r3, #21]
 7236 02b0 0123     		movs	r3, #1
 7237 02b2 C5E0     		b	.L647
 7238              	.L633:
 7239 02b4 7B68     		ldr	r3, [r7, #4]
 7240 02b6 BA6B     		ldr	r2, [r7, #56]
 7241 02b8 9A60     		str	r2, [r3, #8]
 7242              	.L631:
 7243 02ba 7B68     		ldr	r3, [r7, #4]
 7244 02bc BA6B     		ldr	r2, [r7, #56]
 7245 02be DA61     		str	r2, [r3, #28]
 7246              	.L630:
 7247 02c0 BB6B     		ldr	r3, [r7, #56]
 7248 02c2 002B     		cmp	r3, #0
 7249 02c4 67D0     		beq	.L628
 7250 02c6 3AE0     		b	.L634
 7251              	.L641:
 7252 02c8 3A68     		ldr	r2, [r7]
 7253 02ca FB69     		ldr	r3, [r7, #28]
 7254 02cc D31A     		subs	r3, r2, r3
 7255 02ce 3B60     		str	r3, [r7]
 7256 02d0 7B68     		ldr	r3, [r7, #4]
ARM GAS  C:\Users\user\AppData\Local\Temp\ccnu1L5f.s 			page 127


 7257 02d2 9A69     		ldr	r2, [r3, #24]
 7258 02d4 FB69     		ldr	r3, [r7, #28]
 7259 02d6 1A44     		add	r2, r2, r3
 7260 02d8 7B68     		ldr	r3, [r7, #4]
 7261 02da 9A61     		str	r2, [r3, #24]
 7262 02dc 7B68     		ldr	r3, [r7, #4]
 7263 02de 1B7D     		ldrb	r3, [r3, #20]	@ zero_extendqisi2
 7264 02e0 03F00203 		and	r3, r3, #2
 7265 02e4 002B     		cmp	r3, #0
 7266 02e6 0BD0     		beq	.L635
 7267 02e8 7B68     		ldr	r3, [r7, #4]
 7268 02ea B96B     		ldr	r1, [r7, #56]
 7269 02ec 1846     		mov	r0, r3
 7270 02ee FFF7FEFF 		bl	create_chain
 7271 02f2 B863     		str	r0, [r7, #56]
 7272 02f4 BB6B     		ldr	r3, [r7, #56]
 7273 02f6 002B     		cmp	r3, #0
 7274 02f8 08D1     		bne	.L636
 7275 02fa 0023     		movs	r3, #0
 7276 02fc 3B60     		str	r3, [r7]
 7277 02fe 22E0     		b	.L637
 7278              	.L635:
 7279 0300 7B68     		ldr	r3, [r7, #4]
 7280 0302 B96B     		ldr	r1, [r7, #56]
 7281 0304 1846     		mov	r0, r3
 7282 0306 FFF7FEFF 		bl	get_fat
 7283 030a B863     		str	r0, [r7, #56]
 7284              	.L636:
 7285 030c BB6B     		ldr	r3, [r7, #56]
 7286 030e B3F1FF3F 		cmp	r3, #-1
 7287 0312 04D1     		bne	.L638
 7288 0314 7B68     		ldr	r3, [r7, #4]
 7289 0316 0122     		movs	r2, #1
 7290 0318 5A75     		strb	r2, [r3, #21]
 7291 031a 0123     		movs	r3, #1
 7292 031c 90E0     		b	.L647
 7293              	.L638:
 7294 031e BB6B     		ldr	r3, [r7, #56]
 7295 0320 012B     		cmp	r3, #1
 7296 0322 04D9     		bls	.L639
 7297 0324 BB68     		ldr	r3, [r7, #8]
 7298 0326 DB69     		ldr	r3, [r3, #28]
 7299 0328 BA6B     		ldr	r2, [r7, #56]
 7300 032a 9A42     		cmp	r2, r3
 7301 032c 04D3     		bcc	.L640
 7302              	.L639:
 7303 032e 7B68     		ldr	r3, [r7, #4]
 7304 0330 0222     		movs	r2, #2
 7305 0332 5A75     		strb	r2, [r3, #21]
 7306 0334 0223     		movs	r3, #2
 7307 0336 83E0     		b	.L647
 7308              	.L640:
 7309 0338 7B68     		ldr	r3, [r7, #4]
 7310 033a BA6B     		ldr	r2, [r7, #56]
 7311 033c DA61     		str	r2, [r3, #28]
 7312              	.L634:
 7313 033e 3A68     		ldr	r2, [r7]
ARM GAS  C:\Users\user\AppData\Local\Temp\ccnu1L5f.s 			page 128


 7314 0340 FB69     		ldr	r3, [r7, #28]
 7315 0342 9A42     		cmp	r2, r3
 7316 0344 C0D8     		bhi	.L641
 7317              	.L637:
 7318 0346 7B68     		ldr	r3, [r7, #4]
 7319 0348 9A69     		ldr	r2, [r3, #24]
 7320 034a 3B68     		ldr	r3, [r7]
 7321 034c 1A44     		add	r2, r2, r3
 7322 034e 7B68     		ldr	r3, [r7, #4]
 7323 0350 9A61     		str	r2, [r3, #24]
 7324 0352 BB68     		ldr	r3, [r7, #8]
 7325 0354 9B89     		ldrh	r3, [r3, #12]
 7326 0356 1A46     		mov	r2, r3
 7327 0358 3B68     		ldr	r3, [r7]
 7328 035a B3FBF2F1 		udiv	r1, r3, r2
 7329 035e 01FB02F2 		mul	r2, r1, r2
 7330 0362 9B1A     		subs	r3, r3, r2
 7331 0364 002B     		cmp	r3, #0
 7332 0366 16D0     		beq	.L628
 7333 0368 BB68     		ldr	r3, [r7, #8]
 7334 036a B96B     		ldr	r1, [r7, #56]
 7335 036c 1846     		mov	r0, r3
 7336 036e FFF7FEFF 		bl	clust2sect
 7337 0372 7863     		str	r0, [r7, #52]
 7338 0374 7B6B     		ldr	r3, [r7, #52]
 7339 0376 002B     		cmp	r3, #0
 7340 0378 04D1     		bne	.L642
 7341 037a 7B68     		ldr	r3, [r7, #4]
 7342 037c 0222     		movs	r2, #2
 7343 037e 5A75     		strb	r2, [r3, #21]
 7344 0380 0223     		movs	r3, #2
 7345 0382 5DE0     		b	.L647
 7346              	.L642:
 7347 0384 BB68     		ldr	r3, [r7, #8]
 7348 0386 9B89     		ldrh	r3, [r3, #12]
 7349 0388 1A46     		mov	r2, r3
 7350 038a 3B68     		ldr	r3, [r7]
 7351 038c B3FBF2F3 		udiv	r3, r3, r2
 7352 0390 7A6B     		ldr	r2, [r7, #52]
 7353 0392 1344     		add	r3, r3, r2
 7354 0394 7B63     		str	r3, [r7, #52]
 7355              	.L628:
 7356 0396 7B68     		ldr	r3, [r7, #4]
 7357 0398 9A69     		ldr	r2, [r3, #24]
 7358 039a 7B68     		ldr	r3, [r7, #4]
 7359 039c DB68     		ldr	r3, [r3, #12]
 7360 039e 9A42     		cmp	r2, r3
 7361 03a0 0AD9     		bls	.L643
 7362 03a2 7B68     		ldr	r3, [r7, #4]
 7363 03a4 9A69     		ldr	r2, [r3, #24]
 7364 03a6 7B68     		ldr	r3, [r7, #4]
 7365 03a8 DA60     		str	r2, [r3, #12]
 7366 03aa 7B68     		ldr	r3, [r7, #4]
 7367 03ac 1B7D     		ldrb	r3, [r3, #20]	@ zero_extendqisi2
 7368 03ae 43F04003 		orr	r3, r3, #64
 7369 03b2 DAB2     		uxtb	r2, r3
 7370 03b4 7B68     		ldr	r3, [r7, #4]
ARM GAS  C:\Users\user\AppData\Local\Temp\ccnu1L5f.s 			page 129


 7371 03b6 1A75     		strb	r2, [r3, #20]
 7372              	.L643:
 7373 03b8 7B68     		ldr	r3, [r7, #4]
 7374 03ba 9B69     		ldr	r3, [r3, #24]
 7375 03bc BA68     		ldr	r2, [r7, #8]
 7376 03be 9289     		ldrh	r2, [r2, #12]
 7377 03c0 B3FBF2F1 		udiv	r1, r3, r2
 7378 03c4 01FB02F2 		mul	r2, r1, r2
 7379 03c8 9B1A     		subs	r3, r3, r2
 7380 03ca 002B     		cmp	r3, #0
 7381 03cc 36D0     		beq	.L621
 7382 03ce 7B68     		ldr	r3, [r7, #4]
 7383 03d0 1B6A     		ldr	r3, [r3, #32]
 7384 03d2 7A6B     		ldr	r2, [r7, #52]
 7385 03d4 9A42     		cmp	r2, r3
 7386 03d6 31D0     		beq	.L621
 7387 03d8 7B68     		ldr	r3, [r7, #4]
 7388 03da 1B7D     		ldrb	r3, [r3, #20]	@ zero_extendqisi2
 7389 03dc 5BB2     		sxtb	r3, r3
 7390 03de 002B     		cmp	r3, #0
 7391 03e0 18DA     		bge	.L644
 7392 03e2 BB68     		ldr	r3, [r7, #8]
 7393 03e4 5878     		ldrb	r0, [r3, #1]	@ zero_extendqisi2
 7394 03e6 7B68     		ldr	r3, [r7, #4]
 7395 03e8 03F13001 		add	r1, r3, #48
 7396 03ec 7B68     		ldr	r3, [r7, #4]
 7397 03ee 1A6A     		ldr	r2, [r3, #32]
 7398 03f0 0123     		movs	r3, #1
 7399 03f2 FFF7FEFF 		bl	disk_write
 7400 03f6 0346     		mov	r3, r0
 7401 03f8 002B     		cmp	r3, #0
 7402 03fa 04D0     		beq	.L645
 7403 03fc 7B68     		ldr	r3, [r7, #4]
 7404 03fe 0122     		movs	r2, #1
 7405 0400 5A75     		strb	r2, [r3, #21]
 7406 0402 0123     		movs	r3, #1
 7407 0404 1CE0     		b	.L647
 7408              	.L645:
 7409 0406 7B68     		ldr	r3, [r7, #4]
 7410 0408 1B7D     		ldrb	r3, [r3, #20]	@ zero_extendqisi2
 7411 040a 03F07F03 		and	r3, r3, #127
 7412 040e DAB2     		uxtb	r2, r3
 7413 0410 7B68     		ldr	r3, [r7, #4]
 7414 0412 1A75     		strb	r2, [r3, #20]
 7415              	.L644:
 7416 0414 BB68     		ldr	r3, [r7, #8]
 7417 0416 5878     		ldrb	r0, [r3, #1]	@ zero_extendqisi2
 7418 0418 7B68     		ldr	r3, [r7, #4]
 7419 041a 03F13001 		add	r1, r3, #48
 7420 041e 0123     		movs	r3, #1
 7421 0420 7A6B     		ldr	r2, [r7, #52]
 7422 0422 FFF7FEFF 		bl	disk_read
 7423 0426 0346     		mov	r3, r0
 7424 0428 002B     		cmp	r3, #0
 7425 042a 04D0     		beq	.L646
 7426 042c 7B68     		ldr	r3, [r7, #4]
 7427 042e 0122     		movs	r2, #1
ARM GAS  C:\Users\user\AppData\Local\Temp\ccnu1L5f.s 			page 130


 7428 0430 5A75     		strb	r2, [r3, #21]
 7429 0432 0123     		movs	r3, #1
 7430 0434 04E0     		b	.L647
 7431              	.L646:
 7432 0436 7B68     		ldr	r3, [r7, #4]
 7433 0438 7A6B     		ldr	r2, [r7, #52]
 7434 043a 1A62     		str	r2, [r3, #32]
 7435              	.L621:
 7436 043c 97F83F30 		ldrb	r3, [r7, #63]	@ zero_extendqisi2
 7437              	.L647:
 7438 0440 1846     		mov	r0, r3
 7439 0442 4037     		adds	r7, r7, #64
 7440 0444 BD46     		mov	sp, r7
 7441              		@ sp needed
 7442 0446 80BD     		pop	{r7, pc}
 7444              		.section	.text.f_opendir,"ax",%progbits
 7445              		.align	1
 7446              		.global	f_opendir
 7447              		.syntax unified
 7448              		.thumb
 7449              		.thumb_func
 7451              	f_opendir:
 7452              		@ args = 0, pretend = 0, frame = 24
 7453              		@ frame_needed = 1, uses_anonymous_args = 0
 7454 0000 80B5     		push	{r7, lr}
 7455 0002 86B0     		sub	sp, sp, #24
 7456 0004 00AF     		add	r7, sp, #0
 7457 0006 7860     		str	r0, [r7, #4]
 7458 0008 3960     		str	r1, [r7]
 7459 000a 7B68     		ldr	r3, [r7, #4]
 7460 000c 002B     		cmp	r3, #0
 7461 000e 01D1     		bne	.L649
 7462 0010 0923     		movs	r3, #9
 7463 0012 64E0     		b	.L657
 7464              	.L649:
 7465 0014 7B68     		ldr	r3, [r7, #4]
 7466 0016 3B61     		str	r3, [r7, #16]
 7467 0018 07F10C01 		add	r1, r7, #12
 7468 001c 3B46     		mov	r3, r7
 7469 001e 0022     		movs	r2, #0
 7470 0020 1846     		mov	r0, r3
 7471 0022 FFF7FEFF 		bl	find_volume
 7472 0026 0346     		mov	r3, r0
 7473 0028 FB75     		strb	r3, [r7, #23]
 7474 002a FB7D     		ldrb	r3, [r7, #23]	@ zero_extendqisi2
 7475 002c 002B     		cmp	r3, #0
 7476 002e 4FD1     		bne	.L651
 7477 0030 FA68     		ldr	r2, [r7, #12]
 7478 0032 3B69     		ldr	r3, [r7, #16]
 7479 0034 1A60     		str	r2, [r3]
 7480 0036 3B68     		ldr	r3, [r7]
 7481 0038 1946     		mov	r1, r3
 7482 003a 7868     		ldr	r0, [r7, #4]
 7483 003c FFF7FEFF 		bl	follow_path
 7484 0040 0346     		mov	r3, r0
 7485 0042 FB75     		strb	r3, [r7, #23]
 7486 0044 FB7D     		ldrb	r3, [r7, #23]	@ zero_extendqisi2
ARM GAS  C:\Users\user\AppData\Local\Temp\ccnu1L5f.s 			page 131


 7487 0046 002B     		cmp	r3, #0
 7488 0048 3DD1     		bne	.L652
 7489 004a 7B68     		ldr	r3, [r7, #4]
 7490 004c 93F82F30 		ldrb	r3, [r3, #47]	@ zero_extendqisi2
 7491 0050 5BB2     		sxtb	r3, r3
 7492 0052 002B     		cmp	r3, #0
 7493 0054 12DB     		blt	.L653
 7494 0056 3B69     		ldr	r3, [r7, #16]
 7495 0058 9B79     		ldrb	r3, [r3, #6]	@ zero_extendqisi2
 7496 005a 03F01003 		and	r3, r3, #16
 7497 005e 002B     		cmp	r3, #0
 7498 0060 0AD0     		beq	.L654
 7499 0062 FA68     		ldr	r2, [r7, #12]
 7500 0064 7B68     		ldr	r3, [r7, #4]
 7501 0066 1B6A     		ldr	r3, [r3, #32]
 7502 0068 1946     		mov	r1, r3
 7503 006a 1046     		mov	r0, r2
 7504 006c FFF7FEFF 		bl	ld_clust
 7505 0070 0246     		mov	r2, r0
 7506 0072 3B69     		ldr	r3, [r7, #16]
 7507 0074 9A60     		str	r2, [r3, #8]
 7508 0076 01E0     		b	.L653
 7509              	.L654:
 7510 0078 0523     		movs	r3, #5
 7511 007a FB75     		strb	r3, [r7, #23]
 7512              	.L653:
 7513 007c FB7D     		ldrb	r3, [r7, #23]	@ zero_extendqisi2
 7514 007e 002B     		cmp	r3, #0
 7515 0080 21D1     		bne	.L652
 7516 0082 FB68     		ldr	r3, [r7, #12]
 7517 0084 DA88     		ldrh	r2, [r3, #6]
 7518 0086 3B69     		ldr	r3, [r7, #16]
 7519 0088 9A80     		strh	r2, [r3, #4]	@ movhi
 7520 008a 0021     		movs	r1, #0
 7521 008c 7868     		ldr	r0, [r7, #4]
 7522 008e FFF7FEFF 		bl	dir_sdi
 7523 0092 0346     		mov	r3, r0
 7524 0094 FB75     		strb	r3, [r7, #23]
 7525 0096 FB7D     		ldrb	r3, [r7, #23]	@ zero_extendqisi2
 7526 0098 002B     		cmp	r3, #0
 7527 009a 14D1     		bne	.L652
 7528 009c 3B69     		ldr	r3, [r7, #16]
 7529 009e 9B68     		ldr	r3, [r3, #8]
 7530 00a0 002B     		cmp	r3, #0
 7531 00a2 0DD0     		beq	.L655
 7532 00a4 0021     		movs	r1, #0
 7533 00a6 7868     		ldr	r0, [r7, #4]
 7534 00a8 FFF7FEFF 		bl	inc_lock
 7535 00ac 0246     		mov	r2, r0
 7536 00ae 3B69     		ldr	r3, [r7, #16]
 7537 00b0 1A61     		str	r2, [r3, #16]
 7538 00b2 3B69     		ldr	r3, [r7, #16]
 7539 00b4 1B69     		ldr	r3, [r3, #16]
 7540 00b6 002B     		cmp	r3, #0
 7541 00b8 05D1     		bne	.L652
 7542 00ba 1223     		movs	r3, #18
 7543 00bc FB75     		strb	r3, [r7, #23]
ARM GAS  C:\Users\user\AppData\Local\Temp\ccnu1L5f.s 			page 132


 7544 00be 02E0     		b	.L652
 7545              	.L655:
 7546 00c0 3B69     		ldr	r3, [r7, #16]
 7547 00c2 0022     		movs	r2, #0
 7548 00c4 1A61     		str	r2, [r3, #16]
 7549              	.L652:
 7550 00c6 FB7D     		ldrb	r3, [r7, #23]	@ zero_extendqisi2
 7551 00c8 042B     		cmp	r3, #4
 7552 00ca 01D1     		bne	.L651
 7553 00cc 0523     		movs	r3, #5
 7554 00ce FB75     		strb	r3, [r7, #23]
 7555              	.L651:
 7556 00d0 FB7D     		ldrb	r3, [r7, #23]	@ zero_extendqisi2
 7557 00d2 002B     		cmp	r3, #0
 7558 00d4 02D0     		beq	.L656
 7559 00d6 3B69     		ldr	r3, [r7, #16]
 7560 00d8 0022     		movs	r2, #0
 7561 00da 1A60     		str	r2, [r3]
 7562              	.L656:
 7563 00dc FB7D     		ldrb	r3, [r7, #23]	@ zero_extendqisi2
 7564              	.L657:
 7565 00de 1846     		mov	r0, r3
 7566 00e0 1837     		adds	r7, r7, #24
 7567 00e2 BD46     		mov	sp, r7
 7568              		@ sp needed
 7569 00e4 80BD     		pop	{r7, pc}
 7571              		.section	.text.f_closedir,"ax",%progbits
 7572              		.align	1
 7573              		.global	f_closedir
 7574              		.syntax unified
 7575              		.thumb
 7576              		.thumb_func
 7578              	f_closedir:
 7579              		@ args = 0, pretend = 0, frame = 16
 7580              		@ frame_needed = 1, uses_anonymous_args = 0
 7581 0000 80B5     		push	{r7, lr}
 7582 0002 84B0     		sub	sp, sp, #16
 7583 0004 00AF     		add	r7, sp, #0
 7584 0006 7860     		str	r0, [r7, #4]
 7585 0008 7B68     		ldr	r3, [r7, #4]
 7586 000a 07F10802 		add	r2, r7, #8
 7587 000e 1146     		mov	r1, r2
 7588 0010 1846     		mov	r0, r3
 7589 0012 FFF7FEFF 		bl	validate
 7590 0016 0346     		mov	r3, r0
 7591 0018 FB73     		strb	r3, [r7, #15]
 7592 001a FB7B     		ldrb	r3, [r7, #15]	@ zero_extendqisi2
 7593 001c 002B     		cmp	r3, #0
 7594 001e 10D1     		bne	.L659
 7595 0020 7B68     		ldr	r3, [r7, #4]
 7596 0022 1B69     		ldr	r3, [r3, #16]
 7597 0024 002B     		cmp	r3, #0
 7598 0026 06D0     		beq	.L660
 7599 0028 7B68     		ldr	r3, [r7, #4]
 7600 002a 1B69     		ldr	r3, [r3, #16]
 7601 002c 1846     		mov	r0, r3
 7602 002e FFF7FEFF 		bl	dec_lock
ARM GAS  C:\Users\user\AppData\Local\Temp\ccnu1L5f.s 			page 133


 7603 0032 0346     		mov	r3, r0
 7604 0034 FB73     		strb	r3, [r7, #15]
 7605              	.L660:
 7606 0036 FB7B     		ldrb	r3, [r7, #15]	@ zero_extendqisi2
 7607 0038 002B     		cmp	r3, #0
 7608 003a 02D1     		bne	.L659
 7609 003c 7B68     		ldr	r3, [r7, #4]
 7610 003e 0022     		movs	r2, #0
 7611 0040 1A60     		str	r2, [r3]
 7612              	.L659:
 7613 0042 FB7B     		ldrb	r3, [r7, #15]	@ zero_extendqisi2
 7614 0044 1846     		mov	r0, r3
 7615 0046 1037     		adds	r7, r7, #16
 7616 0048 BD46     		mov	sp, r7
 7617              		@ sp needed
 7618 004a 80BD     		pop	{r7, pc}
 7620              		.section	.text.f_readdir,"ax",%progbits
 7621              		.align	1
 7622              		.global	f_readdir
 7623              		.syntax unified
 7624              		.thumb
 7625              		.thumb_func
 7627              	f_readdir:
 7628              		@ args = 0, pretend = 0, frame = 16
 7629              		@ frame_needed = 1, uses_anonymous_args = 0
 7630 0000 80B5     		push	{r7, lr}
 7631 0002 84B0     		sub	sp, sp, #16
 7632 0004 00AF     		add	r7, sp, #0
 7633 0006 7860     		str	r0, [r7, #4]
 7634 0008 3960     		str	r1, [r7]
 7635 000a 7B68     		ldr	r3, [r7, #4]
 7636 000c 07F10802 		add	r2, r7, #8
 7637 0010 1146     		mov	r1, r2
 7638 0012 1846     		mov	r0, r3
 7639 0014 FFF7FEFF 		bl	validate
 7640 0018 0346     		mov	r3, r0
 7641 001a FB73     		strb	r3, [r7, #15]
 7642 001c FB7B     		ldrb	r3, [r7, #15]	@ zero_extendqisi2
 7643 001e 002B     		cmp	r3, #0
 7644 0020 26D1     		bne	.L663
 7645 0022 3B68     		ldr	r3, [r7]
 7646 0024 002B     		cmp	r3, #0
 7647 0026 06D1     		bne	.L664
 7648 0028 0021     		movs	r1, #0
 7649 002a 7868     		ldr	r0, [r7, #4]
 7650 002c FFF7FEFF 		bl	dir_sdi
 7651 0030 0346     		mov	r3, r0
 7652 0032 FB73     		strb	r3, [r7, #15]
 7653 0034 1CE0     		b	.L663
 7654              	.L664:
 7655 0036 0021     		movs	r1, #0
 7656 0038 7868     		ldr	r0, [r7, #4]
 7657 003a FFF7FEFF 		bl	dir_read
 7658 003e 0346     		mov	r3, r0
 7659 0040 FB73     		strb	r3, [r7, #15]
 7660 0042 FB7B     		ldrb	r3, [r7, #15]	@ zero_extendqisi2
 7661 0044 042B     		cmp	r3, #4
ARM GAS  C:\Users\user\AppData\Local\Temp\ccnu1L5f.s 			page 134


 7662 0046 01D1     		bne	.L665
 7663 0048 0023     		movs	r3, #0
 7664 004a FB73     		strb	r3, [r7, #15]
 7665              	.L665:
 7666 004c FB7B     		ldrb	r3, [r7, #15]	@ zero_extendqisi2
 7667 004e 002B     		cmp	r3, #0
 7668 0050 0ED1     		bne	.L663
 7669 0052 3968     		ldr	r1, [r7]
 7670 0054 7868     		ldr	r0, [r7, #4]
 7671 0056 FFF7FEFF 		bl	get_fileinfo
 7672 005a 0021     		movs	r1, #0
 7673 005c 7868     		ldr	r0, [r7, #4]
 7674 005e FFF7FEFF 		bl	dir_next
 7675 0062 0346     		mov	r3, r0
 7676 0064 FB73     		strb	r3, [r7, #15]
 7677 0066 FB7B     		ldrb	r3, [r7, #15]	@ zero_extendqisi2
 7678 0068 042B     		cmp	r3, #4
 7679 006a 01D1     		bne	.L663
 7680 006c 0023     		movs	r3, #0
 7681 006e FB73     		strb	r3, [r7, #15]
 7682              	.L663:
 7683 0070 FB7B     		ldrb	r3, [r7, #15]	@ zero_extendqisi2
 7684 0072 1846     		mov	r0, r3
 7685 0074 1037     		adds	r7, r7, #16
 7686 0076 BD46     		mov	sp, r7
 7687              		@ sp needed
 7688 0078 80BD     		pop	{r7, pc}
 7690              		.section	.text.f_stat,"ax",%progbits
 7691              		.align	1
 7692              		.global	f_stat
 7693              		.syntax unified
 7694              		.thumb
 7695              		.thumb_func
 7697              	f_stat:
 7698              		@ args = 0, pretend = 0, frame = 64
 7699              		@ frame_needed = 1, uses_anonymous_args = 0
 7700 0000 80B5     		push	{r7, lr}
 7701 0002 90B0     		sub	sp, sp, #64
 7702 0004 00AF     		add	r7, sp, #0
 7703 0006 7860     		str	r0, [r7, #4]
 7704 0008 3960     		str	r1, [r7]
 7705 000a 07F10801 		add	r1, r7, #8
 7706 000e 3B1D     		adds	r3, r7, #4
 7707 0010 0022     		movs	r2, #0
 7708 0012 1846     		mov	r0, r3
 7709 0014 FFF7FEFF 		bl	find_volume
 7710 0018 0346     		mov	r3, r0
 7711 001a 87F83F30 		strb	r3, [r7, #63]
 7712 001e 97F83F30 		ldrb	r3, [r7, #63]	@ zero_extendqisi2
 7713 0022 002B     		cmp	r3, #0
 7714 0024 1FD1     		bne	.L668
 7715 0026 7A68     		ldr	r2, [r7, #4]
 7716 0028 07F10803 		add	r3, r7, #8
 7717 002c 1146     		mov	r1, r2
 7718 002e 1846     		mov	r0, r3
 7719 0030 FFF7FEFF 		bl	follow_path
 7720 0034 0346     		mov	r3, r0
ARM GAS  C:\Users\user\AppData\Local\Temp\ccnu1L5f.s 			page 135


 7721 0036 87F83F30 		strb	r3, [r7, #63]
 7722 003a 97F83F30 		ldrb	r3, [r7, #63]	@ zero_extendqisi2
 7723 003e 002B     		cmp	r3, #0
 7724 0040 11D1     		bne	.L668
 7725 0042 97F83730 		ldrb	r3, [r7, #55]	@ zero_extendqisi2
 7726 0046 5BB2     		sxtb	r3, r3
 7727 0048 002B     		cmp	r3, #0
 7728 004a 03DA     		bge	.L669
 7729 004c 0623     		movs	r3, #6
 7730 004e 87F83F30 		strb	r3, [r7, #63]
 7731 0052 08E0     		b	.L668
 7732              	.L669:
 7733 0054 3B68     		ldr	r3, [r7]
 7734 0056 002B     		cmp	r3, #0
 7735 0058 05D0     		beq	.L668
 7736 005a 07F10803 		add	r3, r7, #8
 7737 005e 3968     		ldr	r1, [r7]
 7738 0060 1846     		mov	r0, r3
 7739 0062 FFF7FEFF 		bl	get_fileinfo
 7740              	.L668:
 7741 0066 97F83F30 		ldrb	r3, [r7, #63]	@ zero_extendqisi2
 7742 006a 1846     		mov	r0, r3
 7743 006c 4037     		adds	r7, r7, #64
 7744 006e BD46     		mov	sp, r7
 7745              		@ sp needed
 7746 0070 80BD     		pop	{r7, pc}
 7748              		.section	.text.f_getfree,"ax",%progbits
 7749              		.align	1
 7750              		.global	f_getfree
 7751              		.syntax unified
 7752              		.thumb
 7753              		.thumb_func
 7755              	f_getfree:
 7756              		@ args = 0, pretend = 0, frame = 72
 7757              		@ frame_needed = 1, uses_anonymous_args = 0
 7758 0000 80B5     		push	{r7, lr}
 7759 0002 92B0     		sub	sp, sp, #72
 7760 0004 00AF     		add	r7, sp, #0
 7761 0006 F860     		str	r0, [r7, #12]
 7762 0008 B960     		str	r1, [r7, #8]
 7763 000a 7A60     		str	r2, [r7, #4]
 7764 000c 07F12801 		add	r1, r7, #40
 7765 0010 07F10C03 		add	r3, r7, #12
 7766 0014 0022     		movs	r2, #0
 7767 0016 1846     		mov	r0, r3
 7768 0018 FFF7FEFF 		bl	find_volume
 7769 001c 0346     		mov	r3, r0
 7770 001e 87F84730 		strb	r3, [r7, #71]
 7771 0022 97F84730 		ldrb	r3, [r7, #71]	@ zero_extendqisi2
 7772 0026 002B     		cmp	r3, #0
 7773 0028 40F09980 		bne	.L672
 7774 002c BA6A     		ldr	r2, [r7, #40]
 7775 002e 7B68     		ldr	r3, [r7, #4]
 7776 0030 1A60     		str	r2, [r3]
 7777 0032 BB6A     		ldr	r3, [r7, #40]
 7778 0034 9A69     		ldr	r2, [r3, #24]
 7779 0036 BB6A     		ldr	r3, [r7, #40]
ARM GAS  C:\Users\user\AppData\Local\Temp\ccnu1L5f.s 			page 136


 7780 0038 DB69     		ldr	r3, [r3, #28]
 7781 003a 023B     		subs	r3, r3, #2
 7782 003c 9A42     		cmp	r2, r3
 7783 003e 04D8     		bhi	.L673
 7784 0040 BB6A     		ldr	r3, [r7, #40]
 7785 0042 9A69     		ldr	r2, [r3, #24]
 7786 0044 BB68     		ldr	r3, [r7, #8]
 7787 0046 1A60     		str	r2, [r3]
 7788 0048 89E0     		b	.L672
 7789              	.L673:
 7790 004a 0023     		movs	r3, #0
 7791 004c 3B64     		str	r3, [r7, #64]
 7792 004e BB6A     		ldr	r3, [r7, #40]
 7793 0050 1B78     		ldrb	r3, [r3]	@ zero_extendqisi2
 7794 0052 012B     		cmp	r3, #1
 7795 0054 28D1     		bne	.L674
 7796 0056 0223     		movs	r3, #2
 7797 0058 FB63     		str	r3, [r7, #60]
 7798 005a BB6A     		ldr	r3, [r7, #40]
 7799 005c 7B61     		str	r3, [r7, #20]
 7800              	.L679:
 7801 005e 07F11403 		add	r3, r7, #20
 7802 0062 F96B     		ldr	r1, [r7, #60]
 7803 0064 1846     		mov	r0, r3
 7804 0066 FFF7FEFF 		bl	get_fat
 7805 006a F862     		str	r0, [r7, #44]
 7806 006c FB6A     		ldr	r3, [r7, #44]
 7807 006e B3F1FF3F 		cmp	r3, #-1
 7808 0072 03D1     		bne	.L675
 7809 0074 0123     		movs	r3, #1
 7810 0076 87F84730 		strb	r3, [r7, #71]
 7811 007a 63E0     		b	.L680
 7812              	.L675:
 7813 007c FB6A     		ldr	r3, [r7, #44]
 7814 007e 012B     		cmp	r3, #1
 7815 0080 03D1     		bne	.L677
 7816 0082 0223     		movs	r3, #2
 7817 0084 87F84730 		strb	r3, [r7, #71]
 7818 0088 5CE0     		b	.L680
 7819              	.L677:
 7820 008a FB6A     		ldr	r3, [r7, #44]
 7821 008c 002B     		cmp	r3, #0
 7822 008e 02D1     		bne	.L678
 7823 0090 3B6C     		ldr	r3, [r7, #64]
 7824 0092 0133     		adds	r3, r3, #1
 7825 0094 3B64     		str	r3, [r7, #64]
 7826              	.L678:
 7827 0096 FB6B     		ldr	r3, [r7, #60]
 7828 0098 0133     		adds	r3, r3, #1
 7829 009a FB63     		str	r3, [r7, #60]
 7830 009c BB6A     		ldr	r3, [r7, #40]
 7831 009e DB69     		ldr	r3, [r3, #28]
 7832 00a0 FA6B     		ldr	r2, [r7, #60]
 7833 00a2 9A42     		cmp	r2, r3
 7834 00a4 DBD3     		bcc	.L679
 7835 00a6 4DE0     		b	.L680
 7836              	.L674:
ARM GAS  C:\Users\user\AppData\Local\Temp\ccnu1L5f.s 			page 137


 7837 00a8 BB6A     		ldr	r3, [r7, #40]
 7838 00aa DB69     		ldr	r3, [r3, #28]
 7839 00ac FB63     		str	r3, [r7, #60]
 7840 00ae BB6A     		ldr	r3, [r7, #40]
 7841 00b0 9B6A     		ldr	r3, [r3, #40]
 7842 00b2 BB63     		str	r3, [r7, #56]
 7843 00b4 0023     		movs	r3, #0
 7844 00b6 7B63     		str	r3, [r7, #52]
 7845 00b8 0023     		movs	r3, #0
 7846 00ba 3B63     		str	r3, [r7, #48]
 7847              	.L687:
 7848 00bc 7B6B     		ldr	r3, [r7, #52]
 7849 00be 002B     		cmp	r3, #0
 7850 00c0 13D1     		bne	.L681
 7851 00c2 B86A     		ldr	r0, [r7, #40]
 7852 00c4 BB6B     		ldr	r3, [r7, #56]
 7853 00c6 5A1C     		adds	r2, r3, #1
 7854 00c8 BA63     		str	r2, [r7, #56]
 7855 00ca 1946     		mov	r1, r3
 7856 00cc FFF7FEFF 		bl	move_window
 7857 00d0 0346     		mov	r3, r0
 7858 00d2 87F84730 		strb	r3, [r7, #71]
 7859 00d6 97F84730 		ldrb	r3, [r7, #71]	@ zero_extendqisi2
 7860 00da 002B     		cmp	r3, #0
 7861 00dc 31D1     		bne	.L689
 7862 00de BB6A     		ldr	r3, [r7, #40]
 7863 00e0 3833     		adds	r3, r3, #56
 7864 00e2 3B63     		str	r3, [r7, #48]
 7865 00e4 BB6A     		ldr	r3, [r7, #40]
 7866 00e6 9B89     		ldrh	r3, [r3, #12]
 7867 00e8 7B63     		str	r3, [r7, #52]
 7868              	.L681:
 7869 00ea BB6A     		ldr	r3, [r7, #40]
 7870 00ec 1B78     		ldrb	r3, [r3]	@ zero_extendqisi2
 7871 00ee 022B     		cmp	r3, #2
 7872 00f0 0FD1     		bne	.L683
 7873 00f2 386B     		ldr	r0, [r7, #48]
 7874 00f4 FFF7FEFF 		bl	ld_word
 7875 00f8 0346     		mov	r3, r0
 7876 00fa 002B     		cmp	r3, #0
 7877 00fc 02D1     		bne	.L684
 7878 00fe 3B6C     		ldr	r3, [r7, #64]
 7879 0100 0133     		adds	r3, r3, #1
 7880 0102 3B64     		str	r3, [r7, #64]
 7881              	.L684:
 7882 0104 3B6B     		ldr	r3, [r7, #48]
 7883 0106 0233     		adds	r3, r3, #2
 7884 0108 3B63     		str	r3, [r7, #48]
 7885 010a 7B6B     		ldr	r3, [r7, #52]
 7886 010c 023B     		subs	r3, r3, #2
 7887 010e 7B63     		str	r3, [r7, #52]
 7888 0110 10E0     		b	.L685
 7889              	.L683:
 7890 0112 386B     		ldr	r0, [r7, #48]
 7891 0114 FFF7FEFF 		bl	ld_dword
 7892 0118 0346     		mov	r3, r0
 7893 011a 23F07043 		bic	r3, r3, #-268435456
ARM GAS  C:\Users\user\AppData\Local\Temp\ccnu1L5f.s 			page 138


 7894 011e 002B     		cmp	r3, #0
 7895 0120 02D1     		bne	.L686
 7896 0122 3B6C     		ldr	r3, [r7, #64]
 7897 0124 0133     		adds	r3, r3, #1
 7898 0126 3B64     		str	r3, [r7, #64]
 7899              	.L686:
 7900 0128 3B6B     		ldr	r3, [r7, #48]
 7901 012a 0433     		adds	r3, r3, #4
 7902 012c 3B63     		str	r3, [r7, #48]
 7903 012e 7B6B     		ldr	r3, [r7, #52]
 7904 0130 043B     		subs	r3, r3, #4
 7905 0132 7B63     		str	r3, [r7, #52]
 7906              	.L685:
 7907 0134 FB6B     		ldr	r3, [r7, #60]
 7908 0136 013B     		subs	r3, r3, #1
 7909 0138 FB63     		str	r3, [r7, #60]
 7910 013a FB6B     		ldr	r3, [r7, #60]
 7911 013c 002B     		cmp	r3, #0
 7912 013e BDD1     		bne	.L687
 7913 0140 00E0     		b	.L680
 7914              	.L689:
 7915 0142 00BF     		nop
 7916              	.L680:
 7917 0144 BB68     		ldr	r3, [r7, #8]
 7918 0146 3A6C     		ldr	r2, [r7, #64]
 7919 0148 1A60     		str	r2, [r3]
 7920 014a BB6A     		ldr	r3, [r7, #40]
 7921 014c 3A6C     		ldr	r2, [r7, #64]
 7922 014e 9A61     		str	r2, [r3, #24]
 7923 0150 BB6A     		ldr	r3, [r7, #40]
 7924 0152 1A79     		ldrb	r2, [r3, #4]	@ zero_extendqisi2
 7925 0154 BB6A     		ldr	r3, [r7, #40]
 7926 0156 42F00102 		orr	r2, r2, #1
 7927 015a D2B2     		uxtb	r2, r2
 7928 015c 1A71     		strb	r2, [r3, #4]
 7929              	.L672:
 7930 015e 97F84730 		ldrb	r3, [r7, #71]	@ zero_extendqisi2
 7931 0162 1846     		mov	r0, r3
 7932 0164 4837     		adds	r7, r7, #72
 7933 0166 BD46     		mov	sp, r7
 7934              		@ sp needed
 7935 0168 80BD     		pop	{r7, pc}
 7937              		.section	.text.f_truncate,"ax",%progbits
 7938              		.align	1
 7939              		.global	f_truncate
 7940              		.syntax unified
 7941              		.thumb
 7942              		.thumb_func
 7944              	f_truncate:
 7945              		@ args = 0, pretend = 0, frame = 24
 7946              		@ frame_needed = 1, uses_anonymous_args = 0
 7947 0000 80B5     		push	{r7, lr}
 7948 0002 86B0     		sub	sp, sp, #24
 7949 0004 00AF     		add	r7, sp, #0
 7950 0006 7860     		str	r0, [r7, #4]
 7951 0008 7B68     		ldr	r3, [r7, #4]
 7952 000a 07F10C02 		add	r2, r7, #12
ARM GAS  C:\Users\user\AppData\Local\Temp\ccnu1L5f.s 			page 139


 7953 000e 1146     		mov	r1, r2
 7954 0010 1846     		mov	r0, r3
 7955 0012 FFF7FEFF 		bl	validate
 7956 0016 0346     		mov	r3, r0
 7957 0018 FB75     		strb	r3, [r7, #23]
 7958 001a FB7D     		ldrb	r3, [r7, #23]	@ zero_extendqisi2
 7959 001c 002B     		cmp	r3, #0
 7960 001e 05D1     		bne	.L691
 7961 0020 7B68     		ldr	r3, [r7, #4]
 7962 0022 5B7D     		ldrb	r3, [r3, #21]
 7963 0024 FB75     		strb	r3, [r7, #23]
 7964 0026 FB7D     		ldrb	r3, [r7, #23]	@ zero_extendqisi2
 7965 0028 002B     		cmp	r3, #0
 7966 002a 01D0     		beq	.L692
 7967              	.L691:
 7968 002c FB7D     		ldrb	r3, [r7, #23]	@ zero_extendqisi2
 7969 002e 77E0     		b	.L702
 7970              	.L692:
 7971 0030 7B68     		ldr	r3, [r7, #4]
 7972 0032 1B7D     		ldrb	r3, [r3, #20]	@ zero_extendqisi2
 7973 0034 03F00203 		and	r3, r3, #2
 7974 0038 002B     		cmp	r3, #0
 7975 003a 01D1     		bne	.L694
 7976 003c 0723     		movs	r3, #7
 7977 003e 6FE0     		b	.L702
 7978              	.L694:
 7979 0040 7B68     		ldr	r3, [r7, #4]
 7980 0042 9A69     		ldr	r2, [r3, #24]
 7981 0044 7B68     		ldr	r3, [r7, #4]
 7982 0046 DB68     		ldr	r3, [r3, #12]
 7983 0048 9A42     		cmp	r2, r3
 7984 004a 68D2     		bcs	.L695
 7985 004c 7B68     		ldr	r3, [r7, #4]
 7986 004e 9B69     		ldr	r3, [r3, #24]
 7987 0050 002B     		cmp	r3, #0
 7988 0052 0CD1     		bne	.L696
 7989 0054 7868     		ldr	r0, [r7, #4]
 7990 0056 7B68     		ldr	r3, [r7, #4]
 7991 0058 9B68     		ldr	r3, [r3, #8]
 7992 005a 0022     		movs	r2, #0
 7993 005c 1946     		mov	r1, r3
 7994 005e FFF7FEFF 		bl	remove_chain
 7995 0062 0346     		mov	r3, r0
 7996 0064 FB75     		strb	r3, [r7, #23]
 7997 0066 7B68     		ldr	r3, [r7, #4]
 7998 0068 0022     		movs	r2, #0
 7999 006a 9A60     		str	r2, [r3, #8]
 8000 006c 25E0     		b	.L697
 8001              	.L696:
 8002 006e 7A68     		ldr	r2, [r7, #4]
 8003 0070 7B68     		ldr	r3, [r7, #4]
 8004 0072 DB69     		ldr	r3, [r3, #28]
 8005 0074 1946     		mov	r1, r3
 8006 0076 1046     		mov	r0, r2
 8007 0078 FFF7FEFF 		bl	get_fat
 8008 007c 3861     		str	r0, [r7, #16]
 8009 007e 0023     		movs	r3, #0
ARM GAS  C:\Users\user\AppData\Local\Temp\ccnu1L5f.s 			page 140


 8010 0080 FB75     		strb	r3, [r7, #23]
 8011 0082 3B69     		ldr	r3, [r7, #16]
 8012 0084 B3F1FF3F 		cmp	r3, #-1
 8013 0088 01D1     		bne	.L698
 8014 008a 0123     		movs	r3, #1
 8015 008c FB75     		strb	r3, [r7, #23]
 8016              	.L698:
 8017 008e 3B69     		ldr	r3, [r7, #16]
 8018 0090 012B     		cmp	r3, #1
 8019 0092 01D1     		bne	.L699
 8020 0094 0223     		movs	r3, #2
 8021 0096 FB75     		strb	r3, [r7, #23]
 8022              	.L699:
 8023 0098 FB7D     		ldrb	r3, [r7, #23]	@ zero_extendqisi2
 8024 009a 002B     		cmp	r3, #0
 8025 009c 0DD1     		bne	.L697
 8026 009e FB68     		ldr	r3, [r7, #12]
 8027 00a0 DB69     		ldr	r3, [r3, #28]
 8028 00a2 3A69     		ldr	r2, [r7, #16]
 8029 00a4 9A42     		cmp	r2, r3
 8030 00a6 08D2     		bcs	.L697
 8031 00a8 7868     		ldr	r0, [r7, #4]
 8032 00aa 7B68     		ldr	r3, [r7, #4]
 8033 00ac DB69     		ldr	r3, [r3, #28]
 8034 00ae 1A46     		mov	r2, r3
 8035 00b0 3969     		ldr	r1, [r7, #16]
 8036 00b2 FFF7FEFF 		bl	remove_chain
 8037 00b6 0346     		mov	r3, r0
 8038 00b8 FB75     		strb	r3, [r7, #23]
 8039              	.L697:
 8040 00ba 7B68     		ldr	r3, [r7, #4]
 8041 00bc 9A69     		ldr	r2, [r3, #24]
 8042 00be 7B68     		ldr	r3, [r7, #4]
 8043 00c0 DA60     		str	r2, [r3, #12]
 8044 00c2 7B68     		ldr	r3, [r7, #4]
 8045 00c4 1B7D     		ldrb	r3, [r3, #20]	@ zero_extendqisi2
 8046 00c6 43F04003 		orr	r3, r3, #64
 8047 00ca DAB2     		uxtb	r2, r3
 8048 00cc 7B68     		ldr	r3, [r7, #4]
 8049 00ce 1A75     		strb	r2, [r3, #20]
 8050 00d0 FB7D     		ldrb	r3, [r7, #23]	@ zero_extendqisi2
 8051 00d2 002B     		cmp	r3, #0
 8052 00d4 1BD1     		bne	.L700
 8053 00d6 7B68     		ldr	r3, [r7, #4]
 8054 00d8 1B7D     		ldrb	r3, [r3, #20]	@ zero_extendqisi2
 8055 00da 5BB2     		sxtb	r3, r3
 8056 00dc 002B     		cmp	r3, #0
 8057 00de 16DA     		bge	.L700
 8058 00e0 FB68     		ldr	r3, [r7, #12]
 8059 00e2 5878     		ldrb	r0, [r3, #1]	@ zero_extendqisi2
 8060 00e4 7B68     		ldr	r3, [r7, #4]
 8061 00e6 03F13001 		add	r1, r3, #48
 8062 00ea 7B68     		ldr	r3, [r7, #4]
 8063 00ec 1A6A     		ldr	r2, [r3, #32]
 8064 00ee 0123     		movs	r3, #1
 8065 00f0 FFF7FEFF 		bl	disk_write
 8066 00f4 0346     		mov	r3, r0
ARM GAS  C:\Users\user\AppData\Local\Temp\ccnu1L5f.s 			page 141


 8067 00f6 002B     		cmp	r3, #0
 8068 00f8 02D0     		beq	.L701
 8069 00fa 0123     		movs	r3, #1
 8070 00fc FB75     		strb	r3, [r7, #23]
 8071 00fe 06E0     		b	.L700
 8072              	.L701:
 8073 0100 7B68     		ldr	r3, [r7, #4]
 8074 0102 1B7D     		ldrb	r3, [r3, #20]	@ zero_extendqisi2
 8075 0104 03F07F03 		and	r3, r3, #127
 8076 0108 DAB2     		uxtb	r2, r3
 8077 010a 7B68     		ldr	r3, [r7, #4]
 8078 010c 1A75     		strb	r2, [r3, #20]
 8079              	.L700:
 8080 010e FB7D     		ldrb	r3, [r7, #23]	@ zero_extendqisi2
 8081 0110 002B     		cmp	r3, #0
 8082 0112 04D0     		beq	.L695
 8083 0114 7B68     		ldr	r3, [r7, #4]
 8084 0116 FA7D     		ldrb	r2, [r7, #23]
 8085 0118 5A75     		strb	r2, [r3, #21]
 8086 011a FB7D     		ldrb	r3, [r7, #23]	@ zero_extendqisi2
 8087 011c 00E0     		b	.L702
 8088              	.L695:
 8089 011e FB7D     		ldrb	r3, [r7, #23]	@ zero_extendqisi2
 8090              	.L702:
 8091 0120 1846     		mov	r0, r3
 8092 0122 1837     		adds	r7, r7, #24
 8093 0124 BD46     		mov	sp, r7
 8094              		@ sp needed
 8095 0126 80BD     		pop	{r7, pc}
 8097              		.section	.text.f_unlink,"ax",%progbits
 8098              		.align	1
 8099              		.global	f_unlink
 8100              		.syntax unified
 8101              		.thumb
 8102              		.thumb_func
 8104              	f_unlink:
 8105              		@ args = 0, pretend = 0, frame = 128
 8106              		@ frame_needed = 1, uses_anonymous_args = 0
 8107 0000 80B5     		push	{r7, lr}
 8108 0002 A0B0     		sub	sp, sp, #128
 8109 0004 00AF     		add	r7, sp, #0
 8110 0006 7860     		str	r0, [r7, #4]
 8111 0008 0023     		movs	r3, #0
 8112 000a BB67     		str	r3, [r7, #120]
 8113 000c 07F10C01 		add	r1, r7, #12
 8114 0010 3B1D     		adds	r3, r7, #4
 8115 0012 0222     		movs	r2, #2
 8116 0014 1846     		mov	r0, r3
 8117 0016 FFF7FEFF 		bl	find_volume
 8118 001a 0346     		mov	r3, r0
 8119 001c 87F87F30 		strb	r3, [r7, #127]
 8120 0020 FB68     		ldr	r3, [r7, #12]
 8121 0022 7B64     		str	r3, [r7, #68]
 8122 0024 97F87F30 		ldrb	r3, [r7, #127]	@ zero_extendqisi2
 8123 0028 002B     		cmp	r3, #0
 8124 002a 40F08E80 		bne	.L704
 8125 002e 7A68     		ldr	r2, [r7, #4]
ARM GAS  C:\Users\user\AppData\Local\Temp\ccnu1L5f.s 			page 142


 8126 0030 07F14403 		add	r3, r7, #68
 8127 0034 1146     		mov	r1, r2
 8128 0036 1846     		mov	r0, r3
 8129 0038 FFF7FEFF 		bl	follow_path
 8130 003c 0346     		mov	r3, r0
 8131 003e 87F87F30 		strb	r3, [r7, #127]
 8132 0042 97F87F30 		ldrb	r3, [r7, #127]	@ zero_extendqisi2
 8133 0046 002B     		cmp	r3, #0
 8134 0048 08D1     		bne	.L705
 8135 004a 07F14403 		add	r3, r7, #68
 8136 004e 0221     		movs	r1, #2
 8137 0050 1846     		mov	r0, r3
 8138 0052 FFF7FEFF 		bl	chk_lock
 8139 0056 0346     		mov	r3, r0
 8140 0058 87F87F30 		strb	r3, [r7, #127]
 8141              	.L705:
 8142 005c 97F87F30 		ldrb	r3, [r7, #127]	@ zero_extendqisi2
 8143 0060 002B     		cmp	r3, #0
 8144 0062 72D1     		bne	.L704
 8145 0064 97F87330 		ldrb	r3, [r7, #115]	@ zero_extendqisi2
 8146 0068 5BB2     		sxtb	r3, r3
 8147 006a 002B     		cmp	r3, #0
 8148 006c 03DA     		bge	.L706
 8149 006e 0623     		movs	r3, #6
 8150 0070 87F87F30 		strb	r3, [r7, #127]
 8151 0074 08E0     		b	.L707
 8152              	.L706:
 8153 0076 97F84A30 		ldrb	r3, [r7, #74]	@ zero_extendqisi2
 8154 007a 03F00103 		and	r3, r3, #1
 8155 007e 002B     		cmp	r3, #0
 8156 0080 02D0     		beq	.L707
 8157 0082 0723     		movs	r3, #7
 8158 0084 87F87F30 		strb	r3, [r7, #127]
 8159              	.L707:
 8160 0088 97F87F30 		ldrb	r3, [r7, #127]	@ zero_extendqisi2
 8161 008c 002B     		cmp	r3, #0
 8162 008e 34D1     		bne	.L708
 8163 0090 FB68     		ldr	r3, [r7, #12]
 8164 0092 7A6E     		ldr	r2, [r7, #100]
 8165 0094 1146     		mov	r1, r2
 8166 0096 1846     		mov	r0, r3
 8167 0098 FFF7FEFF 		bl	ld_clust
 8168 009c B867     		str	r0, [r7, #120]
 8169 009e 97F84A30 		ldrb	r3, [r7, #74]	@ zero_extendqisi2
 8170 00a2 03F01003 		and	r3, r3, #16
 8171 00a6 002B     		cmp	r3, #0
 8172 00a8 27D0     		beq	.L708
 8173 00aa FB68     		ldr	r3, [r7, #12]
 8174 00ac 3B61     		str	r3, [r7, #16]
 8175 00ae BB6F     		ldr	r3, [r7, #120]
 8176 00b0 BB61     		str	r3, [r7, #24]
 8177 00b2 07F11003 		add	r3, r7, #16
 8178 00b6 0021     		movs	r1, #0
 8179 00b8 1846     		mov	r0, r3
 8180 00ba FFF7FEFF 		bl	dir_sdi
 8181 00be 0346     		mov	r3, r0
 8182 00c0 87F87F30 		strb	r3, [r7, #127]
ARM GAS  C:\Users\user\AppData\Local\Temp\ccnu1L5f.s 			page 143


 8183 00c4 97F87F30 		ldrb	r3, [r7, #127]	@ zero_extendqisi2
 8184 00c8 002B     		cmp	r3, #0
 8185 00ca 16D1     		bne	.L708
 8186 00cc 07F11003 		add	r3, r7, #16
 8187 00d0 0021     		movs	r1, #0
 8188 00d2 1846     		mov	r0, r3
 8189 00d4 FFF7FEFF 		bl	dir_read
 8190 00d8 0346     		mov	r3, r0
 8191 00da 87F87F30 		strb	r3, [r7, #127]
 8192 00de 97F87F30 		ldrb	r3, [r7, #127]	@ zero_extendqisi2
 8193 00e2 002B     		cmp	r3, #0
 8194 00e4 02D1     		bne	.L709
 8195 00e6 0723     		movs	r3, #7
 8196 00e8 87F87F30 		strb	r3, [r7, #127]
 8197              	.L709:
 8198 00ec 97F87F30 		ldrb	r3, [r7, #127]	@ zero_extendqisi2
 8199 00f0 042B     		cmp	r3, #4
 8200 00f2 02D1     		bne	.L708
 8201 00f4 0023     		movs	r3, #0
 8202 00f6 87F87F30 		strb	r3, [r7, #127]
 8203              	.L708:
 8204 00fa 97F87F30 		ldrb	r3, [r7, #127]	@ zero_extendqisi2
 8205 00fe 002B     		cmp	r3, #0
 8206 0100 23D1     		bne	.L704
 8207 0102 07F14403 		add	r3, r7, #68
 8208 0106 1846     		mov	r0, r3
 8209 0108 FFF7FEFF 		bl	dir_remove
 8210 010c 0346     		mov	r3, r0
 8211 010e 87F87F30 		strb	r3, [r7, #127]
 8212 0112 97F87F30 		ldrb	r3, [r7, #127]	@ zero_extendqisi2
 8213 0116 002B     		cmp	r3, #0
 8214 0118 0CD1     		bne	.L710
 8215 011a BB6F     		ldr	r3, [r7, #120]
 8216 011c 002B     		cmp	r3, #0
 8217 011e 09D0     		beq	.L710
 8218 0120 07F14403 		add	r3, r7, #68
 8219 0124 0022     		movs	r2, #0
 8220 0126 B96F     		ldr	r1, [r7, #120]
 8221 0128 1846     		mov	r0, r3
 8222 012a FFF7FEFF 		bl	remove_chain
 8223 012e 0346     		mov	r3, r0
 8224 0130 87F87F30 		strb	r3, [r7, #127]
 8225              	.L710:
 8226 0134 97F87F30 		ldrb	r3, [r7, #127]	@ zero_extendqisi2
 8227 0138 002B     		cmp	r3, #0
 8228 013a 06D1     		bne	.L704
 8229 013c FB68     		ldr	r3, [r7, #12]
 8230 013e 1846     		mov	r0, r3
 8231 0140 FFF7FEFF 		bl	sync_fs
 8232 0144 0346     		mov	r3, r0
 8233 0146 87F87F30 		strb	r3, [r7, #127]
 8234              	.L704:
 8235 014a 97F87F30 		ldrb	r3, [r7, #127]	@ zero_extendqisi2
 8236 014e 1846     		mov	r0, r3
 8237 0150 8037     		adds	r7, r7, #128
 8238 0152 BD46     		mov	sp, r7
 8239              		@ sp needed
ARM GAS  C:\Users\user\AppData\Local\Temp\ccnu1L5f.s 			page 144


 8240 0154 80BD     		pop	{r7, pc}
 8242              		.section	.text.f_mkdir,"ax",%progbits
 8243              		.align	1
 8244              		.global	f_mkdir
 8245              		.syntax unified
 8246              		.thumb
 8247              		.thumb_func
 8249              	f_mkdir:
 8250              		@ args = 0, pretend = 0, frame = 96
 8251              		@ frame_needed = 1, uses_anonymous_args = 0
 8252 0000 80B5     		push	{r7, lr}
 8253 0002 98B0     		sub	sp, sp, #96
 8254 0004 00AF     		add	r7, sp, #0
 8255 0006 7860     		str	r0, [r7, #4]
 8256 0008 07F10C01 		add	r1, r7, #12
 8257 000c 3B1D     		adds	r3, r7, #4
 8258 000e 0222     		movs	r2, #2
 8259 0010 1846     		mov	r0, r3
 8260 0012 FFF7FEFF 		bl	find_volume
 8261 0016 0346     		mov	r3, r0
 8262 0018 87F85F30 		strb	r3, [r7, #95]
 8263 001c FB68     		ldr	r3, [r7, #12]
 8264 001e 3B61     		str	r3, [r7, #16]
 8265 0020 97F85F30 		ldrb	r3, [r7, #95]	@ zero_extendqisi2
 8266 0024 002B     		cmp	r3, #0
 8267 0026 40F0F280 		bne	.L713
 8268 002a 7A68     		ldr	r2, [r7, #4]
 8269 002c 07F11003 		add	r3, r7, #16
 8270 0030 1146     		mov	r1, r2
 8271 0032 1846     		mov	r0, r3
 8272 0034 FFF7FEFF 		bl	follow_path
 8273 0038 0346     		mov	r3, r0
 8274 003a 87F85F30 		strb	r3, [r7, #95]
 8275 003e 97F85F30 		ldrb	r3, [r7, #95]	@ zero_extendqisi2
 8276 0042 002B     		cmp	r3, #0
 8277 0044 02D1     		bne	.L714
 8278 0046 0823     		movs	r3, #8
 8279 0048 87F85F30 		strb	r3, [r7, #95]
 8280              	.L714:
 8281 004c 97F85F30 		ldrb	r3, [r7, #95]	@ zero_extendqisi2
 8282 0050 042B     		cmp	r3, #4
 8283 0052 40F0DC80 		bne	.L713
 8284 0056 07F11003 		add	r3, r7, #16
 8285 005a 0021     		movs	r1, #0
 8286 005c 1846     		mov	r0, r3
 8287 005e FFF7FEFF 		bl	create_chain
 8288 0062 F864     		str	r0, [r7, #76]
 8289 0064 FB68     		ldr	r3, [r7, #12]
 8290 0066 5B89     		ldrh	r3, [r3, #10]
 8291 0068 1A46     		mov	r2, r3
 8292 006a FB68     		ldr	r3, [r7, #12]
 8293 006c 9B89     		ldrh	r3, [r3, #12]
 8294 006e 02FB03F3 		mul	r3, r2, r3
 8295 0072 FB61     		str	r3, [r7, #28]
 8296 0074 0023     		movs	r3, #0
 8297 0076 87F85F30 		strb	r3, [r7, #95]
 8298 007a FB6C     		ldr	r3, [r7, #76]
ARM GAS  C:\Users\user\AppData\Local\Temp\ccnu1L5f.s 			page 145


 8299 007c 002B     		cmp	r3, #0
 8300 007e 02D1     		bne	.L715
 8301 0080 0723     		movs	r3, #7
 8302 0082 87F85F30 		strb	r3, [r7, #95]
 8303              	.L715:
 8304 0086 FB6C     		ldr	r3, [r7, #76]
 8305 0088 012B     		cmp	r3, #1
 8306 008a 02D1     		bne	.L716
 8307 008c 0223     		movs	r3, #2
 8308 008e 87F85F30 		strb	r3, [r7, #95]
 8309              	.L716:
 8310 0092 FB6C     		ldr	r3, [r7, #76]
 8311 0094 B3F1FF3F 		cmp	r3, #-1
 8312 0098 02D1     		bne	.L717
 8313 009a 0123     		movs	r3, #1
 8314 009c 87F85F30 		strb	r3, [r7, #95]
 8315              	.L717:
 8316 00a0 97F85F30 		ldrb	r3, [r7, #95]	@ zero_extendqisi2
 8317 00a4 002B     		cmp	r3, #0
 8318 00a6 06D1     		bne	.L718
 8319 00a8 FB68     		ldr	r3, [r7, #12]
 8320 00aa 1846     		mov	r0, r3
 8321 00ac FFF7FEFF 		bl	sync_window
 8322 00b0 0346     		mov	r3, r0
 8323 00b2 87F85F30 		strb	r3, [r7, #95]
 8324              	.L718:
 8325 00b6 FFF7FEFF 		bl	get_fattime
 8326 00ba B864     		str	r0, [r7, #72]
 8327 00bc 97F85F30 		ldrb	r3, [r7, #95]	@ zero_extendqisi2
 8328 00c0 002B     		cmp	r3, #0
 8329 00c2 6CD1     		bne	.L719
 8330 00c4 FB68     		ldr	r3, [r7, #12]
 8331 00c6 F96C     		ldr	r1, [r7, #76]
 8332 00c8 1846     		mov	r0, r3
 8333 00ca FFF7FEFF 		bl	clust2sect
 8334 00ce 7865     		str	r0, [r7, #84]
 8335 00d0 FB68     		ldr	r3, [r7, #12]
 8336 00d2 3833     		adds	r3, r3, #56
 8337 00d4 7B64     		str	r3, [r7, #68]
 8338 00d6 FB68     		ldr	r3, [r7, #12]
 8339 00d8 9B89     		ldrh	r3, [r3, #12]
 8340 00da 1A46     		mov	r2, r3
 8341 00dc 0021     		movs	r1, #0
 8342 00de 786C     		ldr	r0, [r7, #68]
 8343 00e0 FFF7FEFF 		bl	mem_set
 8344 00e4 0B22     		movs	r2, #11
 8345 00e6 2021     		movs	r1, #32
 8346 00e8 786C     		ldr	r0, [r7, #68]
 8347 00ea FFF7FEFF 		bl	mem_set
 8348 00ee 7B6C     		ldr	r3, [r7, #68]
 8349 00f0 2E22     		movs	r2, #46
 8350 00f2 1A70     		strb	r2, [r3]
 8351 00f4 7B6C     		ldr	r3, [r7, #68]
 8352 00f6 0B33     		adds	r3, r3, #11
 8353 00f8 1022     		movs	r2, #16
 8354 00fa 1A70     		strb	r2, [r3]
 8355 00fc 7B6C     		ldr	r3, [r7, #68]
ARM GAS  C:\Users\user\AppData\Local\Temp\ccnu1L5f.s 			page 146


 8356 00fe 1633     		adds	r3, r3, #22
 8357 0100 B96C     		ldr	r1, [r7, #72]
 8358 0102 1846     		mov	r0, r3
 8359 0104 FFF7FEFF 		bl	st_dword
 8360 0108 FB68     		ldr	r3, [r7, #12]
 8361 010a FA6C     		ldr	r2, [r7, #76]
 8362 010c 796C     		ldr	r1, [r7, #68]
 8363 010e 1846     		mov	r0, r3
 8364 0110 FFF7FEFF 		bl	st_clust
 8365 0114 7B6C     		ldr	r3, [r7, #68]
 8366 0116 2033     		adds	r3, r3, #32
 8367 0118 2022     		movs	r2, #32
 8368 011a 796C     		ldr	r1, [r7, #68]
 8369 011c 1846     		mov	r0, r3
 8370 011e FFF7FEFF 		bl	mem_cpy
 8371 0122 7B6C     		ldr	r3, [r7, #68]
 8372 0124 2133     		adds	r3, r3, #33
 8373 0126 2E22     		movs	r2, #46
 8374 0128 1A70     		strb	r2, [r3]
 8375 012a BB69     		ldr	r3, [r7, #24]
 8376 012c 3B65     		str	r3, [r7, #80]
 8377 012e FB68     		ldr	r3, [r7, #12]
 8378 0130 1B78     		ldrb	r3, [r3]	@ zero_extendqisi2
 8379 0132 032B     		cmp	r3, #3
 8380 0134 06D1     		bne	.L720
 8381 0136 FB68     		ldr	r3, [r7, #12]
 8382 0138 DB6A     		ldr	r3, [r3, #44]
 8383 013a 3A6D     		ldr	r2, [r7, #80]
 8384 013c 9A42     		cmp	r2, r3
 8385 013e 01D1     		bne	.L720
 8386 0140 0023     		movs	r3, #0
 8387 0142 3B65     		str	r3, [r7, #80]
 8388              	.L720:
 8389 0144 F868     		ldr	r0, [r7, #12]
 8390 0146 7B6C     		ldr	r3, [r7, #68]
 8391 0148 2033     		adds	r3, r3, #32
 8392 014a 3A6D     		ldr	r2, [r7, #80]
 8393 014c 1946     		mov	r1, r3
 8394 014e FFF7FEFF 		bl	st_clust
 8395 0152 FB68     		ldr	r3, [r7, #12]
 8396 0154 5B89     		ldrh	r3, [r3, #10]
 8397 0156 BB65     		str	r3, [r7, #88]
 8398 0158 1CE0     		b	.L721
 8399              	.L723:
 8400 015a 7B6D     		ldr	r3, [r7, #84]
 8401 015c 5A1C     		adds	r2, r3, #1
 8402 015e 7A65     		str	r2, [r7, #84]
 8403 0160 FA68     		ldr	r2, [r7, #12]
 8404 0162 5363     		str	r3, [r2, #52]
 8405 0164 FB68     		ldr	r3, [r7, #12]
 8406 0166 0122     		movs	r2, #1
 8407 0168 DA70     		strb	r2, [r3, #3]
 8408 016a FB68     		ldr	r3, [r7, #12]
 8409 016c 1846     		mov	r0, r3
 8410 016e FFF7FEFF 		bl	sync_window
 8411 0172 0346     		mov	r3, r0
 8412 0174 87F85F30 		strb	r3, [r7, #95]
ARM GAS  C:\Users\user\AppData\Local\Temp\ccnu1L5f.s 			page 147


 8413 0178 97F85F30 		ldrb	r3, [r7, #95]	@ zero_extendqisi2
 8414 017c 002B     		cmp	r3, #0
 8415 017e 0DD1     		bne	.L727
 8416 0180 FB68     		ldr	r3, [r7, #12]
 8417 0182 9B89     		ldrh	r3, [r3, #12]
 8418 0184 1A46     		mov	r2, r3
 8419 0186 0021     		movs	r1, #0
 8420 0188 786C     		ldr	r0, [r7, #68]
 8421 018a FFF7FEFF 		bl	mem_set
 8422 018e BB6D     		ldr	r3, [r7, #88]
 8423 0190 013B     		subs	r3, r3, #1
 8424 0192 BB65     		str	r3, [r7, #88]
 8425              	.L721:
 8426 0194 BB6D     		ldr	r3, [r7, #88]
 8427 0196 002B     		cmp	r3, #0
 8428 0198 DFD1     		bne	.L723
 8429 019a 00E0     		b	.L719
 8430              	.L727:
 8431 019c 00BF     		nop
 8432              	.L719:
 8433 019e 97F85F30 		ldrb	r3, [r7, #95]	@ zero_extendqisi2
 8434 01a2 002B     		cmp	r3, #0
 8435 01a4 07D1     		bne	.L724
 8436 01a6 07F11003 		add	r3, r7, #16
 8437 01aa 1846     		mov	r0, r3
 8438 01ac FFF7FEFF 		bl	dir_register
 8439 01b0 0346     		mov	r3, r0
 8440 01b2 87F85F30 		strb	r3, [r7, #95]
 8441              	.L724:
 8442 01b6 97F85F30 		ldrb	r3, [r7, #95]	@ zero_extendqisi2
 8443 01ba 002B     		cmp	r3, #0
 8444 01bc 20D1     		bne	.L725
 8445 01be 3B6B     		ldr	r3, [r7, #48]
 8446 01c0 7B64     		str	r3, [r7, #68]
 8447 01c2 7B6C     		ldr	r3, [r7, #68]
 8448 01c4 1633     		adds	r3, r3, #22
 8449 01c6 B96C     		ldr	r1, [r7, #72]
 8450 01c8 1846     		mov	r0, r3
 8451 01ca FFF7FEFF 		bl	st_dword
 8452 01ce FB68     		ldr	r3, [r7, #12]
 8453 01d0 FA6C     		ldr	r2, [r7, #76]
 8454 01d2 796C     		ldr	r1, [r7, #68]
 8455 01d4 1846     		mov	r0, r3
 8456 01d6 FFF7FEFF 		bl	st_clust
 8457 01da 7B6C     		ldr	r3, [r7, #68]
 8458 01dc 0B33     		adds	r3, r3, #11
 8459 01de 1022     		movs	r2, #16
 8460 01e0 1A70     		strb	r2, [r3]
 8461 01e2 FB68     		ldr	r3, [r7, #12]
 8462 01e4 0122     		movs	r2, #1
 8463 01e6 DA70     		strb	r2, [r3, #3]
 8464 01e8 97F85F30 		ldrb	r3, [r7, #95]	@ zero_extendqisi2
 8465 01ec 002B     		cmp	r3, #0
 8466 01ee 0ED1     		bne	.L713
 8467 01f0 FB68     		ldr	r3, [r7, #12]
 8468 01f2 1846     		mov	r0, r3
 8469 01f4 FFF7FEFF 		bl	sync_fs
ARM GAS  C:\Users\user\AppData\Local\Temp\ccnu1L5f.s 			page 148


 8470 01f8 0346     		mov	r3, r0
 8471 01fa 87F85F30 		strb	r3, [r7, #95]
 8472 01fe 06E0     		b	.L713
 8473              	.L725:
 8474 0200 07F11003 		add	r3, r7, #16
 8475 0204 0022     		movs	r2, #0
 8476 0206 F96C     		ldr	r1, [r7, #76]
 8477 0208 1846     		mov	r0, r3
 8478 020a FFF7FEFF 		bl	remove_chain
 8479              	.L713:
 8480 020e 97F85F30 		ldrb	r3, [r7, #95]	@ zero_extendqisi2
 8481 0212 1846     		mov	r0, r3
 8482 0214 6037     		adds	r7, r7, #96
 8483 0216 BD46     		mov	sp, r7
 8484              		@ sp needed
 8485 0218 80BD     		pop	{r7, pc}
 8487              		.section	.text.f_rename,"ax",%progbits
 8488              		.align	1
 8489              		.global	f_rename
 8490              		.syntax unified
 8491              		.thumb
 8492              		.thumb_func
 8494              	f_rename:
 8495              		@ args = 0, pretend = 0, frame = 152
 8496              		@ frame_needed = 1, uses_anonymous_args = 0
 8497 0000 90B5     		push	{r4, r7, lr}
 8498 0002 A7B0     		sub	sp, sp, #156
 8499 0004 00AF     		add	r7, sp, #0
 8500 0006 7860     		str	r0, [r7, #4]
 8501 0008 3960     		str	r1, [r7]
 8502 000a 3B46     		mov	r3, r7
 8503 000c 1846     		mov	r0, r3
 8504 000e FFF7FEFF 		bl	get_ldnumber
 8505 0012 07F12001 		add	r1, r7, #32
 8506 0016 3B1D     		adds	r3, r7, #4
 8507 0018 0222     		movs	r2, #2
 8508 001a 1846     		mov	r0, r3
 8509 001c FFF7FEFF 		bl	find_volume
 8510 0020 0346     		mov	r3, r0
 8511 0022 87F89730 		strb	r3, [r7, #151]
 8512 0026 97F89730 		ldrb	r3, [r7, #151]	@ zero_extendqisi2
 8513 002a 002B     		cmp	r3, #0
 8514 002c 40F0DB80 		bne	.L729
 8515 0030 3B6A     		ldr	r3, [r7, #32]
 8516 0032 BB65     		str	r3, [r7, #88]
 8517 0034 7A68     		ldr	r2, [r7, #4]
 8518 0036 07F15803 		add	r3, r7, #88
 8519 003a 1146     		mov	r1, r2
 8520 003c 1846     		mov	r0, r3
 8521 003e FFF7FEFF 		bl	follow_path
 8522 0042 0346     		mov	r3, r0
 8523 0044 87F89730 		strb	r3, [r7, #151]
 8524 0048 97F89730 		ldrb	r3, [r7, #151]	@ zero_extendqisi2
 8525 004c 002B     		cmp	r3, #0
 8526 004e 08D1     		bne	.L730
 8527 0050 97F88730 		ldrb	r3, [r7, #135]	@ zero_extendqisi2
 8528 0054 03F0A003 		and	r3, r3, #160
ARM GAS  C:\Users\user\AppData\Local\Temp\ccnu1L5f.s 			page 149


 8529 0058 002B     		cmp	r3, #0
 8530 005a 02D0     		beq	.L730
 8531 005c 0623     		movs	r3, #6
 8532 005e 87F89730 		strb	r3, [r7, #151]
 8533              	.L730:
 8534 0062 97F89730 		ldrb	r3, [r7, #151]	@ zero_extendqisi2
 8535 0066 002B     		cmp	r3, #0
 8536 0068 08D1     		bne	.L731
 8537 006a 07F15803 		add	r3, r7, #88
 8538 006e 0221     		movs	r1, #2
 8539 0070 1846     		mov	r0, r3
 8540 0072 FFF7FEFF 		bl	chk_lock
 8541 0076 0346     		mov	r3, r0
 8542 0078 87F89730 		strb	r3, [r7, #151]
 8543              	.L731:
 8544 007c 97F89730 		ldrb	r3, [r7, #151]	@ zero_extendqisi2
 8545 0080 002B     		cmp	r3, #0
 8546 0082 40F0B080 		bne	.L729
 8547 0086 BB6F     		ldr	r3, [r7, #120]
 8548 0088 03F10B01 		add	r1, r3, #11
 8549 008c 07F10803 		add	r3, r7, #8
 8550 0090 1522     		movs	r2, #21
 8551 0092 1846     		mov	r0, r3
 8552 0094 FFF7FEFF 		bl	mem_cpy
 8553 0098 07F15801 		add	r1, r7, #88
 8554 009c 07F12403 		add	r3, r7, #36
 8555 00a0 3422     		movs	r2, #52
 8556 00a2 1846     		mov	r0, r3
 8557 00a4 FFF7FEFF 		bl	mem_cpy
 8558 00a8 3A68     		ldr	r2, [r7]
 8559 00aa 07F12403 		add	r3, r7, #36
 8560 00ae 1146     		mov	r1, r2
 8561 00b0 1846     		mov	r0, r3
 8562 00b2 FFF7FEFF 		bl	follow_path
 8563 00b6 0346     		mov	r3, r0
 8564 00b8 87F89730 		strb	r3, [r7, #151]
 8565 00bc 97F89730 		ldrb	r3, [r7, #151]	@ zero_extendqisi2
 8566 00c0 002B     		cmp	r3, #0
 8567 00c2 0CD1     		bne	.L732
 8568 00c4 FA6A     		ldr	r2, [r7, #44]
 8569 00c6 3B6E     		ldr	r3, [r7, #96]
 8570 00c8 9A42     		cmp	r2, r3
 8571 00ca 05D1     		bne	.L733
 8572 00cc BA6B     		ldr	r2, [r7, #56]
 8573 00ce FB6E     		ldr	r3, [r7, #108]
 8574 00d0 9A42     		cmp	r2, r3
 8575 00d2 01D1     		bne	.L733
 8576 00d4 0423     		movs	r3, #4
 8577 00d6 00E0     		b	.L734
 8578              	.L733:
 8579 00d8 0823     		movs	r3, #8
 8580              	.L734:
 8581 00da 87F89730 		strb	r3, [r7, #151]
 8582              	.L732:
 8583 00de 97F89730 		ldrb	r3, [r7, #151]	@ zero_extendqisi2
 8584 00e2 042B     		cmp	r3, #4
 8585 00e4 68D1     		bne	.L735
ARM GAS  C:\Users\user\AppData\Local\Temp\ccnu1L5f.s 			page 150


 8586 00e6 07F12403 		add	r3, r7, #36
 8587 00ea 1846     		mov	r0, r3
 8588 00ec FFF7FEFF 		bl	dir_register
 8589 00f0 0346     		mov	r3, r0
 8590 00f2 87F89730 		strb	r3, [r7, #151]
 8591 00f6 97F89730 		ldrb	r3, [r7, #151]	@ zero_extendqisi2
 8592 00fa 002B     		cmp	r3, #0
 8593 00fc 5CD1     		bne	.L735
 8594 00fe 7B6C     		ldr	r3, [r7, #68]
 8595 0100 C7F89030 		str	r3, [r7, #144]
 8596 0104 D7F89030 		ldr	r3, [r7, #144]
 8597 0108 03F10D00 		add	r0, r3, #13
 8598 010c 07F10803 		add	r3, r7, #8
 8599 0110 0233     		adds	r3, r3, #2
 8600 0112 1322     		movs	r2, #19
 8601 0114 1946     		mov	r1, r3
 8602 0116 FFF7FEFF 		bl	mem_cpy
 8603 011a 3A7A     		ldrb	r2, [r7, #8]	@ zero_extendqisi2
 8604 011c D7F89030 		ldr	r3, [r7, #144]
 8605 0120 0B33     		adds	r3, r3, #11
 8606 0122 42F02002 		orr	r2, r2, #32
 8607 0126 D2B2     		uxtb	r2, r2
 8608 0128 1A70     		strb	r2, [r3]
 8609 012a 3B6A     		ldr	r3, [r7, #32]
 8610 012c 0122     		movs	r2, #1
 8611 012e DA70     		strb	r2, [r3, #3]
 8612 0130 D7F89030 		ldr	r3, [r7, #144]
 8613 0134 0B33     		adds	r3, r3, #11
 8614 0136 1B78     		ldrb	r3, [r3]	@ zero_extendqisi2
 8615 0138 03F01003 		and	r3, r3, #16
 8616 013c 002B     		cmp	r3, #0
 8617 013e 3BD0     		beq	.L735
 8618 0140 3A6E     		ldr	r2, [r7, #96]
 8619 0142 FB6A     		ldr	r3, [r7, #44]
 8620 0144 9A42     		cmp	r2, r3
 8621 0146 37D0     		beq	.L735
 8622 0148 3C6A     		ldr	r4, [r7, #32]
 8623 014a 3B6A     		ldr	r3, [r7, #32]
 8624 014c D7F89010 		ldr	r1, [r7, #144]
 8625 0150 1846     		mov	r0, r3
 8626 0152 FFF7FEFF 		bl	ld_clust
 8627 0156 0346     		mov	r3, r0
 8628 0158 1946     		mov	r1, r3
 8629 015a 2046     		mov	r0, r4
 8630 015c FFF7FEFF 		bl	clust2sect
 8631 0160 C7F88C00 		str	r0, [r7, #140]
 8632 0164 D7F88C30 		ldr	r3, [r7, #140]
 8633 0168 002B     		cmp	r3, #0
 8634 016a 03D1     		bne	.L736
 8635 016c 0223     		movs	r3, #2
 8636 016e 87F89730 		strb	r3, [r7, #151]
 8637 0172 21E0     		b	.L735
 8638              	.L736:
 8639 0174 3B6A     		ldr	r3, [r7, #32]
 8640 0176 D7F88C10 		ldr	r1, [r7, #140]
 8641 017a 1846     		mov	r0, r3
 8642 017c FFF7FEFF 		bl	move_window
ARM GAS  C:\Users\user\AppData\Local\Temp\ccnu1L5f.s 			page 151


 8643 0180 0346     		mov	r3, r0
 8644 0182 87F89730 		strb	r3, [r7, #151]
 8645 0186 3B6A     		ldr	r3, [r7, #32]
 8646 0188 3833     		adds	r3, r3, #56
 8647 018a 2033     		adds	r3, r3, #32
 8648 018c C7F89030 		str	r3, [r7, #144]
 8649 0190 97F89730 		ldrb	r3, [r7, #151]	@ zero_extendqisi2
 8650 0194 002B     		cmp	r3, #0
 8651 0196 0FD1     		bne	.L735
 8652 0198 D7F89030 		ldr	r3, [r7, #144]
 8653 019c 0133     		adds	r3, r3, #1
 8654 019e 1B78     		ldrb	r3, [r3]	@ zero_extendqisi2
 8655 01a0 2E2B     		cmp	r3, #46
 8656 01a2 09D1     		bne	.L735
 8657 01a4 3B6A     		ldr	r3, [r7, #32]
 8658 01a6 FA6A     		ldr	r2, [r7, #44]
 8659 01a8 D7F89010 		ldr	r1, [r7, #144]
 8660 01ac 1846     		mov	r0, r3
 8661 01ae FFF7FEFF 		bl	st_clust
 8662 01b2 3B6A     		ldr	r3, [r7, #32]
 8663 01b4 0122     		movs	r2, #1
 8664 01b6 DA70     		strb	r2, [r3, #3]
 8665              	.L735:
 8666 01b8 97F89730 		ldrb	r3, [r7, #151]	@ zero_extendqisi2
 8667 01bc 002B     		cmp	r3, #0
 8668 01be 12D1     		bne	.L729
 8669 01c0 07F15803 		add	r3, r7, #88
 8670 01c4 1846     		mov	r0, r3
 8671 01c6 FFF7FEFF 		bl	dir_remove
 8672 01ca 0346     		mov	r3, r0
 8673 01cc 87F89730 		strb	r3, [r7, #151]
 8674 01d0 97F89730 		ldrb	r3, [r7, #151]	@ zero_extendqisi2
 8675 01d4 002B     		cmp	r3, #0
 8676 01d6 06D1     		bne	.L729
 8677 01d8 3B6A     		ldr	r3, [r7, #32]
 8678 01da 1846     		mov	r0, r3
 8679 01dc FFF7FEFF 		bl	sync_fs
 8680 01e0 0346     		mov	r3, r0
 8681 01e2 87F89730 		strb	r3, [r7, #151]
 8682              	.L729:
 8683 01e6 97F89730 		ldrb	r3, [r7, #151]	@ zero_extendqisi2
 8684 01ea 1846     		mov	r0, r3
 8685 01ec 9C37     		adds	r7, r7, #156
 8686 01ee BD46     		mov	sp, r7
 8687              		@ sp needed
 8688 01f0 90BD     		pop	{r4, r7, pc}
 8690              		.section	.rodata
 8691 0013 00       		.align	2
 8692              	.LC2:
 8693 0014 EBFE904D 		.ascii	"\353\376\220MSDOS5.0\000"
 8693      53444F53 
 8693      352E3000 
 8694              		.align	2
 8695              	.LC3:
 8696 0020 4E4F204E 		.ascii	"NO NAME    FAT32   \000"
 8696      414D4520 
 8696      20202046 
ARM GAS  C:\Users\user\AppData\Local\Temp\ccnu1L5f.s 			page 152


 8696      41543332 
 8696      20202000 
 8697              		.align	2
 8698              	.LC4:
 8699 0034 4E4F204E 		.ascii	"NO NAME    FAT     \000"
 8699      414D4520 
 8699      20202046 
 8699      41542020 
 8699      20202000 
 8700              		.section	.text.f_mkfs,"ax",%progbits
 8701              		.align	1
 8702              		.global	f_mkfs
 8703              		.syntax unified
 8704              		.thumb
 8705              		.thumb_func
 8707              	f_mkfs:
 8708              		@ args = 4, pretend = 0, frame = 112
 8709              		@ frame_needed = 1, uses_anonymous_args = 0
 8710 0000 90B5     		push	{r4, r7, lr}
 8711 0002 9DB0     		sub	sp, sp, #116
 8712 0004 00AF     		add	r7, sp, #0
 8713 0006 F860     		str	r0, [r7, #12]
 8714 0008 7A60     		str	r2, [r7, #4]
 8715 000a 3B60     		str	r3, [r7]
 8716 000c 0B46     		mov	r3, r1
 8717 000e FB72     		strb	r3, [r7, #11]
 8718 0010 0123     		movs	r3, #1
 8719 0012 7B64     		str	r3, [r7, #68]
 8720 0014 4FF40073 		mov	r3, #512
 8721 0018 3B64     		str	r3, [r7, #64]
 8722 001a 07F10C03 		add	r3, r7, #12
 8723 001e 1846     		mov	r0, r3
 8724 0020 FFF7FEFF 		bl	get_ldnumber
 8725 0024 F863     		str	r0, [r7, #60]
 8726 0026 FB6B     		ldr	r3, [r7, #60]
 8727 0028 002B     		cmp	r3, #0
 8728 002a 02DA     		bge	.L739
 8729 002c 0B23     		movs	r3, #11
 8730 002e 00F031BC 		b	.L816
 8731              	.L739:
 8732 0032 A54A     		ldr	r2, .L821
 8733 0034 FB6B     		ldr	r3, [r7, #60]
 8734 0036 52F82330 		ldr	r3, [r2, r3, lsl #2]
 8735 003a 002B     		cmp	r3, #0
 8736 003c 05D0     		beq	.L741
 8737 003e A24A     		ldr	r2, .L821
 8738 0040 FB6B     		ldr	r3, [r7, #60]
 8739 0042 52F82330 		ldr	r3, [r2, r3, lsl #2]
 8740 0046 0022     		movs	r2, #0
 8741 0048 1A70     		strb	r2, [r3]
 8742              	.L741:
 8743 004a FB6B     		ldr	r3, [r7, #60]
 8744 004c 87F83B30 		strb	r3, [r7, #59]
 8745 0050 0023     		movs	r3, #0
 8746 0052 87F83A30 		strb	r3, [r7, #58]
 8747 0056 97F83B30 		ldrb	r3, [r7, #59]	@ zero_extendqisi2
 8748 005a 1846     		mov	r0, r3
ARM GAS  C:\Users\user\AppData\Local\Temp\ccnu1L5f.s 			page 153


 8749 005c FFF7FEFF 		bl	disk_initialize
 8750 0060 0346     		mov	r3, r0
 8751 0062 87F83930 		strb	r3, [r7, #57]
 8752 0066 97F83930 		ldrb	r3, [r7, #57]	@ zero_extendqisi2
 8753 006a 03F00103 		and	r3, r3, #1
 8754 006e 002B     		cmp	r3, #0
 8755 0070 02D0     		beq	.L742
 8756 0072 0323     		movs	r3, #3
 8757 0074 00F00EBC 		b	.L816
 8758              	.L742:
 8759 0078 97F83930 		ldrb	r3, [r7, #57]	@ zero_extendqisi2
 8760 007c 03F00403 		and	r3, r3, #4
 8761 0080 002B     		cmp	r3, #0
 8762 0082 02D0     		beq	.L743
 8763 0084 0A23     		movs	r3, #10
 8764 0086 00F005BC 		b	.L816
 8765              	.L743:
 8766 008a 07F11402 		add	r2, r7, #20
 8767 008e 97F83B30 		ldrb	r3, [r7, #59]	@ zero_extendqisi2
 8768 0092 0321     		movs	r1, #3
 8769 0094 1846     		mov	r0, r3
 8770 0096 FFF7FEFF 		bl	disk_ioctl
 8771 009a 0346     		mov	r3, r0
 8772 009c 002B     		cmp	r3, #0
 8773 009e 0CD1     		bne	.L744
 8774 00a0 7B69     		ldr	r3, [r7, #20]
 8775 00a2 002B     		cmp	r3, #0
 8776 00a4 09D0     		beq	.L744
 8777 00a6 7B69     		ldr	r3, [r7, #20]
 8778 00a8 B3F5004F 		cmp	r3, #32768
 8779 00ac 05D8     		bhi	.L744
 8780 00ae 7B69     		ldr	r3, [r7, #20]
 8781 00b0 5A1E     		subs	r2, r3, #1
 8782 00b2 7B69     		ldr	r3, [r7, #20]
 8783 00b4 1340     		ands	r3, r3, r2
 8784 00b6 002B     		cmp	r3, #0
 8785 00b8 01D0     		beq	.L745
 8786              	.L744:
 8787 00ba 0123     		movs	r3, #1
 8788 00bc 7B61     		str	r3, [r7, #20]
 8789              	.L745:
 8790 00be 07F11A02 		add	r2, r7, #26
 8791 00c2 97F83B30 		ldrb	r3, [r7, #59]	@ zero_extendqisi2
 8792 00c6 0221     		movs	r1, #2
 8793 00c8 1846     		mov	r0, r3
 8794 00ca FFF7FEFF 		bl	disk_ioctl
 8795 00ce 0346     		mov	r3, r0
 8796 00d0 002B     		cmp	r3, #0
 8797 00d2 01D0     		beq	.L746
 8798 00d4 0123     		movs	r3, #1
 8799 00d6 DDE3     		b	.L816
 8800              	.L746:
 8801 00d8 7B8B     		ldrh	r3, [r7, #26]
 8802 00da B3F5805F 		cmp	r3, #4096
 8803 00de 0AD8     		bhi	.L747
 8804 00e0 7B8B     		ldrh	r3, [r7, #26]
 8805 00e2 B3F5007F 		cmp	r3, #512
ARM GAS  C:\Users\user\AppData\Local\Temp\ccnu1L5f.s 			page 154


 8806 00e6 06D3     		bcc	.L747
 8807 00e8 7B8B     		ldrh	r3, [r7, #26]
 8808 00ea 1A46     		mov	r2, r3
 8809 00ec 7B8B     		ldrh	r3, [r7, #26]
 8810 00ee 013B     		subs	r3, r3, #1
 8811 00f0 1340     		ands	r3, r3, r2
 8812 00f2 002B     		cmp	r3, #0
 8813 00f4 01D0     		beq	.L748
 8814              	.L747:
 8815 00f6 0123     		movs	r3, #1
 8816 00f8 CCE3     		b	.L816
 8817              	.L748:
 8818 00fa 7B68     		ldr	r3, [r7, #4]
 8819 00fc 002B     		cmp	r3, #0
 8820 00fe 04D0     		beq	.L749
 8821 0100 7B8B     		ldrh	r3, [r7, #26]
 8822 0102 1A46     		mov	r2, r3
 8823 0104 7B68     		ldr	r3, [r7, #4]
 8824 0106 9342     		cmp	r3, r2
 8825 0108 09D3     		bcc	.L750
 8826              	.L749:
 8827 010a 7B68     		ldr	r3, [r7, #4]
 8828 010c B3F1807F 		cmp	r3, #16777216
 8829 0110 05D8     		bhi	.L750
 8830 0112 7B68     		ldr	r3, [r7, #4]
 8831 0114 5A1E     		subs	r2, r3, #1
 8832 0116 7B68     		ldr	r3, [r7, #4]
 8833 0118 1340     		ands	r3, r3, r2
 8834 011a 002B     		cmp	r3, #0
 8835 011c 01D0     		beq	.L751
 8836              	.L750:
 8837 011e 1323     		movs	r3, #19
 8838 0120 B8E3     		b	.L816
 8839              	.L751:
 8840 0122 7B8B     		ldrh	r3, [r7, #26]
 8841 0124 1A46     		mov	r2, r3
 8842 0126 7B68     		ldr	r3, [r7, #4]
 8843 0128 B3FBF2F3 		udiv	r3, r3, r2
 8844 012c 7B60     		str	r3, [r7, #4]
 8845 012e 3B68     		ldr	r3, [r7]
 8846 0130 7B63     		str	r3, [r7, #52]
 8847 0132 7B8B     		ldrh	r3, [r7, #26]
 8848 0134 1A46     		mov	r2, r3
 8849 0136 D7F88030 		ldr	r3, [r7, #128]
 8850 013a B3FBF2F3 		udiv	r3, r3, r2
 8851 013e 3B63     		str	r3, [r7, #48]
 8852 0140 7B8B     		ldrh	r3, [r7, #26]
 8853 0142 1A46     		mov	r2, r3
 8854 0144 3B6B     		ldr	r3, [r7, #48]
 8855 0146 02FB03F3 		mul	r3, r2, r3
 8856 014a FB62     		str	r3, [r7, #44]
 8857 014c FB6A     		ldr	r3, [r7, #44]
 8858 014e 002B     		cmp	r3, #0
 8859 0150 01D1     		bne	.L752
 8860 0152 0E23     		movs	r3, #14
 8861 0154 9EE3     		b	.L816
 8862              	.L752:
ARM GAS  C:\Users\user\AppData\Local\Temp\ccnu1L5f.s 			page 155


 8863 0156 07F11002 		add	r2, r7, #16
 8864 015a 97F83B30 		ldrb	r3, [r7, #59]	@ zero_extendqisi2
 8865 015e 0121     		movs	r1, #1
 8866 0160 1846     		mov	r0, r3
 8867 0162 FFF7FEFF 		bl	disk_ioctl
 8868 0166 0346     		mov	r3, r0
 8869 0168 002B     		cmp	r3, #0
 8870 016a 01D0     		beq	.L753
 8871 016c 0123     		movs	r3, #1
 8872 016e 91E3     		b	.L816
 8873              	.L753:
 8874 0170 FB7A     		ldrb	r3, [r7, #11]	@ zero_extendqisi2
 8875 0172 03F00803 		and	r3, r3, #8
 8876 0176 002B     		cmp	r3, #0
 8877 0178 01D0     		beq	.L754
 8878 017a 0023     		movs	r3, #0
 8879 017c 00E0     		b	.L755
 8880              	.L754:
 8881 017e 3F23     		movs	r3, #63
 8882              	.L755:
 8883 0180 BB62     		str	r3, [r7, #40]
 8884 0182 3B69     		ldr	r3, [r7, #16]
 8885 0184 BA6A     		ldr	r2, [r7, #40]
 8886 0186 9A42     		cmp	r2, r3
 8887 0188 01D9     		bls	.L756
 8888 018a 0E23     		movs	r3, #14
 8889 018c 82E3     		b	.L816
 8890              	.L756:
 8891 018e 3A69     		ldr	r2, [r7, #16]
 8892 0190 BB6A     		ldr	r3, [r7, #40]
 8893 0192 D31A     		subs	r3, r2, r3
 8894 0194 3B61     		str	r3, [r7, #16]
 8895 0196 3B69     		ldr	r3, [r7, #16]
 8896 0198 7F2B     		cmp	r3, #127
 8897 019a 01D8     		bhi	.L757
 8898 019c 0E23     		movs	r3, #14
 8899 019e 79E3     		b	.L816
 8900              	.L757:
 8901 01a0 7B68     		ldr	r3, [r7, #4]
 8902 01a2 802B     		cmp	r3, #128
 8903 01a4 01D9     		bls	.L758
 8904 01a6 1323     		movs	r3, #19
 8905 01a8 74E3     		b	.L816
 8906              	.L758:
 8907 01aa FB7A     		ldrb	r3, [r7, #11]	@ zero_extendqisi2
 8908 01ac 03F00203 		and	r3, r3, #2
 8909 01b0 002B     		cmp	r3, #0
 8910 01b2 0DD0     		beq	.L759
 8911 01b4 FB7A     		ldrb	r3, [r7, #11]	@ zero_extendqisi2
 8912 01b6 03F00703 		and	r3, r3, #7
 8913 01ba 022B     		cmp	r3, #2
 8914 01bc 04D0     		beq	.L760
 8915 01be FB7A     		ldrb	r3, [r7, #11]	@ zero_extendqisi2
 8916 01c0 03F00103 		and	r3, r3, #1
 8917 01c4 002B     		cmp	r3, #0
 8918 01c6 03D1     		bne	.L759
 8919              	.L760:
ARM GAS  C:\Users\user\AppData\Local\Temp\ccnu1L5f.s 			page 156


 8920 01c8 0323     		movs	r3, #3
 8921 01ca 87F84F30 		strb	r3, [r7, #79]
 8922 01ce 09E0     		b	.L788
 8923              	.L759:
 8924 01d0 FB7A     		ldrb	r3, [r7, #11]	@ zero_extendqisi2
 8925 01d2 03F00103 		and	r3, r3, #1
 8926 01d6 002B     		cmp	r3, #0
 8927 01d8 01D1     		bne	.L762
 8928 01da 1323     		movs	r3, #19
 8929 01dc 5AE3     		b	.L816
 8930              	.L762:
 8931 01de 0223     		movs	r3, #2
 8932 01e0 87F84F30 		strb	r3, [r7, #79]
 8933              	.L788:
 8934 01e4 7B68     		ldr	r3, [r7, #4]
 8935 01e6 3B65     		str	r3, [r7, #80]
 8936 01e8 97F84F30 		ldrb	r3, [r7, #79]	@ zero_extendqisi2
 8937 01ec 032B     		cmp	r3, #3
 8938 01ee 3CD1     		bne	.L763
 8939 01f0 3B6D     		ldr	r3, [r7, #80]
 8940 01f2 002B     		cmp	r3, #0
 8941 01f4 1BD1     		bne	.L764
 8942 01f6 3B69     		ldr	r3, [r7, #16]
 8943 01f8 5B0C     		lsrs	r3, r3, #17
 8944 01fa FB65     		str	r3, [r7, #92]
 8945 01fc 0023     		movs	r3, #0
 8946 01fe BB64     		str	r3, [r7, #72]
 8947 0200 0123     		movs	r3, #1
 8948 0202 3B65     		str	r3, [r7, #80]
 8949 0204 05E0     		b	.L765
 8950              	.L766:
 8951 0206 BB6C     		ldr	r3, [r7, #72]
 8952 0208 0133     		adds	r3, r3, #1
 8953 020a BB64     		str	r3, [r7, #72]
 8954 020c 3B6D     		ldr	r3, [r7, #80]
 8955 020e 5B00     		lsls	r3, r3, #1
 8956 0210 3B65     		str	r3, [r7, #80]
 8957              	.L765:
 8958 0212 2E4A     		ldr	r2, .L821+4
 8959 0214 BB6C     		ldr	r3, [r7, #72]
 8960 0216 32F81330 		ldrh	r3, [r2, r3, lsl #1]
 8961 021a 002B     		cmp	r3, #0
 8962 021c 07D0     		beq	.L764
 8963 021e 2B4A     		ldr	r2, .L821+4
 8964 0220 BB6C     		ldr	r3, [r7, #72]
 8965 0222 32F81330 		ldrh	r3, [r2, r3, lsl #1]
 8966 0226 1A46     		mov	r2, r3
 8967 0228 FB6D     		ldr	r3, [r7, #92]
 8968 022a 9342     		cmp	r3, r2
 8969 022c EBD2     		bcs	.L766
 8970              	.L764:
 8971 022e 3A69     		ldr	r2, [r7, #16]
 8972 0230 3B6D     		ldr	r3, [r7, #80]
 8973 0232 B2FBF3F3 		udiv	r3, r2, r3
 8974 0236 7B62     		str	r3, [r7, #36]
 8975 0238 7B6A     		ldr	r3, [r7, #36]
 8976 023a 0233     		adds	r3, r3, #2
ARM GAS  C:\Users\user\AppData\Local\Temp\ccnu1L5f.s 			page 157


 8977 023c 9B00     		lsls	r3, r3, #2
 8978 023e 7A8B     		ldrh	r2, [r7, #26]
 8979 0240 1344     		add	r3, r3, r2
 8980 0242 013B     		subs	r3, r3, #1
 8981 0244 7A8B     		ldrh	r2, [r7, #26]
 8982 0246 B3FBF2F3 		udiv	r3, r3, r2
 8983 024a BB66     		str	r3, [r7, #104]
 8984 024c 2023     		movs	r3, #32
 8985 024e 7B65     		str	r3, [r7, #84]
 8986 0250 0023     		movs	r3, #0
 8987 0252 FB66     		str	r3, [r7, #108]
 8988 0254 7B6A     		ldr	r3, [r7, #36]
 8989 0256 4FF6F572 		movw	r2, #65525
 8990 025a 9342     		cmp	r3, r2
 8991 025c 03D9     		bls	.L767
 8992 025e 7B6A     		ldr	r3, [r7, #36]
 8993 0260 1B4A     		ldr	r2, .L821+8
 8994 0262 9342     		cmp	r3, r2
 8995 0264 54D9     		bls	.L768
 8996              	.L767:
 8997 0266 0E23     		movs	r3, #14
 8998 0268 14E3     		b	.L816
 8999              	.L763:
 9000 026a 3B6D     		ldr	r3, [r7, #80]
 9001 026c 002B     		cmp	r3, #0
 9002 026e 1BD1     		bne	.L769
 9003 0270 3B69     		ldr	r3, [r7, #16]
 9004 0272 1B0B     		lsrs	r3, r3, #12
 9005 0274 FB65     		str	r3, [r7, #92]
 9006 0276 0023     		movs	r3, #0
 9007 0278 BB64     		str	r3, [r7, #72]
 9008 027a 0123     		movs	r3, #1
 9009 027c 3B65     		str	r3, [r7, #80]
 9010 027e 05E0     		b	.L770
 9011              	.L771:
 9012 0280 BB6C     		ldr	r3, [r7, #72]
 9013 0282 0133     		adds	r3, r3, #1
 9014 0284 BB64     		str	r3, [r7, #72]
 9015 0286 3B6D     		ldr	r3, [r7, #80]
 9016 0288 5B00     		lsls	r3, r3, #1
 9017 028a 3B65     		str	r3, [r7, #80]
 9018              	.L770:
 9019 028c 114A     		ldr	r2, .L821+12
 9020 028e BB6C     		ldr	r3, [r7, #72]
 9021 0290 32F81330 		ldrh	r3, [r2, r3, lsl #1]
 9022 0294 002B     		cmp	r3, #0
 9023 0296 07D0     		beq	.L769
 9024 0298 0E4A     		ldr	r2, .L821+12
 9025 029a BB6C     		ldr	r3, [r7, #72]
 9026 029c 32F81330 		ldrh	r3, [r2, r3, lsl #1]
 9027 02a0 1A46     		mov	r2, r3
 9028 02a2 FB6D     		ldr	r3, [r7, #92]
 9029 02a4 9342     		cmp	r3, r2
 9030 02a6 EBD2     		bcs	.L771
 9031              	.L769:
 9032 02a8 3A69     		ldr	r2, [r7, #16]
 9033 02aa 3B6D     		ldr	r3, [r7, #80]
ARM GAS  C:\Users\user\AppData\Local\Temp\ccnu1L5f.s 			page 158


 9034 02ac B2FBF3F3 		udiv	r3, r2, r3
 9035 02b0 7B62     		str	r3, [r7, #36]
 9036 02b2 7B6A     		ldr	r3, [r7, #36]
 9037 02b4 40F6F572 		movw	r2, #4085
 9038 02b8 9342     		cmp	r3, r2
 9039 02ba 0DD9     		bls	.L772
 9040 02bc 7B6A     		ldr	r3, [r7, #36]
 9041 02be 0233     		adds	r3, r3, #2
 9042 02c0 5B00     		lsls	r3, r3, #1
 9043 02c2 FB65     		str	r3, [r7, #92]
 9044 02c4 13E0     		b	.L773
 9045              	.L822:
 9046 02c6 00BF     		.align	2
 9047              	.L821:
 9048 02c8 00000000 		.word	FatFs
 9049 02cc 00000000 		.word	cst32.1
 9050 02d0 F5FFFF0F 		.word	268435445
 9051 02d4 00000000 		.word	cst.0
 9052              	.L772:
 9053 02d8 0123     		movs	r3, #1
 9054 02da 87F84F30 		strb	r3, [r7, #79]
 9055 02de 7A6A     		ldr	r2, [r7, #36]
 9056 02e0 1346     		mov	r3, r2
 9057 02e2 5B00     		lsls	r3, r3, #1
 9058 02e4 1344     		add	r3, r3, r2
 9059 02e6 0133     		adds	r3, r3, #1
 9060 02e8 5B08     		lsrs	r3, r3, #1
 9061 02ea 0333     		adds	r3, r3, #3
 9062 02ec FB65     		str	r3, [r7, #92]
 9063              	.L773:
 9064 02ee 7B8B     		ldrh	r3, [r7, #26]
 9065 02f0 1A46     		mov	r2, r3
 9066 02f2 FB6D     		ldr	r3, [r7, #92]
 9067 02f4 1344     		add	r3, r3, r2
 9068 02f6 013B     		subs	r3, r3, #1
 9069 02f8 7A8B     		ldrh	r2, [r7, #26]
 9070 02fa B3FBF2F3 		udiv	r3, r3, r2
 9071 02fe BB66     		str	r3, [r7, #104]
 9072 0300 0123     		movs	r3, #1
 9073 0302 7B65     		str	r3, [r7, #84]
 9074 0304 3B6C     		ldr	r3, [r7, #64]
 9075 0306 5B01     		lsls	r3, r3, #5
 9076 0308 7A8B     		ldrh	r2, [r7, #26]
 9077 030a B3FBF2F3 		udiv	r3, r3, r2
 9078 030e FB66     		str	r3, [r7, #108]
 9079              	.L768:
 9080 0310 BA6A     		ldr	r2, [r7, #40]
 9081 0312 7B6D     		ldr	r3, [r7, #84]
 9082 0314 1344     		add	r3, r3, r2
 9083 0316 BB65     		str	r3, [r7, #88]
 9084 0318 BB6E     		ldr	r3, [r7, #104]
 9085 031a 7A6C     		ldr	r2, [r7, #68]
 9086 031c 03FB02F2 		mul	r2, r3, r2
 9087 0320 BB6D     		ldr	r3, [r7, #88]
 9088 0322 1344     		add	r3, r3, r2
 9089 0324 FA6E     		ldr	r2, [r7, #108]
 9090 0326 1344     		add	r3, r3, r2
ARM GAS  C:\Users\user\AppData\Local\Temp\ccnu1L5f.s 			page 159


 9091 0328 3B62     		str	r3, [r7, #32]
 9092 032a 7A69     		ldr	r2, [r7, #20]
 9093 032c 3B6A     		ldr	r3, [r7, #32]
 9094 032e 1344     		add	r3, r3, r2
 9095 0330 5A1E     		subs	r2, r3, #1
 9096 0332 7B69     		ldr	r3, [r7, #20]
 9097 0334 5B42     		rsbs	r3, r3, #0
 9098 0336 1A40     		ands	r2, r2, r3
 9099 0338 3B6A     		ldr	r3, [r7, #32]
 9100 033a D31A     		subs	r3, r2, r3
 9101 033c FB65     		str	r3, [r7, #92]
 9102 033e 97F84F30 		ldrb	r3, [r7, #79]	@ zero_extendqisi2
 9103 0342 032B     		cmp	r3, #3
 9104 0344 08D1     		bne	.L774
 9105 0346 7A6D     		ldr	r2, [r7, #84]
 9106 0348 FB6D     		ldr	r3, [r7, #92]
 9107 034a 1344     		add	r3, r3, r2
 9108 034c 7B65     		str	r3, [r7, #84]
 9109 034e BA6D     		ldr	r2, [r7, #88]
 9110 0350 FB6D     		ldr	r3, [r7, #92]
 9111 0352 1344     		add	r3, r3, r2
 9112 0354 BB65     		str	r3, [r7, #88]
 9113 0356 06E0     		b	.L775
 9114              	.L774:
 9115 0358 FA6D     		ldr	r2, [r7, #92]
 9116 035a 7B6C     		ldr	r3, [r7, #68]
 9117 035c B2FBF3F3 		udiv	r3, r2, r3
 9118 0360 BA6E     		ldr	r2, [r7, #104]
 9119 0362 1344     		add	r3, r3, r2
 9120 0364 BB66     		str	r3, [r7, #104]
 9121              	.L775:
 9122 0366 3B6D     		ldr	r3, [r7, #80]
 9123 0368 1A01     		lsls	r2, r3, #4
 9124 036a 3B6A     		ldr	r3, [r7, #32]
 9125 036c 1A44     		add	r2, r2, r3
 9126 036e BB6A     		ldr	r3, [r7, #40]
 9127 0370 D21A     		subs	r2, r2, r3
 9128 0372 3B69     		ldr	r3, [r7, #16]
 9129 0374 9A42     		cmp	r2, r3
 9130 0376 01D9     		bls	.L776
 9131 0378 0E23     		movs	r3, #14
 9132 037a 8BE2     		b	.L816
 9133              	.L776:
 9134 037c 3A69     		ldr	r2, [r7, #16]
 9135 037e 7B6D     		ldr	r3, [r7, #84]
 9136 0380 D21A     		subs	r2, r2, r3
 9137 0382 BB6E     		ldr	r3, [r7, #104]
 9138 0384 796C     		ldr	r1, [r7, #68]
 9139 0386 01FB03F3 		mul	r3, r1, r3
 9140 038a D21A     		subs	r2, r2, r3
 9141 038c FB6E     		ldr	r3, [r7, #108]
 9142 038e D21A     		subs	r2, r2, r3
 9143 0390 3B6D     		ldr	r3, [r7, #80]
 9144 0392 B2FBF3F3 		udiv	r3, r2, r3
 9145 0396 7B62     		str	r3, [r7, #36]
 9146 0398 97F84F30 		ldrb	r3, [r7, #79]	@ zero_extendqisi2
 9147 039c 032B     		cmp	r3, #3
ARM GAS  C:\Users\user\AppData\Local\Temp\ccnu1L5f.s 			page 160


 9148 039e 0FD1     		bne	.L777
 9149 03a0 7B6A     		ldr	r3, [r7, #36]
 9150 03a2 4FF6F572 		movw	r2, #65525
 9151 03a6 9342     		cmp	r3, r2
 9152 03a8 0AD8     		bhi	.L777
 9153 03aa 7B68     		ldr	r3, [r7, #4]
 9154 03ac 002B     		cmp	r3, #0
 9155 03ae 05D1     		bne	.L778
 9156 03b0 3B6D     		ldr	r3, [r7, #80]
 9157 03b2 5B08     		lsrs	r3, r3, #1
 9158 03b4 7B60     		str	r3, [r7, #4]
 9159 03b6 7B68     		ldr	r3, [r7, #4]
 9160 03b8 002B     		cmp	r3, #0
 9161 03ba 44D1     		bne	.L817
 9162              	.L778:
 9163 03bc 0E23     		movs	r3, #14
 9164 03be 69E2     		b	.L816
 9165              	.L777:
 9166 03c0 97F84F30 		ldrb	r3, [r7, #79]	@ zero_extendqisi2
 9167 03c4 022B     		cmp	r3, #2
 9168 03c6 33D1     		bne	.L780
 9169 03c8 7B6A     		ldr	r3, [r7, #36]
 9170 03ca 4FF6F572 		movw	r2, #65525
 9171 03ce 9342     		cmp	r3, r2
 9172 03d0 1ED9     		bls	.L781
 9173 03d2 7B68     		ldr	r3, [r7, #4]
 9174 03d4 002B     		cmp	r3, #0
 9175 03d6 07D1     		bne	.L782
 9176 03d8 3B6D     		ldr	r3, [r7, #80]
 9177 03da 5B00     		lsls	r3, r3, #1
 9178 03dc 402B     		cmp	r3, #64
 9179 03de 03D8     		bhi	.L782
 9180 03e0 3B6D     		ldr	r3, [r7, #80]
 9181 03e2 5B00     		lsls	r3, r3, #1
 9182 03e4 7B60     		str	r3, [r7, #4]
 9183 03e6 33E0     		b	.L779
 9184              	.L782:
 9185 03e8 FB7A     		ldrb	r3, [r7, #11]	@ zero_extendqisi2
 9186 03ea 03F00203 		and	r3, r3, #2
 9187 03ee 002B     		cmp	r3, #0
 9188 03f0 03D0     		beq	.L783
 9189 03f2 0323     		movs	r3, #3
 9190 03f4 87F84F30 		strb	r3, [r7, #79]
 9191 03f8 2AE0     		b	.L779
 9192              	.L783:
 9193 03fa 7B68     		ldr	r3, [r7, #4]
 9194 03fc 002B     		cmp	r3, #0
 9195 03fe 05D1     		bne	.L784
 9196 0400 3B6D     		ldr	r3, [r7, #80]
 9197 0402 5B00     		lsls	r3, r3, #1
 9198 0404 7B60     		str	r3, [r7, #4]
 9199 0406 7B68     		ldr	r3, [r7, #4]
 9200 0408 802B     		cmp	r3, #128
 9201 040a 1ED9     		bls	.L818
 9202              	.L784:
 9203 040c 0E23     		movs	r3, #14
 9204 040e 41E2     		b	.L816
ARM GAS  C:\Users\user\AppData\Local\Temp\ccnu1L5f.s 			page 161


 9205              	.L781:
 9206 0410 7B6A     		ldr	r3, [r7, #36]
 9207 0412 40F6F572 		movw	r2, #4085
 9208 0416 9342     		cmp	r3, r2
 9209 0418 0AD8     		bhi	.L780
 9210 041a 7B68     		ldr	r3, [r7, #4]
 9211 041c 002B     		cmp	r3, #0
 9212 041e 05D1     		bne	.L785
 9213 0420 3B6D     		ldr	r3, [r7, #80]
 9214 0422 5B00     		lsls	r3, r3, #1
 9215 0424 7B60     		str	r3, [r7, #4]
 9216 0426 7B68     		ldr	r3, [r7, #4]
 9217 0428 802B     		cmp	r3, #128
 9218 042a 10D9     		bls	.L819
 9219              	.L785:
 9220 042c 0E23     		movs	r3, #14
 9221 042e 31E2     		b	.L816
 9222              	.L780:
 9223 0430 97F84F30 		ldrb	r3, [r7, #79]	@ zero_extendqisi2
 9224 0434 012B     		cmp	r3, #1
 9225 0436 0CD1     		bne	.L820
 9226 0438 7B6A     		ldr	r3, [r7, #36]
 9227 043a 40F6F572 		movw	r2, #4085
 9228 043e 9342     		cmp	r3, r2
 9229 0440 07D9     		bls	.L820
 9230 0442 0E23     		movs	r3, #14
 9231 0444 26E2     		b	.L816
 9232              	.L817:
 9233 0446 00BF     		nop
 9234 0448 CCE6     		b	.L788
 9235              	.L818:
 9236 044a 00BF     		nop
 9237 044c CAE6     		b	.L788
 9238              	.L819:
 9239 044e 00BF     		nop
 9240              	.L779:
 9241 0450 C8E6     		b	.L788
 9242              	.L820:
 9243 0452 00BF     		nop
 9244 0454 7B8B     		ldrh	r3, [r7, #26]
 9245 0456 1A46     		mov	r2, r3
 9246 0458 0021     		movs	r1, #0
 9247 045a 786B     		ldr	r0, [r7, #52]
 9248 045c FFF7FEFF 		bl	mem_set
 9249 0460 0B22     		movs	r2, #11
 9250 0462 B349     		ldr	r1, .L823
 9251 0464 786B     		ldr	r0, [r7, #52]
 9252 0466 FFF7FEFF 		bl	mem_cpy
 9253 046a 7B6B     		ldr	r3, [r7, #52]
 9254 046c 0B33     		adds	r3, r3, #11
 9255 046e 7A8B     		ldrh	r2, [r7, #26]
 9256 0470 1146     		mov	r1, r2
 9257 0472 1846     		mov	r0, r3
 9258 0474 FFF7FEFF 		bl	st_word
 9259 0478 7B6B     		ldr	r3, [r7, #52]
 9260 047a 0D33     		adds	r3, r3, #13
 9261 047c 3A6D     		ldr	r2, [r7, #80]
ARM GAS  C:\Users\user\AppData\Local\Temp\ccnu1L5f.s 			page 162


 9262 047e D2B2     		uxtb	r2, r2
 9263 0480 1A70     		strb	r2, [r3]
 9264 0482 7B6B     		ldr	r3, [r7, #52]
 9265 0484 0E33     		adds	r3, r3, #14
 9266 0486 7A6D     		ldr	r2, [r7, #84]
 9267 0488 92B2     		uxth	r2, r2
 9268 048a 1146     		mov	r1, r2
 9269 048c 1846     		mov	r0, r3
 9270 048e FFF7FEFF 		bl	st_word
 9271 0492 7B6B     		ldr	r3, [r7, #52]
 9272 0494 1033     		adds	r3, r3, #16
 9273 0496 7A6C     		ldr	r2, [r7, #68]
 9274 0498 D2B2     		uxtb	r2, r2
 9275 049a 1A70     		strb	r2, [r3]
 9276 049c 7B6B     		ldr	r3, [r7, #52]
 9277 049e 03F11102 		add	r2, r3, #17
 9278 04a2 97F84F30 		ldrb	r3, [r7, #79]	@ zero_extendqisi2
 9279 04a6 032B     		cmp	r3, #3
 9280 04a8 02D0     		beq	.L789
 9281 04aa 3B6C     		ldr	r3, [r7, #64]
 9282 04ac 9BB2     		uxth	r3, r3
 9283 04ae 00E0     		b	.L790
 9284              	.L789:
 9285 04b0 0023     		movs	r3, #0
 9286              	.L790:
 9287 04b2 1946     		mov	r1, r3
 9288 04b4 1046     		mov	r0, r2
 9289 04b6 FFF7FEFF 		bl	st_word
 9290 04ba 3B69     		ldr	r3, [r7, #16]
 9291 04bc B3F5803F 		cmp	r3, #65536
 9292 04c0 08D2     		bcs	.L791
 9293 04c2 7B6B     		ldr	r3, [r7, #52]
 9294 04c4 1333     		adds	r3, r3, #19
 9295 04c6 3A69     		ldr	r2, [r7, #16]
 9296 04c8 92B2     		uxth	r2, r2
 9297 04ca 1146     		mov	r1, r2
 9298 04cc 1846     		mov	r0, r3
 9299 04ce FFF7FEFF 		bl	st_word
 9300 04d2 06E0     		b	.L792
 9301              	.L791:
 9302 04d4 7B6B     		ldr	r3, [r7, #52]
 9303 04d6 2033     		adds	r3, r3, #32
 9304 04d8 3A69     		ldr	r2, [r7, #16]
 9305 04da 1146     		mov	r1, r2
 9306 04dc 1846     		mov	r0, r3
 9307 04de FFF7FEFF 		bl	st_dword
 9308              	.L792:
 9309 04e2 7B6B     		ldr	r3, [r7, #52]
 9310 04e4 1533     		adds	r3, r3, #21
 9311 04e6 F822     		movs	r2, #248
 9312 04e8 1A70     		strb	r2, [r3]
 9313 04ea 7B6B     		ldr	r3, [r7, #52]
 9314 04ec 1833     		adds	r3, r3, #24
 9315 04ee 3F21     		movs	r1, #63
 9316 04f0 1846     		mov	r0, r3
 9317 04f2 FFF7FEFF 		bl	st_word
 9318 04f6 7B6B     		ldr	r3, [r7, #52]
ARM GAS  C:\Users\user\AppData\Local\Temp\ccnu1L5f.s 			page 163


 9319 04f8 1A33     		adds	r3, r3, #26
 9320 04fa FF21     		movs	r1, #255
 9321 04fc 1846     		mov	r0, r3
 9322 04fe FFF7FEFF 		bl	st_word
 9323 0502 7B6B     		ldr	r3, [r7, #52]
 9324 0504 1C33     		adds	r3, r3, #28
 9325 0506 B96A     		ldr	r1, [r7, #40]
 9326 0508 1846     		mov	r0, r3
 9327 050a FFF7FEFF 		bl	st_dword
 9328 050e 97F84F30 		ldrb	r3, [r7, #79]	@ zero_extendqisi2
 9329 0512 032B     		cmp	r3, #3
 9330 0514 31D1     		bne	.L793
 9331 0516 7B6B     		ldr	r3, [r7, #52]
 9332 0518 03F14304 		add	r4, r3, #67
 9333 051c FFF7FEFF 		bl	get_fattime
 9334 0520 0346     		mov	r3, r0
 9335 0522 1946     		mov	r1, r3
 9336 0524 2046     		mov	r0, r4
 9337 0526 FFF7FEFF 		bl	st_dword
 9338 052a 7B6B     		ldr	r3, [r7, #52]
 9339 052c 2433     		adds	r3, r3, #36
 9340 052e B96E     		ldr	r1, [r7, #104]
 9341 0530 1846     		mov	r0, r3
 9342 0532 FFF7FEFF 		bl	st_dword
 9343 0536 7B6B     		ldr	r3, [r7, #52]
 9344 0538 2C33     		adds	r3, r3, #44
 9345 053a 0221     		movs	r1, #2
 9346 053c 1846     		mov	r0, r3
 9347 053e FFF7FEFF 		bl	st_dword
 9348 0542 7B6B     		ldr	r3, [r7, #52]
 9349 0544 3033     		adds	r3, r3, #48
 9350 0546 0121     		movs	r1, #1
 9351 0548 1846     		mov	r0, r3
 9352 054a FFF7FEFF 		bl	st_word
 9353 054e 7B6B     		ldr	r3, [r7, #52]
 9354 0550 3233     		adds	r3, r3, #50
 9355 0552 0621     		movs	r1, #6
 9356 0554 1846     		mov	r0, r3
 9357 0556 FFF7FEFF 		bl	st_word
 9358 055a 7B6B     		ldr	r3, [r7, #52]
 9359 055c 4033     		adds	r3, r3, #64
 9360 055e 8022     		movs	r2, #128
 9361 0560 1A70     		strb	r2, [r3]
 9362 0562 7B6B     		ldr	r3, [r7, #52]
 9363 0564 4233     		adds	r3, r3, #66
 9364 0566 2922     		movs	r2, #41
 9365 0568 1A70     		strb	r2, [r3]
 9366 056a 7B6B     		ldr	r3, [r7, #52]
 9367 056c 4733     		adds	r3, r3, #71
 9368 056e 1322     		movs	r2, #19
 9369 0570 7049     		ldr	r1, .L823+4
 9370 0572 1846     		mov	r0, r3
 9371 0574 FFF7FEFF 		bl	mem_cpy
 9372 0578 20E0     		b	.L794
 9373              	.L793:
 9374 057a 7B6B     		ldr	r3, [r7, #52]
 9375 057c 03F12704 		add	r4, r3, #39
ARM GAS  C:\Users\user\AppData\Local\Temp\ccnu1L5f.s 			page 164


 9376 0580 FFF7FEFF 		bl	get_fattime
 9377 0584 0346     		mov	r3, r0
 9378 0586 1946     		mov	r1, r3
 9379 0588 2046     		mov	r0, r4
 9380 058a FFF7FEFF 		bl	st_dword
 9381 058e 7B6B     		ldr	r3, [r7, #52]
 9382 0590 1633     		adds	r3, r3, #22
 9383 0592 BA6E     		ldr	r2, [r7, #104]
 9384 0594 92B2     		uxth	r2, r2
 9385 0596 1146     		mov	r1, r2
 9386 0598 1846     		mov	r0, r3
 9387 059a FFF7FEFF 		bl	st_word
 9388 059e 7B6B     		ldr	r3, [r7, #52]
 9389 05a0 2433     		adds	r3, r3, #36
 9390 05a2 8022     		movs	r2, #128
 9391 05a4 1A70     		strb	r2, [r3]
 9392 05a6 7B6B     		ldr	r3, [r7, #52]
 9393 05a8 2633     		adds	r3, r3, #38
 9394 05aa 2922     		movs	r2, #41
 9395 05ac 1A70     		strb	r2, [r3]
 9396 05ae 7B6B     		ldr	r3, [r7, #52]
 9397 05b0 2B33     		adds	r3, r3, #43
 9398 05b2 1322     		movs	r2, #19
 9399 05b4 6049     		ldr	r1, .L823+8
 9400 05b6 1846     		mov	r0, r3
 9401 05b8 FFF7FEFF 		bl	mem_cpy
 9402              	.L794:
 9403 05bc 7B6B     		ldr	r3, [r7, #52]
 9404 05be 03F5FF73 		add	r3, r3, #510
 9405 05c2 4AF65521 		movw	r1, #43605
 9406 05c6 1846     		mov	r0, r3
 9407 05c8 FFF7FEFF 		bl	st_word
 9408 05cc 97F83B00 		ldrb	r0, [r7, #59]	@ zero_extendqisi2
 9409 05d0 0123     		movs	r3, #1
 9410 05d2 BA6A     		ldr	r2, [r7, #40]
 9411 05d4 796B     		ldr	r1, [r7, #52]
 9412 05d6 FFF7FEFF 		bl	disk_write
 9413 05da 0346     		mov	r3, r0
 9414 05dc 002B     		cmp	r3, #0
 9415 05de 01D0     		beq	.L795
 9416 05e0 0123     		movs	r3, #1
 9417 05e2 57E1     		b	.L816
 9418              	.L795:
 9419 05e4 97F84F30 		ldrb	r3, [r7, #79]	@ zero_extendqisi2
 9420 05e8 032B     		cmp	r3, #3
 9421 05ea 40D1     		bne	.L796
 9422 05ec BB6A     		ldr	r3, [r7, #40]
 9423 05ee 9A1D     		adds	r2, r3, #6
 9424 05f0 97F83B00 		ldrb	r0, [r7, #59]	@ zero_extendqisi2
 9425 05f4 0123     		movs	r3, #1
 9426 05f6 796B     		ldr	r1, [r7, #52]
 9427 05f8 FFF7FEFF 		bl	disk_write
 9428 05fc 7B8B     		ldrh	r3, [r7, #26]
 9429 05fe 1A46     		mov	r2, r3
 9430 0600 0021     		movs	r1, #0
 9431 0602 786B     		ldr	r0, [r7, #52]
 9432 0604 FFF7FEFF 		bl	mem_set
ARM GAS  C:\Users\user\AppData\Local\Temp\ccnu1L5f.s 			page 165


 9433 0608 4C49     		ldr	r1, .L823+12
 9434 060a 786B     		ldr	r0, [r7, #52]
 9435 060c FFF7FEFF 		bl	st_dword
 9436 0610 7B6B     		ldr	r3, [r7, #52]
 9437 0612 03F5F273 		add	r3, r3, #484
 9438 0616 4A49     		ldr	r1, .L823+16
 9439 0618 1846     		mov	r0, r3
 9440 061a FFF7FEFF 		bl	st_dword
 9441 061e 7B6B     		ldr	r3, [r7, #52]
 9442 0620 03F5F472 		add	r2, r3, #488
 9443 0624 7B6A     		ldr	r3, [r7, #36]
 9444 0626 013B     		subs	r3, r3, #1
 9445 0628 1946     		mov	r1, r3
 9446 062a 1046     		mov	r0, r2
 9447 062c FFF7FEFF 		bl	st_dword
 9448 0630 7B6B     		ldr	r3, [r7, #52]
 9449 0632 03F5F673 		add	r3, r3, #492
 9450 0636 0221     		movs	r1, #2
 9451 0638 1846     		mov	r0, r3
 9452 063a FFF7FEFF 		bl	st_dword
 9453 063e 7B6B     		ldr	r3, [r7, #52]
 9454 0640 03F5FF73 		add	r3, r3, #510
 9455 0644 4AF65521 		movw	r1, #43605
 9456 0648 1846     		mov	r0, r3
 9457 064a FFF7FEFF 		bl	st_word
 9458 064e BB6A     		ldr	r3, [r7, #40]
 9459 0650 DA1D     		adds	r2, r3, #7
 9460 0652 97F83B00 		ldrb	r0, [r7, #59]	@ zero_extendqisi2
 9461 0656 0123     		movs	r3, #1
 9462 0658 796B     		ldr	r1, [r7, #52]
 9463 065a FFF7FEFF 		bl	disk_write
 9464 065e BB6A     		ldr	r3, [r7, #40]
 9465 0660 5A1C     		adds	r2, r3, #1
 9466 0662 97F83B00 		ldrb	r0, [r7, #59]	@ zero_extendqisi2
 9467 0666 0123     		movs	r3, #1
 9468 0668 796B     		ldr	r1, [r7, #52]
 9469 066a FFF7FEFF 		bl	disk_write
 9470              	.L796:
 9471 066e FA6A     		ldr	r2, [r7, #44]
 9472 0670 0021     		movs	r1, #0
 9473 0672 786B     		ldr	r0, [r7, #52]
 9474 0674 FFF7FEFF 		bl	mem_set
 9475 0678 BB6D     		ldr	r3, [r7, #88]
 9476 067a 7B66     		str	r3, [r7, #100]
 9477 067c 0023     		movs	r3, #0
 9478 067e BB64     		str	r3, [r7, #72]
 9479 0680 4BE0     		b	.L797
 9480              	.L804:
 9481 0682 97F84F30 		ldrb	r3, [r7, #79]	@ zero_extendqisi2
 9482 0686 032B     		cmp	r3, #3
 9483 0688 13D1     		bne	.L798
 9484 068a 6FF00701 		mvn	r1, #7
 9485 068e 786B     		ldr	r0, [r7, #52]
 9486 0690 FFF7FEFF 		bl	st_dword
 9487 0694 7B6B     		ldr	r3, [r7, #52]
 9488 0696 0433     		adds	r3, r3, #4
 9489 0698 4FF0FF31 		mov	r1, #-1
ARM GAS  C:\Users\user\AppData\Local\Temp\ccnu1L5f.s 			page 166


 9490 069c 1846     		mov	r0, r3
 9491 069e FFF7FEFF 		bl	st_dword
 9492 06a2 7B6B     		ldr	r3, [r7, #52]
 9493 06a4 0833     		adds	r3, r3, #8
 9494 06a6 6FF07041 		mvn	r1, #-268435456
 9495 06aa 1846     		mov	r0, r3
 9496 06ac FFF7FEFF 		bl	st_dword
 9497 06b0 0BE0     		b	.L799
 9498              	.L798:
 9499 06b2 97F84F30 		ldrb	r3, [r7, #79]	@ zero_extendqisi2
 9500 06b6 012B     		cmp	r3, #1
 9501 06b8 01D1     		bne	.L800
 9502 06ba 224B     		ldr	r3, .L823+20
 9503 06bc 01E0     		b	.L801
 9504              	.L800:
 9505 06be 6FF00703 		mvn	r3, #7
 9506              	.L801:
 9507 06c2 1946     		mov	r1, r3
 9508 06c4 786B     		ldr	r0, [r7, #52]
 9509 06c6 FFF7FEFF 		bl	st_dword
 9510              	.L799:
 9511 06ca BB6E     		ldr	r3, [r7, #104]
 9512 06cc 3B66     		str	r3, [r7, #96]
 9513              	.L803:
 9514 06ce 3A6E     		ldr	r2, [r7, #96]
 9515 06d0 3B6B     		ldr	r3, [r7, #48]
 9516 06d2 9342     		cmp	r3, r2
 9517 06d4 28BF     		it	cs
 9518 06d6 1346     		movcs	r3, r2
 9519 06d8 FB65     		str	r3, [r7, #92]
 9520 06da 97F83B00 		ldrb	r0, [r7, #59]	@ zero_extendqisi2
 9521 06de FB6D     		ldr	r3, [r7, #92]
 9522 06e0 7A6E     		ldr	r2, [r7, #100]
 9523 06e2 796B     		ldr	r1, [r7, #52]
 9524 06e4 FFF7FEFF 		bl	disk_write
 9525 06e8 0346     		mov	r3, r0
 9526 06ea 002B     		cmp	r3, #0
 9527 06ec 01D0     		beq	.L802
 9528 06ee 0123     		movs	r3, #1
 9529 06f0 D0E0     		b	.L816
 9530              	.L802:
 9531 06f2 7B8B     		ldrh	r3, [r7, #26]
 9532 06f4 1A46     		mov	r2, r3
 9533 06f6 0021     		movs	r1, #0
 9534 06f8 786B     		ldr	r0, [r7, #52]
 9535 06fa FFF7FEFF 		bl	mem_set
 9536 06fe 7A6E     		ldr	r2, [r7, #100]
 9537 0700 FB6D     		ldr	r3, [r7, #92]
 9538 0702 1344     		add	r3, r3, r2
 9539 0704 7B66     		str	r3, [r7, #100]
 9540 0706 3A6E     		ldr	r2, [r7, #96]
 9541 0708 FB6D     		ldr	r3, [r7, #92]
 9542 070a D31A     		subs	r3, r2, r3
 9543 070c 3B66     		str	r3, [r7, #96]
 9544 070e 3B6E     		ldr	r3, [r7, #96]
 9545 0710 002B     		cmp	r3, #0
 9546 0712 DCD1     		bne	.L803
ARM GAS  C:\Users\user\AppData\Local\Temp\ccnu1L5f.s 			page 167


 9547 0714 BB6C     		ldr	r3, [r7, #72]
 9548 0716 0133     		adds	r3, r3, #1
 9549 0718 BB64     		str	r3, [r7, #72]
 9550              	.L797:
 9551 071a BA6C     		ldr	r2, [r7, #72]
 9552 071c 7B6C     		ldr	r3, [r7, #68]
 9553 071e 9A42     		cmp	r2, r3
 9554 0720 AFD3     		bcc	.L804
 9555 0722 97F84F30 		ldrb	r3, [r7, #79]	@ zero_extendqisi2
 9556 0726 032B     		cmp	r3, #3
 9557 0728 0ED1     		bne	.L805
 9558 072a 3B6D     		ldr	r3, [r7, #80]
 9559 072c 0DE0     		b	.L806
 9560              	.L824:
 9561 072e 00BF     		.align	2
 9562              	.L823:
 9563 0730 14000000 		.word	.LC2
 9564 0734 20000000 		.word	.LC3
 9565 0738 34000000 		.word	.LC4
 9566 073c 52526141 		.word	1096897106
 9567 0740 72724161 		.word	1631679090
 9568 0744 F8FFFF00 		.word	16777208
 9569              	.L805:
 9570 0748 FB6E     		ldr	r3, [r7, #108]
 9571              	.L806:
 9572 074a 3B66     		str	r3, [r7, #96]
 9573              	.L808:
 9574 074c 3A6E     		ldr	r2, [r7, #96]
 9575 074e 3B6B     		ldr	r3, [r7, #48]
 9576 0750 9342     		cmp	r3, r2
 9577 0752 28BF     		it	cs
 9578 0754 1346     		movcs	r3, r2
 9579 0756 FB65     		str	r3, [r7, #92]
 9580 0758 97F83B00 		ldrb	r0, [r7, #59]	@ zero_extendqisi2
 9581 075c FB6D     		ldr	r3, [r7, #92]
 9582 075e 7A6E     		ldr	r2, [r7, #100]
 9583 0760 796B     		ldr	r1, [r7, #52]
 9584 0762 FFF7FEFF 		bl	disk_write
 9585 0766 0346     		mov	r3, r0
 9586 0768 002B     		cmp	r3, #0
 9587 076a 01D0     		beq	.L807
 9588 076c 0123     		movs	r3, #1
 9589 076e 91E0     		b	.L816
 9590              	.L807:
 9591 0770 7A6E     		ldr	r2, [r7, #100]
 9592 0772 FB6D     		ldr	r3, [r7, #92]
 9593 0774 1344     		add	r3, r3, r2
 9594 0776 7B66     		str	r3, [r7, #100]
 9595 0778 3A6E     		ldr	r2, [r7, #96]
 9596 077a FB6D     		ldr	r3, [r7, #92]
 9597 077c D31A     		subs	r3, r2, r3
 9598 077e 3B66     		str	r3, [r7, #96]
 9599 0780 3B6E     		ldr	r3, [r7, #96]
 9600 0782 002B     		cmp	r3, #0
 9601 0784 E2D1     		bne	.L808
 9602 0786 97F84F30 		ldrb	r3, [r7, #79]	@ zero_extendqisi2
 9603 078a 032B     		cmp	r3, #3
ARM GAS  C:\Users\user\AppData\Local\Temp\ccnu1L5f.s 			page 168


 9604 078c 03D1     		bne	.L809
 9605 078e 0C23     		movs	r3, #12
 9606 0790 87F84E30 		strb	r3, [r7, #78]
 9607 0794 10E0     		b	.L810
 9608              	.L809:
 9609 0796 3B69     		ldr	r3, [r7, #16]
 9610 0798 B3F5803F 		cmp	r3, #65536
 9611 079c 03D3     		bcc	.L811
 9612 079e 0623     		movs	r3, #6
 9613 07a0 87F84E30 		strb	r3, [r7, #78]
 9614 07a4 08E0     		b	.L810
 9615              	.L811:
 9616 07a6 97F84F30 		ldrb	r3, [r7, #79]	@ zero_extendqisi2
 9617 07aa 022B     		cmp	r3, #2
 9618 07ac 01D1     		bne	.L812
 9619 07ae 0423     		movs	r3, #4
 9620 07b0 00E0     		b	.L813
 9621              	.L812:
 9622 07b2 0123     		movs	r3, #1
 9623              	.L813:
 9624 07b4 87F84E30 		strb	r3, [r7, #78]
 9625              	.L810:
 9626 07b8 FB7A     		ldrb	r3, [r7, #11]	@ zero_extendqisi2
 9627 07ba 03F00803 		and	r3, r3, #8
 9628 07be 002B     		cmp	r3, #0
 9629 07c0 5BD1     		bne	.L814
 9630 07c2 7B8B     		ldrh	r3, [r7, #26]
 9631 07c4 1A46     		mov	r2, r3
 9632 07c6 0021     		movs	r1, #0
 9633 07c8 786B     		ldr	r0, [r7, #52]
 9634 07ca FFF7FEFF 		bl	mem_set
 9635 07ce 7B6B     		ldr	r3, [r7, #52]
 9636 07d0 03F5FF73 		add	r3, r3, #510
 9637 07d4 4AF65521 		movw	r1, #43605
 9638 07d8 1846     		mov	r0, r3
 9639 07da FFF7FEFF 		bl	st_word
 9640 07de 7B6B     		ldr	r3, [r7, #52]
 9641 07e0 03F5DF73 		add	r3, r3, #446
 9642 07e4 FB61     		str	r3, [r7, #28]
 9643 07e6 FB69     		ldr	r3, [r7, #28]
 9644 07e8 0022     		movs	r2, #0
 9645 07ea 1A70     		strb	r2, [r3]
 9646 07ec FB69     		ldr	r3, [r7, #28]
 9647 07ee 0133     		adds	r3, r3, #1
 9648 07f0 0122     		movs	r2, #1
 9649 07f2 1A70     		strb	r2, [r3]
 9650 07f4 FB69     		ldr	r3, [r7, #28]
 9651 07f6 0233     		adds	r3, r3, #2
 9652 07f8 0122     		movs	r2, #1
 9653 07fa 1A70     		strb	r2, [r3]
 9654 07fc FB69     		ldr	r3, [r7, #28]
 9655 07fe 0333     		adds	r3, r3, #3
 9656 0800 0022     		movs	r2, #0
 9657 0802 1A70     		strb	r2, [r3]
 9658 0804 FB69     		ldr	r3, [r7, #28]
 9659 0806 0433     		adds	r3, r3, #4
 9660 0808 97F84E20 		ldrb	r2, [r7, #78]
ARM GAS  C:\Users\user\AppData\Local\Temp\ccnu1L5f.s 			page 169


 9661 080c 1A70     		strb	r2, [r3]
 9662 080e 3A69     		ldr	r2, [r7, #16]
 9663 0810 BB6A     		ldr	r3, [r7, #40]
 9664 0812 1A44     		add	r2, r2, r3
 9665 0814 214B     		ldr	r3, .L825
 9666 0816 A3FB0213 		umull	r1, r3, r3, r2
 9667 081a D21A     		subs	r2, r2, r3
 9668 081c 5208     		lsrs	r2, r2, #1
 9669 081e 1344     		add	r3, r3, r2
 9670 0820 5B0B     		lsrs	r3, r3, #13
 9671 0822 FB65     		str	r3, [r7, #92]
 9672 0824 FB69     		ldr	r3, [r7, #28]
 9673 0826 0533     		adds	r3, r3, #5
 9674 0828 FE22     		movs	r2, #254
 9675 082a 1A70     		strb	r2, [r3]
 9676 082c FB6D     		ldr	r3, [r7, #92]
 9677 082e 9B08     		lsrs	r3, r3, #2
 9678 0830 DAB2     		uxtb	r2, r3
 9679 0832 FB69     		ldr	r3, [r7, #28]
 9680 0834 0633     		adds	r3, r3, #6
 9681 0836 42F03F02 		orr	r2, r2, #63
 9682 083a D2B2     		uxtb	r2, r2
 9683 083c 1A70     		strb	r2, [r3]
 9684 083e FB69     		ldr	r3, [r7, #28]
 9685 0840 0733     		adds	r3, r3, #7
 9686 0842 FA6D     		ldr	r2, [r7, #92]
 9687 0844 D2B2     		uxtb	r2, r2
 9688 0846 1A70     		strb	r2, [r3]
 9689 0848 FB69     		ldr	r3, [r7, #28]
 9690 084a 0833     		adds	r3, r3, #8
 9691 084c B96A     		ldr	r1, [r7, #40]
 9692 084e 1846     		mov	r0, r3
 9693 0850 FFF7FEFF 		bl	st_dword
 9694 0854 FB69     		ldr	r3, [r7, #28]
 9695 0856 0C33     		adds	r3, r3, #12
 9696 0858 3A69     		ldr	r2, [r7, #16]
 9697 085a 1146     		mov	r1, r2
 9698 085c 1846     		mov	r0, r3
 9699 085e FFF7FEFF 		bl	st_dword
 9700 0862 97F83B00 		ldrb	r0, [r7, #59]	@ zero_extendqisi2
 9701 0866 0123     		movs	r3, #1
 9702 0868 0022     		movs	r2, #0
 9703 086a 796B     		ldr	r1, [r7, #52]
 9704 086c FFF7FEFF 		bl	disk_write
 9705 0870 0346     		mov	r3, r0
 9706 0872 002B     		cmp	r3, #0
 9707 0874 01D0     		beq	.L814
 9708 0876 0123     		movs	r3, #1
 9709 0878 0CE0     		b	.L816
 9710              	.L814:
 9711 087a 97F83B30 		ldrb	r3, [r7, #59]	@ zero_extendqisi2
 9712 087e 0022     		movs	r2, #0
 9713 0880 0021     		movs	r1, #0
 9714 0882 1846     		mov	r0, r3
 9715 0884 FFF7FEFF 		bl	disk_ioctl
 9716 0888 0346     		mov	r3, r0
 9717 088a 002B     		cmp	r3, #0
ARM GAS  C:\Users\user\AppData\Local\Temp\ccnu1L5f.s 			page 170


 9718 088c 01D0     		beq	.L815
 9719 088e 0123     		movs	r3, #1
 9720 0890 00E0     		b	.L816
 9721              	.L815:
 9722 0892 0023     		movs	r3, #0
 9723              	.L816:
 9724 0894 1846     		mov	r0, r3
 9725 0896 7437     		adds	r7, r7, #116
 9726 0898 BD46     		mov	sp, r7
 9727              		@ sp needed
 9728 089a 90BD     		pop	{r4, r7, pc}
 9729              	.L826:
 9730              		.align	2
 9731              	.L825:
 9732 089c 5B561505 		.word	85284443
 9734              		.section	.text.f_gets,"ax",%progbits
 9735              		.align	1
 9736              		.global	f_gets
 9737              		.syntax unified
 9738              		.thumb
 9739              		.thumb_func
 9741              	f_gets:
 9742              		@ args = 0, pretend = 0, frame = 32
 9743              		@ frame_needed = 1, uses_anonymous_args = 0
 9744 0000 80B5     		push	{r7, lr}
 9745 0002 88B0     		sub	sp, sp, #32
 9746 0004 00AF     		add	r7, sp, #0
 9747 0006 F860     		str	r0, [r7, #12]
 9748 0008 B960     		str	r1, [r7, #8]
 9749 000a 7A60     		str	r2, [r7, #4]
 9750 000c 0023     		movs	r3, #0
 9751 000e FB61     		str	r3, [r7, #28]
 9752 0010 FB68     		ldr	r3, [r7, #12]
 9753 0012 BB61     		str	r3, [r7, #24]
 9754 0014 1CE0     		b	.L828
 9755              	.L833:
 9756 0016 07F11003 		add	r3, r7, #16
 9757 001a 07F11401 		add	r1, r7, #20
 9758 001e 0122     		movs	r2, #1
 9759 0020 7868     		ldr	r0, [r7, #4]
 9760 0022 FFF7FEFF 		bl	f_read
 9761 0026 3B69     		ldr	r3, [r7, #16]
 9762 0028 012B     		cmp	r3, #1
 9763 002a 17D1     		bne	.L837
 9764 002c 3B7D     		ldrb	r3, [r7, #20]
 9765 002e FB75     		strb	r3, [r7, #23]
 9766 0030 FB7D     		ldrb	r3, [r7, #23]	@ zero_extendqisi2
 9767 0032 0D2B     		cmp	r3, #13
 9768 0034 0BD0     		beq	.L838
 9769 0036 BB69     		ldr	r3, [r7, #24]
 9770 0038 5A1C     		adds	r2, r3, #1
 9771 003a BA61     		str	r2, [r7, #24]
 9772 003c FA7D     		ldrb	r2, [r7, #23]
 9773 003e 1A70     		strb	r2, [r3]
 9774 0040 FB69     		ldr	r3, [r7, #28]
 9775 0042 0133     		adds	r3, r3, #1
 9776 0044 FB61     		str	r3, [r7, #28]
ARM GAS  C:\Users\user\AppData\Local\Temp\ccnu1L5f.s 			page 171


 9777 0046 FB7D     		ldrb	r3, [r7, #23]	@ zero_extendqisi2
 9778 0048 0A2B     		cmp	r3, #10
 9779 004a 09D0     		beq	.L839
 9780 004c 00E0     		b	.L828
 9781              	.L838:
 9782 004e 00BF     		nop
 9783              	.L828:
 9784 0050 BB68     		ldr	r3, [r7, #8]
 9785 0052 013B     		subs	r3, r3, #1
 9786 0054 FA69     		ldr	r2, [r7, #28]
 9787 0056 9A42     		cmp	r2, r3
 9788 0058 DDDB     		blt	.L833
 9789 005a 02E0     		b	.L830
 9790              	.L837:
 9791 005c 00BF     		nop
 9792 005e 00E0     		b	.L830
 9793              	.L839:
 9794 0060 00BF     		nop
 9795              	.L830:
 9796 0062 BB69     		ldr	r3, [r7, #24]
 9797 0064 0022     		movs	r2, #0
 9798 0066 1A70     		strb	r2, [r3]
 9799 0068 FB69     		ldr	r3, [r7, #28]
 9800 006a 002B     		cmp	r3, #0
 9801 006c 01D0     		beq	.L834
 9802 006e FB68     		ldr	r3, [r7, #12]
 9803 0070 00E0     		b	.L836
 9804              	.L834:
 9805 0072 0023     		movs	r3, #0
 9806              	.L836:
 9807 0074 1846     		mov	r0, r3
 9808 0076 2037     		adds	r7, r7, #32
 9809 0078 BD46     		mov	sp, r7
 9810              		@ sp needed
 9811 007a 80BD     		pop	{r7, pc}
 9813              		.section	.text.putc_bfd,"ax",%progbits
 9814              		.align	1
 9815              		.syntax unified
 9816              		.thumb
 9817              		.thumb_func
 9819              	putc_bfd:
 9820              		@ args = 0, pretend = 0, frame = 16
 9821              		@ frame_needed = 1, uses_anonymous_args = 0
 9822 0000 80B5     		push	{r7, lr}
 9823 0002 84B0     		sub	sp, sp, #16
 9824 0004 00AF     		add	r7, sp, #0
 9825 0006 7860     		str	r0, [r7, #4]
 9826 0008 0B46     		mov	r3, r1
 9827 000a FB70     		strb	r3, [r7, #3]
 9828 000c FB78     		ldrb	r3, [r7, #3]	@ zero_extendqisi2
 9829 000e 0A2B     		cmp	r3, #10
 9830 0010 03D1     		bne	.L841
 9831 0012 0D21     		movs	r1, #13
 9832 0014 7868     		ldr	r0, [r7, #4]
 9833 0016 FFF7F3FF 		bl	putc_bfd
 9834              	.L841:
 9835 001a 7B68     		ldr	r3, [r7, #4]
ARM GAS  C:\Users\user\AppData\Local\Temp\ccnu1L5f.s 			page 172


 9836 001c 5B68     		ldr	r3, [r3, #4]
 9837 001e FB60     		str	r3, [r7, #12]
 9838 0020 FB68     		ldr	r3, [r7, #12]
 9839 0022 002B     		cmp	r3, #0
 9840 0024 25DB     		blt	.L847
 9841 0026 FB68     		ldr	r3, [r7, #12]
 9842 0028 5A1C     		adds	r2, r3, #1
 9843 002a FA60     		str	r2, [r7, #12]
 9844 002c 7A68     		ldr	r2, [r7, #4]
 9845 002e 1344     		add	r3, r3, r2
 9846 0030 FA78     		ldrb	r2, [r7, #3]
 9847 0032 1A73     		strb	r2, [r3, #12]
 9848 0034 FB68     		ldr	r3, [r7, #12]
 9849 0036 3C2B     		cmp	r3, #60
 9850 0038 12DD     		ble	.L844
 9851 003a 7B68     		ldr	r3, [r7, #4]
 9852 003c 1868     		ldr	r0, [r3]
 9853 003e 7B68     		ldr	r3, [r7, #4]
 9854 0040 03F10C01 		add	r1, r3, #12
 9855 0044 FA68     		ldr	r2, [r7, #12]
 9856 0046 07F10803 		add	r3, r7, #8
 9857 004a FFF7FEFF 		bl	f_write
 9858 004e BA68     		ldr	r2, [r7, #8]
 9859 0050 FB68     		ldr	r3, [r7, #12]
 9860 0052 9A42     		cmp	r2, r3
 9861 0054 01D1     		bne	.L845
 9862 0056 0023     		movs	r3, #0
 9863 0058 01E0     		b	.L846
 9864              	.L845:
 9865 005a 4FF0FF33 		mov	r3, #-1
 9866              	.L846:
 9867 005e FB60     		str	r3, [r7, #12]
 9868              	.L844:
 9869 0060 7B68     		ldr	r3, [r7, #4]
 9870 0062 FA68     		ldr	r2, [r7, #12]
 9871 0064 5A60     		str	r2, [r3, #4]
 9872 0066 7B68     		ldr	r3, [r7, #4]
 9873 0068 9B68     		ldr	r3, [r3, #8]
 9874 006a 5A1C     		adds	r2, r3, #1
 9875 006c 7B68     		ldr	r3, [r7, #4]
 9876 006e 9A60     		str	r2, [r3, #8]
 9877 0070 00E0     		b	.L840
 9878              	.L847:
 9879 0072 00BF     		nop
 9880              	.L840:
 9881 0074 1037     		adds	r7, r7, #16
 9882 0076 BD46     		mov	sp, r7
 9883              		@ sp needed
 9884 0078 80BD     		pop	{r7, pc}
 9886              		.section	.text.putc_flush,"ax",%progbits
 9887              		.align	1
 9888              		.syntax unified
 9889              		.thumb
 9890              		.thumb_func
 9892              	putc_flush:
 9893              		@ args = 0, pretend = 0, frame = 16
 9894              		@ frame_needed = 1, uses_anonymous_args = 0
ARM GAS  C:\Users\user\AppData\Local\Temp\ccnu1L5f.s 			page 173


 9895 0000 80B5     		push	{r7, lr}
 9896 0002 84B0     		sub	sp, sp, #16
 9897 0004 00AF     		add	r7, sp, #0
 9898 0006 7860     		str	r0, [r7, #4]
 9899 0008 7B68     		ldr	r3, [r7, #4]
 9900 000a 5B68     		ldr	r3, [r3, #4]
 9901 000c 002B     		cmp	r3, #0
 9902 000e 16DB     		blt	.L849
 9903 0010 7B68     		ldr	r3, [r7, #4]
 9904 0012 1868     		ldr	r0, [r3]
 9905 0014 7B68     		ldr	r3, [r7, #4]
 9906 0016 03F10C01 		add	r1, r3, #12
 9907 001a 7B68     		ldr	r3, [r7, #4]
 9908 001c 5B68     		ldr	r3, [r3, #4]
 9909 001e 1A46     		mov	r2, r3
 9910 0020 07F10C03 		add	r3, r7, #12
 9911 0024 FFF7FEFF 		bl	f_write
 9912 0028 0346     		mov	r3, r0
 9913 002a 002B     		cmp	r3, #0
 9914 002c 07D1     		bne	.L849
 9915 002e 7B68     		ldr	r3, [r7, #4]
 9916 0030 5B68     		ldr	r3, [r3, #4]
 9917 0032 FA68     		ldr	r2, [r7, #12]
 9918 0034 9342     		cmp	r3, r2
 9919 0036 02D1     		bne	.L849
 9920 0038 7B68     		ldr	r3, [r7, #4]
 9921 003a 9B68     		ldr	r3, [r3, #8]
 9922 003c 01E0     		b	.L851
 9923              	.L849:
 9924 003e 4FF0FF33 		mov	r3, #-1
 9925              	.L851:
 9926 0042 1846     		mov	r0, r3
 9927 0044 1037     		adds	r7, r7, #16
 9928 0046 BD46     		mov	sp, r7
 9929              		@ sp needed
 9930 0048 80BD     		pop	{r7, pc}
 9932              		.section	.text.putc_init,"ax",%progbits
 9933              		.align	1
 9934              		.syntax unified
 9935              		.thumb
 9936              		.thumb_func
 9938              	putc_init:
 9939              		@ args = 0, pretend = 0, frame = 8
 9940              		@ frame_needed = 1, uses_anonymous_args = 0
 9941              		@ link register save eliminated.
 9942 0000 80B4     		push	{r7}
 9943 0002 83B0     		sub	sp, sp, #12
 9944 0004 00AF     		add	r7, sp, #0
 9945 0006 7860     		str	r0, [r7, #4]
 9946 0008 3960     		str	r1, [r7]
 9947 000a 7B68     		ldr	r3, [r7, #4]
 9948 000c 3A68     		ldr	r2, [r7]
 9949 000e 1A60     		str	r2, [r3]
 9950 0010 7B68     		ldr	r3, [r7, #4]
 9951 0012 0022     		movs	r2, #0
 9952 0014 5A60     		str	r2, [r3, #4]
 9953 0016 7B68     		ldr	r3, [r7, #4]
ARM GAS  C:\Users\user\AppData\Local\Temp\ccnu1L5f.s 			page 174


 9954 0018 5A68     		ldr	r2, [r3, #4]
 9955 001a 7B68     		ldr	r3, [r7, #4]
 9956 001c 9A60     		str	r2, [r3, #8]
 9957 001e 00BF     		nop
 9958 0020 0C37     		adds	r7, r7, #12
 9959 0022 BD46     		mov	sp, r7
 9960              		@ sp needed
 9961 0024 5DF8047B 		ldr	r7, [sp], #4
 9962 0028 7047     		bx	lr
 9964              		.section	.text.f_putc,"ax",%progbits
 9965              		.align	1
 9966              		.global	f_putc
 9967              		.syntax unified
 9968              		.thumb
 9969              		.thumb_func
 9971              	f_putc:
 9972              		@ args = 0, pretend = 0, frame = 88
 9973              		@ frame_needed = 1, uses_anonymous_args = 0
 9974 0000 80B5     		push	{r7, lr}
 9975 0002 96B0     		sub	sp, sp, #88
 9976 0004 00AF     		add	r7, sp, #0
 9977 0006 0346     		mov	r3, r0
 9978 0008 3960     		str	r1, [r7]
 9979 000a FB71     		strb	r3, [r7, #7]
 9980 000c 07F10C03 		add	r3, r7, #12
 9981 0010 3968     		ldr	r1, [r7]
 9982 0012 1846     		mov	r0, r3
 9983 0014 FFF7FEFF 		bl	putc_init
 9984 0018 FA79     		ldrb	r2, [r7, #7]	@ zero_extendqisi2
 9985 001a 07F10C03 		add	r3, r7, #12
 9986 001e 1146     		mov	r1, r2
 9987 0020 1846     		mov	r0, r3
 9988 0022 FFF7FEFF 		bl	putc_bfd
 9989 0026 07F10C03 		add	r3, r7, #12
 9990 002a 1846     		mov	r0, r3
 9991 002c FFF7FEFF 		bl	putc_flush
 9992 0030 0346     		mov	r3, r0
 9993 0032 1846     		mov	r0, r3
 9994 0034 5837     		adds	r7, r7, #88
 9995 0036 BD46     		mov	sp, r7
 9996              		@ sp needed
 9997 0038 80BD     		pop	{r7, pc}
 9999              		.section	.text.f_puts,"ax",%progbits
 10000              		.align	1
 10001              		.global	f_puts
 10002              		.syntax unified
 10003              		.thumb
 10004              		.thumb_func
 10006              	f_puts:
 10007              		@ args = 0, pretend = 0, frame = 88
 10008              		@ frame_needed = 1, uses_anonymous_args = 0
 10009 0000 80B5     		push	{r7, lr}
 10010 0002 96B0     		sub	sp, sp, #88
 10011 0004 00AF     		add	r7, sp, #0
 10012 0006 7860     		str	r0, [r7, #4]
 10013 0008 3960     		str	r1, [r7]
 10014 000a 07F10C03 		add	r3, r7, #12
ARM GAS  C:\Users\user\AppData\Local\Temp\ccnu1L5f.s 			page 175


 10015 000e 3968     		ldr	r1, [r7]
 10016 0010 1846     		mov	r0, r3
 10017 0012 FFF7FEFF 		bl	putc_init
 10018 0016 09E0     		b	.L856
 10019              	.L857:
 10020 0018 7B68     		ldr	r3, [r7, #4]
 10021 001a 5A1C     		adds	r2, r3, #1
 10022 001c 7A60     		str	r2, [r7, #4]
 10023 001e 1A78     		ldrb	r2, [r3]	@ zero_extendqisi2
 10024 0020 07F10C03 		add	r3, r7, #12
 10025 0024 1146     		mov	r1, r2
 10026 0026 1846     		mov	r0, r3
 10027 0028 FFF7FEFF 		bl	putc_bfd
 10028              	.L856:
 10029 002c 7B68     		ldr	r3, [r7, #4]
 10030 002e 1B78     		ldrb	r3, [r3]	@ zero_extendqisi2
 10031 0030 002B     		cmp	r3, #0
 10032 0032 F1D1     		bne	.L857
 10033 0034 07F10C03 		add	r3, r7, #12
 10034 0038 1846     		mov	r0, r3
 10035 003a FFF7FEFF 		bl	putc_flush
 10036 003e 0346     		mov	r3, r0
 10037 0040 1846     		mov	r0, r3
 10038 0042 5837     		adds	r7, r7, #88
 10039 0044 BD46     		mov	sp, r7
 10040              		@ sp needed
 10041 0046 80BD     		pop	{r7, pc}
 10043              		.section	.text.f_printf,"ax",%progbits
 10044              		.align	1
 10045              		.global	f_printf
 10046              		.syntax unified
 10047              		.thumb
 10048              		.thumb_func
 10050              	f_printf:
 10051              		@ args = 4, pretend = 12, frame = 152
 10052              		@ frame_needed = 1, uses_anonymous_args = 1
 10053 0000 0EB4     		push	{r1, r2, r3}
 10054 0002 80B5     		push	{r7, lr}
 10055 0004 A7B0     		sub	sp, sp, #156
 10056 0006 00AF     		add	r7, sp, #0
 10057 0008 7860     		str	r0, [r7, #4]
 10058 000a 07F12C03 		add	r3, r7, #44
 10059 000e 7968     		ldr	r1, [r7, #4]
 10060 0010 1846     		mov	r0, r3
 10061 0012 FFF7FEFF 		bl	putc_init
 10062 0016 07F1A803 		add	r3, r7, #168
 10063 001a BB67     		str	r3, [r7, #120]
 10064              	.L910:
 10065 001c D7F8A430 		ldr	r3, [r7, #164]
 10066 0020 5A1C     		adds	r2, r3, #1
 10067 0022 C7F8A420 		str	r2, [r7, #164]
 10068 0026 1B78     		ldrb	r3, [r3]
 10069 0028 87F88330 		strb	r3, [r7, #131]
 10070 002c 97F88330 		ldrb	r3, [r7, #131]	@ zero_extendqisi2
 10071 0030 002B     		cmp	r3, #0
 10072 0032 00F0F281 		beq	.L912
 10073 0036 97F88330 		ldrb	r3, [r7, #131]	@ zero_extendqisi2
ARM GAS  C:\Users\user\AppData\Local\Temp\ccnu1L5f.s 			page 176


 10074 003a 252B     		cmp	r3, #37
 10075 003c 08D0     		beq	.L862
 10076 003e 97F88320 		ldrb	r2, [r7, #131]	@ zero_extendqisi2
 10077 0042 07F12C03 		add	r3, r7, #44
 10078 0046 1146     		mov	r1, r2
 10079 0048 1846     		mov	r0, r3
 10080 004a FFF7FEFF 		bl	putc_bfd
 10081 004e E3E1     		b	.L863
 10082              	.L862:
 10083 0050 0023     		movs	r3, #0
 10084 0052 87F89730 		strb	r3, [r7, #151]
 10085 0056 0023     		movs	r3, #0
 10086 0058 C7F88830 		str	r3, [r7, #136]
 10087 005c D7F8A430 		ldr	r3, [r7, #164]
 10088 0060 5A1C     		adds	r2, r3, #1
 10089 0062 C7F8A420 		str	r2, [r7, #164]
 10090 0066 1B78     		ldrb	r3, [r3]
 10091 0068 87F88330 		strb	r3, [r7, #131]
 10092 006c 97F88330 		ldrb	r3, [r7, #131]	@ zero_extendqisi2
 10093 0070 302B     		cmp	r3, #48
 10094 0072 0BD1     		bne	.L864
 10095 0074 0123     		movs	r3, #1
 10096 0076 87F89730 		strb	r3, [r7, #151]
 10097 007a D7F8A430 		ldr	r3, [r7, #164]
 10098 007e 5A1C     		adds	r2, r3, #1
 10099 0080 C7F8A420 		str	r2, [r7, #164]
 10100 0084 1B78     		ldrb	r3, [r3]
 10101 0086 87F88330 		strb	r3, [r7, #131]
 10102 008a 24E0     		b	.L866
 10103              	.L864:
 10104 008c 97F88330 		ldrb	r3, [r7, #131]	@ zero_extendqisi2
 10105 0090 2D2B     		cmp	r3, #45
 10106 0092 20D1     		bne	.L866
 10107 0094 0223     		movs	r3, #2
 10108 0096 87F89730 		strb	r3, [r7, #151]
 10109 009a D7F8A430 		ldr	r3, [r7, #164]
 10110 009e 5A1C     		adds	r2, r3, #1
 10111 00a0 C7F8A420 		str	r2, [r7, #164]
 10112 00a4 1B78     		ldrb	r3, [r3]
 10113 00a6 87F88330 		strb	r3, [r7, #131]
 10114 00aa 14E0     		b	.L866
 10115              	.L868:
 10116 00ac D7F88820 		ldr	r2, [r7, #136]
 10117 00b0 1346     		mov	r3, r2
 10118 00b2 9B00     		lsls	r3, r3, #2
 10119 00b4 1344     		add	r3, r3, r2
 10120 00b6 5B00     		lsls	r3, r3, #1
 10121 00b8 1A46     		mov	r2, r3
 10122 00ba 97F88330 		ldrb	r3, [r7, #131]	@ zero_extendqisi2
 10123 00be 1344     		add	r3, r3, r2
 10124 00c0 303B     		subs	r3, r3, #48
 10125 00c2 C7F88830 		str	r3, [r7, #136]
 10126 00c6 D7F8A430 		ldr	r3, [r7, #164]
 10127 00ca 5A1C     		adds	r2, r3, #1
 10128 00cc C7F8A420 		str	r2, [r7, #164]
 10129 00d0 1B78     		ldrb	r3, [r3]
 10130 00d2 87F88330 		strb	r3, [r7, #131]
ARM GAS  C:\Users\user\AppData\Local\Temp\ccnu1L5f.s 			page 177


 10131              	.L866:
 10132 00d6 97F88330 		ldrb	r3, [r7, #131]	@ zero_extendqisi2
 10133 00da 2F2B     		cmp	r3, #47
 10134 00dc 03D9     		bls	.L867
 10135 00de 97F88330 		ldrb	r3, [r7, #131]	@ zero_extendqisi2
 10136 00e2 392B     		cmp	r3, #57
 10137 00e4 E2D9     		bls	.L868
 10138              	.L867:
 10139 00e6 97F88330 		ldrb	r3, [r7, #131]	@ zero_extendqisi2
 10140 00ea 6C2B     		cmp	r3, #108
 10141 00ec 03D0     		beq	.L869
 10142 00ee 97F88330 		ldrb	r3, [r7, #131]	@ zero_extendqisi2
 10143 00f2 4C2B     		cmp	r3, #76
 10144 00f4 0DD1     		bne	.L870
 10145              	.L869:
 10146 00f6 97F89730 		ldrb	r3, [r7, #151]
 10147 00fa 43F00403 		orr	r3, r3, #4
 10148 00fe 87F89730 		strb	r3, [r7, #151]
 10149 0102 D7F8A430 		ldr	r3, [r7, #164]
 10150 0106 5A1C     		adds	r2, r3, #1
 10151 0108 C7F8A420 		str	r2, [r7, #164]
 10152 010c 1B78     		ldrb	r3, [r3]
 10153 010e 87F88330 		strb	r3, [r7, #131]
 10154              	.L870:
 10155 0112 97F88330 		ldrb	r3, [r7, #131]	@ zero_extendqisi2
 10156 0116 002B     		cmp	r3, #0
 10157 0118 00F08181 		beq	.L913
 10158 011c 97F88330 		ldrb	r3, [r7, #131]
 10159 0120 87F88230 		strb	r3, [r7, #130]
 10160 0124 97F88230 		ldrb	r3, [r7, #130]	@ zero_extendqisi2
 10161 0128 602B     		cmp	r3, #96
 10162 012a 08D9     		bls	.L872
 10163 012c 97F88230 		ldrb	r3, [r7, #130]	@ zero_extendqisi2
 10164 0130 7A2B     		cmp	r3, #122
 10165 0132 04D8     		bhi	.L872
 10166 0134 97F88230 		ldrb	r3, [r7, #130]
 10167 0138 203B     		subs	r3, r3, #32
 10168 013a 87F88230 		strb	r3, [r7, #130]
 10169              	.L872:
 10170 013e 97F88230 		ldrb	r3, [r7, #130]	@ zero_extendqisi2
 10171 0142 423B     		subs	r3, r3, #66
 10172 0144 162B     		cmp	r3, #22
 10173 0146 00F29880 		bhi	.L873
 10174 014a 01A2     		adr	r2, .L875
 10175 014c 52F823F0 		ldr	pc, [r2, r3, lsl #2]
 10176              		.p2align 2
 10177              	.L875:
 10178 0150 5B020000 		.word	.L880+1
 10179 0154 43020000 		.word	.L879+1
 10180 0158 6B020000 		.word	.L876+1
 10181 015c 7B020000 		.word	.L873+1
 10182 0160 7B020000 		.word	.L873+1
 10183 0164 7B020000 		.word	.L873+1
 10184 0168 7B020000 		.word	.L873+1
 10185 016c 7B020000 		.word	.L873+1
 10186 0170 7B020000 		.word	.L873+1
 10187 0174 7B020000 		.word	.L873+1
ARM GAS  C:\Users\user\AppData\Local\Temp\ccnu1L5f.s 			page 178


 10188 0178 7B020000 		.word	.L873+1
 10189 017c 7B020000 		.word	.L873+1
 10190 0180 7B020000 		.word	.L873+1
 10191 0184 63020000 		.word	.L878+1
 10192 0188 7B020000 		.word	.L873+1
 10193 018c 7B020000 		.word	.L873+1
 10194 0190 7B020000 		.word	.L873+1
 10195 0194 AD010000 		.word	.L877+1
 10196 0198 7B020000 		.word	.L873+1
 10197 019c 6B020000 		.word	.L876+1
 10198 01a0 7B020000 		.word	.L873+1
 10199 01a4 7B020000 		.word	.L873+1
 10200 01a8 73020000 		.word	.L874+1
 10201              		.p2align 1
 10202              	.L877:
 10203 01ac BB6F     		ldr	r3, [r7, #120]
 10204 01ae 1A1D     		adds	r2, r3, #4
 10205 01b0 BA67     		str	r2, [r7, #120]
 10206 01b2 1B68     		ldr	r3, [r3]
 10207 01b4 FB67     		str	r3, [r7, #124]
 10208 01b6 0023     		movs	r3, #0
 10209 01b8 C7F88C30 		str	r3, [r7, #140]
 10210 01bc 04E0     		b	.L881
 10211              	.L882:
 10212 01be D7F88C30 		ldr	r3, [r7, #140]
 10213 01c2 0133     		adds	r3, r3, #1
 10214 01c4 C7F88C30 		str	r3, [r7, #140]
 10215              	.L881:
 10216 01c8 FA6F     		ldr	r2, [r7, #124]
 10217 01ca D7F88C30 		ldr	r3, [r7, #140]
 10218 01ce 1344     		add	r3, r3, r2
 10219 01d0 1B78     		ldrb	r3, [r3]	@ zero_extendqisi2
 10220 01d2 002B     		cmp	r3, #0
 10221 01d4 F3D1     		bne	.L882
 10222 01d6 97F89730 		ldrb	r3, [r7, #151]	@ zero_extendqisi2
 10223 01da 03F00203 		and	r3, r3, #2
 10224 01de 002B     		cmp	r3, #0
 10225 01e0 1AD1     		bne	.L886
 10226 01e2 05E0     		b	.L884
 10227              	.L885:
 10228 01e4 07F12C03 		add	r3, r7, #44
 10229 01e8 2021     		movs	r1, #32
 10230 01ea 1846     		mov	r0, r3
 10231 01ec FFF7FEFF 		bl	putc_bfd
 10232              	.L884:
 10233 01f0 D7F88C30 		ldr	r3, [r7, #140]
 10234 01f4 5A1C     		adds	r2, r3, #1
 10235 01f6 C7F88C20 		str	r2, [r7, #140]
 10236 01fa D7F88820 		ldr	r2, [r7, #136]
 10237 01fe 9A42     		cmp	r2, r3
 10238 0200 F0D8     		bhi	.L885
 10239 0202 09E0     		b	.L886
 10240              	.L887:
 10241 0204 FB6F     		ldr	r3, [r7, #124]
 10242 0206 5A1C     		adds	r2, r3, #1
 10243 0208 FA67     		str	r2, [r7, #124]
 10244 020a 1A78     		ldrb	r2, [r3]	@ zero_extendqisi2
ARM GAS  C:\Users\user\AppData\Local\Temp\ccnu1L5f.s 			page 179


 10245 020c 07F12C03 		add	r3, r7, #44
 10246 0210 1146     		mov	r1, r2
 10247 0212 1846     		mov	r0, r3
 10248 0214 FFF7FEFF 		bl	putc_bfd
 10249              	.L886:
 10250 0218 FB6F     		ldr	r3, [r7, #124]
 10251 021a 1B78     		ldrb	r3, [r3]	@ zero_extendqisi2
 10252 021c 002B     		cmp	r3, #0
 10253 021e F1D1     		bne	.L887
 10254 0220 05E0     		b	.L888
 10255              	.L889:
 10256 0222 07F12C03 		add	r3, r7, #44
 10257 0226 2021     		movs	r1, #32
 10258 0228 1846     		mov	r0, r3
 10259 022a FFF7FEFF 		bl	putc_bfd
 10260              	.L888:
 10261 022e D7F88C30 		ldr	r3, [r7, #140]
 10262 0232 5A1C     		adds	r2, r3, #1
 10263 0234 C7F88C20 		str	r2, [r7, #140]
 10264 0238 D7F88820 		ldr	r2, [r7, #136]
 10265 023c 9A42     		cmp	r2, r3
 10266 023e F0D8     		bhi	.L889
 10267 0240 EAE0     		b	.L863
 10268              	.L879:
 10269 0242 BB6F     		ldr	r3, [r7, #120]
 10270 0244 1A1D     		adds	r2, r3, #4
 10271 0246 BA67     		str	r2, [r7, #120]
 10272 0248 1B68     		ldr	r3, [r3]
 10273 024a DAB2     		uxtb	r2, r3
 10274 024c 07F12C03 		add	r3, r7, #44
 10275 0250 1146     		mov	r1, r2
 10276 0252 1846     		mov	r0, r3
 10277 0254 FFF7FEFF 		bl	putc_bfd
 10278 0258 DEE0     		b	.L863
 10279              	.L880:
 10280 025a 0223     		movs	r3, #2
 10281 025c 87F89630 		strb	r3, [r7, #150]
 10282 0260 14E0     		b	.L890
 10283              	.L878:
 10284 0262 0823     		movs	r3, #8
 10285 0264 87F89630 		strb	r3, [r7, #150]
 10286 0268 10E0     		b	.L890
 10287              	.L876:
 10288 026a 0A23     		movs	r3, #10
 10289 026c 87F89630 		strb	r3, [r7, #150]
 10290 0270 0CE0     		b	.L890
 10291              	.L874:
 10292 0272 1023     		movs	r3, #16
 10293 0274 87F89630 		strb	r3, [r7, #150]
 10294 0278 08E0     		b	.L890
 10295              	.L873:
 10296 027a 97F88320 		ldrb	r2, [r7, #131]	@ zero_extendqisi2
 10297 027e 07F12C03 		add	r3, r7, #44
 10298 0282 1146     		mov	r1, r2
 10299 0284 1846     		mov	r0, r3
 10300 0286 FFF7FEFF 		bl	putc_bfd
 10301 028a C5E0     		b	.L863
ARM GAS  C:\Users\user\AppData\Local\Temp\ccnu1L5f.s 			page 180


 10302              	.L890:
 10303 028c 97F89730 		ldrb	r3, [r7, #151]	@ zero_extendqisi2
 10304 0290 03F00403 		and	r3, r3, #4
 10305 0294 002B     		cmp	r3, #0
 10306 0296 04D0     		beq	.L891
 10307 0298 BB6F     		ldr	r3, [r7, #120]
 10308 029a 1A1D     		adds	r2, r3, #4
 10309 029c BA67     		str	r2, [r7, #120]
 10310 029e 1B68     		ldr	r3, [r3]
 10311 02a0 0CE0     		b	.L892
 10312              	.L891:
 10313 02a2 97F88230 		ldrb	r3, [r7, #130]	@ zero_extendqisi2
 10314 02a6 442B     		cmp	r3, #68
 10315 02a8 04D1     		bne	.L893
 10316 02aa BB6F     		ldr	r3, [r7, #120]
 10317 02ac 1A1D     		adds	r2, r3, #4
 10318 02ae BA67     		str	r2, [r7, #120]
 10319 02b0 1B68     		ldr	r3, [r3]
 10320 02b2 03E0     		b	.L892
 10321              	.L893:
 10322 02b4 BB6F     		ldr	r3, [r7, #120]
 10323 02b6 1A1D     		adds	r2, r3, #4
 10324 02b8 BA67     		str	r2, [r7, #120]
 10325 02ba 1B68     		ldr	r3, [r3]
 10326              	.L892:
 10327 02bc C7F88430 		str	r3, [r7, #132]
 10328 02c0 97F88230 		ldrb	r3, [r7, #130]	@ zero_extendqisi2
 10329 02c4 442B     		cmp	r3, #68
 10330 02c6 0ED1     		bne	.L895
 10331 02c8 D7F88430 		ldr	r3, [r7, #132]
 10332 02cc 002B     		cmp	r3, #0
 10333 02ce 0ADA     		bge	.L895
 10334 02d0 D7F88430 		ldr	r3, [r7, #132]
 10335 02d4 5B42     		rsbs	r3, r3, #0
 10336 02d6 C7F88430 		str	r3, [r7, #132]
 10337 02da 97F89730 		ldrb	r3, [r7, #151]
 10338 02de 43F00803 		orr	r3, r3, #8
 10339 02e2 87F89730 		strb	r3, [r7, #151]
 10340              	.L895:
 10341 02e6 0023     		movs	r3, #0
 10342 02e8 C7F89030 		str	r3, [r7, #144]
 10343              	.L900:
 10344 02ec 97F89620 		ldrb	r2, [r7, #150]	@ zero_extendqisi2
 10345 02f0 D7F88430 		ldr	r3, [r7, #132]
 10346 02f4 B3FBF2F1 		udiv	r1, r3, r2
 10347 02f8 01FB02F2 		mul	r2, r1, r2
 10348 02fc 9B1A     		subs	r3, r3, r2
 10349 02fe 87F88230 		strb	r3, [r7, #130]
 10350 0302 97F89630 		ldrb	r3, [r7, #150]	@ zero_extendqisi2
 10351 0306 D7F88420 		ldr	r2, [r7, #132]
 10352 030a B2FBF3F3 		udiv	r3, r2, r3
 10353 030e C7F88430 		str	r3, [r7, #132]
 10354 0312 97F88230 		ldrb	r3, [r7, #130]	@ zero_extendqisi2
 10355 0316 092B     		cmp	r3, #9
 10356 0318 0BD9     		bls	.L896
 10357 031a 97F88330 		ldrb	r3, [r7, #131]	@ zero_extendqisi2
 10358 031e 782B     		cmp	r3, #120
ARM GAS  C:\Users\user\AppData\Local\Temp\ccnu1L5f.s 			page 181


 10359 0320 01D1     		bne	.L897
 10360 0322 2722     		movs	r2, #39
 10361 0324 00E0     		b	.L898
 10362              	.L897:
 10363 0326 0722     		movs	r2, #7
 10364              	.L898:
 10365 0328 97F88230 		ldrb	r3, [r7, #130]
 10366 032c 1344     		add	r3, r3, r2
 10367 032e 87F88230 		strb	r3, [r7, #130]
 10368              	.L896:
 10369 0332 D7F89030 		ldr	r3, [r7, #144]
 10370 0336 5A1C     		adds	r2, r3, #1
 10371 0338 C7F89020 		str	r2, [r7, #144]
 10372 033c 97F88220 		ldrb	r2, [r7, #130]
 10373 0340 3032     		adds	r2, r2, #48
 10374 0342 D2B2     		uxtb	r2, r2
 10375 0344 9833     		adds	r3, r3, #152
 10376 0346 3B44     		add	r3, r3, r7
 10377 0348 03F88C2C 		strb	r2, [r3, #-140]
 10378 034c D7F88430 		ldr	r3, [r7, #132]
 10379 0350 002B     		cmp	r3, #0
 10380 0352 03D0     		beq	.L899
 10381 0354 D7F89030 		ldr	r3, [r7, #144]
 10382 0358 1F2B     		cmp	r3, #31
 10383 035a C7D9     		bls	.L900
 10384              	.L899:
 10385 035c 97F89730 		ldrb	r3, [r7, #151]	@ zero_extendqisi2
 10386 0360 03F00803 		and	r3, r3, #8
 10387 0364 002B     		cmp	r3, #0
 10388 0366 09D0     		beq	.L901
 10389 0368 D7F89030 		ldr	r3, [r7, #144]
 10390 036c 5A1C     		adds	r2, r3, #1
 10391 036e C7F89020 		str	r2, [r7, #144]
 10392 0372 9833     		adds	r3, r3, #152
 10393 0374 3B44     		add	r3, r3, r7
 10394 0376 2D22     		movs	r2, #45
 10395 0378 03F88C2C 		strb	r2, [r3, #-140]
 10396              	.L901:
 10397 037c D7F89030 		ldr	r3, [r7, #144]
 10398 0380 C7F88C30 		str	r3, [r7, #140]
 10399 0384 97F89730 		ldrb	r3, [r7, #151]	@ zero_extendqisi2
 10400 0388 03F00103 		and	r3, r3, #1
 10401 038c 002B     		cmp	r3, #0
 10402 038e 01D0     		beq	.L902
 10403 0390 3023     		movs	r3, #48
 10404 0392 00E0     		b	.L903
 10405              	.L902:
 10406 0394 2023     		movs	r3, #32
 10407              	.L903:
 10408 0396 87F88230 		strb	r3, [r7, #130]
 10409 039a 07E0     		b	.L904
 10410              	.L906:
 10411 039c 97F88220 		ldrb	r2, [r7, #130]	@ zero_extendqisi2
 10412 03a0 07F12C03 		add	r3, r7, #44
 10413 03a4 1146     		mov	r1, r2
 10414 03a6 1846     		mov	r0, r3
 10415 03a8 FFF7FEFF 		bl	putc_bfd
ARM GAS  C:\Users\user\AppData\Local\Temp\ccnu1L5f.s 			page 182


 10416              	.L904:
 10417 03ac 97F89730 		ldrb	r3, [r7, #151]	@ zero_extendqisi2
 10418 03b0 03F00203 		and	r3, r3, #2
 10419 03b4 002B     		cmp	r3, #0
 10420 03b6 08D1     		bne	.L907
 10421 03b8 D7F88C30 		ldr	r3, [r7, #140]
 10422 03bc 5A1C     		adds	r2, r3, #1
 10423 03be C7F88C20 		str	r2, [r7, #140]
 10424 03c2 D7F88820 		ldr	r2, [r7, #136]
 10425 03c6 9A42     		cmp	r2, r3
 10426 03c8 E8D8     		bhi	.L906
 10427              	.L907:
 10428 03ca D7F89030 		ldr	r3, [r7, #144]
 10429 03ce 013B     		subs	r3, r3, #1
 10430 03d0 C7F89030 		str	r3, [r7, #144]
 10431 03d4 07F10C02 		add	r2, r7, #12
 10432 03d8 D7F89030 		ldr	r3, [r7, #144]
 10433 03dc 1344     		add	r3, r3, r2
 10434 03de 1A78     		ldrb	r2, [r3]	@ zero_extendqisi2
 10435 03e0 07F12C03 		add	r3, r7, #44
 10436 03e4 1146     		mov	r1, r2
 10437 03e6 1846     		mov	r0, r3
 10438 03e8 FFF7FEFF 		bl	putc_bfd
 10439 03ec D7F89030 		ldr	r3, [r7, #144]
 10440 03f0 002B     		cmp	r3, #0
 10441 03f2 EAD1     		bne	.L907
 10442 03f4 07E0     		b	.L908
 10443              	.L909:
 10444 03f6 97F88220 		ldrb	r2, [r7, #130]	@ zero_extendqisi2
 10445 03fa 07F12C03 		add	r3, r7, #44
 10446 03fe 1146     		mov	r1, r2
 10447 0400 1846     		mov	r0, r3
 10448 0402 FFF7FEFF 		bl	putc_bfd
 10449              	.L908:
 10450 0406 D7F88C30 		ldr	r3, [r7, #140]
 10451 040a 5A1C     		adds	r2, r3, #1
 10452 040c C7F88C20 		str	r2, [r7, #140]
 10453 0410 D7F88820 		ldr	r2, [r7, #136]
 10454 0414 9A42     		cmp	r2, r3
 10455 0416 EED8     		bhi	.L909
 10456              	.L863:
 10457 0418 00E6     		b	.L910
 10458              	.L912:
 10459 041a 00BF     		nop
 10460 041c 00E0     		b	.L861
 10461              	.L913:
 10462 041e 00BF     		nop
 10463              	.L861:
 10464 0420 07F12C03 		add	r3, r7, #44
 10465 0424 1846     		mov	r0, r3
 10466 0426 FFF7FEFF 		bl	putc_flush
 10467 042a 0346     		mov	r3, r0
 10468 042c 1846     		mov	r0, r3
 10469 042e 9C37     		adds	r7, r7, #156
 10470 0430 BD46     		mov	sp, r7
 10471              		@ sp needed
 10472 0432 BDE88040 		pop	{r7, lr}
ARM GAS  C:\Users\user\AppData\Local\Temp\ccnu1L5f.s 			page 183


 10473 0436 03B0     		add	sp, sp, #12
 10474 0438 7047     		bx	lr
 10476 043a 00BF     		.section	.rodata.cst32.1,"a"
 10477              		.align	2
 10480              	cst32.1:
 10481 0000 0100     		.short	1
 10482 0002 0200     		.short	2
 10483 0004 0400     		.short	4
 10484 0006 0800     		.short	8
 10485 0008 1000     		.short	16
 10486 000a 2000     		.short	32
 10487 000c 0000     		.short	0
 10488              		.section	.rodata.cst.0,"a"
 10489              		.align	2
 10492              	cst.0:
 10493 0000 0100     		.short	1
 10494 0002 0400     		.short	4
 10495 0004 1000     		.short	16
 10496 0006 4000     		.short	64
 10497 0008 0001     		.short	256
 10498 000a 0002     		.short	512
 10499 000c 0000     		.short	0
 10500              		.ident	"GCC: (GNU Tools for STM32 12.3.rel1.20240306-1730) 12.3.1 20230626"
ARM GAS  C:\Users\user\AppData\Local\Temp\ccnu1L5f.s 			page 184


DEFINED SYMBOLS
                            *ABS*:00000000 ff.c
C:\Users\user\AppData\Local\Temp\ccnu1L5f.s:18     .bss.FatFs:00000000 $d
C:\Users\user\AppData\Local\Temp\ccnu1L5f.s:21     .bss.FatFs:00000000 FatFs
C:\Users\user\AppData\Local\Temp\ccnu1L5f.s:24     .bss.Fsid:00000000 $d
C:\Users\user\AppData\Local\Temp\ccnu1L5f.s:27     .bss.Fsid:00000000 Fsid
C:\Users\user\AppData\Local\Temp\ccnu1L5f.s:30     .bss.Files:00000000 $d
C:\Users\user\AppData\Local\Temp\ccnu1L5f.s:33     .bss.Files:00000000 Files
C:\Users\user\AppData\Local\Temp\ccnu1L5f.s:36     .bss.LfnBuf:00000000 $d
C:\Users\user\AppData\Local\Temp\ccnu1L5f.s:39     .bss.LfnBuf:00000000 LfnBuf
C:\Users\user\AppData\Local\Temp\ccnu1L5f.s:42     .rodata.ExCvt:00000000 $d
C:\Users\user\AppData\Local\Temp\ccnu1L5f.s:45     .rodata.ExCvt:00000000 ExCvt
C:\Users\user\AppData\Local\Temp\ccnu1L5f.s:54     .text.ld_word:00000000 $t
C:\Users\user\AppData\Local\Temp\ccnu1L5f.s:59     .text.ld_word:00000000 ld_word
C:\Users\user\AppData\Local\Temp\ccnu1L5f.s:89     .text.ld_dword:00000000 $t
C:\Users\user\AppData\Local\Temp\ccnu1L5f.s:94     .text.ld_dword:00000000 ld_dword
C:\Users\user\AppData\Local\Temp\ccnu1L5f.s:135    .text.st_word:00000000 $t
C:\Users\user\AppData\Local\Temp\ccnu1L5f.s:140    .text.st_word:00000000 st_word
C:\Users\user\AppData\Local\Temp\ccnu1L5f.s:173    .text.st_dword:00000000 $t
C:\Users\user\AppData\Local\Temp\ccnu1L5f.s:178    .text.st_dword:00000000 st_dword
C:\Users\user\AppData\Local\Temp\ccnu1L5f.s:228    .text.mem_cpy:00000000 $t
C:\Users\user\AppData\Local\Temp\ccnu1L5f.s:233    .text.mem_cpy:00000000 mem_cpy
C:\Users\user\AppData\Local\Temp\ccnu1L5f.s:274    .text.mem_set:00000000 $t
C:\Users\user\AppData\Local\Temp\ccnu1L5f.s:279    .text.mem_set:00000000 mem_set
C:\Users\user\AppData\Local\Temp\ccnu1L5f.s:313    .text.mem_cmp:00000000 $t
C:\Users\user\AppData\Local\Temp\ccnu1L5f.s:318    .text.mem_cmp:00000000 mem_cmp
C:\Users\user\AppData\Local\Temp\ccnu1L5f.s:365    .text.chk_chr:00000000 $t
C:\Users\user\AppData\Local\Temp\ccnu1L5f.s:370    .text.chk_chr:00000000 chk_chr
C:\Users\user\AppData\Local\Temp\ccnu1L5f.s:406    .text.chk_lock:00000000 $t
C:\Users\user\AppData\Local\Temp\ccnu1L5f.s:411    .text.chk_lock:00000000 chk_lock
C:\Users\user\AppData\Local\Temp\ccnu1L5f.s:517    .text.chk_lock:000000b4 $d
C:\Users\user\AppData\Local\Temp\ccnu1L5f.s:520    .text.enq_lock:00000000 $t
C:\Users\user\AppData\Local\Temp\ccnu1L5f.s:525    .text.enq_lock:00000000 enq_lock
C:\Users\user\AppData\Local\Temp\ccnu1L5f.s:566    .text.enq_lock:00000040 $d
C:\Users\user\AppData\Local\Temp\ccnu1L5f.s:569    .text.inc_lock:00000000 $t
C:\Users\user\AppData\Local\Temp\ccnu1L5f.s:574    .text.inc_lock:00000000 inc_lock
C:\Users\user\AppData\Local\Temp\ccnu1L5f.s:734    .text.inc_lock:00000118 $d
C:\Users\user\AppData\Local\Temp\ccnu1L5f.s:737    .text.dec_lock:00000000 $t
C:\Users\user\AppData\Local\Temp\ccnu1L5f.s:742    .text.dec_lock:00000000 dec_lock
C:\Users\user\AppData\Local\Temp\ccnu1L5f.s:810    .text.dec_lock:00000074 $d
C:\Users\user\AppData\Local\Temp\ccnu1L5f.s:813    .text.clear_lock:00000000 $t
C:\Users\user\AppData\Local\Temp\ccnu1L5f.s:818    .text.clear_lock:00000000 clear_lock
C:\Users\user\AppData\Local\Temp\ccnu1L5f.s:862    .text.clear_lock:00000044 $d
C:\Users\user\AppData\Local\Temp\ccnu1L5f.s:865    .text.sync_window:00000000 $t
C:\Users\user\AppData\Local\Temp\ccnu1L5f.s:870    .text.sync_window:00000000 sync_window
C:\Users\user\AppData\Local\Temp\ccnu1L5f.s:944    .text.move_window:00000000 $t
C:\Users\user\AppData\Local\Temp\ccnu1L5f.s:949    .text.move_window:00000000 move_window
C:\Users\user\AppData\Local\Temp\ccnu1L5f.s:998    .text.sync_fs:00000000 $t
C:\Users\user\AppData\Local\Temp\ccnu1L5f.s:1003   .text.sync_fs:00000000 sync_fs
C:\Users\user\AppData\Local\Temp\ccnu1L5f.s:1103   .text.sync_fs:000000d8 $d
C:\Users\user\AppData\Local\Temp\ccnu1L5f.s:1107   .text.clust2sect:00000000 $t
C:\Users\user\AppData\Local\Temp\ccnu1L5f.s:1112   .text.clust2sect:00000000 clust2sect
C:\Users\user\AppData\Local\Temp\ccnu1L5f.s:1150   .text.get_fat:00000000 $t
C:\Users\user\AppData\Local\Temp\ccnu1L5f.s:1155   .text.get_fat:00000000 get_fat
C:\Users\user\AppData\Local\Temp\ccnu1L5f.s:1356   .text.put_fat:00000000 $t
C:\Users\user\AppData\Local\Temp\ccnu1L5f.s:1361   .text.put_fat:00000000 put_fat
C:\Users\user\AppData\Local\Temp\ccnu1L5f.s:1621   .text.remove_chain:00000000 $t
ARM GAS  C:\Users\user\AppData\Local\Temp\ccnu1L5f.s 			page 185


C:\Users\user\AppData\Local\Temp\ccnu1L5f.s:1626   .text.remove_chain:00000000 remove_chain
C:\Users\user\AppData\Local\Temp\ccnu1L5f.s:1737   .text.create_chain:00000000 $t
C:\Users\user\AppData\Local\Temp\ccnu1L5f.s:1742   .text.create_chain:00000000 create_chain
C:\Users\user\AppData\Local\Temp\ccnu1L5f.s:1909   .text.clmt_clust:00000000 $t
C:\Users\user\AppData\Local\Temp\ccnu1L5f.s:1914   .text.clmt_clust:00000000 clmt_clust
C:\Users\user\AppData\Local\Temp\ccnu1L5f.s:1978   .text.dir_sdi:00000000 $t
C:\Users\user\AppData\Local\Temp\ccnu1L5f.s:1983   .text.dir_sdi:00000000 dir_sdi
C:\Users\user\AppData\Local\Temp\ccnu1L5f.s:2129   .text.dir_next:00000000 $t
C:\Users\user\AppData\Local\Temp\ccnu1L5f.s:2134   .text.dir_next:00000000 dir_next
C:\Users\user\AppData\Local\Temp\ccnu1L5f.s:2351   .text.dir_alloc:00000000 $t
C:\Users\user\AppData\Local\Temp\ccnu1L5f.s:2356   .text.dir_alloc:00000000 dir_alloc
C:\Users\user\AppData\Local\Temp\ccnu1L5f.s:2437   .text.ld_clust:00000000 $t
C:\Users\user\AppData\Local\Temp\ccnu1L5f.s:2442   .text.ld_clust:00000000 ld_clust
C:\Users\user\AppData\Local\Temp\ccnu1L5f.s:2478   .text.st_clust:00000000 $t
C:\Users\user\AppData\Local\Temp\ccnu1L5f.s:2483   .text.st_clust:00000000 st_clust
C:\Users\user\AppData\Local\Temp\ccnu1L5f.s:2519   .rodata.LfnOfs:00000000 $d
C:\Users\user\AppData\Local\Temp\ccnu1L5f.s:2522   .rodata.LfnOfs:00000000 LfnOfs
C:\Users\user\AppData\Local\Temp\ccnu1L5f.s:2525   .text.cmp_lfn:00000000 $t
C:\Users\user\AppData\Local\Temp\ccnu1L5f.s:2530   .text.cmp_lfn:00000000 cmp_lfn
C:\Users\user\AppData\Local\Temp\ccnu1L5f.s:2648   .text.cmp_lfn:000000dc $d
C:\Users\user\AppData\Local\Temp\ccnu1L5f.s:2651   .text.pick_lfn:00000000 $t
C:\Users\user\AppData\Local\Temp\ccnu1L5f.s:2656   .text.pick_lfn:00000000 pick_lfn
C:\Users\user\AppData\Local\Temp\ccnu1L5f.s:2764   .text.pick_lfn:000000c4 $d
C:\Users\user\AppData\Local\Temp\ccnu1L5f.s:2767   .text.put_lfn:00000000 $t
C:\Users\user\AppData\Local\Temp\ccnu1L5f.s:2772   .text.put_lfn:00000000 put_lfn
C:\Users\user\AppData\Local\Temp\ccnu1L5f.s:2879   .text.put_lfn:000000cc $d
C:\Users\user\AppData\Local\Temp\ccnu1L5f.s:2882   .text.gen_numname:00000000 $t
C:\Users\user\AppData\Local\Temp\ccnu1L5f.s:2887   .text.gen_numname:00000000 gen_numname
C:\Users\user\AppData\Local\Temp\ccnu1L5f.s:3034   .text.sum_sfn:00000000 $t
C:\Users\user\AppData\Local\Temp\ccnu1L5f.s:3039   .text.sum_sfn:00000000 sum_sfn
C:\Users\user\AppData\Local\Temp\ccnu1L5f.s:3079   .text.dir_read:00000000 $t
C:\Users\user\AppData\Local\Temp\ccnu1L5f.s:3084   .text.dir_read:00000000 dir_read
C:\Users\user\AppData\Local\Temp\ccnu1L5f.s:3263   .text.dir_find:00000000 $t
C:\Users\user\AppData\Local\Temp\ccnu1L5f.s:3268   .text.dir_find:00000000 dir_find
C:\Users\user\AppData\Local\Temp\ccnu1L5f.s:3464   .text.dir_register:00000000 $t
C:\Users\user\AppData\Local\Temp\ccnu1L5f.s:3469   .text.dir_register:00000000 dir_register
C:\Users\user\AppData\Local\Temp\ccnu1L5f.s:3697   .text.dir_register:000001ec $d
C:\Users\user\AppData\Local\Temp\ccnu1L5f.s:3700   .text.dir_remove:00000000 $t
C:\Users\user\AppData\Local\Temp\ccnu1L5f.s:3705   .text.dir_remove:00000000 dir_remove
C:\Users\user\AppData\Local\Temp\ccnu1L5f.s:3788   .text.get_fileinfo:00000000 $t
C:\Users\user\AppData\Local\Temp\ccnu1L5f.s:3793   .text.get_fileinfo:00000000 get_fileinfo
C:\Users\user\AppData\Local\Temp\ccnu1L5f.s:4035   .rodata:00000000 $d
C:\Users\user\AppData\Local\Temp\ccnu1L5f.s:4042   .text.create_name:00000000 $t
C:\Users\user\AppData\Local\Temp\ccnu1L5f.s:4047   .text.create_name:00000000 create_name
C:\Users\user\AppData\Local\Temp\ccnu1L5f.s:4411   .text.create_name:000002cc $d
C:\Users\user\AppData\Local\Temp\ccnu1L5f.s:4415   .text.create_name:000002d8 $t
C:\Users\user\AppData\Local\Temp\ccnu1L5f.s:4477   .text.follow_path:00000000 $t
C:\Users\user\AppData\Local\Temp\ccnu1L5f.s:4482   .text.follow_path:00000000 follow_path
C:\Users\user\AppData\Local\Temp\ccnu1L5f.s:4603   .text.get_ldnumber:00000000 $t
C:\Users\user\AppData\Local\Temp\ccnu1L5f.s:4608   .text.get_ldnumber:00000000 get_ldnumber
C:\Users\user\AppData\Local\Temp\ccnu1L5f.s:4688   .text.check_fs:00000000 $t
C:\Users\user\AppData\Local\Temp\ccnu1L5f.s:4693   .text.check_fs:00000000 check_fs
C:\Users\user\AppData\Local\Temp\ccnu1L5f.s:4777   .text.check_fs:000000a4 $d
C:\Users\user\AppData\Local\Temp\ccnu1L5f.s:4781   .text.find_volume:00000000 $t
C:\Users\user\AppData\Local\Temp\ccnu1L5f.s:4786   .text.find_volume:00000000 find_volume
C:\Users\user\AppData\Local\Temp\ccnu1L5f.s:5114   .text.find_volume:000002a4 $d
C:\Users\user\AppData\Local\Temp\ccnu1L5f.s:5116   .text.find_volume:000002a8 $t
ARM GAS  C:\Users\user\AppData\Local\Temp\ccnu1L5f.s 			page 186


C:\Users\user\AppData\Local\Temp\ccnu1L5f.s:5401   .text.find_volume:000004fc $d
C:\Users\user\AppData\Local\Temp\ccnu1L5f.s:5407   .text.validate:00000000 $t
C:\Users\user\AppData\Local\Temp\ccnu1L5f.s:5412   .text.validate:00000000 validate
C:\Users\user\AppData\Local\Temp\ccnu1L5f.s:5472   .text.f_mount:00000000 $t
C:\Users\user\AppData\Local\Temp\ccnu1L5f.s:5478   .text.f_mount:00000000 f_mount
C:\Users\user\AppData\Local\Temp\ccnu1L5f.s:5551   .text.f_mount:00000088 $d
C:\Users\user\AppData\Local\Temp\ccnu1L5f.s:5554   .text.f_open:00000000 $t
C:\Users\user\AppData\Local\Temp\ccnu1L5f.s:5560   .text.f_open:00000000 f_open
C:\Users\user\AppData\Local\Temp\ccnu1L5f.s:5967   .text.f_read:00000000 $t
C:\Users\user\AppData\Local\Temp\ccnu1L5f.s:5973   .text.f_read:00000000 f_read
C:\Users\user\AppData\Local\Temp\ccnu1L5f.s:6318   .text.f_write:00000000 $t
C:\Users\user\AppData\Local\Temp\ccnu1L5f.s:6324   .text.f_write:00000000 f_write
C:\Users\user\AppData\Local\Temp\ccnu1L5f.s:6719   .text.f_sync:00000000 $t
C:\Users\user\AppData\Local\Temp\ccnu1L5f.s:6725   .text.f_sync:00000000 f_sync
C:\Users\user\AppData\Local\Temp\ccnu1L5f.s:6845   .text.f_close:00000000 $t
C:\Users\user\AppData\Local\Temp\ccnu1L5f.s:6851   .text.f_close:00000000 f_close
C:\Users\user\AppData\Local\Temp\ccnu1L5f.s:6896   .text.f_lseek:00000000 $t
C:\Users\user\AppData\Local\Temp\ccnu1L5f.s:6902   .text.f_lseek:00000000 f_lseek
C:\Users\user\AppData\Local\Temp\ccnu1L5f.s:7445   .text.f_opendir:00000000 $t
C:\Users\user\AppData\Local\Temp\ccnu1L5f.s:7451   .text.f_opendir:00000000 f_opendir
C:\Users\user\AppData\Local\Temp\ccnu1L5f.s:7572   .text.f_closedir:00000000 $t
C:\Users\user\AppData\Local\Temp\ccnu1L5f.s:7578   .text.f_closedir:00000000 f_closedir
C:\Users\user\AppData\Local\Temp\ccnu1L5f.s:7621   .text.f_readdir:00000000 $t
C:\Users\user\AppData\Local\Temp\ccnu1L5f.s:7627   .text.f_readdir:00000000 f_readdir
C:\Users\user\AppData\Local\Temp\ccnu1L5f.s:7691   .text.f_stat:00000000 $t
C:\Users\user\AppData\Local\Temp\ccnu1L5f.s:7697   .text.f_stat:00000000 f_stat
C:\Users\user\AppData\Local\Temp\ccnu1L5f.s:7749   .text.f_getfree:00000000 $t
C:\Users\user\AppData\Local\Temp\ccnu1L5f.s:7755   .text.f_getfree:00000000 f_getfree
C:\Users\user\AppData\Local\Temp\ccnu1L5f.s:7938   .text.f_truncate:00000000 $t
C:\Users\user\AppData\Local\Temp\ccnu1L5f.s:7944   .text.f_truncate:00000000 f_truncate
C:\Users\user\AppData\Local\Temp\ccnu1L5f.s:8098   .text.f_unlink:00000000 $t
C:\Users\user\AppData\Local\Temp\ccnu1L5f.s:8104   .text.f_unlink:00000000 f_unlink
C:\Users\user\AppData\Local\Temp\ccnu1L5f.s:8243   .text.f_mkdir:00000000 $t
C:\Users\user\AppData\Local\Temp\ccnu1L5f.s:8249   .text.f_mkdir:00000000 f_mkdir
C:\Users\user\AppData\Local\Temp\ccnu1L5f.s:8488   .text.f_rename:00000000 $t
C:\Users\user\AppData\Local\Temp\ccnu1L5f.s:8494   .text.f_rename:00000000 f_rename
C:\Users\user\AppData\Local\Temp\ccnu1L5f.s:8701   .text.f_mkfs:00000000 $t
C:\Users\user\AppData\Local\Temp\ccnu1L5f.s:8707   .text.f_mkfs:00000000 f_mkfs
C:\Users\user\AppData\Local\Temp\ccnu1L5f.s:9048   .text.f_mkfs:000002c8 $d
C:\Users\user\AppData\Local\Temp\ccnu1L5f.s:10480  .rodata.cst32.1:00000000 cst32.1
C:\Users\user\AppData\Local\Temp\ccnu1L5f.s:10492  .rodata.cst.0:00000000 cst.0
C:\Users\user\AppData\Local\Temp\ccnu1L5f.s:9053   .text.f_mkfs:000002d8 $t
C:\Users\user\AppData\Local\Temp\ccnu1L5f.s:9563   .text.f_mkfs:00000730 $d
C:\Users\user\AppData\Local\Temp\ccnu1L5f.s:9570   .text.f_mkfs:00000748 $t
C:\Users\user\AppData\Local\Temp\ccnu1L5f.s:9732   .text.f_mkfs:0000089c $d
C:\Users\user\AppData\Local\Temp\ccnu1L5f.s:9735   .text.f_gets:00000000 $t
C:\Users\user\AppData\Local\Temp\ccnu1L5f.s:9741   .text.f_gets:00000000 f_gets
C:\Users\user\AppData\Local\Temp\ccnu1L5f.s:9814   .text.putc_bfd:00000000 $t
C:\Users\user\AppData\Local\Temp\ccnu1L5f.s:9819   .text.putc_bfd:00000000 putc_bfd
C:\Users\user\AppData\Local\Temp\ccnu1L5f.s:9887   .text.putc_flush:00000000 $t
C:\Users\user\AppData\Local\Temp\ccnu1L5f.s:9892   .text.putc_flush:00000000 putc_flush
C:\Users\user\AppData\Local\Temp\ccnu1L5f.s:9933   .text.putc_init:00000000 $t
C:\Users\user\AppData\Local\Temp\ccnu1L5f.s:9938   .text.putc_init:00000000 putc_init
C:\Users\user\AppData\Local\Temp\ccnu1L5f.s:9965   .text.f_putc:00000000 $t
C:\Users\user\AppData\Local\Temp\ccnu1L5f.s:9971   .text.f_putc:00000000 f_putc
C:\Users\user\AppData\Local\Temp\ccnu1L5f.s:10000  .text.f_puts:00000000 $t
C:\Users\user\AppData\Local\Temp\ccnu1L5f.s:10006  .text.f_puts:00000000 f_puts
ARM GAS  C:\Users\user\AppData\Local\Temp\ccnu1L5f.s 			page 187


C:\Users\user\AppData\Local\Temp\ccnu1L5f.s:10044  .text.f_printf:00000000 $t
C:\Users\user\AppData\Local\Temp\ccnu1L5f.s:10050  .text.f_printf:00000000 f_printf
C:\Users\user\AppData\Local\Temp\ccnu1L5f.s:10178  .text.f_printf:00000150 $d
C:\Users\user\AppData\Local\Temp\ccnu1L5f.s:10201  .text.f_printf:000001ac $t
C:\Users\user\AppData\Local\Temp\ccnu1L5f.s:10477  .rodata.cst32.1:00000000 $d
C:\Users\user\AppData\Local\Temp\ccnu1L5f.s:10489  .rodata.cst.0:00000000 $d

UNDEFINED SYMBOLS
disk_write
disk_read
disk_ioctl
ff_wtoupper
ff_convert
disk_status
disk_initialize
get_fattime
