ARM GAS  C:\Users\user\AppData\Local\Temp\cc90bQ4S.s 			page 1


   1              		.cpu cortex-m4
   2              		.arch armv7e-m
   3              		.fpu fpv4-sp-d16
   4              		.eabi_attribute 27, 1
   5              		.eabi_attribute 28, 1
   6              		.eabi_attribute 20, 1
   7              		.eabi_attribute 21, 1
   8              		.eabi_attribute 23, 3
   9              		.eabi_attribute 24, 1
  10              		.eabi_attribute 25, 1
  11              		.eabi_attribute 26, 1
  12              		.eabi_attribute 30, 6
  13              		.eabi_attribute 34, 1
  14              		.eabi_attribute 18, 4
  15              		.file	"gpio.c"
  16              		.text
  17              		.section	.text.HAL_GPIO_EXTI_Callback,"ax",%progbits
  18              		.align	1
  19              		.global	HAL_GPIO_EXTI_Callback
  20              		.syntax unified
  21              		.thumb
  22              		.thumb_func
  24              	HAL_GPIO_EXTI_Callback:
  25              		@ args = 0, pretend = 0, frame = 8
  26              		@ frame_needed = 1, uses_anonymous_args = 0
  27 0000 80B5     		push	{r7, lr}
  28 0002 82B0     		sub	sp, sp, #8
  29 0004 00AF     		add	r7, sp, #0
  30 0006 0346     		mov	r3, r0
  31 0008 FB80     		strh	r3, [r7, #6]	@ movhi
  32 000a FB88     		ldrh	r3, [r7, #6]
  33 000c B3F5807F 		cmp	r3, #256
  34 0010 49D1     		bne	.L4
  35 0012 274B     		ldr	r3, .L5
  36 0014 1B68     		ldr	r3, [r3]
  37 0016 03F00103 		and	r3, r3, #1
  38 001a 002B     		cmp	r3, #0
  39 001c 43D0     		beq	.L4
  40 001e 4FF48071 		mov	r1, #256
  41 0022 2448     		ldr	r0, .L5+4
  42 0024 FFF7FEFF 		bl	HAL_GPIO_ReadPin
  43 0028 0346     		mov	r3, r0
  44 002a 002B     		cmp	r3, #0
  45 002c 27D0     		beq	.L3
  46 002e 204B     		ldr	r3, .L5
  47 0030 1B68     		ldr	r3, [r3]
  48 0032 43F00203 		orr	r3, r3, #2
  49 0036 1E4A     		ldr	r2, .L5
  50 0038 1360     		str	r3, [r2]
  51 003a 1F4B     		ldr	r3, .L5+8
  52 003c 0122     		movs	r2, #1
  53 003e 1A72     		strb	r2, [r3, #8]
  54 0040 0322     		movs	r2, #3
  55 0042 0021     		movs	r1, #0
  56 0044 0320     		movs	r0, #3
  57 0046 FFF7FEFF 		bl	SYS_LOG
  58 004a 0122     		movs	r2, #1
ARM GAS  C:\Users\user\AppData\Local\Temp\cc90bQ4S.s 			page 2


  59 004c 4FF40041 		mov	r1, #32768
  60 0050 1A48     		ldr	r0, .L5+12
  61 0052 FFF7FEFF 		bl	HAL_GPIO_WritePin
  62 0056 1A4B     		ldr	r3, .L5+16
  63 0058 1B68     		ldr	r3, [r3]
  64 005a 002B     		cmp	r3, #0
  65 005c 23D1     		bne	.L4
  66 005e 144B     		ldr	r3, .L5
  67 0060 1B68     		ldr	r3, [r3]
  68 0062 03F00403 		and	r3, r3, #4
  69 0066 002B     		cmp	r3, #0
  70 0068 1DD1     		bne	.L4
  71 006a 154B     		ldr	r3, .L5+16
  72 006c 0122     		movs	r2, #1
  73 006e 1A60     		str	r2, [r3]
  74 0070 1923     		movs	r3, #25
  75 0072 144A     		ldr	r2, .L5+20
  76 0074 0021     		movs	r1, #0
  77 0076 1448     		ldr	r0, .L5+24
  78 0078 FFF7FEFF 		bl	HAL_I2C_Master_Receive_IT
  79 007c 13E0     		b	.L4
  80              	.L3:
  81 007e 0C4B     		ldr	r3, .L5
  82 0080 1B68     		ldr	r3, [r3]
  83 0082 23F00203 		bic	r3, r3, #2
  84 0086 0A4A     		ldr	r2, .L5
  85 0088 1360     		str	r3, [r2]
  86 008a 0B4B     		ldr	r3, .L5+8
  87 008c 0022     		movs	r2, #0
  88 008e 1A72     		strb	r2, [r3, #8]
  89 0090 0322     		movs	r2, #3
  90 0092 0021     		movs	r1, #0
  91 0094 0220     		movs	r0, #2
  92 0096 FFF7FEFF 		bl	SYS_LOG
  93 009a 0022     		movs	r2, #0
  94 009c 4FF40041 		mov	r1, #32768
  95 00a0 0648     		ldr	r0, .L5+12
  96 00a2 FFF7FEFF 		bl	HAL_GPIO_WritePin
  97              	.L4:
  98 00a6 00BF     		nop
  99 00a8 0837     		adds	r7, r7, #8
 100 00aa BD46     		mov	sp, r7
 101              		@ sp needed
 102 00ac 80BD     		pop	{r7, pc}
 103              	.L6:
 104 00ae 00BF     		.align	2
 105              	.L5:
 106 00b0 00000000 		.word	handshake_flag
 107 00b4 00040240 		.word	1073873920
 108 00b8 00000000 		.word	syslog
 109 00bc 00100240 		.word	1073876992
 110 00c0 00000000 		.word	rtc_fix_triggered.0
 111 00c4 00000000 		.word	rtc
 112 00c8 00000000 		.word	hi2c1
 114              		.section	.text.DIGITAL_SETUP,"ax",%progbits
 115              		.align	1
 116              		.global	DIGITAL_SETUP
ARM GAS  C:\Users\user\AppData\Local\Temp\cc90bQ4S.s 			page 3


 117              		.syntax unified
 118              		.thumb
 119              		.thumb_func
 121              	DIGITAL_SETUP:
 122              		@ args = 0, pretend = 0, frame = 0
 123              		@ frame_needed = 1, uses_anonymous_args = 0
 124              		@ link register save eliminated.
 125 0000 80B4     		push	{r7}
 126 0002 00AF     		add	r7, sp, #0
 127 0004 0023     		movs	r3, #0
 128 0006 1846     		mov	r0, r3
 129 0008 BD46     		mov	sp, r7
 130              		@ sp needed
 131 000a 5DF8047B 		ldr	r7, [sp], #4
 132 000e 7047     		bx	lr
 134              		.section	.text.MX_GPIO_Init,"ax",%progbits
 135              		.align	1
 136              		.global	MX_GPIO_Init
 137              		.syntax unified
 138              		.thumb
 139              		.thumb_func
 141              	MX_GPIO_Init:
 142              		@ args = 0, pretend = 0, frame = 48
 143              		@ frame_needed = 1, uses_anonymous_args = 0
 144 0000 80B5     		push	{r7, lr}
 145 0002 8CB0     		sub	sp, sp, #48
 146 0004 00AF     		add	r7, sp, #0
 147 0006 07F11C03 		add	r3, r7, #28
 148 000a 0022     		movs	r2, #0
 149 000c 1A60     		str	r2, [r3]
 150 000e 5A60     		str	r2, [r3, #4]
 151 0010 9A60     		str	r2, [r3, #8]
 152 0012 DA60     		str	r2, [r3, #12]
 153 0014 1A61     		str	r2, [r3, #16]
 154 0016 0023     		movs	r3, #0
 155 0018 BB61     		str	r3, [r7, #24]
 156 001a 574B     		ldr	r3, .L10
 157 001c 1B6B     		ldr	r3, [r3, #48]
 158 001e 564A     		ldr	r2, .L10
 159 0020 43F00403 		orr	r3, r3, #4
 160 0024 1363     		str	r3, [r2, #48]
 161 0026 544B     		ldr	r3, .L10
 162 0028 1B6B     		ldr	r3, [r3, #48]
 163 002a 03F00403 		and	r3, r3, #4
 164 002e BB61     		str	r3, [r7, #24]
 165 0030 BB69     		ldr	r3, [r7, #24]
 166 0032 0023     		movs	r3, #0
 167 0034 7B61     		str	r3, [r7, #20]
 168 0036 504B     		ldr	r3, .L10
 169 0038 1B6B     		ldr	r3, [r3, #48]
 170 003a 4F4A     		ldr	r2, .L10
 171 003c 43F08003 		orr	r3, r3, #128
 172 0040 1363     		str	r3, [r2, #48]
 173 0042 4D4B     		ldr	r3, .L10
 174 0044 1B6B     		ldr	r3, [r3, #48]
 175 0046 03F08003 		and	r3, r3, #128
 176 004a 7B61     		str	r3, [r7, #20]
ARM GAS  C:\Users\user\AppData\Local\Temp\cc90bQ4S.s 			page 4


 177 004c 7B69     		ldr	r3, [r7, #20]
 178 004e 0023     		movs	r3, #0
 179 0050 3B61     		str	r3, [r7, #16]
 180 0052 494B     		ldr	r3, .L10
 181 0054 1B6B     		ldr	r3, [r3, #48]
 182 0056 484A     		ldr	r2, .L10
 183 0058 43F00103 		orr	r3, r3, #1
 184 005c 1363     		str	r3, [r2, #48]
 185 005e 464B     		ldr	r3, .L10
 186 0060 1B6B     		ldr	r3, [r3, #48]
 187 0062 03F00103 		and	r3, r3, #1
 188 0066 3B61     		str	r3, [r7, #16]
 189 0068 3B69     		ldr	r3, [r7, #16]
 190 006a 0023     		movs	r3, #0
 191 006c FB60     		str	r3, [r7, #12]
 192 006e 424B     		ldr	r3, .L10
 193 0070 1B6B     		ldr	r3, [r3, #48]
 194 0072 414A     		ldr	r2, .L10
 195 0074 43F01003 		orr	r3, r3, #16
 196 0078 1363     		str	r3, [r2, #48]
 197 007a 3F4B     		ldr	r3, .L10
 198 007c 1B6B     		ldr	r3, [r3, #48]
 199 007e 03F01003 		and	r3, r3, #16
 200 0082 FB60     		str	r3, [r7, #12]
 201 0084 FB68     		ldr	r3, [r7, #12]
 202 0086 0023     		movs	r3, #0
 203 0088 BB60     		str	r3, [r7, #8]
 204 008a 3B4B     		ldr	r3, .L10
 205 008c 1B6B     		ldr	r3, [r3, #48]
 206 008e 3A4A     		ldr	r2, .L10
 207 0090 43F00203 		orr	r3, r3, #2
 208 0094 1363     		str	r3, [r2, #48]
 209 0096 384B     		ldr	r3, .L10
 210 0098 1B6B     		ldr	r3, [r3, #48]
 211 009a 03F00203 		and	r3, r3, #2
 212 009e BB60     		str	r3, [r7, #8]
 213 00a0 BB68     		ldr	r3, [r7, #8]
 214 00a2 0023     		movs	r3, #0
 215 00a4 7B60     		str	r3, [r7, #4]
 216 00a6 344B     		ldr	r3, .L10
 217 00a8 1B6B     		ldr	r3, [r3, #48]
 218 00aa 334A     		ldr	r2, .L10
 219 00ac 43F00803 		orr	r3, r3, #8
 220 00b0 1363     		str	r3, [r2, #48]
 221 00b2 314B     		ldr	r3, .L10
 222 00b4 1B6B     		ldr	r3, [r3, #48]
 223 00b6 03F00803 		and	r3, r3, #8
 224 00ba 7B60     		str	r3, [r7, #4]
 225 00bc 7B68     		ldr	r3, [r7, #4]
 226 00be 0022     		movs	r2, #0
 227 00c0 C021     		movs	r1, #192
 228 00c2 2E48     		ldr	r0, .L10+4
 229 00c4 FFF7FEFF 		bl	HAL_GPIO_WritePin
 230 00c8 0022     		movs	r2, #0
 231 00ca 4FF47E41 		mov	r1, #65024
 232 00ce 2C48     		ldr	r0, .L10+8
 233 00d0 FFF7FEFF 		bl	HAL_GPIO_WritePin
ARM GAS  C:\Users\user\AppData\Local\Temp\cc90bQ4S.s 			page 5


 234 00d4 C023     		movs	r3, #192
 235 00d6 FB61     		str	r3, [r7, #28]
 236 00d8 0123     		movs	r3, #1
 237 00da 3B62     		str	r3, [r7, #32]
 238 00dc 0223     		movs	r3, #2
 239 00de 7B62     		str	r3, [r7, #36]
 240 00e0 0023     		movs	r3, #0
 241 00e2 BB62     		str	r3, [r7, #40]
 242 00e4 07F11C03 		add	r3, r7, #28
 243 00e8 1946     		mov	r1, r3
 244 00ea 2448     		ldr	r0, .L10+4
 245 00ec FFF7FEFF 		bl	HAL_GPIO_Init
 246 00f0 4FF47E43 		mov	r3, #65024
 247 00f4 FB61     		str	r3, [r7, #28]
 248 00f6 0123     		movs	r3, #1
 249 00f8 3B62     		str	r3, [r7, #32]
 250 00fa 0023     		movs	r3, #0
 251 00fc 7B62     		str	r3, [r7, #36]
 252 00fe 0023     		movs	r3, #0
 253 0100 BB62     		str	r3, [r7, #40]
 254 0102 07F11C03 		add	r3, r7, #28
 255 0106 1946     		mov	r1, r3
 256 0108 1D48     		ldr	r0, .L10+8
 257 010a FFF7FEFF 		bl	HAL_GPIO_Init
 258 010e 4FF48053 		mov	r3, #4096
 259 0112 FB61     		str	r3, [r7, #28]
 260 0114 0023     		movs	r3, #0
 261 0116 3B62     		str	r3, [r7, #32]
 262 0118 0223     		movs	r3, #2
 263 011a 7B62     		str	r3, [r7, #36]
 264 011c 07F11C03 		add	r3, r7, #28
 265 0120 1946     		mov	r1, r3
 266 0122 1848     		ldr	r0, .L10+12
 267 0124 FFF7FEFF 		bl	HAL_GPIO_Init
 268 0128 4FF47F43 		mov	r3, #65280
 269 012c FB61     		str	r3, [r7, #28]
 270 012e 0023     		movs	r3, #0
 271 0130 3B62     		str	r3, [r7, #32]
 272 0132 0223     		movs	r3, #2
 273 0134 7B62     		str	r3, [r7, #36]
 274 0136 07F11C03 		add	r3, r7, #28
 275 013a 1946     		mov	r1, r3
 276 013c 1248     		ldr	r0, .L10+16
 277 013e FFF7FEFF 		bl	HAL_GPIO_Init
 278 0142 4FF48073 		mov	r3, #256
 279 0146 FB61     		str	r3, [r7, #28]
 280 0148 4FF44413 		mov	r3, #3211264
 281 014c 3B62     		str	r3, [r7, #32]
 282 014e 0023     		movs	r3, #0
 283 0150 7B62     		str	r3, [r7, #36]
 284 0152 07F11C03 		add	r3, r7, #28
 285 0156 1946     		mov	r1, r3
 286 0158 0A48     		ldr	r0, .L10+12
 287 015a FFF7FEFF 		bl	HAL_GPIO_Init
 288 015e 0022     		movs	r2, #0
 289 0160 0021     		movs	r1, #0
 290 0162 1720     		movs	r0, #23
ARM GAS  C:\Users\user\AppData\Local\Temp\cc90bQ4S.s 			page 6


 291 0164 FFF7FEFF 		bl	HAL_NVIC_SetPriority
 292 0168 1720     		movs	r0, #23
 293 016a FFF7FEFF 		bl	HAL_NVIC_EnableIRQ
 294 016e 00BF     		nop
 295 0170 3037     		adds	r7, r7, #48
 296 0172 BD46     		mov	sp, r7
 297              		@ sp needed
 298 0174 80BD     		pop	{r7, pc}
 299              	.L11:
 300 0176 00BF     		.align	2
 301              	.L10:
 302 0178 00380240 		.word	1073887232
 303 017c 00000240 		.word	1073872896
 304 0180 00100240 		.word	1073876992
 305 0184 00040240 		.word	1073873920
 306 0188 000C0240 		.word	1073875968
 308              		.section	.bss.rtc_fix_triggered.0,"aw",%nobits
 309              		.align	2
 312              	rtc_fix_triggered.0:
 313 0000 00000000 		.space	4
 314              		.ident	"GCC: (GNU Tools for STM32 12.3.rel1.20240306-1730) 12.3.1 20230626"
ARM GAS  C:\Users\user\AppData\Local\Temp\cc90bQ4S.s 			page 7

