ARM GAS  C:\Users\user\AppData\Local\Temp\cckMILRz.s 			page 1


   1              		.cpu cortex-m4
   2              		.arch armv7e-m
   3              		.fpu fpv4-sp-d16
   4              		.eabi_attribute 27, 1
   5              		.eabi_attribute 28, 1
   6              		.eabi_attribute 20, 1
   7              		.eabi_attribute 21, 1
   8              		.eabi_attribute 23, 3
   9              		.eabi_attribute 24, 1
  10              		.eabi_attribute 25, 1
  11              		.eabi_attribute 26, 1
  12              		.eabi_attribute 30, 6
  13              		.eabi_attribute 34, 1
  14              		.eabi_attribute 18, 4
  15              		.file	"i2c.c"
  16              		.text
  17              		.section	.text.HAL_I2C_MasterTxCpltCallback,"ax",%progbits
  18              		.align	1
  19              		.global	HAL_I2C_MasterTxCpltCallback
  20              		.syntax unified
  21              		.thumb
  22              		.thumb_func
  24              	HAL_I2C_MasterTxCpltCallback:
  25              		@ args = 0, pretend = 0, frame = 8
  26              		@ frame_needed = 1, uses_anonymous_args = 0
  27 0000 80B5     		push	{r7, lr}
  28 0002 82B0     		sub	sp, sp, #8
  29 0004 00AF     		add	r7, sp, #0
  30 0006 7860     		str	r0, [r7, #4]
  31 0008 7B68     		ldr	r3, [r7, #4]
  32 000a 1B68     		ldr	r3, [r3]
  33 000c 124A     		ldr	r2, .L6
  34 000e 9342     		cmp	r3, r2
  35 0010 1ED1     		bne	.L5
  36 0012 1248     		ldr	r0, .L6+4
  37 0014 FFF7FEFF 		bl	ring_buffer_is_empty
  38 0018 0346     		mov	r3, r0
  39 001a 002B     		cmp	r3, #0
  40 001c 0CD0     		beq	.L3
  41 001e 104B     		ldr	r3, .L6+8
  42 0020 1B68     		ldr	r3, [r3]
  43 0022 23F00103 		bic	r3, r3, #1
  44 0026 0E4A     		ldr	r2, .L6+8
  45 0028 1360     		str	r3, [r2]
  46 002a 0D4B     		ldr	r3, .L6+8
  47 002c 1B68     		ldr	r3, [r3]
  48 002e 23F00203 		bic	r3, r3, #2
  49 0032 0B4A     		ldr	r2, .L6+8
  50 0034 1360     		str	r3, [r2]
  51 0036 0BE0     		b	.L5
  52              	.L3:
  53 0038 1022     		movs	r2, #16
  54 003a 0A49     		ldr	r1, .L6+12
  55 003c 0748     		ldr	r0, .L6+4
  56 003e FFF7FEFF 		bl	ring_buffer_dequeue_arr
  57 0042 1023     		movs	r3, #16
  58 0044 074A     		ldr	r2, .L6+12
ARM GAS  C:\Users\user\AppData\Local\Temp\cckMILRz.s 			page 2


  59 0046 0021     		movs	r1, #0
  60 0048 0748     		ldr	r0, .L6+16
  61 004a FFF7FEFF 		bl	HAL_I2C_Master_Transmit_IT
  62 004e 00BF     		nop
  63              	.L5:
  64 0050 00BF     		nop
  65 0052 0837     		adds	r7, r7, #8
  66 0054 BD46     		mov	sp, r7
  67              		@ sp needed
  68 0056 80BD     		pop	{r7, pc}
  69              	.L7:
  70              		.align	2
  71              	.L6:
  72 0058 00540040 		.word	1073763328
  73 005c 00000000 		.word	TELEMETRY_BUFFER
  74 0060 00000000 		.word	telemetry_flag
  75 0064 00000000 		.word	payload.1
  76 0068 00000000 		.word	hi2c1
  78              		.section	.text.HAL_I2C_MasterRxCpltCallback,"ax",%progbits
  79              		.align	1
  80              		.global	HAL_I2C_MasterRxCpltCallback
  81              		.syntax unified
  82              		.thumb
  83              		.thumb_func
  85              	HAL_I2C_MasterRxCpltCallback:
  86              		@ args = 0, pretend = 0, frame = 8
  87              		@ frame_needed = 1, uses_anonymous_args = 0
  88 0000 80B5     		push	{r7, lr}
  89 0002 82B0     		sub	sp, sp, #8
  90 0004 00AF     		add	r7, sp, #0
  91 0006 7860     		str	r0, [r7, #4]
  92 0008 7B68     		ldr	r3, [r7, #4]
  93 000a 1B68     		ldr	r3, [r3]
  94 000c 074A     		ldr	r2, .L11
  95 000e 9342     		cmp	r3, r2
  96 0010 08D1     		bne	.L10
  97 0012 074B     		ldr	r3, .L11+4
  98 0014 1B68     		ldr	r3, [r3]
  99 0016 43F00403 		orr	r3, r3, #4
 100 001a 054A     		ldr	r2, .L11+4
 101 001c 1360     		str	r3, [r2]
 102 001e 0120     		movs	r0, #1
 103 0020 FFF7FEFF 		bl	RTC_FIX
 104              	.L10:
 105 0024 00BF     		nop
 106 0026 0837     		adds	r7, r7, #8
 107 0028 BD46     		mov	sp, r7
 108              		@ sp needed
 109 002a 80BD     		pop	{r7, pc}
 110              	.L12:
 111              		.align	2
 112              	.L11:
 113 002c 00540040 		.word	1073763328
 114 0030 00000000 		.word	handshake_flag
 116              		.section	.text.HAL_I2C_ErrorCallback,"ax",%progbits
 117              		.align	1
 118              		.global	HAL_I2C_ErrorCallback
ARM GAS  C:\Users\user\AppData\Local\Temp\cckMILRz.s 			page 3


 119              		.syntax unified
 120              		.thumb
 121              		.thumb_func
 123              	HAL_I2C_ErrorCallback:
 124              		@ args = 0, pretend = 0, frame = 8
 125              		@ frame_needed = 1, uses_anonymous_args = 0
 126              		@ link register save eliminated.
 127 0000 80B4     		push	{r7}
 128 0002 83B0     		sub	sp, sp, #12
 129 0004 00AF     		add	r7, sp, #0
 130 0006 7860     		str	r0, [r7, #4]
 131 0008 00BF     		nop
 132 000a 0C37     		adds	r7, r7, #12
 133 000c BD46     		mov	sp, r7
 134              		@ sp needed
 135 000e 5DF8047B 		ldr	r7, [sp], #4
 136 0012 7047     		bx	lr
 138              		.section	.text.HAL_I2C_MemRxCpltCallback,"ax",%progbits
 139              		.align	1
 140              		.global	HAL_I2C_MemRxCpltCallback
 141              		.syntax unified
 142              		.thumb
 143              		.thumb_func
 145              	HAL_I2C_MemRxCpltCallback:
 146              		@ args = 0, pretend = 0, frame = 8
 147              		@ frame_needed = 1, uses_anonymous_args = 0
 148              		@ link register save eliminated.
 149 0000 80B4     		push	{r7}
 150 0002 83B0     		sub	sp, sp, #12
 151 0004 00AF     		add	r7, sp, #0
 152 0006 7860     		str	r0, [r7, #4]
 153 0008 044B     		ldr	r3, .L15
 154 000a 0122     		movs	r2, #1
 155 000c 1A60     		str	r2, [r3]
 156 000e 00BF     		nop
 157 0010 0C37     		adds	r7, r7, #12
 158 0012 BD46     		mov	sp, r7
 159              		@ sp needed
 160 0014 5DF8047B 		ldr	r7, [sp], #4
 161 0018 7047     		bx	lr
 162              	.L16:
 163 001a 00BF     		.align	2
 164              	.L15:
 165 001c 00000000 		.word	accelerometer_flag
 167              		.section	.rodata
 168              		.align	2
 169              	.LC0:
 170 0000 52454144 		.ascii	"READY\000"
 170      5900
 171              		.section	.text.TELEMETRY_SETUP,"ax",%progbits
 172              		.align	1
 173              		.global	TELEMETRY_SETUP
 174              		.syntax unified
 175              		.thumb
 176              		.thumb_func
 178              	TELEMETRY_SETUP:
 179              		@ args = 0, pretend = 0, frame = 8
ARM GAS  C:\Users\user\AppData\Local\Temp\cckMILRz.s 			page 4


 180              		@ frame_needed = 1, uses_anonymous_args = 0
 181 0000 80B5     		push	{r7, lr}
 182 0002 84B0     		sub	sp, sp, #16
 183 0004 02AF     		add	r7, sp, #8
 184 0006 4FF48042 		mov	r2, #16384
 185 000a 2B49     		ldr	r1, .L25
 186 000c 2B48     		ldr	r0, .L25+4
 187 000e FFF7FEFF 		bl	ring_buffer_init
 188 0012 4FF4FA70 		mov	r0, #500
 189 0016 FFF7FEFF 		bl	HAL_Delay
 190 001a FFF7FEFF 		bl	HAL_GetTick
 191 001e 7860     		str	r0, [r7, #4]
 192 0020 09E0     		b	.L18
 193              	.L20:
 194 0022 FFF7FEFF 		bl	HAL_GetTick
 195 0026 0246     		mov	r2, r0
 196 0028 7B68     		ldr	r3, [r7, #4]
 197 002a 03F6B833 		addw	r3, r3, #3000
 198 002e 9A42     		cmp	r2, r3
 199 0030 01D9     		bls	.L18
 200 0032 0123     		movs	r3, #1
 201 0034 3CE0     		b	.L19
 202              	.L18:
 203 0036 4FF48071 		mov	r1, #256
 204 003a 2148     		ldr	r0, .L25+8
 205 003c FFF7FEFF 		bl	HAL_GPIO_ReadPin
 206 0040 0346     		mov	r3, r0
 207 0042 002B     		cmp	r3, #0
 208 0044 EDD0     		beq	.L20
 209 0046 6423     		movs	r3, #100
 210 0048 0522     		movs	r2, #5
 211 004a 0021     		movs	r1, #0
 212 004c 1D48     		ldr	r0, .L25+12
 213 004e FFF7FEFF 		bl	HAL_I2C_IsDeviceReady
 214 0052 0346     		mov	r3, r0
 215 0054 3B60     		str	r3, [r7]
 216 0056 3B68     		ldr	r3, [r7]
 217 0058 002B     		cmp	r3, #0
 218 005a 01D0     		beq	.L21
 219 005c 0223     		movs	r3, #2
 220 005e 27E0     		b	.L19
 221              	.L21:
 222 0060 6423     		movs	r3, #100
 223 0062 0093     		str	r3, [sp]
 224 0064 0523     		movs	r3, #5
 225 0066 184A     		ldr	r2, .L25+16
 226 0068 0021     		movs	r1, #0
 227 006a 1648     		ldr	r0, .L25+12
 228 006c FFF7FEFF 		bl	HAL_I2C_Master_Transmit
 229 0070 0346     		mov	r3, r0
 230 0072 3B60     		str	r3, [r7]
 231 0074 3B68     		ldr	r3, [r7]
 232 0076 002B     		cmp	r3, #0
 233 0078 0BD0     		beq	.L23
 234 007a 0323     		movs	r3, #3
 235 007c 18E0     		b	.L19
 236              	.L24:
ARM GAS  C:\Users\user\AppData\Local\Temp\cckMILRz.s 			page 5


 237 007e FFF7FEFF 		bl	HAL_GetTick
 238 0082 0246     		mov	r2, r0
 239 0084 7B68     		ldr	r3, [r7, #4]
 240 0086 03F6B833 		addw	r3, r3, #3000
 241 008a 9A42     		cmp	r2, r3
 242 008c 01D9     		bls	.L23
 243 008e 0423     		movs	r3, #4
 244 0090 0EE0     		b	.L19
 245              	.L23:
 246 0092 4FF48071 		mov	r1, #256
 247 0096 0A48     		ldr	r0, .L25+8
 248 0098 FFF7FEFF 		bl	HAL_GPIO_ReadPin
 249 009c 0346     		mov	r3, r0
 250 009e 012B     		cmp	r3, #1
 251 00a0 EDD0     		beq	.L24
 252 00a2 0A4B     		ldr	r3, .L25+20
 253 00a4 1B68     		ldr	r3, [r3]
 254 00a6 43F00103 		orr	r3, r3, #1
 255 00aa 084A     		ldr	r2, .L25+20
 256 00ac 1360     		str	r3, [r2]
 257 00ae 0023     		movs	r3, #0
 258              	.L19:
 259 00b0 1846     		mov	r0, r3
 260 00b2 0837     		adds	r7, r7, #8
 261 00b4 BD46     		mov	sp, r7
 262              		@ sp needed
 263 00b6 80BD     		pop	{r7, pc}
 264              	.L26:
 265              		.align	2
 266              	.L25:
 267 00b8 00000000 		.word	TELEMETRY_BUFFER_ARR
 268 00bc 00000000 		.word	TELEMETRY_BUFFER
 269 00c0 00040240 		.word	1073873920
 270 00c4 00000000 		.word	hi2c1
 271 00c8 00000000 		.word	.LC0
 272 00cc 00000000 		.word	handshake_flag
 274              		.section	.text.TELEMETRY_TRANSMIT_LOG,"ax",%progbits
 275              		.align	1
 276              		.global	TELEMETRY_TRANSMIT_LOG
 277              		.syntax unified
 278              		.thumb
 279              		.thumb_func
 281              	TELEMETRY_TRANSMIT_LOG:
 282              		@ args = 0, pretend = 0, frame = 8
 283              		@ frame_needed = 1, uses_anonymous_args = 0
 284 0000 80B5     		push	{r7, lr}
 285 0002 82B0     		sub	sp, sp, #8
 286 0004 00AF     		add	r7, sp, #0
 287 0006 164B     		ldr	r3, .L31
 288 0008 1B68     		ldr	r3, [r3]
 289 000a 03F00103 		and	r3, r3, #1
 290 000e 002B     		cmp	r3, #0
 291 0010 21D0     		beq	.L30
 292 0012 134B     		ldr	r3, .L31
 293 0014 1B68     		ldr	r3, [r3]
 294 0016 03F00203 		and	r3, r3, #2
 295 001a 002B     		cmp	r3, #0
ARM GAS  C:\Users\user\AppData\Local\Temp\cckMILRz.s 			page 6


 296 001c 1BD1     		bne	.L30
 297 001e 1022     		movs	r2, #16
 298 0020 1049     		ldr	r1, .L31+4
 299 0022 1148     		ldr	r0, .L31+8
 300 0024 FFF7FEFF 		bl	ring_buffer_dequeue_arr
 301 0028 1023     		movs	r3, #16
 302 002a 0E4A     		ldr	r2, .L31+4
 303 002c 0021     		movs	r1, #0
 304 002e 0F48     		ldr	r0, .L31+12
 305 0030 FFF7FEFF 		bl	HAL_I2C_Master_Transmit_IT
 306 0034 0346     		mov	r3, r0
 307 0036 7B60     		str	r3, [r7, #4]
 308 0038 7B68     		ldr	r3, [r7, #4]
 309 003a 002B     		cmp	r3, #0
 310 003c 06D1     		bne	.L29
 311 003e 084B     		ldr	r3, .L31
 312 0040 1B68     		ldr	r3, [r3]
 313 0042 43F00203 		orr	r3, r3, #2
 314 0046 064A     		ldr	r2, .L31
 315 0048 1360     		str	r3, [r2]
 316 004a 04E0     		b	.L30
 317              	.L29:
 318 004c 1022     		movs	r2, #16
 319 004e 0549     		ldr	r1, .L31+4
 320 0050 0548     		ldr	r0, .L31+8
 321 0052 FFF7FEFF 		bl	ring_buffer_queue_arr
 322              	.L30:
 323 0056 00BF     		nop
 324 0058 0837     		adds	r7, r7, #8
 325 005a BD46     		mov	sp, r7
 326              		@ sp needed
 327 005c 80BD     		pop	{r7, pc}
 328              	.L32:
 329 005e 00BF     		.align	2
 330              	.L31:
 331 0060 00000000 		.word	telemetry_flag
 332 0064 00000000 		.word	payload.0
 333 0068 00000000 		.word	TELEMETRY_BUFFER
 334 006c 00000000 		.word	hi2c1
 336              		.section	.text.ACCELEROMETER_WRITE,"ax",%progbits
 337              		.align	1
 338              		.global	ACCELEROMETER_WRITE
 339              		.syntax unified
 340              		.thumb
 341              		.thumb_func
 343              	ACCELEROMETER_WRITE:
 344              		@ args = 0, pretend = 0, frame = 16
 345              		@ frame_needed = 1, uses_anonymous_args = 0
 346 0000 80B5     		push	{r7, lr}
 347 0002 86B0     		sub	sp, sp, #24
 348 0004 02AF     		add	r7, sp, #8
 349 0006 0346     		mov	r3, r0
 350 0008 0A46     		mov	r2, r1
 351 000a FB71     		strb	r3, [r7, #7]
 352 000c 1346     		mov	r3, r2
 353 000e BB71     		strb	r3, [r7, #6]
 354 0010 FB79     		ldrb	r3, [r7, #7]
ARM GAS  C:\Users\user\AppData\Local\Temp\cckMILRz.s 			page 7


 355 0012 3B73     		strb	r3, [r7, #12]
 356 0014 BB79     		ldrb	r3, [r7, #6]
 357 0016 7B73     		strb	r3, [r7, #13]
 358 0018 07F10C02 		add	r2, r7, #12
 359 001c 3223     		movs	r3, #50
 360 001e 0093     		str	r3, [sp]
 361 0020 0223     		movs	r3, #2
 362 0022 A621     		movs	r1, #166
 363 0024 0348     		ldr	r0, .L35
 364 0026 FFF7FEFF 		bl	HAL_I2C_Master_Transmit
 365 002a 0346     		mov	r3, r0
 366 002c 1846     		mov	r0, r3
 367 002e 1037     		adds	r7, r7, #16
 368 0030 BD46     		mov	sp, r7
 369              		@ sp needed
 370 0032 80BD     		pop	{r7, pc}
 371              	.L36:
 372              		.align	2
 373              	.L35:
 374 0034 00000000 		.word	hi2c3
 376              		.section	.text.ACCELEROMETER_SETUP,"ax",%progbits
 377              		.align	1
 378              		.global	ACCELEROMETER_SETUP
 379              		.syntax unified
 380              		.thumb
 381              		.thumb_func
 383              	ACCELEROMETER_SETUP:
 384              		@ args = 0, pretend = 0, frame = 8
 385              		@ frame_needed = 1, uses_anonymous_args = 0
 386 0000 80B5     		push	{r7, lr}
 387 0002 82B0     		sub	sp, sp, #8
 388 0004 00AF     		add	r7, sp, #0
 389 0006 0023     		movs	r3, #0
 390 0008 7B60     		str	r3, [r7, #4]
 391 000a 0121     		movs	r1, #1
 392 000c 3120     		movs	r0, #49
 393 000e FFF7FEFF 		bl	ACCELEROMETER_WRITE
 394 0012 0246     		mov	r2, r0
 395 0014 7B68     		ldr	r3, [r7, #4]
 396 0016 1343     		orrs	r3, r3, r2
 397 0018 7B60     		str	r3, [r7, #4]
 398 001a 0021     		movs	r1, #0
 399 001c 2D20     		movs	r0, #45
 400 001e FFF7FEFF 		bl	ACCELEROMETER_WRITE
 401 0022 0246     		mov	r2, r0
 402 0024 7B68     		ldr	r3, [r7, #4]
 403 0026 1343     		orrs	r3, r3, r2
 404 0028 7B60     		str	r3, [r7, #4]
 405 002a 0821     		movs	r1, #8
 406 002c 2D20     		movs	r0, #45
 407 002e FFF7FEFF 		bl	ACCELEROMETER_WRITE
 408 0032 0246     		mov	r2, r0
 409 0034 7B68     		ldr	r3, [r7, #4]
 410 0036 1343     		orrs	r3, r3, r2
 411 0038 7B60     		str	r3, [r7, #4]
 412 003a 7B68     		ldr	r3, [r7, #4]
 413 003c 1846     		mov	r0, r3
ARM GAS  C:\Users\user\AppData\Local\Temp\cckMILRz.s 			page 8


 414 003e 0837     		adds	r7, r7, #8
 415 0040 BD46     		mov	sp, r7
 416              		@ sp needed
 417 0042 80BD     		pop	{r7, pc}
 419              		.global	hi2c1
 420              		.section	.bss.hi2c1,"aw",%nobits
 421              		.align	2
 424              	hi2c1:
 425 0000 00000000 		.space	84
 425      00000000 
 425      00000000 
 425      00000000 
 425      00000000 
 426              		.global	hi2c3
 427              		.section	.bss.hi2c3,"aw",%nobits
 428              		.align	2
 431              	hi2c3:
 432 0000 00000000 		.space	84
 432      00000000 
 432      00000000 
 432      00000000 
 432      00000000 
 433              		.section	.text.MX_I2C1_Init,"ax",%progbits
 434              		.align	1
 435              		.global	MX_I2C1_Init
 436              		.syntax unified
 437              		.thumb
 438              		.thumb_func
 440              	MX_I2C1_Init:
 441              		@ args = 0, pretend = 0, frame = 0
 442              		@ frame_needed = 1, uses_anonymous_args = 0
 443 0000 80B5     		push	{r7, lr}
 444 0002 00AF     		add	r7, sp, #0
 445 0004 124B     		ldr	r3, .L42
 446 0006 134A     		ldr	r2, .L42+4
 447 0008 1A60     		str	r2, [r3]
 448 000a 114B     		ldr	r3, .L42
 449 000c 124A     		ldr	r2, .L42+8
 450 000e 5A60     		str	r2, [r3, #4]
 451 0010 0F4B     		ldr	r3, .L42
 452 0012 0022     		movs	r2, #0
 453 0014 9A60     		str	r2, [r3, #8]
 454 0016 0E4B     		ldr	r3, .L42
 455 0018 0022     		movs	r2, #0
 456 001a DA60     		str	r2, [r3, #12]
 457 001c 0C4B     		ldr	r3, .L42
 458 001e 4FF48042 		mov	r2, #16384
 459 0022 1A61     		str	r2, [r3, #16]
 460 0024 0A4B     		ldr	r3, .L42
 461 0026 0022     		movs	r2, #0
 462 0028 5A61     		str	r2, [r3, #20]
 463 002a 094B     		ldr	r3, .L42
 464 002c 0022     		movs	r2, #0
 465 002e 9A61     		str	r2, [r3, #24]
 466 0030 074B     		ldr	r3, .L42
 467 0032 0022     		movs	r2, #0
 468 0034 DA61     		str	r2, [r3, #28]
ARM GAS  C:\Users\user\AppData\Local\Temp\cckMILRz.s 			page 9


 469 0036 064B     		ldr	r3, .L42
 470 0038 0022     		movs	r2, #0
 471 003a 1A62     		str	r2, [r3, #32]
 472 003c 0448     		ldr	r0, .L42
 473 003e FFF7FEFF 		bl	HAL_I2C_Init
 474 0042 0346     		mov	r3, r0
 475 0044 002B     		cmp	r3, #0
 476 0046 01D0     		beq	.L41
 477 0048 FFF7FEFF 		bl	Error_Handler
 478              	.L41:
 479 004c 00BF     		nop
 480 004e 80BD     		pop	{r7, pc}
 481              	.L43:
 482              		.align	2
 483              	.L42:
 484 0050 00000000 		.word	hi2c1
 485 0054 00540040 		.word	1073763328
 486 0058 801A0600 		.word	400000
 488              		.section	.text.MX_I2C3_Init,"ax",%progbits
 489              		.align	1
 490              		.global	MX_I2C3_Init
 491              		.syntax unified
 492              		.thumb
 493              		.thumb_func
 495              	MX_I2C3_Init:
 496              		@ args = 0, pretend = 0, frame = 0
 497              		@ frame_needed = 1, uses_anonymous_args = 0
 498 0000 80B5     		push	{r7, lr}
 499 0002 00AF     		add	r7, sp, #0
 500 0004 124B     		ldr	r3, .L47
 501 0006 134A     		ldr	r2, .L47+4
 502 0008 1A60     		str	r2, [r3]
 503 000a 114B     		ldr	r3, .L47
 504 000c 124A     		ldr	r2, .L47+8
 505 000e 5A60     		str	r2, [r3, #4]
 506 0010 0F4B     		ldr	r3, .L47
 507 0012 0022     		movs	r2, #0
 508 0014 9A60     		str	r2, [r3, #8]
 509 0016 0E4B     		ldr	r3, .L47
 510 0018 0022     		movs	r2, #0
 511 001a DA60     		str	r2, [r3, #12]
 512 001c 0C4B     		ldr	r3, .L47
 513 001e 4FF48042 		mov	r2, #16384
 514 0022 1A61     		str	r2, [r3, #16]
 515 0024 0A4B     		ldr	r3, .L47
 516 0026 0022     		movs	r2, #0
 517 0028 5A61     		str	r2, [r3, #20]
 518 002a 094B     		ldr	r3, .L47
 519 002c 0022     		movs	r2, #0
 520 002e 9A61     		str	r2, [r3, #24]
 521 0030 074B     		ldr	r3, .L47
 522 0032 0022     		movs	r2, #0
 523 0034 DA61     		str	r2, [r3, #28]
 524 0036 064B     		ldr	r3, .L47
 525 0038 0022     		movs	r2, #0
 526 003a 1A62     		str	r2, [r3, #32]
 527 003c 0448     		ldr	r0, .L47
ARM GAS  C:\Users\user\AppData\Local\Temp\cckMILRz.s 			page 10


 528 003e FFF7FEFF 		bl	HAL_I2C_Init
 529 0042 0346     		mov	r3, r0
 530 0044 002B     		cmp	r3, #0
 531 0046 01D0     		beq	.L46
 532 0048 FFF7FEFF 		bl	Error_Handler
 533              	.L46:
 534 004c 00BF     		nop
 535 004e 80BD     		pop	{r7, pc}
 536              	.L48:
 537              		.align	2
 538              	.L47:
 539 0050 00000000 		.word	hi2c3
 540 0054 005C0040 		.word	1073765376
 541 0058 801A0600 		.word	400000
 543              		.section	.text.HAL_I2C_MspInit,"ax",%progbits
 544              		.align	1
 545              		.global	HAL_I2C_MspInit
 546              		.syntax unified
 547              		.thumb
 548              		.thumb_func
 550              	HAL_I2C_MspInit:
 551              		@ args = 0, pretend = 0, frame = 48
 552              		@ frame_needed = 1, uses_anonymous_args = 0
 553 0000 80B5     		push	{r7, lr}
 554 0002 8CB0     		sub	sp, sp, #48
 555 0004 00AF     		add	r7, sp, #0
 556 0006 7860     		str	r0, [r7, #4]
 557 0008 07F11C03 		add	r3, r7, #28
 558 000c 0022     		movs	r2, #0
 559 000e 1A60     		str	r2, [r3]
 560 0010 5A60     		str	r2, [r3, #4]
 561 0012 9A60     		str	r2, [r3, #8]
 562 0014 DA60     		str	r2, [r3, #12]
 563 0016 1A61     		str	r2, [r3, #16]
 564 0018 7B68     		ldr	r3, [r7, #4]
 565 001a 1B68     		ldr	r3, [r3]
 566 001c 4A4A     		ldr	r2, .L53
 567 001e 9342     		cmp	r3, r2
 568 0020 34D1     		bne	.L50
 569 0022 0023     		movs	r3, #0
 570 0024 BB61     		str	r3, [r7, #24]
 571 0026 494B     		ldr	r3, .L53+4
 572 0028 1B6B     		ldr	r3, [r3, #48]
 573 002a 484A     		ldr	r2, .L53+4
 574 002c 43F00203 		orr	r3, r3, #2
 575 0030 1363     		str	r3, [r2, #48]
 576 0032 464B     		ldr	r3, .L53+4
 577 0034 1B6B     		ldr	r3, [r3, #48]
 578 0036 03F00203 		and	r3, r3, #2
 579 003a BB61     		str	r3, [r7, #24]
 580 003c BB69     		ldr	r3, [r7, #24]
 581 003e C023     		movs	r3, #192
 582 0040 FB61     		str	r3, [r7, #28]
 583 0042 1223     		movs	r3, #18
 584 0044 3B62     		str	r3, [r7, #32]
 585 0046 0023     		movs	r3, #0
 586 0048 7B62     		str	r3, [r7, #36]
ARM GAS  C:\Users\user\AppData\Local\Temp\cckMILRz.s 			page 11


 587 004a 0323     		movs	r3, #3
 588 004c BB62     		str	r3, [r7, #40]
 589 004e 0423     		movs	r3, #4
 590 0050 FB62     		str	r3, [r7, #44]
 591 0052 07F11C03 		add	r3, r7, #28
 592 0056 1946     		mov	r1, r3
 593 0058 3D48     		ldr	r0, .L53+8
 594 005a FFF7FEFF 		bl	HAL_GPIO_Init
 595 005e 0023     		movs	r3, #0
 596 0060 7B61     		str	r3, [r7, #20]
 597 0062 3A4B     		ldr	r3, .L53+4
 598 0064 1B6C     		ldr	r3, [r3, #64]
 599 0066 394A     		ldr	r2, .L53+4
 600 0068 43F40013 		orr	r3, r3, #2097152
 601 006c 1364     		str	r3, [r2, #64]
 602 006e 374B     		ldr	r3, .L53+4
 603 0070 1B6C     		ldr	r3, [r3, #64]
 604 0072 03F40013 		and	r3, r3, #2097152
 605 0076 7B61     		str	r3, [r7, #20]
 606 0078 7B69     		ldr	r3, [r7, #20]
 607 007a 0022     		movs	r2, #0
 608 007c 0021     		movs	r1, #0
 609 007e 1F20     		movs	r0, #31
 610 0080 FFF7FEFF 		bl	HAL_NVIC_SetPriority
 611 0084 1F20     		movs	r0, #31
 612 0086 FFF7FEFF 		bl	HAL_NVIC_EnableIRQ
 613 008a 58E0     		b	.L52
 614              	.L50:
 615 008c 7B68     		ldr	r3, [r7, #4]
 616 008e 1B68     		ldr	r3, [r3]
 617 0090 304A     		ldr	r2, .L53+12
 618 0092 9342     		cmp	r3, r2
 619 0094 53D1     		bne	.L52
 620 0096 0023     		movs	r3, #0
 621 0098 3B61     		str	r3, [r7, #16]
 622 009a 2C4B     		ldr	r3, .L53+4
 623 009c 1B6B     		ldr	r3, [r3, #48]
 624 009e 2B4A     		ldr	r2, .L53+4
 625 00a0 43F00403 		orr	r3, r3, #4
 626 00a4 1363     		str	r3, [r2, #48]
 627 00a6 294B     		ldr	r3, .L53+4
 628 00a8 1B6B     		ldr	r3, [r3, #48]
 629 00aa 03F00403 		and	r3, r3, #4
 630 00ae 3B61     		str	r3, [r7, #16]
 631 00b0 3B69     		ldr	r3, [r7, #16]
 632 00b2 0023     		movs	r3, #0
 633 00b4 FB60     		str	r3, [r7, #12]
 634 00b6 254B     		ldr	r3, .L53+4
 635 00b8 1B6B     		ldr	r3, [r3, #48]
 636 00ba 244A     		ldr	r2, .L53+4
 637 00bc 43F00103 		orr	r3, r3, #1
 638 00c0 1363     		str	r3, [r2, #48]
 639 00c2 224B     		ldr	r3, .L53+4
 640 00c4 1B6B     		ldr	r3, [r3, #48]
 641 00c6 03F00103 		and	r3, r3, #1
 642 00ca FB60     		str	r3, [r7, #12]
 643 00cc FB68     		ldr	r3, [r7, #12]
ARM GAS  C:\Users\user\AppData\Local\Temp\cckMILRz.s 			page 12


 644 00ce 4FF40073 		mov	r3, #512
 645 00d2 FB61     		str	r3, [r7, #28]
 646 00d4 1223     		movs	r3, #18
 647 00d6 3B62     		str	r3, [r7, #32]
 648 00d8 0023     		movs	r3, #0
 649 00da 7B62     		str	r3, [r7, #36]
 650 00dc 0323     		movs	r3, #3
 651 00de BB62     		str	r3, [r7, #40]
 652 00e0 0423     		movs	r3, #4
 653 00e2 FB62     		str	r3, [r7, #44]
 654 00e4 07F11C03 		add	r3, r7, #28
 655 00e8 1946     		mov	r1, r3
 656 00ea 1B48     		ldr	r0, .L53+16
 657 00ec FFF7FEFF 		bl	HAL_GPIO_Init
 658 00f0 4FF48073 		mov	r3, #256
 659 00f4 FB61     		str	r3, [r7, #28]
 660 00f6 1223     		movs	r3, #18
 661 00f8 3B62     		str	r3, [r7, #32]
 662 00fa 0023     		movs	r3, #0
 663 00fc 7B62     		str	r3, [r7, #36]
 664 00fe 0323     		movs	r3, #3
 665 0100 BB62     		str	r3, [r7, #40]
 666 0102 0423     		movs	r3, #4
 667 0104 FB62     		str	r3, [r7, #44]
 668 0106 07F11C03 		add	r3, r7, #28
 669 010a 1946     		mov	r1, r3
 670 010c 1348     		ldr	r0, .L53+20
 671 010e FFF7FEFF 		bl	HAL_GPIO_Init
 672 0112 0023     		movs	r3, #0
 673 0114 BB60     		str	r3, [r7, #8]
 674 0116 0D4B     		ldr	r3, .L53+4
 675 0118 1B6C     		ldr	r3, [r3, #64]
 676 011a 0C4A     		ldr	r2, .L53+4
 677 011c 43F40003 		orr	r3, r3, #8388608
 678 0120 1364     		str	r3, [r2, #64]
 679 0122 0A4B     		ldr	r3, .L53+4
 680 0124 1B6C     		ldr	r3, [r3, #64]
 681 0126 03F40003 		and	r3, r3, #8388608
 682 012a BB60     		str	r3, [r7, #8]
 683 012c BB68     		ldr	r3, [r7, #8]
 684 012e 0022     		movs	r2, #0
 685 0130 0021     		movs	r1, #0
 686 0132 4820     		movs	r0, #72
 687 0134 FFF7FEFF 		bl	HAL_NVIC_SetPriority
 688 0138 4820     		movs	r0, #72
 689 013a FFF7FEFF 		bl	HAL_NVIC_EnableIRQ
 690              	.L52:
 691 013e 00BF     		nop
 692 0140 3037     		adds	r7, r7, #48
 693 0142 BD46     		mov	sp, r7
 694              		@ sp needed
 695 0144 80BD     		pop	{r7, pc}
 696              	.L54:
 697 0146 00BF     		.align	2
 698              	.L53:
 699 0148 00540040 		.word	1073763328
 700 014c 00380240 		.word	1073887232
ARM GAS  C:\Users\user\AppData\Local\Temp\cckMILRz.s 			page 13


 701 0150 00040240 		.word	1073873920
 702 0154 005C0040 		.word	1073765376
 703 0158 00080240 		.word	1073874944
 704 015c 00000240 		.word	1073872896
 706              		.section	.text.HAL_I2C_MspDeInit,"ax",%progbits
 707              		.align	1
 708              		.global	HAL_I2C_MspDeInit
 709              		.syntax unified
 710              		.thumb
 711              		.thumb_func
 713              	HAL_I2C_MspDeInit:
 714              		@ args = 0, pretend = 0, frame = 8
 715              		@ frame_needed = 1, uses_anonymous_args = 0
 716 0000 80B5     		push	{r7, lr}
 717 0002 82B0     		sub	sp, sp, #8
 718 0004 00AF     		add	r7, sp, #0
 719 0006 7860     		str	r0, [r7, #4]
 720 0008 7B68     		ldr	r3, [r7, #4]
 721 000a 1B68     		ldr	r3, [r3]
 722 000c 184A     		ldr	r2, .L59
 723 000e 9342     		cmp	r3, r2
 724 0010 11D1     		bne	.L56
 725 0012 184B     		ldr	r3, .L59+4
 726 0014 1B6C     		ldr	r3, [r3, #64]
 727 0016 174A     		ldr	r2, .L59+4
 728 0018 23F40013 		bic	r3, r3, #2097152
 729 001c 1364     		str	r3, [r2, #64]
 730 001e 4021     		movs	r1, #64
 731 0020 1548     		ldr	r0, .L59+8
 732 0022 FFF7FEFF 		bl	HAL_GPIO_DeInit
 733 0026 8021     		movs	r1, #128
 734 0028 1348     		ldr	r0, .L59+8
 735 002a FFF7FEFF 		bl	HAL_GPIO_DeInit
 736 002e 1F20     		movs	r0, #31
 737 0030 FFF7FEFF 		bl	HAL_NVIC_DisableIRQ
 738 0034 17E0     		b	.L58
 739              	.L56:
 740 0036 7B68     		ldr	r3, [r7, #4]
 741 0038 1B68     		ldr	r3, [r3]
 742 003a 104A     		ldr	r2, .L59+12
 743 003c 9342     		cmp	r3, r2
 744 003e 12D1     		bne	.L58
 745 0040 0C4B     		ldr	r3, .L59+4
 746 0042 1B6C     		ldr	r3, [r3, #64]
 747 0044 0B4A     		ldr	r2, .L59+4
 748 0046 23F40003 		bic	r3, r3, #8388608
 749 004a 1364     		str	r3, [r2, #64]
 750 004c 4FF40071 		mov	r1, #512
 751 0050 0B48     		ldr	r0, .L59+16
 752 0052 FFF7FEFF 		bl	HAL_GPIO_DeInit
 753 0056 4FF48071 		mov	r1, #256
 754 005a 0A48     		ldr	r0, .L59+20
 755 005c FFF7FEFF 		bl	HAL_GPIO_DeInit
 756 0060 4820     		movs	r0, #72
 757 0062 FFF7FEFF 		bl	HAL_NVIC_DisableIRQ
 758              	.L58:
 759 0066 00BF     		nop
ARM GAS  C:\Users\user\AppData\Local\Temp\cckMILRz.s 			page 14


 760 0068 0837     		adds	r7, r7, #8
 761 006a BD46     		mov	sp, r7
 762              		@ sp needed
 763 006c 80BD     		pop	{r7, pc}
 764              	.L60:
 765 006e 00BF     		.align	2
 766              	.L59:
 767 0070 00540040 		.word	1073763328
 768 0074 00380240 		.word	1073887232
 769 0078 00040240 		.word	1073873920
 770 007c 005C0040 		.word	1073765376
 771 0080 00080240 		.word	1073874944
 772 0084 00000240 		.word	1073872896
 774              		.section	.bss.payload.1,"aw",%nobits
 775              		.align	2
 778              	payload.1:
 779 0000 00000000 		.space	16
 779      00000000 
 779      00000000 
 779      00000000 
 780              		.section	.bss.payload.0,"aw",%nobits
 781              		.align	2
 784              	payload.0:
 785 0000 00000000 		.space	16
 785      00000000 
 785      00000000 
 785      00000000 
 786              		.ident	"GCC: (GNU Tools for STM32 12.3.rel1.20240306-1730) 12.3.1 20230626"
ARM GAS  C:\Users\user\AppData\Local\Temp\cckMILRz.s 			page 15

