ARM GAS  C:\Users\user\AppData\Local\Temp\ccanxXIp.s 			page 1


   1              		.cpu cortex-m4
   2              		.arch armv7e-m
   3              		.fpu fpv4-sp-d16
   4              		.eabi_attribute 27, 1
   5              		.eabi_attribute 28, 1
   6              		.eabi_attribute 20, 1
   7              		.eabi_attribute 21, 1
   8              		.eabi_attribute 23, 3
   9              		.eabi_attribute 24, 1
  10              		.eabi_attribute 25, 1
  11              		.eabi_attribute 26, 1
  12              		.eabi_attribute 30, 6
  13              		.eabi_attribute 34, 1
  14              		.eabi_attribute 18, 4
  15              		.file	"ringbuffer.c"
  16              		.text
  17              		.section	.text.ring_buffer_is_empty,"ax",%progbits
  18              		.align	1
  19              		.global	ring_buffer_is_empty
  20              		.syntax unified
  21              		.thumb
  22              		.thumb_func
  24              	ring_buffer_is_empty:
  25              		@ args = 0, pretend = 0, frame = 8
  26              		@ frame_needed = 1, uses_anonymous_args = 0
  27              		@ link register save eliminated.
  28 0000 80B4     		push	{r7}
  29 0002 83B0     		sub	sp, sp, #12
  30 0004 00AF     		add	r7, sp, #0
  31 0006 7860     		str	r0, [r7, #4]
  32 0008 7B68     		ldr	r3, [r7, #4]
  33 000a DA68     		ldr	r2, [r3, #12]
  34 000c 7B68     		ldr	r3, [r7, #4]
  35 000e 9B68     		ldr	r3, [r3, #8]
  36 0010 9A42     		cmp	r2, r3
  37 0012 0CBF     		ite	eq
  38 0014 0123     		moveq	r3, #1
  39 0016 0023     		movne	r3, #0
  40 0018 DBB2     		uxtb	r3, r3
  41 001a 1846     		mov	r0, r3
  42 001c 0C37     		adds	r7, r7, #12
  43 001e BD46     		mov	sp, r7
  44              		@ sp needed
  45 0020 5DF8047B 		ldr	r7, [sp], #4
  46 0024 7047     		bx	lr
  48              		.section	.text.ring_buffer_is_full,"ax",%progbits
  49              		.align	1
  50              		.global	ring_buffer_is_full
  51              		.syntax unified
  52              		.thumb
  53              		.thumb_func
  55              	ring_buffer_is_full:
  56              		@ args = 0, pretend = 0, frame = 8
  57              		@ frame_needed = 1, uses_anonymous_args = 0
  58              		@ link register save eliminated.
  59 0000 80B4     		push	{r7}
  60 0002 83B0     		sub	sp, sp, #12
ARM GAS  C:\Users\user\AppData\Local\Temp\ccanxXIp.s 			page 2


  61 0004 00AF     		add	r7, sp, #0
  62 0006 7860     		str	r0, [r7, #4]
  63 0008 7B68     		ldr	r3, [r7, #4]
  64 000a DA68     		ldr	r2, [r3, #12]
  65 000c 7B68     		ldr	r3, [r7, #4]
  66 000e 9B68     		ldr	r3, [r3, #8]
  67 0010 D21A     		subs	r2, r2, r3
  68 0012 7B68     		ldr	r3, [r7, #4]
  69 0014 5B68     		ldr	r3, [r3, #4]
  70 0016 1A40     		ands	r2, r2, r3
  71 0018 7B68     		ldr	r3, [r7, #4]
  72 001a 5B68     		ldr	r3, [r3, #4]
  73 001c 9A42     		cmp	r2, r3
  74 001e 0CBF     		ite	eq
  75 0020 0123     		moveq	r3, #1
  76 0022 0023     		movne	r3, #0
  77 0024 DBB2     		uxtb	r3, r3
  78 0026 1846     		mov	r0, r3
  79 0028 0C37     		adds	r7, r7, #12
  80 002a BD46     		mov	sp, r7
  81              		@ sp needed
  82 002c 5DF8047B 		ldr	r7, [sp], #4
  83 0030 7047     		bx	lr
  85              		.section	.text.ring_buffer_num_items,"ax",%progbits
  86              		.align	1
  87              		.global	ring_buffer_num_items
  88              		.syntax unified
  89              		.thumb
  90              		.thumb_func
  92              	ring_buffer_num_items:
  93              		@ args = 0, pretend = 0, frame = 8
  94              		@ frame_needed = 1, uses_anonymous_args = 0
  95              		@ link register save eliminated.
  96 0000 80B4     		push	{r7}
  97 0002 83B0     		sub	sp, sp, #12
  98 0004 00AF     		add	r7, sp, #0
  99 0006 7860     		str	r0, [r7, #4]
 100 0008 7B68     		ldr	r3, [r7, #4]
 101 000a DA68     		ldr	r2, [r3, #12]
 102 000c 7B68     		ldr	r3, [r7, #4]
 103 000e 9B68     		ldr	r3, [r3, #8]
 104 0010 D21A     		subs	r2, r2, r3
 105 0012 7B68     		ldr	r3, [r7, #4]
 106 0014 5B68     		ldr	r3, [r3, #4]
 107 0016 1340     		ands	r3, r3, r2
 108 0018 1846     		mov	r0, r3
 109 001a 0C37     		adds	r7, r7, #12
 110 001c BD46     		mov	sp, r7
 111              		@ sp needed
 112 001e 5DF8047B 		ldr	r7, [sp], #4
 113 0022 7047     		bx	lr
 115              		.section	.rodata
 116              		.align	2
 117              	.LC0:
 118 0000 28286275 		.ascii	"((buf_size & (buf_size - 1)) == 0) == 1\000"
 118      665F7369 
 118      7A652026 
ARM GAS  C:\Users\user\AppData\Local\Temp\ccanxXIp.s 			page 3


 118      20286275 
 118      665F7369 
 119              		.align	2
 120              	.LC1:
 121 0028 436F7265 		.ascii	"Core/Src/ringbuffer.c\000"
 121      2F537263 
 121      2F72696E 
 121      67627566 
 121      6665722E 
 122              		.section	.text.ring_buffer_init,"ax",%progbits
 123              		.align	1
 124              		.global	ring_buffer_init
 125              		.syntax unified
 126              		.thumb
 127              		.thumb_func
 129              	ring_buffer_init:
 130              		@ args = 0, pretend = 0, frame = 16
 131              		@ frame_needed = 1, uses_anonymous_args = 0
 132 0000 80B5     		push	{r7, lr}
 133 0002 84B0     		sub	sp, sp, #16
 134 0004 00AF     		add	r7, sp, #0
 135 0006 F860     		str	r0, [r7, #12]
 136 0008 B960     		str	r1, [r7, #8]
 137 000a 7A60     		str	r2, [r7, #4]
 138 000c 7B68     		ldr	r3, [r7, #4]
 139 000e 5A1E     		subs	r2, r3, #1
 140 0010 7B68     		ldr	r3, [r7, #4]
 141 0012 1340     		ands	r3, r3, r2
 142 0014 002B     		cmp	r3, #0
 143 0016 05D0     		beq	.L8
 144 0018 0B4B     		ldr	r3, .L9
 145 001a 0C4A     		ldr	r2, .L9+4
 146 001c 0921     		movs	r1, #9
 147 001e 0C48     		ldr	r0, .L9+8
 148 0020 FFF7FEFF 		bl	__assert_func
 149              	.L8:
 150 0024 FB68     		ldr	r3, [r7, #12]
 151 0026 BA68     		ldr	r2, [r7, #8]
 152 0028 1A60     		str	r2, [r3]
 153 002a 7B68     		ldr	r3, [r7, #4]
 154 002c 5A1E     		subs	r2, r3, #1
 155 002e FB68     		ldr	r3, [r7, #12]
 156 0030 5A60     		str	r2, [r3, #4]
 157 0032 FB68     		ldr	r3, [r7, #12]
 158 0034 0022     		movs	r2, #0
 159 0036 9A60     		str	r2, [r3, #8]
 160 0038 FB68     		ldr	r3, [r7, #12]
 161 003a 0022     		movs	r2, #0
 162 003c DA60     		str	r2, [r3, #12]
 163 003e 00BF     		nop
 164 0040 1037     		adds	r7, r7, #16
 165 0042 BD46     		mov	sp, r7
 166              		@ sp needed
 167 0044 80BD     		pop	{r7, pc}
 168              	.L10:
 169 0046 00BF     		.align	2
 170              	.L9:
ARM GAS  C:\Users\user\AppData\Local\Temp\ccanxXIp.s 			page 4


 171 0048 00000000 		.word	.LC0
 172 004c 00000000 		.word	__func__.0
 173 0050 28000000 		.word	.LC1
 175              		.section	.text.ring_buffer_queue,"ax",%progbits
 176              		.align	1
 177              		.global	ring_buffer_queue
 178              		.syntax unified
 179              		.thumb
 180              		.thumb_func
 182              	ring_buffer_queue:
 183              		@ args = 0, pretend = 0, frame = 8
 184              		@ frame_needed = 1, uses_anonymous_args = 0
 185 0000 80B5     		push	{r7, lr}
 186 0002 82B0     		sub	sp, sp, #8
 187 0004 00AF     		add	r7, sp, #0
 188 0006 7860     		str	r0, [r7, #4]
 189 0008 0B46     		mov	r3, r1
 190 000a FB70     		strb	r3, [r7, #3]
 191 000c 7868     		ldr	r0, [r7, #4]
 192 000e FFF7FEFF 		bl	ring_buffer_is_full
 193 0012 0346     		mov	r3, r0
 194 0014 002B     		cmp	r3, #0
 195 0016 07D0     		beq	.L12
 196 0018 7B68     		ldr	r3, [r7, #4]
 197 001a 9B68     		ldr	r3, [r3, #8]
 198 001c 5A1C     		adds	r2, r3, #1
 199 001e 7B68     		ldr	r3, [r7, #4]
 200 0020 5B68     		ldr	r3, [r3, #4]
 201 0022 1A40     		ands	r2, r2, r3
 202 0024 7B68     		ldr	r3, [r7, #4]
 203 0026 9A60     		str	r2, [r3, #8]
 204              	.L12:
 205 0028 7B68     		ldr	r3, [r7, #4]
 206 002a 1A68     		ldr	r2, [r3]
 207 002c 7B68     		ldr	r3, [r7, #4]
 208 002e DB68     		ldr	r3, [r3, #12]
 209 0030 1344     		add	r3, r3, r2
 210 0032 FA78     		ldrb	r2, [r7, #3]
 211 0034 1A70     		strb	r2, [r3]
 212 0036 7B68     		ldr	r3, [r7, #4]
 213 0038 DB68     		ldr	r3, [r3, #12]
 214 003a 5A1C     		adds	r2, r3, #1
 215 003c 7B68     		ldr	r3, [r7, #4]
 216 003e 5B68     		ldr	r3, [r3, #4]
 217 0040 1A40     		ands	r2, r2, r3
 218 0042 7B68     		ldr	r3, [r7, #4]
 219 0044 DA60     		str	r2, [r3, #12]
 220 0046 00BF     		nop
 221 0048 0837     		adds	r7, r7, #8
 222 004a BD46     		mov	sp, r7
 223              		@ sp needed
 224 004c 80BD     		pop	{r7, pc}
 226              		.section	.text.ring_buffer_queue_arr,"ax",%progbits
 227              		.align	1
 228              		.global	ring_buffer_queue_arr
 229              		.syntax unified
 230              		.thumb
ARM GAS  C:\Users\user\AppData\Local\Temp\ccanxXIp.s 			page 5


 231              		.thumb_func
 233              	ring_buffer_queue_arr:
 234              		@ args = 0, pretend = 0, frame = 24
 235              		@ frame_needed = 1, uses_anonymous_args = 0
 236 0000 80B5     		push	{r7, lr}
 237 0002 86B0     		sub	sp, sp, #24
 238 0004 00AF     		add	r7, sp, #0
 239 0006 F860     		str	r0, [r7, #12]
 240 0008 B960     		str	r1, [r7, #8]
 241 000a 7A60     		str	r2, [r7, #4]
 242 000c 0023     		movs	r3, #0
 243 000e 7B61     		str	r3, [r7, #20]
 244 0010 0AE0     		b	.L14
 245              	.L15:
 246 0012 BA68     		ldr	r2, [r7, #8]
 247 0014 7B69     		ldr	r3, [r7, #20]
 248 0016 1344     		add	r3, r3, r2
 249 0018 1B78     		ldrb	r3, [r3]	@ zero_extendqisi2
 250 001a 1946     		mov	r1, r3
 251 001c F868     		ldr	r0, [r7, #12]
 252 001e FFF7FEFF 		bl	ring_buffer_queue
 253 0022 7B69     		ldr	r3, [r7, #20]
 254 0024 0133     		adds	r3, r3, #1
 255 0026 7B61     		str	r3, [r7, #20]
 256              	.L14:
 257 0028 7A69     		ldr	r2, [r7, #20]
 258 002a 7B68     		ldr	r3, [r7, #4]
 259 002c 9A42     		cmp	r2, r3
 260 002e F0D3     		bcc	.L15
 261 0030 00BF     		nop
 262 0032 00BF     		nop
 263 0034 1837     		adds	r7, r7, #24
 264 0036 BD46     		mov	sp, r7
 265              		@ sp needed
 266 0038 80BD     		pop	{r7, pc}
 268              		.section	.text.ring_buffer_dequeue,"ax",%progbits
 269              		.align	1
 270              		.global	ring_buffer_dequeue
 271              		.syntax unified
 272              		.thumb
 273              		.thumb_func
 275              	ring_buffer_dequeue:
 276              		@ args = 0, pretend = 0, frame = 8
 277              		@ frame_needed = 1, uses_anonymous_args = 0
 278 0000 80B5     		push	{r7, lr}
 279 0002 82B0     		sub	sp, sp, #8
 280 0004 00AF     		add	r7, sp, #0
 281 0006 7860     		str	r0, [r7, #4]
 282 0008 3960     		str	r1, [r7]
 283 000a 7868     		ldr	r0, [r7, #4]
 284 000c FFF7FEFF 		bl	ring_buffer_is_empty
 285 0010 0346     		mov	r3, r0
 286 0012 002B     		cmp	r3, #0
 287 0014 01D0     		beq	.L17
 288 0016 0023     		movs	r3, #0
 289 0018 10E0     		b	.L18
 290              	.L17:
ARM GAS  C:\Users\user\AppData\Local\Temp\ccanxXIp.s 			page 6


 291 001a 7B68     		ldr	r3, [r7, #4]
 292 001c 1A68     		ldr	r2, [r3]
 293 001e 7B68     		ldr	r3, [r7, #4]
 294 0020 9B68     		ldr	r3, [r3, #8]
 295 0022 1344     		add	r3, r3, r2
 296 0024 1A78     		ldrb	r2, [r3]	@ zero_extendqisi2
 297 0026 3B68     		ldr	r3, [r7]
 298 0028 1A70     		strb	r2, [r3]
 299 002a 7B68     		ldr	r3, [r7, #4]
 300 002c 9B68     		ldr	r3, [r3, #8]
 301 002e 5A1C     		adds	r2, r3, #1
 302 0030 7B68     		ldr	r3, [r7, #4]
 303 0032 5B68     		ldr	r3, [r3, #4]
 304 0034 1A40     		ands	r2, r2, r3
 305 0036 7B68     		ldr	r3, [r7, #4]
 306 0038 9A60     		str	r2, [r3, #8]
 307 003a 0123     		movs	r3, #1
 308              	.L18:
 309 003c 1846     		mov	r0, r3
 310 003e 0837     		adds	r7, r7, #8
 311 0040 BD46     		mov	sp, r7
 312              		@ sp needed
 313 0042 80BD     		pop	{r7, pc}
 315              		.section	.text.ring_buffer_dequeue_arr,"ax",%progbits
 316              		.align	1
 317              		.global	ring_buffer_dequeue_arr
 318              		.syntax unified
 319              		.thumb
 320              		.thumb_func
 322              	ring_buffer_dequeue_arr:
 323              		@ args = 0, pretend = 0, frame = 24
 324              		@ frame_needed = 1, uses_anonymous_args = 0
 325 0000 80B5     		push	{r7, lr}
 326 0002 86B0     		sub	sp, sp, #24
 327 0004 00AF     		add	r7, sp, #0
 328 0006 F860     		str	r0, [r7, #12]
 329 0008 B960     		str	r1, [r7, #8]
 330 000a 7A60     		str	r2, [r7, #4]
 331 000c F868     		ldr	r0, [r7, #12]
 332 000e FFF7FEFF 		bl	ring_buffer_is_empty
 333 0012 0346     		mov	r3, r0
 334 0014 002B     		cmp	r3, #0
 335 0016 01D0     		beq	.L20
 336 0018 0023     		movs	r3, #0
 337 001a 16E0     		b	.L21
 338              	.L20:
 339 001c BB68     		ldr	r3, [r7, #8]
 340 001e 7B61     		str	r3, [r7, #20]
 341 0020 0023     		movs	r3, #0
 342 0022 3B61     		str	r3, [r7, #16]
 343 0024 05E0     		b	.L22
 344              	.L24:
 345 0026 3B69     		ldr	r3, [r7, #16]
 346 0028 0133     		adds	r3, r3, #1
 347 002a 3B61     		str	r3, [r7, #16]
 348 002c 7B69     		ldr	r3, [r7, #20]
 349 002e 0133     		adds	r3, r3, #1
ARM GAS  C:\Users\user\AppData\Local\Temp\ccanxXIp.s 			page 7


 350 0030 7B61     		str	r3, [r7, #20]
 351              	.L22:
 352 0032 3A69     		ldr	r2, [r7, #16]
 353 0034 7B68     		ldr	r3, [r7, #4]
 354 0036 9A42     		cmp	r2, r3
 355 0038 06D2     		bcs	.L23
 356 003a 7969     		ldr	r1, [r7, #20]
 357 003c F868     		ldr	r0, [r7, #12]
 358 003e FFF7FEFF 		bl	ring_buffer_dequeue
 359 0042 0346     		mov	r3, r0
 360 0044 002B     		cmp	r3, #0
 361 0046 EED1     		bne	.L24
 362              	.L23:
 363 0048 3B69     		ldr	r3, [r7, #16]
 364              	.L21:
 365 004a 1846     		mov	r0, r3
 366 004c 1837     		adds	r7, r7, #24
 367 004e BD46     		mov	sp, r7
 368              		@ sp needed
 369 0050 80BD     		pop	{r7, pc}
 371              		.section	.text.ring_buffer_peek,"ax",%progbits
 372              		.align	1
 373              		.global	ring_buffer_peek
 374              		.syntax unified
 375              		.thumb
 376              		.thumb_func
 378              	ring_buffer_peek:
 379              		@ args = 0, pretend = 0, frame = 24
 380              		@ frame_needed = 1, uses_anonymous_args = 0
 381 0000 80B5     		push	{r7, lr}
 382 0002 86B0     		sub	sp, sp, #24
 383 0004 00AF     		add	r7, sp, #0
 384 0006 F860     		str	r0, [r7, #12]
 385 0008 B960     		str	r1, [r7, #8]
 386 000a 7A60     		str	r2, [r7, #4]
 387 000c F868     		ldr	r0, [r7, #12]
 388 000e FFF7FEFF 		bl	ring_buffer_num_items
 389 0012 0246     		mov	r2, r0
 390 0014 7B68     		ldr	r3, [r7, #4]
 391 0016 9342     		cmp	r3, r2
 392 0018 01D3     		bcc	.L26
 393 001a 0023     		movs	r3, #0
 394 001c 0FE0     		b	.L27
 395              	.L26:
 396 001e FB68     		ldr	r3, [r7, #12]
 397 0020 9A68     		ldr	r2, [r3, #8]
 398 0022 7B68     		ldr	r3, [r7, #4]
 399 0024 1A44     		add	r2, r2, r3
 400 0026 FB68     		ldr	r3, [r7, #12]
 401 0028 5B68     		ldr	r3, [r3, #4]
 402 002a 1340     		ands	r3, r3, r2
 403 002c 7B61     		str	r3, [r7, #20]
 404 002e FB68     		ldr	r3, [r7, #12]
 405 0030 1A68     		ldr	r2, [r3]
 406 0032 7B69     		ldr	r3, [r7, #20]
 407 0034 1344     		add	r3, r3, r2
 408 0036 1A78     		ldrb	r2, [r3]	@ zero_extendqisi2
ARM GAS  C:\Users\user\AppData\Local\Temp\ccanxXIp.s 			page 8


 409 0038 BB68     		ldr	r3, [r7, #8]
 410 003a 1A70     		strb	r2, [r3]
 411 003c 0123     		movs	r3, #1
 412              	.L27:
 413 003e 1846     		mov	r0, r3
 414 0040 1837     		adds	r7, r7, #24
 415 0042 BD46     		mov	sp, r7
 416              		@ sp needed
 417 0044 80BD     		pop	{r7, pc}
 419              		.section	.rodata.__func__.0,"a"
 420              		.align	2
 423              	__func__.0:
 424 0000 72696E67 		.ascii	"ring_buffer_init\000"
 424      5F627566 
 424      6665725F 
 424      696E6974 
 424      00
 425              		.ident	"GCC: (GNU Tools for STM32 12.3.rel1.20240306-1730) 12.3.1 20230626"
ARM GAS  C:\Users\user\AppData\Local\Temp\ccanxXIp.s 			page 9

