ARM GAS  C:\Users\user\AppData\Local\Temp\ccsiWt6U.s 			page 1


   1              		.cpu cortex-m4
   2              		.arch armv7e-m
   3              		.fpu fpv4-sp-d16
   4              		.eabi_attribute 27, 1
   5              		.eabi_attribute 28, 1
   6              		.eabi_attribute 20, 1
   7              		.eabi_attribute 21, 1
   8              		.eabi_attribute 23, 3
   9              		.eabi_attribute 24, 1
  10              		.eabi_attribute 25, 1
  11              		.eabi_attribute 26, 1
  12              		.eabi_attribute 30, 6
  13              		.eabi_attribute 34, 1
  14              		.eabi_attribute 18, 4
  15              		.file	"rtc.c"
  16              		.text
  17              		.section	.text.RTC_FIX,"ax",%progbits
  18              		.align	1
  19              		.global	RTC_FIX
  20              		.syntax unified
  21              		.thumb
  22              		.thumb_func
  24              	RTC_FIX:
  25              		@ args = 0, pretend = 0, frame = 48
  26              		@ frame_needed = 1, uses_anonymous_args = 0
  27 0000 80B5     		push	{r7, lr}
  28 0002 8CB0     		sub	sp, sp, #48
  29 0004 00AF     		add	r7, sp, #0
  30 0006 7860     		str	r0, [r7, #4]
  31 0008 534B     		ldr	r3, .L15
  32 000a FB62     		str	r3, [r7, #44]
  33 000c 0023     		movs	r3, #0
  34 000e BB62     		str	r3, [r7, #40]
  35 0010 67E0     		b	.L2
  36              	.L12:
  37 0012 07F12403 		add	r3, r7, #36
  38 0016 0322     		movs	r2, #3
  39 0018 F96A     		ldr	r1, [r7, #44]
  40 001a 1846     		mov	r0, r3
  41 001c FFF7FEFF 		bl	strncpy
  42 0020 0023     		movs	r3, #0
  43 0022 87F82630 		strb	r3, [r7, #38]
  44 0026 BB6A     		ldr	r3, [r7, #40]
  45 0028 052B     		cmp	r3, #5
  46 002a 54D8     		bhi	.L3
  47 002c 01A2     		adr	r2, .L5
  48 002e 52F823F0 		ldr	pc, [r2, r3, lsl #2]
  49 0032 00BF     		.p2align 2
  50              	.L5:
  51 0034 4D000000 		.word	.L10+1
  52 0038 65000000 		.word	.L9+1
  53 003c 7D000000 		.word	.L8+1
  54 0040 95000000 		.word	.L7+1
  55 0044 AB000000 		.word	.L6+1
  56 0048 C1000000 		.word	.L4+1
  57              		.p2align 1
  58              	.L10:
ARM GAS  C:\Users\user\AppData\Local\Temp\ccsiWt6U.s 			page 2


  59 004c 07F12403 		add	r3, r7, #36
  60 0050 0A22     		movs	r2, #10
  61 0052 0021     		movs	r1, #0
  62 0054 1846     		mov	r0, r3
  63 0056 FFF7FEFF 		bl	strtol
  64 005a 0346     		mov	r3, r0
  65 005c DBB2     		uxtb	r3, r3
  66 005e 87F82330 		strb	r3, [r7, #35]
  67 0062 38E0     		b	.L3
  68              	.L9:
  69 0064 07F12403 		add	r3, r7, #36
  70 0068 1022     		movs	r2, #16
  71 006a 0021     		movs	r1, #0
  72 006c 1846     		mov	r0, r3
  73 006e FFF7FEFF 		bl	strtol
  74 0072 0346     		mov	r3, r0
  75 0074 DBB2     		uxtb	r3, r3
  76 0076 87F82130 		strb	r3, [r7, #33]
  77 007a 2CE0     		b	.L3
  78              	.L8:
  79 007c 07F12403 		add	r3, r7, #36
  80 0080 0A22     		movs	r2, #10
  81 0082 0021     		movs	r1, #0
  82 0084 1846     		mov	r0, r3
  83 0086 FFF7FEFF 		bl	strtol
  84 008a 0346     		mov	r3, r0
  85 008c DBB2     		uxtb	r3, r3
  86 008e 87F82230 		strb	r3, [r7, #34]
  87 0092 20E0     		b	.L3
  88              	.L7:
  89 0094 07F12403 		add	r3, r7, #36
  90 0098 0A22     		movs	r2, #10
  91 009a 0021     		movs	r1, #0
  92 009c 1846     		mov	r0, r3
  93 009e FFF7FEFF 		bl	strtol
  94 00a2 0346     		mov	r3, r0
  95 00a4 DBB2     		uxtb	r3, r3
  96 00a6 3B73     		strb	r3, [r7, #12]
  97 00a8 15E0     		b	.L3
  98              	.L6:
  99 00aa 07F12403 		add	r3, r7, #36
 100 00ae 0A22     		movs	r2, #10
 101 00b0 0021     		movs	r1, #0
 102 00b2 1846     		mov	r0, r3
 103 00b4 FFF7FEFF 		bl	strtol
 104 00b8 0346     		mov	r3, r0
 105 00ba DBB2     		uxtb	r3, r3
 106 00bc 7B73     		strb	r3, [r7, #13]
 107 00be 0AE0     		b	.L3
 108              	.L4:
 109 00c0 07F12403 		add	r3, r7, #36
 110 00c4 0A22     		movs	r2, #10
 111 00c6 0021     		movs	r1, #0
 112 00c8 1846     		mov	r0, r3
 113 00ca FFF7FEFF 		bl	strtol
 114 00ce 0346     		mov	r3, r0
 115 00d0 DBB2     		uxtb	r3, r3
ARM GAS  C:\Users\user\AppData\Local\Temp\ccsiWt6U.s 			page 3


 116 00d2 BB73     		strb	r3, [r7, #14]
 117 00d4 00BF     		nop
 118              	.L3:
 119 00d6 FB6A     		ldr	r3, [r7, #44]
 120 00d8 0333     		adds	r3, r3, #3
 121 00da FB62     		str	r3, [r7, #44]
 122 00dc BB6A     		ldr	r3, [r7, #40]
 123 00de 0133     		adds	r3, r3, #1
 124 00e0 BB62     		str	r3, [r7, #40]
 125              	.L2:
 126 00e2 FB6A     		ldr	r3, [r7, #44]
 127 00e4 1B78     		ldrb	r3, [r3]	@ zero_extendqisi2
 128 00e6 002B     		cmp	r3, #0
 129 00e8 02D0     		beq	.L11
 130 00ea BB6A     		ldr	r3, [r7, #40]
 131 00ec 052B     		cmp	r3, #5
 132 00ee 90DD     		ble	.L12
 133              	.L11:
 134 00f0 0023     		movs	r3, #0
 135 00f2 87F82030 		strb	r3, [r7, #32]
 136 00f6 07F10C03 		add	r3, r7, #12
 137 00fa 0022     		movs	r2, #0
 138 00fc 1946     		mov	r1, r3
 139 00fe 1748     		ldr	r0, .L15+4
 140 0100 FFF7FEFF 		bl	HAL_RTC_SetTime
 141 0104 07F12003 		add	r3, r7, #32
 142 0108 0022     		movs	r2, #0
 143 010a 1946     		mov	r1, r3
 144 010c 1348     		ldr	r0, .L15+4
 145 010e FFF7FEFF 		bl	HAL_RTC_SetDate
 146 0112 97F82320 		ldrb	r2, [r7, #35]	@ zero_extendqisi2
 147 0116 124B     		ldr	r3, .L15+8
 148 0118 1A72     		strb	r2, [r3, #8]
 149 011a 97F82120 		ldrb	r2, [r7, #33]	@ zero_extendqisi2
 150 011e 104B     		ldr	r3, .L15+8
 151 0120 5A72     		strb	r2, [r3, #9]
 152 0122 97F82220 		ldrb	r2, [r7, #34]	@ zero_extendqisi2
 153 0126 0E4B     		ldr	r3, .L15+8
 154 0128 9A72     		strb	r2, [r3, #10]
 155 012a 3A7B     		ldrb	r2, [r7, #12]	@ zero_extendqisi2
 156 012c 0C4B     		ldr	r3, .L15+8
 157 012e DA72     		strb	r2, [r3, #11]
 158 0130 7A7B     		ldrb	r2, [r7, #13]	@ zero_extendqisi2
 159 0132 0B4B     		ldr	r3, .L15+8
 160 0134 1A73     		strb	r2, [r3, #12]
 161 0136 BA7B     		ldrb	r2, [r7, #14]	@ zero_extendqisi2
 162 0138 094B     		ldr	r3, .L15+8
 163 013a 5A73     		strb	r2, [r3, #13]
 164 013c 7B68     		ldr	r3, [r7, #4]
 165 013e DAB2     		uxtb	r2, r3
 166 0140 074B     		ldr	r3, .L15+8
 167 0142 9A73     		strb	r2, [r3, #14]
 168 0144 0C22     		movs	r2, #12
 169 0146 0021     		movs	r1, #0
 170 0148 0320     		movs	r0, #3
 171 014a FFF7FEFF 		bl	SYS_LOG
 172 014e 00BF     		nop
ARM GAS  C:\Users\user\AppData\Local\Temp\ccsiWt6U.s 			page 4


 173 0150 3037     		adds	r7, r7, #48
 174 0152 BD46     		mov	sp, r7
 175              		@ sp needed
 176 0154 80BD     		pop	{r7, pc}
 177              	.L16:
 178 0156 00BF     		.align	2
 179              	.L15:
 180 0158 02000000 		.word	rtc+2
 181 015c 00000000 		.word	hrtc
 182 0160 00000000 		.word	syslog
 184              		.section	.text.RTC_READ,"ax",%progbits
 185              		.align	1
 186              		.global	RTC_READ
 187              		.syntax unified
 188              		.thumb
 189              		.thumb_func
 191              	RTC_READ:
 192              		@ args = 0, pretend = 0, frame = 32
 193              		@ frame_needed = 1, uses_anonymous_args = 0
 194 0000 80B5     		push	{r7, lr}
 195 0002 88B0     		sub	sp, sp, #32
 196 0004 00AF     		add	r7, sp, #0
 197 0006 7860     		str	r0, [r7, #4]
 198 0008 07F10803 		add	r3, r7, #8
 199 000c 0022     		movs	r2, #0
 200 000e 1946     		mov	r1, r3
 201 0010 0F48     		ldr	r0, .L19
 202 0012 FFF7FEFF 		bl	HAL_RTC_GetTime
 203 0016 07F11C03 		add	r3, r7, #28
 204 001a 0022     		movs	r2, #0
 205 001c 1946     		mov	r1, r3
 206 001e 0C48     		ldr	r0, .L19
 207 0020 FFF7FEFF 		bl	HAL_RTC_GetDate
 208 0024 BA7A     		ldrb	r2, [r7, #10]	@ zero_extendqisi2
 209 0026 7B68     		ldr	r3, [r7, #4]
 210 0028 5A71     		strb	r2, [r3, #5]
 211 002a 7A7A     		ldrb	r2, [r7, #9]	@ zero_extendqisi2
 212 002c 7B68     		ldr	r3, [r7, #4]
 213 002e 1A71     		strb	r2, [r3, #4]
 214 0030 3A7A     		ldrb	r2, [r7, #8]	@ zero_extendqisi2
 215 0032 7B68     		ldr	r3, [r7, #4]
 216 0034 DA70     		strb	r2, [r3, #3]
 217 0036 BA7F     		ldrb	r2, [r7, #30]	@ zero_extendqisi2
 218 0038 7B68     		ldr	r3, [r7, #4]
 219 003a 9A70     		strb	r2, [r3, #2]
 220 003c 7A7F     		ldrb	r2, [r7, #29]	@ zero_extendqisi2
 221 003e 7B68     		ldr	r3, [r7, #4]
 222 0040 5A70     		strb	r2, [r3, #1]
 223 0042 FA7F     		ldrb	r2, [r7, #31]	@ zero_extendqisi2
 224 0044 7B68     		ldr	r3, [r7, #4]
 225 0046 1A70     		strb	r2, [r3]
 226 0048 00BF     		nop
 227 004a 2037     		adds	r7, r7, #32
 228 004c BD46     		mov	sp, r7
 229              		@ sp needed
 230 004e 80BD     		pop	{r7, pc}
 231              	.L20:
ARM GAS  C:\Users\user\AppData\Local\Temp\ccsiWt6U.s 			page 5


 232              		.align	2
 233              	.L19:
 234 0050 00000000 		.word	hrtc
 236              		.global	hrtc
 237              		.section	.bss.hrtc,"aw",%nobits
 238              		.align	2
 241              	hrtc:
 242 0000 00000000 		.space	32
 242      00000000 
 242      00000000 
 242      00000000 
 242      00000000 
 243              		.section	.text.MX_RTC_Init,"ax",%progbits
 244              		.align	1
 245              		.global	MX_RTC_Init
 246              		.syntax unified
 247              		.thumb
 248              		.thumb_func
 250              	MX_RTC_Init:
 251              		@ args = 0, pretend = 0, frame = 24
 252              		@ frame_needed = 1, uses_anonymous_args = 0
 253 0000 80B5     		push	{r7, lr}
 254 0002 86B0     		sub	sp, sp, #24
 255 0004 00AF     		add	r7, sp, #0
 256 0006 3B1D     		adds	r3, r7, #4
 257 0008 0022     		movs	r2, #0
 258 000a 1A60     		str	r2, [r3]
 259 000c 5A60     		str	r2, [r3, #4]
 260 000e 9A60     		str	r2, [r3, #8]
 261 0010 DA60     		str	r2, [r3, #12]
 262 0012 1A61     		str	r2, [r3, #16]
 263 0014 0023     		movs	r3, #0
 264 0016 3B60     		str	r3, [r7]
 265 0018 2C4B     		ldr	r3, .L28
 266 001a 2D4A     		ldr	r2, .L28+4
 267 001c 1A60     		str	r2, [r3]
 268 001e 2B4B     		ldr	r3, .L28
 269 0020 0022     		movs	r2, #0
 270 0022 5A60     		str	r2, [r3, #4]
 271 0024 294B     		ldr	r3, .L28
 272 0026 7F22     		movs	r2, #127
 273 0028 9A60     		str	r2, [r3, #8]
 274 002a 284B     		ldr	r3, .L28
 275 002c FF22     		movs	r2, #255
 276 002e DA60     		str	r2, [r3, #12]
 277 0030 264B     		ldr	r3, .L28
 278 0032 0022     		movs	r2, #0
 279 0034 1A61     		str	r2, [r3, #16]
 280 0036 254B     		ldr	r3, .L28
 281 0038 0022     		movs	r2, #0
 282 003a 5A61     		str	r2, [r3, #20]
 283 003c 234B     		ldr	r3, .L28
 284 003e 0022     		movs	r2, #0
 285 0040 9A61     		str	r2, [r3, #24]
 286 0042 2248     		ldr	r0, .L28
 287 0044 FFF7FEFF 		bl	HAL_RTC_Init
 288 0048 0346     		mov	r3, r0
ARM GAS  C:\Users\user\AppData\Local\Temp\ccsiWt6U.s 			page 6


 289 004a 002B     		cmp	r3, #0
 290 004c 01D0     		beq	.L22
 291 004e FFF7FEFF 		bl	Error_Handler
 292              	.L22:
 293 0052 0021     		movs	r1, #0
 294 0054 1D48     		ldr	r0, .L28
 295 0056 FFF7FEFF 		bl	HAL_RTCEx_BKUPRead
 296 005a 0346     		mov	r3, r0
 297 005c 4CF6FE22 		movw	r2, #51966
 298 0060 9342     		cmp	r3, r2
 299 0062 2ED0     		beq	.L27
 300 0064 4CF6FE22 		movw	r2, #51966
 301 0068 0021     		movs	r1, #0
 302 006a 1848     		ldr	r0, .L28
 303 006c FFF7FEFF 		bl	HAL_RTCEx_BKUPWrite
 304 0070 0023     		movs	r3, #0
 305 0072 3B71     		strb	r3, [r7, #4]
 306 0074 0023     		movs	r3, #0
 307 0076 7B71     		strb	r3, [r7, #5]
 308 0078 0023     		movs	r3, #0
 309 007a BB71     		strb	r3, [r7, #6]
 310 007c 0023     		movs	r3, #0
 311 007e 3B61     		str	r3, [r7, #16]
 312 0080 0023     		movs	r3, #0
 313 0082 7B61     		str	r3, [r7, #20]
 314 0084 3B1D     		adds	r3, r7, #4
 315 0086 0122     		movs	r2, #1
 316 0088 1946     		mov	r1, r3
 317 008a 1048     		ldr	r0, .L28
 318 008c FFF7FEFF 		bl	HAL_RTC_SetTime
 319 0090 0346     		mov	r3, r0
 320 0092 002B     		cmp	r3, #0
 321 0094 01D0     		beq	.L25
 322 0096 FFF7FEFF 		bl	Error_Handler
 323              	.L25:
 324 009a 0523     		movs	r3, #5
 325 009c 3B70     		strb	r3, [r7]
 326 009e 0523     		movs	r3, #5
 327 00a0 7B70     		strb	r3, [r7, #1]
 328 00a2 1223     		movs	r3, #18
 329 00a4 BB70     		strb	r3, [r7, #2]
 330 00a6 2323     		movs	r3, #35
 331 00a8 FB70     		strb	r3, [r7, #3]
 332 00aa 3B46     		mov	r3, r7
 333 00ac 0122     		movs	r2, #1
 334 00ae 1946     		mov	r1, r3
 335 00b0 0648     		ldr	r0, .L28
 336 00b2 FFF7FEFF 		bl	HAL_RTC_SetDate
 337 00b6 0346     		mov	r3, r0
 338 00b8 002B     		cmp	r3, #0
 339 00ba 03D0     		beq	.L21
 340 00bc FFF7FEFF 		bl	Error_Handler
 341 00c0 00E0     		b	.L21
 342              	.L27:
 343 00c2 00BF     		nop
 344              	.L21:
 345 00c4 1837     		adds	r7, r7, #24
ARM GAS  C:\Users\user\AppData\Local\Temp\ccsiWt6U.s 			page 7


 346 00c6 BD46     		mov	sp, r7
 347              		@ sp needed
 348 00c8 80BD     		pop	{r7, pc}
 349              	.L29:
 350 00ca 00BF     		.align	2
 351              	.L28:
 352 00cc 00000000 		.word	hrtc
 353 00d0 00280040 		.word	1073752064
 355              		.section	.text.HAL_RTC_MspInit,"ax",%progbits
 356              		.align	1
 357              		.global	HAL_RTC_MspInit
 358              		.syntax unified
 359              		.thumb
 360              		.thumb_func
 362              	HAL_RTC_MspInit:
 363              		@ args = 0, pretend = 0, frame = 24
 364              		@ frame_needed = 1, uses_anonymous_args = 0
 365 0000 80B5     		push	{r7, lr}
 366 0002 86B0     		sub	sp, sp, #24
 367 0004 00AF     		add	r7, sp, #0
 368 0006 7860     		str	r0, [r7, #4]
 369 0008 07F10803 		add	r3, r7, #8
 370 000c 0022     		movs	r2, #0
 371 000e 1A60     		str	r2, [r3]
 372 0010 5A60     		str	r2, [r3, #4]
 373 0012 9A60     		str	r2, [r3, #8]
 374 0014 DA60     		str	r2, [r3, #12]
 375 0016 7B68     		ldr	r3, [r7, #4]
 376 0018 1B68     		ldr	r3, [r3]
 377 001a 0C4A     		ldr	r2, .L34
 378 001c 9342     		cmp	r3, r2
 379 001e 11D1     		bne	.L33
 380 0020 0223     		movs	r3, #2
 381 0022 BB60     		str	r3, [r7, #8]
 382 0024 4FF48073 		mov	r3, #256
 383 0028 7B61     		str	r3, [r7, #20]
 384 002a 07F10803 		add	r3, r7, #8
 385 002e 1846     		mov	r0, r3
 386 0030 FFF7FEFF 		bl	HAL_RCCEx_PeriphCLKConfig
 387 0034 0346     		mov	r3, r0
 388 0036 002B     		cmp	r3, #0
 389 0038 01D0     		beq	.L32
 390 003a FFF7FEFF 		bl	Error_Handler
 391              	.L32:
 392 003e 044B     		ldr	r3, .L34+4
 393 0040 0122     		movs	r2, #1
 394 0042 1A60     		str	r2, [r3]
 395              	.L33:
 396 0044 00BF     		nop
 397 0046 1837     		adds	r7, r7, #24
 398 0048 BD46     		mov	sp, r7
 399              		@ sp needed
 400 004a 80BD     		pop	{r7, pc}
 401              	.L35:
 402              		.align	2
 403              	.L34:
 404 004c 00280040 		.word	1073752064
ARM GAS  C:\Users\user\AppData\Local\Temp\ccsiWt6U.s 			page 8


 405 0050 3C0E4742 		.word	1111952956
 407              		.section	.text.HAL_RTC_MspDeInit,"ax",%progbits
 408              		.align	1
 409              		.global	HAL_RTC_MspDeInit
 410              		.syntax unified
 411              		.thumb
 412              		.thumb_func
 414              	HAL_RTC_MspDeInit:
 415              		@ args = 0, pretend = 0, frame = 8
 416              		@ frame_needed = 1, uses_anonymous_args = 0
 417              		@ link register save eliminated.
 418 0000 80B4     		push	{r7}
 419 0002 83B0     		sub	sp, sp, #12
 420 0004 00AF     		add	r7, sp, #0
 421 0006 7860     		str	r0, [r7, #4]
 422 0008 7B68     		ldr	r3, [r7, #4]
 423 000a 1B68     		ldr	r3, [r3]
 424 000c 054A     		ldr	r2, .L39
 425 000e 9342     		cmp	r3, r2
 426 0010 02D1     		bne	.L38
 427 0012 054B     		ldr	r3, .L39+4
 428 0014 0022     		movs	r2, #0
 429 0016 1A60     		str	r2, [r3]
 430              	.L38:
 431 0018 00BF     		nop
 432 001a 0C37     		adds	r7, r7, #12
 433 001c BD46     		mov	sp, r7
 434              		@ sp needed
 435 001e 5DF8047B 		ldr	r7, [sp], #4
 436 0022 7047     		bx	lr
 437              	.L40:
 438              		.align	2
 439              	.L39:
 440 0024 00280040 		.word	1073752064
 441 0028 3C0E4742 		.word	1111952956
 443              		.ident	"GCC: (GNU Tools for STM32 12.3.rel1.20240306-1730) 12.3.1 20230626"
ARM GAS  C:\Users\user\AppData\Local\Temp\ccsiWt6U.s 			page 9

