ARM GAS  C:\Users\user\AppData\Local\Temp\ccBLGW8o.s 			page 1


   1              		.cpu cortex-m4
   2              		.arch armv7e-m
   3              		.fpu fpv4-sp-d16
   4              		.eabi_attribute 27, 1
   5              		.eabi_attribute 28, 1
   6              		.eabi_attribute 20, 1
   7              		.eabi_attribute 21, 1
   8              		.eabi_attribute 23, 3
   9              		.eabi_attribute 24, 1
  10              		.eabi_attribute 25, 1
  11              		.eabi_attribute 26, 1
  12              		.eabi_attribute 30, 6
  13              		.eabi_attribute 34, 1
  14              		.eabi_attribute 18, 4
  15              		.file	"sd_diskio.c"
  16              		.text
  17              		.section	.data.Stat,"aw"
  20              	Stat:
  21 0000 01       		.byte	1
  22              		.section	.bss.WriteStatus,"aw",%nobits
  23              		.align	2
  26              	WriteStatus:
  27 0000 00000000 		.space	4
  28              		.section	.bss.ReadStatus,"aw",%nobits
  29              		.align	2
  32              	ReadStatus:
  33 0000 00000000 		.space	4
  34              		.global	SD_Driver
  35              		.section	.rodata.SD_Driver,"a"
  36              		.align	2
  39              	SD_Driver:
  40 0000 00000000 		.word	SD_initialize
  41 0004 00000000 		.word	SD_status
  42 0008 00000000 		.word	SD_read
  43 000c 00000000 		.word	SD_write
  44 0010 00000000 		.word	SD_ioctl
  45              		.section	.text.SD_CheckStatusWithTimeout,"ax",%progbits
  46              		.align	1
  47              		.syntax unified
  48              		.thumb
  49              		.thumb_func
  51              	SD_CheckStatusWithTimeout:
  52              		@ args = 0, pretend = 0, frame = 16
  53              		@ frame_needed = 1, uses_anonymous_args = 0
  54 0000 80B5     		push	{r7, lr}
  55 0002 84B0     		sub	sp, sp, #16
  56 0004 00AF     		add	r7, sp, #0
  57 0006 7860     		str	r0, [r7, #4]
  58 0008 FFF7FEFF 		bl	HAL_GetTick
  59 000c F860     		str	r0, [r7, #12]
  60 000e 06E0     		b	.L2
  61              	.L4:
  62 0010 FFF7FEFF 		bl	BSP_SD_GetCardState
  63 0014 0346     		mov	r3, r0
  64 0016 002B     		cmp	r3, #0
  65 0018 01D1     		bne	.L2
  66 001a 0023     		movs	r3, #0
ARM GAS  C:\Users\user\AppData\Local\Temp\ccBLGW8o.s 			page 2


  67 001c 09E0     		b	.L3
  68              	.L2:
  69 001e FFF7FEFF 		bl	HAL_GetTick
  70 0022 0246     		mov	r2, r0
  71 0024 FB68     		ldr	r3, [r7, #12]
  72 0026 D31A     		subs	r3, r2, r3
  73 0028 7A68     		ldr	r2, [r7, #4]
  74 002a 9A42     		cmp	r2, r3
  75 002c F0D8     		bhi	.L4
  76 002e 4FF0FF33 		mov	r3, #-1
  77              	.L3:
  78 0032 1846     		mov	r0, r3
  79 0034 1037     		adds	r7, r7, #16
  80 0036 BD46     		mov	sp, r7
  81              		@ sp needed
  82 0038 80BD     		pop	{r7, pc}
  84              		.section	.text.SD_CheckStatus,"ax",%progbits
  85              		.align	1
  86              		.syntax unified
  87              		.thumb
  88              		.thumb_func
  90              	SD_CheckStatus:
  91              		@ args = 0, pretend = 0, frame = 8
  92              		@ frame_needed = 1, uses_anonymous_args = 0
  93 0000 80B5     		push	{r7, lr}
  94 0002 82B0     		sub	sp, sp, #8
  95 0004 00AF     		add	r7, sp, #0
  96 0006 0346     		mov	r3, r0
  97 0008 FB71     		strb	r3, [r7, #7]
  98 000a 0B4B     		ldr	r3, .L8
  99 000c 0122     		movs	r2, #1
 100 000e 1A70     		strb	r2, [r3]
 101 0010 FFF7FEFF 		bl	BSP_SD_GetCardState
 102 0014 0346     		mov	r3, r0
 103 0016 002B     		cmp	r3, #0
 104 0018 07D1     		bne	.L6
 105 001a 074B     		ldr	r3, .L8
 106 001c 1B78     		ldrb	r3, [r3]
 107 001e DBB2     		uxtb	r3, r3
 108 0020 23F00103 		bic	r3, r3, #1
 109 0024 DAB2     		uxtb	r2, r3
 110 0026 044B     		ldr	r3, .L8
 111 0028 1A70     		strb	r2, [r3]
 112              	.L6:
 113 002a 034B     		ldr	r3, .L8
 114 002c 1B78     		ldrb	r3, [r3]
 115 002e DBB2     		uxtb	r3, r3
 116 0030 1846     		mov	r0, r3
 117 0032 0837     		adds	r7, r7, #8
 118 0034 BD46     		mov	sp, r7
 119              		@ sp needed
 120 0036 80BD     		pop	{r7, pc}
 121              	.L9:
 122              		.align	2
 123              	.L8:
 124 0038 00000000 		.word	Stat
 126              		.section	.text.SD_initialize,"ax",%progbits
ARM GAS  C:\Users\user\AppData\Local\Temp\ccBLGW8o.s 			page 3


 127              		.align	1
 128              		.global	SD_initialize
 129              		.syntax unified
 130              		.thumb
 131              		.thumb_func
 133              	SD_initialize:
 134              		@ args = 0, pretend = 0, frame = 8
 135              		@ frame_needed = 1, uses_anonymous_args = 0
 136 0000 80B5     		push	{r7, lr}
 137 0002 82B0     		sub	sp, sp, #8
 138 0004 00AF     		add	r7, sp, #0
 139 0006 0346     		mov	r3, r0
 140 0008 FB71     		strb	r3, [r7, #7]
 141 000a FFF7FEFF 		bl	BSP_SD_Init
 142 000e 0346     		mov	r3, r0
 143 0010 002B     		cmp	r3, #0
 144 0012 07D1     		bne	.L11
 145 0014 FB79     		ldrb	r3, [r7, #7]	@ zero_extendqisi2
 146 0016 1846     		mov	r0, r3
 147 0018 FFF7FEFF 		bl	SD_CheckStatus
 148 001c 0346     		mov	r3, r0
 149 001e 1A46     		mov	r2, r3
 150 0020 044B     		ldr	r3, .L13
 151 0022 1A70     		strb	r2, [r3]
 152              	.L11:
 153 0024 034B     		ldr	r3, .L13
 154 0026 1B78     		ldrb	r3, [r3]
 155 0028 DBB2     		uxtb	r3, r3
 156 002a 1846     		mov	r0, r3
 157 002c 0837     		adds	r7, r7, #8
 158 002e BD46     		mov	sp, r7
 159              		@ sp needed
 160 0030 80BD     		pop	{r7, pc}
 161              	.L14:
 162 0032 00BF     		.align	2
 163              	.L13:
 164 0034 00000000 		.word	Stat
 166              		.section	.text.SD_status,"ax",%progbits
 167              		.align	1
 168              		.global	SD_status
 169              		.syntax unified
 170              		.thumb
 171              		.thumb_func
 173              	SD_status:
 174              		@ args = 0, pretend = 0, frame = 8
 175              		@ frame_needed = 1, uses_anonymous_args = 0
 176 0000 80B5     		push	{r7, lr}
 177 0002 82B0     		sub	sp, sp, #8
 178 0004 00AF     		add	r7, sp, #0
 179 0006 0346     		mov	r3, r0
 180 0008 FB71     		strb	r3, [r7, #7]
 181 000a FB79     		ldrb	r3, [r7, #7]	@ zero_extendqisi2
 182 000c 1846     		mov	r0, r3
 183 000e FFF7FEFF 		bl	SD_CheckStatus
 184 0012 0346     		mov	r3, r0
 185 0014 1846     		mov	r0, r3
 186 0016 0837     		adds	r7, r7, #8
ARM GAS  C:\Users\user\AppData\Local\Temp\ccBLGW8o.s 			page 4


 187 0018 BD46     		mov	sp, r7
 188              		@ sp needed
 189 001a 80BD     		pop	{r7, pc}
 191              		.section	.text.SD_read,"ax",%progbits
 192              		.align	1
 193              		.global	SD_read
 194              		.syntax unified
 195              		.thumb
 196              		.thumb_func
 198              	SD_read:
 199              		@ args = 0, pretend = 0, frame = 24
 200              		@ frame_needed = 1, uses_anonymous_args = 0
 201 0000 80B5     		push	{r7, lr}
 202 0002 86B0     		sub	sp, sp, #24
 203 0004 00AF     		add	r7, sp, #0
 204 0006 B960     		str	r1, [r7, #8]
 205 0008 7A60     		str	r2, [r7, #4]
 206 000a 3B60     		str	r3, [r7]
 207 000c 0346     		mov	r3, r0
 208 000e FB73     		strb	r3, [r7, #15]
 209 0010 0123     		movs	r3, #1
 210 0012 FB75     		strb	r3, [r7, #23]
 211 0014 47F23050 		movw	r0, #30000
 212 0018 FFF7FEFF 		bl	SD_CheckStatusWithTimeout
 213 001c 0346     		mov	r3, r0
 214 001e 002B     		cmp	r3, #0
 215 0020 01DA     		bge	.L18
 216 0022 FB7D     		ldrb	r3, [r7, #23]	@ zero_extendqisi2
 217 0024 3BE0     		b	.L19
 218              	.L18:
 219 0026 3A68     		ldr	r2, [r7]
 220 0028 7968     		ldr	r1, [r7, #4]
 221 002a B868     		ldr	r0, [r7, #8]
 222 002c FFF7FEFF 		bl	BSP_SD_ReadBlocks_DMA
 223 0030 0346     		mov	r3, r0
 224 0032 002B     		cmp	r3, #0
 225 0034 32D1     		bne	.L20
 226 0036 1C4B     		ldr	r3, .L26
 227 0038 0022     		movs	r2, #0
 228 003a 1A60     		str	r2, [r3]
 229 003c FFF7FEFF 		bl	HAL_GetTick
 230 0040 3861     		str	r0, [r7, #16]
 231 0042 00BF     		nop
 232              	.L22:
 233 0044 184B     		ldr	r3, .L26
 234 0046 1B68     		ldr	r3, [r3]
 235 0048 002B     		cmp	r3, #0
 236 004a 08D1     		bne	.L21
 237 004c FFF7FEFF 		bl	HAL_GetTick
 238 0050 0246     		mov	r2, r0
 239 0052 3B69     		ldr	r3, [r7, #16]
 240 0054 D31A     		subs	r3, r2, r3
 241 0056 47F22F52 		movw	r2, #29999
 242 005a 9342     		cmp	r3, r2
 243 005c F2D9     		bls	.L22
 244              	.L21:
 245 005e 124B     		ldr	r3, .L26
ARM GAS  C:\Users\user\AppData\Local\Temp\ccBLGW8o.s 			page 5


 246 0060 1B68     		ldr	r3, [r3]
 247 0062 002B     		cmp	r3, #0
 248 0064 02D1     		bne	.L23
 249 0066 0123     		movs	r3, #1
 250 0068 FB75     		strb	r3, [r7, #23]
 251 006a 17E0     		b	.L20
 252              	.L23:
 253 006c 0E4B     		ldr	r3, .L26
 254 006e 0022     		movs	r2, #0
 255 0070 1A60     		str	r2, [r3]
 256 0072 FFF7FEFF 		bl	HAL_GetTick
 257 0076 3861     		str	r0, [r7, #16]
 258 0078 07E0     		b	.L24
 259              	.L25:
 260 007a FFF7FEFF 		bl	BSP_SD_GetCardState
 261 007e 0346     		mov	r3, r0
 262 0080 002B     		cmp	r3, #0
 263 0082 02D1     		bne	.L24
 264 0084 0023     		movs	r3, #0
 265 0086 FB75     		strb	r3, [r7, #23]
 266 0088 08E0     		b	.L20
 267              	.L24:
 268 008a FFF7FEFF 		bl	HAL_GetTick
 269 008e 0246     		mov	r2, r0
 270 0090 3B69     		ldr	r3, [r7, #16]
 271 0092 D31A     		subs	r3, r2, r3
 272 0094 47F22F52 		movw	r2, #29999
 273 0098 9342     		cmp	r3, r2
 274 009a EED9     		bls	.L25
 275              	.L20:
 276 009c FB7D     		ldrb	r3, [r7, #23]	@ zero_extendqisi2
 277              	.L19:
 278 009e 1846     		mov	r0, r3
 279 00a0 1837     		adds	r7, r7, #24
 280 00a2 BD46     		mov	sp, r7
 281              		@ sp needed
 282 00a4 80BD     		pop	{r7, pc}
 283              	.L27:
 284 00a6 00BF     		.align	2
 285              	.L26:
 286 00a8 00000000 		.word	ReadStatus
 288              		.section	.text.SD_write,"ax",%progbits
 289              		.align	1
 290              		.global	SD_write
 291              		.syntax unified
 292              		.thumb
 293              		.thumb_func
 295              	SD_write:
 296              		@ args = 0, pretend = 0, frame = 24
 297              		@ frame_needed = 1, uses_anonymous_args = 0
 298 0000 80B5     		push	{r7, lr}
 299 0002 86B0     		sub	sp, sp, #24
 300 0004 00AF     		add	r7, sp, #0
 301 0006 B960     		str	r1, [r7, #8]
 302 0008 7A60     		str	r2, [r7, #4]
 303 000a 3B60     		str	r3, [r7]
 304 000c 0346     		mov	r3, r0
ARM GAS  C:\Users\user\AppData\Local\Temp\ccBLGW8o.s 			page 6


 305 000e FB73     		strb	r3, [r7, #15]
 306 0010 0123     		movs	r3, #1
 307 0012 FB75     		strb	r3, [r7, #23]
 308 0014 244B     		ldr	r3, .L37
 309 0016 0022     		movs	r2, #0
 310 0018 1A60     		str	r2, [r3]
 311 001a 47F23050 		movw	r0, #30000
 312 001e FFF7FEFF 		bl	SD_CheckStatusWithTimeout
 313 0022 0346     		mov	r3, r0
 314 0024 002B     		cmp	r3, #0
 315 0026 01DA     		bge	.L29
 316 0028 FB7D     		ldrb	r3, [r7, #23]	@ zero_extendqisi2
 317 002a 38E0     		b	.L30
 318              	.L29:
 319 002c 3A68     		ldr	r2, [r7]
 320 002e 7968     		ldr	r1, [r7, #4]
 321 0030 B868     		ldr	r0, [r7, #8]
 322 0032 FFF7FEFF 		bl	BSP_SD_WriteBlocks_DMA
 323 0036 0346     		mov	r3, r0
 324 0038 002B     		cmp	r3, #0
 325 003a 2FD1     		bne	.L31
 326 003c FFF7FEFF 		bl	HAL_GetTick
 327 0040 3861     		str	r0, [r7, #16]
 328 0042 00BF     		nop
 329              	.L33:
 330 0044 184B     		ldr	r3, .L37
 331 0046 1B68     		ldr	r3, [r3]
 332 0048 002B     		cmp	r3, #0
 333 004a 08D1     		bne	.L32
 334 004c FFF7FEFF 		bl	HAL_GetTick
 335 0050 0246     		mov	r2, r0
 336 0052 3B69     		ldr	r3, [r7, #16]
 337 0054 D31A     		subs	r3, r2, r3
 338 0056 47F22F52 		movw	r2, #29999
 339 005a 9342     		cmp	r3, r2
 340 005c F2D9     		bls	.L33
 341              	.L32:
 342 005e 124B     		ldr	r3, .L37
 343 0060 1B68     		ldr	r3, [r3]
 344 0062 002B     		cmp	r3, #0
 345 0064 02D1     		bne	.L34
 346 0066 0123     		movs	r3, #1
 347 0068 FB75     		strb	r3, [r7, #23]
 348 006a 17E0     		b	.L31
 349              	.L34:
 350 006c 0E4B     		ldr	r3, .L37
 351 006e 0022     		movs	r2, #0
 352 0070 1A60     		str	r2, [r3]
 353 0072 FFF7FEFF 		bl	HAL_GetTick
 354 0076 3861     		str	r0, [r7, #16]
 355 0078 07E0     		b	.L35
 356              	.L36:
 357 007a FFF7FEFF 		bl	BSP_SD_GetCardState
 358 007e 0346     		mov	r3, r0
 359 0080 002B     		cmp	r3, #0
 360 0082 02D1     		bne	.L35
 361 0084 0023     		movs	r3, #0
ARM GAS  C:\Users\user\AppData\Local\Temp\ccBLGW8o.s 			page 7


 362 0086 FB75     		strb	r3, [r7, #23]
 363 0088 08E0     		b	.L31
 364              	.L35:
 365 008a FFF7FEFF 		bl	HAL_GetTick
 366 008e 0246     		mov	r2, r0
 367 0090 3B69     		ldr	r3, [r7, #16]
 368 0092 D31A     		subs	r3, r2, r3
 369 0094 47F22F52 		movw	r2, #29999
 370 0098 9342     		cmp	r3, r2
 371 009a EED9     		bls	.L36
 372              	.L31:
 373 009c FB7D     		ldrb	r3, [r7, #23]	@ zero_extendqisi2
 374              	.L30:
 375 009e 1846     		mov	r0, r3
 376 00a0 1837     		adds	r7, r7, #24
 377 00a2 BD46     		mov	sp, r7
 378              		@ sp needed
 379 00a4 80BD     		pop	{r7, pc}
 380              	.L38:
 381 00a6 00BF     		.align	2
 382              	.L37:
 383 00a8 00000000 		.word	WriteStatus
 385              		.section	.text.SD_ioctl,"ax",%progbits
 386              		.align	1
 387              		.global	SD_ioctl
 388              		.syntax unified
 389              		.thumb
 390              		.thumb_func
 392              	SD_ioctl:
 393              		@ args = 0, pretend = 0, frame = 48
 394              		@ frame_needed = 1, uses_anonymous_args = 0
 395 0000 80B5     		push	{r7, lr}
 396 0002 8CB0     		sub	sp, sp, #48
 397 0004 00AF     		add	r7, sp, #0
 398 0006 0346     		mov	r3, r0
 399 0008 3A60     		str	r2, [r7]
 400 000a FB71     		strb	r3, [r7, #7]
 401 000c 0B46     		mov	r3, r1
 402 000e BB71     		strb	r3, [r7, #6]
 403 0010 0123     		movs	r3, #1
 404 0012 87F82F30 		strb	r3, [r7, #47]
 405 0016 254B     		ldr	r3, .L50
 406 0018 1B78     		ldrb	r3, [r3]
 407 001a DBB2     		uxtb	r3, r3
 408 001c 03F00103 		and	r3, r3, #1
 409 0020 002B     		cmp	r3, #0
 410 0022 01D0     		beq	.L40
 411 0024 0323     		movs	r3, #3
 412 0026 3CE0     		b	.L49
 413              	.L40:
 414 0028 BB79     		ldrb	r3, [r7, #6]	@ zero_extendqisi2
 415 002a 032B     		cmp	r3, #3
 416 002c 34D8     		bhi	.L42
 417 002e 01A2     		adr	r2, .L44
 418 0030 52F823F0 		ldr	pc, [r2, r3, lsl #2]
 419              		.p2align 2
 420              	.L44:
ARM GAS  C:\Users\user\AppData\Local\Temp\ccBLGW8o.s 			page 8


 421 0034 45000000 		.word	.L47+1
 422 0038 4D000000 		.word	.L46+1
 423 003c 65000000 		.word	.L45+1
 424 0040 7F000000 		.word	.L43+1
 425              		.p2align 1
 426              	.L47:
 427 0044 0023     		movs	r3, #0
 428 0046 87F82F30 		strb	r3, [r7, #47]
 429 004a 28E0     		b	.L48
 430              	.L46:
 431 004c 07F10C03 		add	r3, r7, #12
 432 0050 1846     		mov	r0, r3
 433 0052 FFF7FEFF 		bl	BSP_SD_GetCardInfo
 434 0056 7A6A     		ldr	r2, [r7, #36]
 435 0058 3B68     		ldr	r3, [r7]
 436 005a 1A60     		str	r2, [r3]
 437 005c 0023     		movs	r3, #0
 438 005e 87F82F30 		strb	r3, [r7, #47]
 439 0062 1CE0     		b	.L48
 440              	.L45:
 441 0064 07F10C03 		add	r3, r7, #12
 442 0068 1846     		mov	r0, r3
 443 006a FFF7FEFF 		bl	BSP_SD_GetCardInfo
 444 006e BB6A     		ldr	r3, [r7, #40]
 445 0070 9AB2     		uxth	r2, r3
 446 0072 3B68     		ldr	r3, [r7]
 447 0074 1A80     		strh	r2, [r3]	@ movhi
 448 0076 0023     		movs	r3, #0
 449 0078 87F82F30 		strb	r3, [r7, #47]
 450 007c 0FE0     		b	.L48
 451              	.L43:
 452 007e 07F10C03 		add	r3, r7, #12
 453 0082 1846     		mov	r0, r3
 454 0084 FFF7FEFF 		bl	BSP_SD_GetCardInfo
 455 0088 BB6A     		ldr	r3, [r7, #40]
 456 008a 5A0A     		lsrs	r2, r3, #9
 457 008c 3B68     		ldr	r3, [r7]
 458 008e 1A60     		str	r2, [r3]
 459 0090 0023     		movs	r3, #0
 460 0092 87F82F30 		strb	r3, [r7, #47]
 461 0096 02E0     		b	.L48
 462              	.L42:
 463 0098 0423     		movs	r3, #4
 464 009a 87F82F30 		strb	r3, [r7, #47]
 465              	.L48:
 466 009e 97F82F30 		ldrb	r3, [r7, #47]	@ zero_extendqisi2
 467              	.L49:
 468 00a2 1846     		mov	r0, r3
 469 00a4 3037     		adds	r7, r7, #48
 470 00a6 BD46     		mov	sp, r7
 471              		@ sp needed
 472 00a8 80BD     		pop	{r7, pc}
 473              	.L51:
 474 00aa 00BF     		.align	2
 475              	.L50:
 476 00ac 00000000 		.word	Stat
 478              		.section	.text.BSP_SD_WriteCpltCallback,"ax",%progbits
ARM GAS  C:\Users\user\AppData\Local\Temp\ccBLGW8o.s 			page 9


 479              		.align	1
 480              		.global	BSP_SD_WriteCpltCallback
 481              		.syntax unified
 482              		.thumb
 483              		.thumb_func
 485              	BSP_SD_WriteCpltCallback:
 486              		@ args = 0, pretend = 0, frame = 0
 487              		@ frame_needed = 1, uses_anonymous_args = 0
 488              		@ link register save eliminated.
 489 0000 80B4     		push	{r7}
 490 0002 00AF     		add	r7, sp, #0
 491 0004 034B     		ldr	r3, .L53
 492 0006 0122     		movs	r2, #1
 493 0008 1A60     		str	r2, [r3]
 494 000a 00BF     		nop
 495 000c BD46     		mov	sp, r7
 496              		@ sp needed
 497 000e 5DF8047B 		ldr	r7, [sp], #4
 498 0012 7047     		bx	lr
 499              	.L54:
 500              		.align	2
 501              	.L53:
 502 0014 00000000 		.word	WriteStatus
 504              		.section	.text.BSP_SD_ReadCpltCallback,"ax",%progbits
 505              		.align	1
 506              		.global	BSP_SD_ReadCpltCallback
 507              		.syntax unified
 508              		.thumb
 509              		.thumb_func
 511              	BSP_SD_ReadCpltCallback:
 512              		@ args = 0, pretend = 0, frame = 0
 513              		@ frame_needed = 1, uses_anonymous_args = 0
 514              		@ link register save eliminated.
 515 0000 80B4     		push	{r7}
 516 0002 00AF     		add	r7, sp, #0
 517 0004 034B     		ldr	r3, .L56
 518 0006 0122     		movs	r2, #1
 519 0008 1A60     		str	r2, [r3]
 520 000a 00BF     		nop
 521 000c BD46     		mov	sp, r7
 522              		@ sp needed
 523 000e 5DF8047B 		ldr	r7, [sp], #4
 524 0012 7047     		bx	lr
 525              	.L57:
 526              		.align	2
 527              	.L56:
 528 0014 00000000 		.word	ReadStatus
 530              		.ident	"GCC: (GNU Tools for STM32 12.3.rel1.20240306-1730) 12.3.1 20230626"
ARM GAS  C:\Users\user\AppData\Local\Temp\ccBLGW8o.s 			page 10

