ARM GAS  C:\Users\user\AppData\Local\Temp\ccevxruo.s 			page 1


   1              		.cpu cortex-m4
   2              		.arch armv7e-m
   3              		.fpu fpv4-sp-d16
   4              		.eabi_attribute 27, 1
   5              		.eabi_attribute 28, 1
   6              		.eabi_attribute 20, 1
   7              		.eabi_attribute 21, 1
   8              		.eabi_attribute 23, 3
   9              		.eabi_attribute 24, 1
  10              		.eabi_attribute 25, 1
  11              		.eabi_attribute 26, 1
  12              		.eabi_attribute 30, 6
  13              		.eabi_attribute 34, 1
  14              		.eabi_attribute 18, 4
  15              		.file	"stm32f4xx_hal_rtc.c"
  16              		.text
  17              		.section	.text.HAL_RTC_Init,"ax",%progbits
  18              		.align	1
  19              		.global	HAL_RTC_Init
  20              		.syntax unified
  21              		.thumb
  22              		.thumb_func
  24              	HAL_RTC_Init:
  25              		@ args = 0, pretend = 0, frame = 16
  26              		@ frame_needed = 1, uses_anonymous_args = 0
  27 0000 80B5     		push	{r7, lr}
  28 0002 84B0     		sub	sp, sp, #16
  29 0004 00AF     		add	r7, sp, #0
  30 0006 7860     		str	r0, [r7, #4]
  31 0008 0123     		movs	r3, #1
  32 000a FB73     		strb	r3, [r7, #15]
  33 000c 7B68     		ldr	r3, [r7, #4]
  34 000e 002B     		cmp	r3, #0
  35 0010 01D1     		bne	.L2
  36 0012 0123     		movs	r3, #1
  37 0014 66E0     		b	.L3
  38              	.L2:
  39 0016 7B68     		ldr	r3, [r7, #4]
  40 0018 5B7F     		ldrb	r3, [r3, #29]
  41 001a DBB2     		uxtb	r3, r3
  42 001c 002B     		cmp	r3, #0
  43 001e 05D1     		bne	.L4
  44 0020 7B68     		ldr	r3, [r7, #4]
  45 0022 0022     		movs	r2, #0
  46 0024 1A77     		strb	r2, [r3, #28]
  47 0026 7868     		ldr	r0, [r7, #4]
  48 0028 FFF7FEFF 		bl	HAL_RTC_MspInit
  49              	.L4:
  50 002c 7B68     		ldr	r3, [r7, #4]
  51 002e 0222     		movs	r2, #2
  52 0030 5A77     		strb	r2, [r3, #29]
  53 0032 7B68     		ldr	r3, [r7, #4]
  54 0034 1B68     		ldr	r3, [r3]
  55 0036 CA22     		movs	r2, #202
  56 0038 5A62     		str	r2, [r3, #36]
  57 003a 7B68     		ldr	r3, [r7, #4]
  58 003c 1B68     		ldr	r3, [r3]
ARM GAS  C:\Users\user\AppData\Local\Temp\ccevxruo.s 			page 2


  59 003e 5322     		movs	r2, #83
  60 0040 5A62     		str	r2, [r3, #36]
  61 0042 7868     		ldr	r0, [r7, #4]
  62 0044 FFF7FEFF 		bl	RTC_EnterInitMode
  63 0048 0346     		mov	r3, r0
  64 004a FB73     		strb	r3, [r7, #15]
  65 004c FB7B     		ldrb	r3, [r7, #15]	@ zero_extendqisi2
  66 004e 002B     		cmp	r3, #0
  67 0050 2CD1     		bne	.L5
  68 0052 7B68     		ldr	r3, [r7, #4]
  69 0054 1B68     		ldr	r3, [r3]
  70 0056 9B68     		ldr	r3, [r3, #8]
  71 0058 7A68     		ldr	r2, [r7, #4]
  72 005a 1268     		ldr	r2, [r2]
  73 005c 23F4E003 		bic	r3, r3, #7340032
  74 0060 23F04003 		bic	r3, r3, #64
  75 0064 9360     		str	r3, [r2, #8]
  76 0066 7B68     		ldr	r3, [r7, #4]
  77 0068 1B68     		ldr	r3, [r3]
  78 006a 9968     		ldr	r1, [r3, #8]
  79 006c 7B68     		ldr	r3, [r7, #4]
  80 006e 5A68     		ldr	r2, [r3, #4]
  81 0070 7B68     		ldr	r3, [r7, #4]
  82 0072 1B69     		ldr	r3, [r3, #16]
  83 0074 1A43     		orrs	r2, r2, r3
  84 0076 7B68     		ldr	r3, [r7, #4]
  85 0078 5B69     		ldr	r3, [r3, #20]
  86 007a 1A43     		orrs	r2, r2, r3
  87 007c 7B68     		ldr	r3, [r7, #4]
  88 007e 1B68     		ldr	r3, [r3]
  89 0080 0A43     		orrs	r2, r2, r1
  90 0082 9A60     		str	r2, [r3, #8]
  91 0084 7B68     		ldr	r3, [r7, #4]
  92 0086 1B68     		ldr	r3, [r3]
  93 0088 7A68     		ldr	r2, [r7, #4]
  94 008a D268     		ldr	r2, [r2, #12]
  95 008c 1A61     		str	r2, [r3, #16]
  96 008e 7B68     		ldr	r3, [r7, #4]
  97 0090 1B68     		ldr	r3, [r3]
  98 0092 1969     		ldr	r1, [r3, #16]
  99 0094 7B68     		ldr	r3, [r7, #4]
 100 0096 9B68     		ldr	r3, [r3, #8]
 101 0098 1A04     		lsls	r2, r3, #16
 102 009a 7B68     		ldr	r3, [r7, #4]
 103 009c 1B68     		ldr	r3, [r3]
 104 009e 0A43     		orrs	r2, r2, r1
 105 00a0 1A61     		str	r2, [r3, #16]
 106 00a2 7868     		ldr	r0, [r7, #4]
 107 00a4 FFF7FEFF 		bl	RTC_ExitInitMode
 108 00a8 0346     		mov	r3, r0
 109 00aa FB73     		strb	r3, [r7, #15]
 110              	.L5:
 111 00ac FB7B     		ldrb	r3, [r7, #15]	@ zero_extendqisi2
 112 00ae 002B     		cmp	r3, #0
 113 00b0 13D1     		bne	.L6
 114 00b2 7B68     		ldr	r3, [r7, #4]
 115 00b4 1B68     		ldr	r3, [r3]
ARM GAS  C:\Users\user\AppData\Local\Temp\ccevxruo.s 			page 3


 116 00b6 1A6C     		ldr	r2, [r3, #64]
 117 00b8 7B68     		ldr	r3, [r7, #4]
 118 00ba 1B68     		ldr	r3, [r3]
 119 00bc 22F48022 		bic	r2, r2, #262144
 120 00c0 1A64     		str	r2, [r3, #64]
 121 00c2 7B68     		ldr	r3, [r7, #4]
 122 00c4 1B68     		ldr	r3, [r3]
 123 00c6 196C     		ldr	r1, [r3, #64]
 124 00c8 7B68     		ldr	r3, [r7, #4]
 125 00ca 9A69     		ldr	r2, [r3, #24]
 126 00cc 7B68     		ldr	r3, [r7, #4]
 127 00ce 1B68     		ldr	r3, [r3]
 128 00d0 0A43     		orrs	r2, r2, r1
 129 00d2 1A64     		str	r2, [r3, #64]
 130 00d4 7B68     		ldr	r3, [r7, #4]
 131 00d6 0122     		movs	r2, #1
 132 00d8 5A77     		strb	r2, [r3, #29]
 133              	.L6:
 134 00da 7B68     		ldr	r3, [r7, #4]
 135 00dc 1B68     		ldr	r3, [r3]
 136 00de FF22     		movs	r2, #255
 137 00e0 5A62     		str	r2, [r3, #36]
 138 00e2 FB7B     		ldrb	r3, [r7, #15]	@ zero_extendqisi2
 139              	.L3:
 140 00e4 1846     		mov	r0, r3
 141 00e6 1037     		adds	r7, r7, #16
 142 00e8 BD46     		mov	sp, r7
 143              		@ sp needed
 144 00ea 80BD     		pop	{r7, pc}
 146              		.section	.text.HAL_RTC_DeInit,"ax",%progbits
 147              		.align	1
 148              		.global	HAL_RTC_DeInit
 149              		.syntax unified
 150              		.thumb
 151              		.thumb_func
 153              	HAL_RTC_DeInit:
 154              		@ args = 0, pretend = 0, frame = 16
 155              		@ frame_needed = 1, uses_anonymous_args = 0
 156 0000 80B5     		push	{r7, lr}
 157 0002 84B0     		sub	sp, sp, #16
 158 0004 00AF     		add	r7, sp, #0
 159 0006 7860     		str	r0, [r7, #4]
 160 0008 0123     		movs	r3, #1
 161 000a FB73     		strb	r3, [r7, #15]
 162 000c 7B68     		ldr	r3, [r7, #4]
 163 000e 0222     		movs	r2, #2
 164 0010 5A77     		strb	r2, [r3, #29]
 165 0012 7B68     		ldr	r3, [r7, #4]
 166 0014 1B68     		ldr	r3, [r3]
 167 0016 CA22     		movs	r2, #202
 168 0018 5A62     		str	r2, [r3, #36]
 169 001a 7B68     		ldr	r3, [r7, #4]
 170 001c 1B68     		ldr	r3, [r3]
 171 001e 5322     		movs	r2, #83
 172 0020 5A62     		str	r2, [r3, #36]
 173 0022 7868     		ldr	r0, [r7, #4]
 174 0024 FFF7FEFF 		bl	RTC_EnterInitMode
ARM GAS  C:\Users\user\AppData\Local\Temp\ccevxruo.s 			page 4


 175 0028 0346     		mov	r3, r0
 176 002a FB73     		strb	r3, [r7, #15]
 177 002c FB7B     		ldrb	r3, [r7, #15]	@ zero_extendqisi2
 178 002e 002B     		cmp	r3, #0
 179 0030 39D1     		bne	.L8
 180 0032 7B68     		ldr	r3, [r7, #4]
 181 0034 1B68     		ldr	r3, [r3]
 182 0036 0022     		movs	r2, #0
 183 0038 1A60     		str	r2, [r3]
 184 003a 7B68     		ldr	r3, [r7, #4]
 185 003c 1B68     		ldr	r3, [r3]
 186 003e 42F20112 		movw	r2, #8449
 187 0042 5A60     		str	r2, [r3, #4]
 188 0044 7B68     		ldr	r3, [r7, #4]
 189 0046 1B68     		ldr	r3, [r3]
 190 0048 9B68     		ldr	r3, [r3, #8]
 191 004a 7B68     		ldr	r3, [r7, #4]
 192 004c 1B68     		ldr	r3, [r3]
 193 004e 0022     		movs	r2, #0
 194 0050 9A60     		str	r2, [r3, #8]
 195 0052 7B68     		ldr	r3, [r7, #4]
 196 0054 1B68     		ldr	r3, [r3]
 197 0056 4FF6FF72 		movw	r2, #65535
 198 005a 5A61     		str	r2, [r3, #20]
 199 005c 7B68     		ldr	r3, [r7, #4]
 200 005e 1B68     		ldr	r3, [r3]
 201 0060 1D4A     		ldr	r2, .L11
 202 0062 1A61     		str	r2, [r3, #16]
 203 0064 7B68     		ldr	r3, [r7, #4]
 204 0066 1B68     		ldr	r3, [r3]
 205 0068 0022     		movs	r2, #0
 206 006a 9A61     		str	r2, [r3, #24]
 207 006c 7B68     		ldr	r3, [r7, #4]
 208 006e 1B68     		ldr	r3, [r3]
 209 0070 0022     		movs	r2, #0
 210 0072 DA61     		str	r2, [r3, #28]
 211 0074 7B68     		ldr	r3, [r7, #4]
 212 0076 1B68     		ldr	r3, [r3]
 213 0078 0022     		movs	r2, #0
 214 007a 1A62     		str	r2, [r3, #32]
 215 007c 7B68     		ldr	r3, [r7, #4]
 216 007e 1B68     		ldr	r3, [r3]
 217 0080 0022     		movs	r2, #0
 218 0082 DA63     		str	r2, [r3, #60]
 219 0084 7B68     		ldr	r3, [r7, #4]
 220 0086 1B68     		ldr	r3, [r3]
 221 0088 0022     		movs	r2, #0
 222 008a DA62     		str	r2, [r3, #44]
 223 008c 7B68     		ldr	r3, [r7, #4]
 224 008e 1B68     		ldr	r3, [r3]
 225 0090 0022     		movs	r2, #0
 226 0092 5A64     		str	r2, [r3, #68]
 227 0094 7B68     		ldr	r3, [r7, #4]
 228 0096 1B68     		ldr	r3, [r3]
 229 0098 0022     		movs	r2, #0
 230 009a 9A64     		str	r2, [r3, #72]
 231 009c 7868     		ldr	r0, [r7, #4]
ARM GAS  C:\Users\user\AppData\Local\Temp\ccevxruo.s 			page 5


 232 009e FFF7FEFF 		bl	RTC_ExitInitMode
 233 00a2 0346     		mov	r3, r0
 234 00a4 FB73     		strb	r3, [r7, #15]
 235              	.L8:
 236 00a6 7B68     		ldr	r3, [r7, #4]
 237 00a8 1B68     		ldr	r3, [r3]
 238 00aa FF22     		movs	r2, #255
 239 00ac 5A62     		str	r2, [r3, #36]
 240 00ae FB7B     		ldrb	r3, [r7, #15]	@ zero_extendqisi2
 241 00b0 002B     		cmp	r3, #0
 242 00b2 09D1     		bne	.L9
 243 00b4 7B68     		ldr	r3, [r7, #4]
 244 00b6 1B68     		ldr	r3, [r3]
 245 00b8 0022     		movs	r2, #0
 246 00ba 1A64     		str	r2, [r3, #64]
 247 00bc 7868     		ldr	r0, [r7, #4]
 248 00be FFF7FEFF 		bl	HAL_RTC_MspDeInit
 249 00c2 7B68     		ldr	r3, [r7, #4]
 250 00c4 0022     		movs	r2, #0
 251 00c6 5A77     		strb	r2, [r3, #29]
 252              	.L9:
 253 00c8 7B68     		ldr	r3, [r7, #4]
 254 00ca 0022     		movs	r2, #0
 255 00cc 1A77     		strb	r2, [r3, #28]
 256 00ce FB7B     		ldrb	r3, [r7, #15]	@ zero_extendqisi2
 257 00d0 1846     		mov	r0, r3
 258 00d2 1037     		adds	r7, r7, #16
 259 00d4 BD46     		mov	sp, r7
 260              		@ sp needed
 261 00d6 80BD     		pop	{r7, pc}
 262              	.L12:
 263              		.align	2
 264              	.L11:
 265 00d8 FF007F00 		.word	8323327
 267              		.section	.text.HAL_RTC_MspInit,"ax",%progbits
 268              		.align	1
 269              		.weak	HAL_RTC_MspInit
 270              		.syntax unified
 271              		.thumb
 272              		.thumb_func
 274              	HAL_RTC_MspInit:
 275              		@ args = 0, pretend = 0, frame = 8
 276              		@ frame_needed = 1, uses_anonymous_args = 0
 277              		@ link register save eliminated.
 278 0000 80B4     		push	{r7}
 279 0002 83B0     		sub	sp, sp, #12
 280 0004 00AF     		add	r7, sp, #0
 281 0006 7860     		str	r0, [r7, #4]
 282 0008 00BF     		nop
 283 000a 0C37     		adds	r7, r7, #12
 284 000c BD46     		mov	sp, r7
 285              		@ sp needed
 286 000e 5DF8047B 		ldr	r7, [sp], #4
 287 0012 7047     		bx	lr
 289              		.section	.text.HAL_RTC_MspDeInit,"ax",%progbits
 290              		.align	1
 291              		.weak	HAL_RTC_MspDeInit
ARM GAS  C:\Users\user\AppData\Local\Temp\ccevxruo.s 			page 6


 292              		.syntax unified
 293              		.thumb
 294              		.thumb_func
 296              	HAL_RTC_MspDeInit:
 297              		@ args = 0, pretend = 0, frame = 8
 298              		@ frame_needed = 1, uses_anonymous_args = 0
 299              		@ link register save eliminated.
 300 0000 80B4     		push	{r7}
 301 0002 83B0     		sub	sp, sp, #12
 302 0004 00AF     		add	r7, sp, #0
 303 0006 7860     		str	r0, [r7, #4]
 304 0008 00BF     		nop
 305 000a 0C37     		adds	r7, r7, #12
 306 000c BD46     		mov	sp, r7
 307              		@ sp needed
 308 000e 5DF8047B 		ldr	r7, [sp], #4
 309 0012 7047     		bx	lr
 311              		.section	.text.HAL_RTC_SetTime,"ax",%progbits
 312              		.align	1
 313              		.global	HAL_RTC_SetTime
 314              		.syntax unified
 315              		.thumb
 316              		.thumb_func
 318              	HAL_RTC_SetTime:
 319              		@ args = 0, pretend = 0, frame = 24
 320              		@ frame_needed = 1, uses_anonymous_args = 0
 321 0000 90B5     		push	{r4, r7, lr}
 322 0002 87B0     		sub	sp, sp, #28
 323 0004 00AF     		add	r7, sp, #0
 324 0006 F860     		str	r0, [r7, #12]
 325 0008 B960     		str	r1, [r7, #8]
 326 000a 7A60     		str	r2, [r7, #4]
 327 000c 0023     		movs	r3, #0
 328 000e 7B61     		str	r3, [r7, #20]
 329 0010 FB68     		ldr	r3, [r7, #12]
 330 0012 1B7F     		ldrb	r3, [r3, #28]	@ zero_extendqisi2
 331 0014 012B     		cmp	r3, #1
 332 0016 01D1     		bne	.L16
 333 0018 0223     		movs	r3, #2
 334 001a 87E0     		b	.L17
 335              	.L16:
 336 001c FB68     		ldr	r3, [r7, #12]
 337 001e 0122     		movs	r2, #1
 338 0020 1A77     		strb	r2, [r3, #28]
 339 0022 FB68     		ldr	r3, [r7, #12]
 340 0024 0222     		movs	r2, #2
 341 0026 5A77     		strb	r2, [r3, #29]
 342 0028 7B68     		ldr	r3, [r7, #4]
 343 002a 002B     		cmp	r3, #0
 344 002c 26D1     		bne	.L18
 345 002e FB68     		ldr	r3, [r7, #12]
 346 0030 1B68     		ldr	r3, [r3]
 347 0032 9B68     		ldr	r3, [r3, #8]
 348 0034 03F04003 		and	r3, r3, #64
 349 0038 002B     		cmp	r3, #0
 350 003a 02D1     		bne	.L19
 351 003c BB68     		ldr	r3, [r7, #8]
ARM GAS  C:\Users\user\AppData\Local\Temp\ccevxruo.s 			page 7


 352 003e 0022     		movs	r2, #0
 353 0040 DA70     		strb	r2, [r3, #3]
 354              	.L19:
 355 0042 BB68     		ldr	r3, [r7, #8]
 356 0044 1B78     		ldrb	r3, [r3]	@ zero_extendqisi2
 357 0046 1846     		mov	r0, r3
 358 0048 FFF7FEFF 		bl	RTC_ByteToBcd2
 359 004c 0346     		mov	r3, r0
 360 004e 1C04     		lsls	r4, r3, #16
 361 0050 BB68     		ldr	r3, [r7, #8]
 362 0052 5B78     		ldrb	r3, [r3, #1]	@ zero_extendqisi2
 363 0054 1846     		mov	r0, r3
 364 0056 FFF7FEFF 		bl	RTC_ByteToBcd2
 365 005a 0346     		mov	r3, r0
 366 005c 1B02     		lsls	r3, r3, #8
 367 005e 1C43     		orrs	r4, r4, r3
 368 0060 BB68     		ldr	r3, [r7, #8]
 369 0062 9B78     		ldrb	r3, [r3, #2]	@ zero_extendqisi2
 370 0064 1846     		mov	r0, r3
 371 0066 FFF7FEFF 		bl	RTC_ByteToBcd2
 372 006a 0346     		mov	r3, r0
 373 006c 44EA0302 		orr	r2, r4, r3
 374 0070 BB68     		ldr	r3, [r7, #8]
 375 0072 DB78     		ldrb	r3, [r3, #3]	@ zero_extendqisi2
 376 0074 9B05     		lsls	r3, r3, #22
 377 0076 1343     		orrs	r3, r3, r2
 378 0078 7B61     		str	r3, [r7, #20]
 379 007a 18E0     		b	.L20
 380              	.L18:
 381 007c FB68     		ldr	r3, [r7, #12]
 382 007e 1B68     		ldr	r3, [r3]
 383 0080 9B68     		ldr	r3, [r3, #8]
 384 0082 03F04003 		and	r3, r3, #64
 385 0086 002B     		cmp	r3, #0
 386 0088 02D1     		bne	.L21
 387 008a BB68     		ldr	r3, [r7, #8]
 388 008c 0022     		movs	r2, #0
 389 008e DA70     		strb	r2, [r3, #3]
 390              	.L21:
 391 0090 BB68     		ldr	r3, [r7, #8]
 392 0092 1B78     		ldrb	r3, [r3]	@ zero_extendqisi2
 393 0094 1A04     		lsls	r2, r3, #16
 394 0096 BB68     		ldr	r3, [r7, #8]
 395 0098 5B78     		ldrb	r3, [r3, #1]	@ zero_extendqisi2
 396 009a 1B02     		lsls	r3, r3, #8
 397 009c 1343     		orrs	r3, r3, r2
 398 009e BA68     		ldr	r2, [r7, #8]
 399 00a0 9278     		ldrb	r2, [r2, #2]	@ zero_extendqisi2
 400 00a2 1A43     		orrs	r2, r2, r3
 401 00a4 BB68     		ldr	r3, [r7, #8]
 402 00a6 DB78     		ldrb	r3, [r3, #3]	@ zero_extendqisi2
 403 00a8 9B05     		lsls	r3, r3, #22
 404 00aa 1343     		orrs	r3, r3, r2
 405 00ac 7B61     		str	r3, [r7, #20]
 406              	.L20:
 407 00ae FB68     		ldr	r3, [r7, #12]
 408 00b0 1B68     		ldr	r3, [r3]
ARM GAS  C:\Users\user\AppData\Local\Temp\ccevxruo.s 			page 8


 409 00b2 CA22     		movs	r2, #202
 410 00b4 5A62     		str	r2, [r3, #36]
 411 00b6 FB68     		ldr	r3, [r7, #12]
 412 00b8 1B68     		ldr	r3, [r3]
 413 00ba 5322     		movs	r2, #83
 414 00bc 5A62     		str	r2, [r3, #36]
 415 00be F868     		ldr	r0, [r7, #12]
 416 00c0 FFF7FEFF 		bl	RTC_EnterInitMode
 417 00c4 0346     		mov	r3, r0
 418 00c6 FB74     		strb	r3, [r7, #19]
 419 00c8 FB7C     		ldrb	r3, [r7, #19]	@ zero_extendqisi2
 420 00ca 002B     		cmp	r3, #0
 421 00cc 20D1     		bne	.L22
 422 00ce FB68     		ldr	r3, [r7, #12]
 423 00d0 1A68     		ldr	r2, [r3]
 424 00d2 7B69     		ldr	r3, [r7, #20]
 425 00d4 03F07F33 		and	r3, r3, #2139062143
 426 00d8 23F0FE43 		bic	r3, r3, #2130706432
 427 00dc 1360     		str	r3, [r2]
 428 00de FB68     		ldr	r3, [r7, #12]
 429 00e0 1B68     		ldr	r3, [r3]
 430 00e2 9A68     		ldr	r2, [r3, #8]
 431 00e4 FB68     		ldr	r3, [r7, #12]
 432 00e6 1B68     		ldr	r3, [r3]
 433 00e8 22F48022 		bic	r2, r2, #262144
 434 00ec 9A60     		str	r2, [r3, #8]
 435 00ee FB68     		ldr	r3, [r7, #12]
 436 00f0 1B68     		ldr	r3, [r3]
 437 00f2 9968     		ldr	r1, [r3, #8]
 438 00f4 BB68     		ldr	r3, [r7, #8]
 439 00f6 DA68     		ldr	r2, [r3, #12]
 440 00f8 BB68     		ldr	r3, [r7, #8]
 441 00fa 1B69     		ldr	r3, [r3, #16]
 442 00fc 1A43     		orrs	r2, r2, r3
 443 00fe FB68     		ldr	r3, [r7, #12]
 444 0100 1B68     		ldr	r3, [r3]
 445 0102 0A43     		orrs	r2, r2, r1
 446 0104 9A60     		str	r2, [r3, #8]
 447 0106 F868     		ldr	r0, [r7, #12]
 448 0108 FFF7FEFF 		bl	RTC_ExitInitMode
 449 010c 0346     		mov	r3, r0
 450 010e FB74     		strb	r3, [r7, #19]
 451              	.L22:
 452 0110 FB7C     		ldrb	r3, [r7, #19]	@ zero_extendqisi2
 453 0112 002B     		cmp	r3, #0
 454 0114 02D1     		bne	.L23
 455 0116 FB68     		ldr	r3, [r7, #12]
 456 0118 0122     		movs	r2, #1
 457 011a 5A77     		strb	r2, [r3, #29]
 458              	.L23:
 459 011c FB68     		ldr	r3, [r7, #12]
 460 011e 1B68     		ldr	r3, [r3]
 461 0120 FF22     		movs	r2, #255
 462 0122 5A62     		str	r2, [r3, #36]
 463 0124 FB68     		ldr	r3, [r7, #12]
 464 0126 0022     		movs	r2, #0
 465 0128 1A77     		strb	r2, [r3, #28]
ARM GAS  C:\Users\user\AppData\Local\Temp\ccevxruo.s 			page 9


 466 012a FB7C     		ldrb	r3, [r7, #19]	@ zero_extendqisi2
 467              	.L17:
 468 012c 1846     		mov	r0, r3
 469 012e 1C37     		adds	r7, r7, #28
 470 0130 BD46     		mov	sp, r7
 471              		@ sp needed
 472 0132 90BD     		pop	{r4, r7, pc}
 474              		.section	.text.HAL_RTC_GetTime,"ax",%progbits
 475              		.align	1
 476              		.global	HAL_RTC_GetTime
 477              		.syntax unified
 478              		.thumb
 479              		.thumb_func
 481              	HAL_RTC_GetTime:
 482              		@ args = 0, pretend = 0, frame = 24
 483              		@ frame_needed = 1, uses_anonymous_args = 0
 484 0000 80B5     		push	{r7, lr}
 485 0002 86B0     		sub	sp, sp, #24
 486 0004 00AF     		add	r7, sp, #0
 487 0006 F860     		str	r0, [r7, #12]
 488 0008 B960     		str	r1, [r7, #8]
 489 000a 7A60     		str	r2, [r7, #4]
 490 000c 0023     		movs	r3, #0
 491 000e 7B61     		str	r3, [r7, #20]
 492 0010 FB68     		ldr	r3, [r7, #12]
 493 0012 1B68     		ldr	r3, [r3]
 494 0014 9A6A     		ldr	r2, [r3, #40]
 495 0016 BB68     		ldr	r3, [r7, #8]
 496 0018 5A60     		str	r2, [r3, #4]
 497 001a FB68     		ldr	r3, [r7, #12]
 498 001c 1B68     		ldr	r3, [r3]
 499 001e 1B69     		ldr	r3, [r3, #16]
 500 0020 C3F30E02 		ubfx	r2, r3, #0, #15
 501 0024 BB68     		ldr	r3, [r7, #8]
 502 0026 9A60     		str	r2, [r3, #8]
 503 0028 FB68     		ldr	r3, [r7, #12]
 504 002a 1B68     		ldr	r3, [r3]
 505 002c 1B68     		ldr	r3, [r3]
 506 002e 03F07F33 		and	r3, r3, #2139062143
 507 0032 23F0FE43 		bic	r3, r3, #2130706432
 508 0036 7B61     		str	r3, [r7, #20]
 509 0038 7B69     		ldr	r3, [r7, #20]
 510 003a 1B0C     		lsrs	r3, r3, #16
 511 003c DBB2     		uxtb	r3, r3
 512 003e 03F03F03 		and	r3, r3, #63
 513 0042 DAB2     		uxtb	r2, r3
 514 0044 BB68     		ldr	r3, [r7, #8]
 515 0046 1A70     		strb	r2, [r3]
 516 0048 7B69     		ldr	r3, [r7, #20]
 517 004a 1B0A     		lsrs	r3, r3, #8
 518 004c DBB2     		uxtb	r3, r3
 519 004e 03F07F03 		and	r3, r3, #127
 520 0052 DAB2     		uxtb	r2, r3
 521 0054 BB68     		ldr	r3, [r7, #8]
 522 0056 5A70     		strb	r2, [r3, #1]
 523 0058 7B69     		ldr	r3, [r7, #20]
 524 005a DBB2     		uxtb	r3, r3
ARM GAS  C:\Users\user\AppData\Local\Temp\ccevxruo.s 			page 10


 525 005c 03F07F03 		and	r3, r3, #127
 526 0060 DAB2     		uxtb	r2, r3
 527 0062 BB68     		ldr	r3, [r7, #8]
 528 0064 9A70     		strb	r2, [r3, #2]
 529 0066 7B69     		ldr	r3, [r7, #20]
 530 0068 9B0D     		lsrs	r3, r3, #22
 531 006a DBB2     		uxtb	r3, r3
 532 006c 03F00103 		and	r3, r3, #1
 533 0070 DAB2     		uxtb	r2, r3
 534 0072 BB68     		ldr	r3, [r7, #8]
 535 0074 DA70     		strb	r2, [r3, #3]
 536 0076 7B68     		ldr	r3, [r7, #4]
 537 0078 002B     		cmp	r3, #0
 538 007a 1AD1     		bne	.L25
 539 007c BB68     		ldr	r3, [r7, #8]
 540 007e 1B78     		ldrb	r3, [r3]	@ zero_extendqisi2
 541 0080 1846     		mov	r0, r3
 542 0082 FFF7FEFF 		bl	RTC_Bcd2ToByte
 543 0086 0346     		mov	r3, r0
 544 0088 1A46     		mov	r2, r3
 545 008a BB68     		ldr	r3, [r7, #8]
 546 008c 1A70     		strb	r2, [r3]
 547 008e BB68     		ldr	r3, [r7, #8]
 548 0090 5B78     		ldrb	r3, [r3, #1]	@ zero_extendqisi2
 549 0092 1846     		mov	r0, r3
 550 0094 FFF7FEFF 		bl	RTC_Bcd2ToByte
 551 0098 0346     		mov	r3, r0
 552 009a 1A46     		mov	r2, r3
 553 009c BB68     		ldr	r3, [r7, #8]
 554 009e 5A70     		strb	r2, [r3, #1]
 555 00a0 BB68     		ldr	r3, [r7, #8]
 556 00a2 9B78     		ldrb	r3, [r3, #2]	@ zero_extendqisi2
 557 00a4 1846     		mov	r0, r3
 558 00a6 FFF7FEFF 		bl	RTC_Bcd2ToByte
 559 00aa 0346     		mov	r3, r0
 560 00ac 1A46     		mov	r2, r3
 561 00ae BB68     		ldr	r3, [r7, #8]
 562 00b0 9A70     		strb	r2, [r3, #2]
 563              	.L25:
 564 00b2 0023     		movs	r3, #0
 565 00b4 1846     		mov	r0, r3
 566 00b6 1837     		adds	r7, r7, #24
 567 00b8 BD46     		mov	sp, r7
 568              		@ sp needed
 569 00ba 80BD     		pop	{r7, pc}
 571              		.section	.text.HAL_RTC_SetDate,"ax",%progbits
 572              		.align	1
 573              		.global	HAL_RTC_SetDate
 574              		.syntax unified
 575              		.thumb
 576              		.thumb_func
 578              	HAL_RTC_SetDate:
 579              		@ args = 0, pretend = 0, frame = 24
 580              		@ frame_needed = 1, uses_anonymous_args = 0
 581 0000 90B5     		push	{r4, r7, lr}
 582 0002 87B0     		sub	sp, sp, #28
 583 0004 00AF     		add	r7, sp, #0
ARM GAS  C:\Users\user\AppData\Local\Temp\ccevxruo.s 			page 11


 584 0006 F860     		str	r0, [r7, #12]
 585 0008 B960     		str	r1, [r7, #8]
 586 000a 7A60     		str	r2, [r7, #4]
 587 000c 0023     		movs	r3, #0
 588 000e 7B61     		str	r3, [r7, #20]
 589 0010 FB68     		ldr	r3, [r7, #12]
 590 0012 1B7F     		ldrb	r3, [r3, #28]	@ zero_extendqisi2
 591 0014 012B     		cmp	r3, #1
 592 0016 01D1     		bne	.L28
 593 0018 0223     		movs	r3, #2
 594 001a 71E0     		b	.L29
 595              	.L28:
 596 001c FB68     		ldr	r3, [r7, #12]
 597 001e 0122     		movs	r2, #1
 598 0020 1A77     		strb	r2, [r3, #28]
 599 0022 FB68     		ldr	r3, [r7, #12]
 600 0024 0222     		movs	r2, #2
 601 0026 5A77     		strb	r2, [r3, #29]
 602 0028 7B68     		ldr	r3, [r7, #4]
 603 002a 002B     		cmp	r3, #0
 604 002c 0ED1     		bne	.L30
 605 002e BB68     		ldr	r3, [r7, #8]
 606 0030 5B78     		ldrb	r3, [r3, #1]	@ zero_extendqisi2
 607 0032 03F01003 		and	r3, r3, #16
 608 0036 002B     		cmp	r3, #0
 609 0038 08D0     		beq	.L30
 610 003a BB68     		ldr	r3, [r7, #8]
 611 003c 5B78     		ldrb	r3, [r3, #1]	@ zero_extendqisi2
 612 003e 23F01003 		bic	r3, r3, #16
 613 0042 DBB2     		uxtb	r3, r3
 614 0044 0A33     		adds	r3, r3, #10
 615 0046 DAB2     		uxtb	r2, r3
 616 0048 BB68     		ldr	r3, [r7, #8]
 617 004a 5A70     		strb	r2, [r3, #1]
 618              	.L30:
 619 004c 7B68     		ldr	r3, [r7, #4]
 620 004e 002B     		cmp	r3, #0
 621 0050 1CD1     		bne	.L31
 622 0052 BB68     		ldr	r3, [r7, #8]
 623 0054 DB78     		ldrb	r3, [r3, #3]	@ zero_extendqisi2
 624 0056 1846     		mov	r0, r3
 625 0058 FFF7FEFF 		bl	RTC_ByteToBcd2
 626 005c 0346     		mov	r3, r0
 627 005e 1C04     		lsls	r4, r3, #16
 628 0060 BB68     		ldr	r3, [r7, #8]
 629 0062 5B78     		ldrb	r3, [r3, #1]	@ zero_extendqisi2
 630 0064 1846     		mov	r0, r3
 631 0066 FFF7FEFF 		bl	RTC_ByteToBcd2
 632 006a 0346     		mov	r3, r0
 633 006c 1B02     		lsls	r3, r3, #8
 634 006e 1C43     		orrs	r4, r4, r3
 635 0070 BB68     		ldr	r3, [r7, #8]
 636 0072 9B78     		ldrb	r3, [r3, #2]	@ zero_extendqisi2
 637 0074 1846     		mov	r0, r3
 638 0076 FFF7FEFF 		bl	RTC_ByteToBcd2
 639 007a 0346     		mov	r3, r0
 640 007c 44EA0302 		orr	r2, r4, r3
ARM GAS  C:\Users\user\AppData\Local\Temp\ccevxruo.s 			page 12


 641 0080 BB68     		ldr	r3, [r7, #8]
 642 0082 1B78     		ldrb	r3, [r3]	@ zero_extendqisi2
 643 0084 5B03     		lsls	r3, r3, #13
 644 0086 1343     		orrs	r3, r3, r2
 645 0088 7B61     		str	r3, [r7, #20]
 646 008a 0EE0     		b	.L32
 647              	.L31:
 648 008c BB68     		ldr	r3, [r7, #8]
 649 008e DB78     		ldrb	r3, [r3, #3]	@ zero_extendqisi2
 650 0090 1A04     		lsls	r2, r3, #16
 651 0092 BB68     		ldr	r3, [r7, #8]
 652 0094 5B78     		ldrb	r3, [r3, #1]	@ zero_extendqisi2
 653 0096 1B02     		lsls	r3, r3, #8
 654 0098 1343     		orrs	r3, r3, r2
 655 009a BA68     		ldr	r2, [r7, #8]
 656 009c 9278     		ldrb	r2, [r2, #2]	@ zero_extendqisi2
 657 009e 1A43     		orrs	r2, r2, r3
 658 00a0 BB68     		ldr	r3, [r7, #8]
 659 00a2 1B78     		ldrb	r3, [r3]	@ zero_extendqisi2
 660 00a4 5B03     		lsls	r3, r3, #13
 661 00a6 1343     		orrs	r3, r3, r2
 662 00a8 7B61     		str	r3, [r7, #20]
 663              	.L32:
 664 00aa FB68     		ldr	r3, [r7, #12]
 665 00ac 1B68     		ldr	r3, [r3]
 666 00ae CA22     		movs	r2, #202
 667 00b0 5A62     		str	r2, [r3, #36]
 668 00b2 FB68     		ldr	r3, [r7, #12]
 669 00b4 1B68     		ldr	r3, [r3]
 670 00b6 5322     		movs	r2, #83
 671 00b8 5A62     		str	r2, [r3, #36]
 672 00ba F868     		ldr	r0, [r7, #12]
 673 00bc FFF7FEFF 		bl	RTC_EnterInitMode
 674 00c0 0346     		mov	r3, r0
 675 00c2 FB74     		strb	r3, [r7, #19]
 676 00c4 FB7C     		ldrb	r3, [r7, #19]	@ zero_extendqisi2
 677 00c6 002B     		cmp	r3, #0
 678 00c8 0CD1     		bne	.L33
 679 00ca FB68     		ldr	r3, [r7, #12]
 680 00cc 1A68     		ldr	r2, [r3]
 681 00ce 7B69     		ldr	r3, [r7, #20]
 682 00d0 23F07F43 		bic	r3, r3, #-16777216
 683 00d4 23F0C003 		bic	r3, r3, #192
 684 00d8 5360     		str	r3, [r2, #4]
 685 00da F868     		ldr	r0, [r7, #12]
 686 00dc FFF7FEFF 		bl	RTC_ExitInitMode
 687 00e0 0346     		mov	r3, r0
 688 00e2 FB74     		strb	r3, [r7, #19]
 689              	.L33:
 690 00e4 FB7C     		ldrb	r3, [r7, #19]	@ zero_extendqisi2
 691 00e6 002B     		cmp	r3, #0
 692 00e8 02D1     		bne	.L34
 693 00ea FB68     		ldr	r3, [r7, #12]
 694 00ec 0122     		movs	r2, #1
 695 00ee 5A77     		strb	r2, [r3, #29]
 696              	.L34:
 697 00f0 FB68     		ldr	r3, [r7, #12]
ARM GAS  C:\Users\user\AppData\Local\Temp\ccevxruo.s 			page 13


 698 00f2 1B68     		ldr	r3, [r3]
 699 00f4 FF22     		movs	r2, #255
 700 00f6 5A62     		str	r2, [r3, #36]
 701 00f8 FB68     		ldr	r3, [r7, #12]
 702 00fa 0022     		movs	r2, #0
 703 00fc 1A77     		strb	r2, [r3, #28]
 704 00fe FB7C     		ldrb	r3, [r7, #19]	@ zero_extendqisi2
 705              	.L29:
 706 0100 1846     		mov	r0, r3
 707 0102 1C37     		adds	r7, r7, #28
 708 0104 BD46     		mov	sp, r7
 709              		@ sp needed
 710 0106 90BD     		pop	{r4, r7, pc}
 712              		.section	.text.HAL_RTC_GetDate,"ax",%progbits
 713              		.align	1
 714              		.global	HAL_RTC_GetDate
 715              		.syntax unified
 716              		.thumb
 717              		.thumb_func
 719              	HAL_RTC_GetDate:
 720              		@ args = 0, pretend = 0, frame = 24
 721              		@ frame_needed = 1, uses_anonymous_args = 0
 722 0000 80B5     		push	{r7, lr}
 723 0002 86B0     		sub	sp, sp, #24
 724 0004 00AF     		add	r7, sp, #0
 725 0006 F860     		str	r0, [r7, #12]
 726 0008 B960     		str	r1, [r7, #8]
 727 000a 7A60     		str	r2, [r7, #4]
 728 000c 0023     		movs	r3, #0
 729 000e 7B61     		str	r3, [r7, #20]
 730 0010 FB68     		ldr	r3, [r7, #12]
 731 0012 1B68     		ldr	r3, [r3]
 732 0014 5B68     		ldr	r3, [r3, #4]
 733 0016 23F07F43 		bic	r3, r3, #-16777216
 734 001a 23F0C003 		bic	r3, r3, #192
 735 001e 7B61     		str	r3, [r7, #20]
 736 0020 7B69     		ldr	r3, [r7, #20]
 737 0022 1B0C     		lsrs	r3, r3, #16
 738 0024 DAB2     		uxtb	r2, r3
 739 0026 BB68     		ldr	r3, [r7, #8]
 740 0028 DA70     		strb	r2, [r3, #3]
 741 002a 7B69     		ldr	r3, [r7, #20]
 742 002c 1B0A     		lsrs	r3, r3, #8
 743 002e DBB2     		uxtb	r3, r3
 744 0030 03F01F03 		and	r3, r3, #31
 745 0034 DAB2     		uxtb	r2, r3
 746 0036 BB68     		ldr	r3, [r7, #8]
 747 0038 5A70     		strb	r2, [r3, #1]
 748 003a 7B69     		ldr	r3, [r7, #20]
 749 003c DBB2     		uxtb	r3, r3
 750 003e 03F03F03 		and	r3, r3, #63
 751 0042 DAB2     		uxtb	r2, r3
 752 0044 BB68     		ldr	r3, [r7, #8]
 753 0046 9A70     		strb	r2, [r3, #2]
 754 0048 7B69     		ldr	r3, [r7, #20]
 755 004a 5B0B     		lsrs	r3, r3, #13
 756 004c DBB2     		uxtb	r3, r3
ARM GAS  C:\Users\user\AppData\Local\Temp\ccevxruo.s 			page 14


 757 004e 03F00703 		and	r3, r3, #7
 758 0052 DAB2     		uxtb	r2, r3
 759 0054 BB68     		ldr	r3, [r7, #8]
 760 0056 1A70     		strb	r2, [r3]
 761 0058 7B68     		ldr	r3, [r7, #4]
 762 005a 002B     		cmp	r3, #0
 763 005c 1AD1     		bne	.L36
 764 005e BB68     		ldr	r3, [r7, #8]
 765 0060 DB78     		ldrb	r3, [r3, #3]	@ zero_extendqisi2
 766 0062 1846     		mov	r0, r3
 767 0064 FFF7FEFF 		bl	RTC_Bcd2ToByte
 768 0068 0346     		mov	r3, r0
 769 006a 1A46     		mov	r2, r3
 770 006c BB68     		ldr	r3, [r7, #8]
 771 006e DA70     		strb	r2, [r3, #3]
 772 0070 BB68     		ldr	r3, [r7, #8]
 773 0072 5B78     		ldrb	r3, [r3, #1]	@ zero_extendqisi2
 774 0074 1846     		mov	r0, r3
 775 0076 FFF7FEFF 		bl	RTC_Bcd2ToByte
 776 007a 0346     		mov	r3, r0
 777 007c 1A46     		mov	r2, r3
 778 007e BB68     		ldr	r3, [r7, #8]
 779 0080 5A70     		strb	r2, [r3, #1]
 780 0082 BB68     		ldr	r3, [r7, #8]
 781 0084 9B78     		ldrb	r3, [r3, #2]	@ zero_extendqisi2
 782 0086 1846     		mov	r0, r3
 783 0088 FFF7FEFF 		bl	RTC_Bcd2ToByte
 784 008c 0346     		mov	r3, r0
 785 008e 1A46     		mov	r2, r3
 786 0090 BB68     		ldr	r3, [r7, #8]
 787 0092 9A70     		strb	r2, [r3, #2]
 788              	.L36:
 789 0094 0023     		movs	r3, #0
 790 0096 1846     		mov	r0, r3
 791 0098 1837     		adds	r7, r7, #24
 792 009a BD46     		mov	sp, r7
 793              		@ sp needed
 794 009c 80BD     		pop	{r7, pc}
 796              		.section	.text.HAL_RTC_SetAlarm,"ax",%progbits
 797              		.align	1
 798              		.global	HAL_RTC_SetAlarm
 799              		.syntax unified
 800              		.thumb
 801              		.thumb_func
 803              	HAL_RTC_SetAlarm:
 804              		@ args = 0, pretend = 0, frame = 32
 805              		@ frame_needed = 1, uses_anonymous_args = 0
 806 0000 90B5     		push	{r4, r7, lr}
 807 0002 89B0     		sub	sp, sp, #36
 808 0004 00AF     		add	r7, sp, #0
 809 0006 F860     		str	r0, [r7, #12]
 810 0008 B960     		str	r1, [r7, #8]
 811 000a 7A60     		str	r2, [r7, #4]
 812 000c 0023     		movs	r3, #0
 813 000e BB61     		str	r3, [r7, #24]
 814 0010 0023     		movs	r3, #0
 815 0012 FB61     		str	r3, [r7, #28]
ARM GAS  C:\Users\user\AppData\Local\Temp\ccevxruo.s 			page 15


 816 0014 0023     		movs	r3, #0
 817 0016 7B61     		str	r3, [r7, #20]
 818 0018 FB68     		ldr	r3, [r7, #12]
 819 001a 1B7F     		ldrb	r3, [r3, #28]	@ zero_extendqisi2
 820 001c 012B     		cmp	r3, #1
 821 001e 01D1     		bne	.L39
 822 0020 0223     		movs	r3, #2
 823 0022 13E1     		b	.L40
 824              	.L39:
 825 0024 FB68     		ldr	r3, [r7, #12]
 826 0026 0122     		movs	r2, #1
 827 0028 1A77     		strb	r2, [r3, #28]
 828 002a FB68     		ldr	r3, [r7, #12]
 829 002c 0222     		movs	r2, #2
 830 002e 5A77     		strb	r2, [r3, #29]
 831 0030 7B68     		ldr	r3, [r7, #4]
 832 0032 002B     		cmp	r3, #0
 833 0034 37D1     		bne	.L41
 834 0036 FB68     		ldr	r3, [r7, #12]
 835 0038 1B68     		ldr	r3, [r3]
 836 003a 9B68     		ldr	r3, [r3, #8]
 837 003c 03F04003 		and	r3, r3, #64
 838 0040 002B     		cmp	r3, #0
 839 0042 02D1     		bne	.L42
 840 0044 BB68     		ldr	r3, [r7, #8]
 841 0046 0022     		movs	r2, #0
 842 0048 DA70     		strb	r2, [r3, #3]
 843              	.L42:
 844 004a BB68     		ldr	r3, [r7, #8]
 845 004c 1B78     		ldrb	r3, [r3]	@ zero_extendqisi2
 846 004e 1846     		mov	r0, r3
 847 0050 FFF7FEFF 		bl	RTC_ByteToBcd2
 848 0054 0346     		mov	r3, r0
 849 0056 1C04     		lsls	r4, r3, #16
 850 0058 BB68     		ldr	r3, [r7, #8]
 851 005a 5B78     		ldrb	r3, [r3, #1]	@ zero_extendqisi2
 852 005c 1846     		mov	r0, r3
 853 005e FFF7FEFF 		bl	RTC_ByteToBcd2
 854 0062 0346     		mov	r3, r0
 855 0064 1B02     		lsls	r3, r3, #8
 856 0066 1C43     		orrs	r4, r4, r3
 857 0068 BB68     		ldr	r3, [r7, #8]
 858 006a 9B78     		ldrb	r3, [r3, #2]	@ zero_extendqisi2
 859 006c 1846     		mov	r0, r3
 860 006e FFF7FEFF 		bl	RTC_ByteToBcd2
 861 0072 0346     		mov	r3, r0
 862 0074 44EA0302 		orr	r2, r4, r3
 863 0078 BB68     		ldr	r3, [r7, #8]
 864 007a DB78     		ldrb	r3, [r3, #3]	@ zero_extendqisi2
 865 007c 9B05     		lsls	r3, r3, #22
 866 007e 42EA0304 		orr	r4, r2, r3
 867 0082 BB68     		ldr	r3, [r7, #8]
 868 0084 93F82030 		ldrb	r3, [r3, #32]	@ zero_extendqisi2
 869 0088 1846     		mov	r0, r3
 870 008a FFF7FEFF 		bl	RTC_ByteToBcd2
 871 008e 0346     		mov	r3, r0
 872 0090 1B06     		lsls	r3, r3, #24
ARM GAS  C:\Users\user\AppData\Local\Temp\ccevxruo.s 			page 16


 873 0092 44EA0302 		orr	r2, r4, r3
 874 0096 BB68     		ldr	r3, [r7, #8]
 875 0098 DB69     		ldr	r3, [r3, #28]
 876 009a 1A43     		orrs	r2, r2, r3
 877 009c BB68     		ldr	r3, [r7, #8]
 878 009e 5B69     		ldr	r3, [r3, #20]
 879 00a0 1343     		orrs	r3, r3, r2
 880 00a2 FB61     		str	r3, [r7, #28]
 881 00a4 23E0     		b	.L43
 882              	.L41:
 883 00a6 FB68     		ldr	r3, [r7, #12]
 884 00a8 1B68     		ldr	r3, [r3]
 885 00aa 9B68     		ldr	r3, [r3, #8]
 886 00ac 03F04003 		and	r3, r3, #64
 887 00b0 002B     		cmp	r3, #0
 888 00b2 02D1     		bne	.L44
 889 00b4 BB68     		ldr	r3, [r7, #8]
 890 00b6 0022     		movs	r2, #0
 891 00b8 DA70     		strb	r2, [r3, #3]
 892              	.L44:
 893 00ba BB68     		ldr	r3, [r7, #8]
 894 00bc 1B78     		ldrb	r3, [r3]	@ zero_extendqisi2
 895 00be 1A04     		lsls	r2, r3, #16
 896 00c0 BB68     		ldr	r3, [r7, #8]
 897 00c2 5B78     		ldrb	r3, [r3, #1]	@ zero_extendqisi2
 898 00c4 1B02     		lsls	r3, r3, #8
 899 00c6 1343     		orrs	r3, r3, r2
 900 00c8 BA68     		ldr	r2, [r7, #8]
 901 00ca 9278     		ldrb	r2, [r2, #2]	@ zero_extendqisi2
 902 00cc 1A43     		orrs	r2, r2, r3
 903 00ce BB68     		ldr	r3, [r7, #8]
 904 00d0 DB78     		ldrb	r3, [r3, #3]	@ zero_extendqisi2
 905 00d2 9B05     		lsls	r3, r3, #22
 906 00d4 1A43     		orrs	r2, r2, r3
 907 00d6 BB68     		ldr	r3, [r7, #8]
 908 00d8 93F82030 		ldrb	r3, [r3, #32]	@ zero_extendqisi2
 909 00dc 1B06     		lsls	r3, r3, #24
 910 00de 1A43     		orrs	r2, r2, r3
 911 00e0 BB68     		ldr	r3, [r7, #8]
 912 00e2 DB69     		ldr	r3, [r3, #28]
 913 00e4 1A43     		orrs	r2, r2, r3
 914 00e6 BB68     		ldr	r3, [r7, #8]
 915 00e8 5B69     		ldr	r3, [r3, #20]
 916 00ea 1343     		orrs	r3, r3, r2
 917 00ec FB61     		str	r3, [r7, #28]
 918              	.L43:
 919 00ee BB68     		ldr	r3, [r7, #8]
 920 00f0 5A68     		ldr	r2, [r3, #4]
 921 00f2 BB68     		ldr	r3, [r7, #8]
 922 00f4 9B69     		ldr	r3, [r3, #24]
 923 00f6 1343     		orrs	r3, r3, r2
 924 00f8 7B61     		str	r3, [r7, #20]
 925 00fa FB68     		ldr	r3, [r7, #12]
 926 00fc 1B68     		ldr	r3, [r3]
 927 00fe CA22     		movs	r2, #202
 928 0100 5A62     		str	r2, [r3, #36]
 929 0102 FB68     		ldr	r3, [r7, #12]
ARM GAS  C:\Users\user\AppData\Local\Temp\ccevxruo.s 			page 17


 930 0104 1B68     		ldr	r3, [r3]
 931 0106 5322     		movs	r2, #83
 932 0108 5A62     		str	r2, [r3, #36]
 933 010a BB68     		ldr	r3, [r7, #8]
 934 010c 5B6A     		ldr	r3, [r3, #36]
 935 010e B3F5807F 		cmp	r3, #256
 936 0112 48D1     		bne	.L45
 937 0114 FB68     		ldr	r3, [r7, #12]
 938 0116 1B68     		ldr	r3, [r3]
 939 0118 9A68     		ldr	r2, [r3, #8]
 940 011a FB68     		ldr	r3, [r7, #12]
 941 011c 1B68     		ldr	r3, [r3]
 942 011e 22F48072 		bic	r2, r2, #256
 943 0122 9A60     		str	r2, [r3, #8]
 944 0124 FB68     		ldr	r3, [r7, #12]
 945 0126 1B68     		ldr	r3, [r3]
 946 0128 9A68     		ldr	r2, [r3, #8]
 947 012a FB68     		ldr	r3, [r7, #12]
 948 012c 1B68     		ldr	r3, [r3]
 949 012e 22F48052 		bic	r2, r2, #4096
 950 0132 9A60     		str	r2, [r3, #8]
 951 0134 FB68     		ldr	r3, [r7, #12]
 952 0136 1B68     		ldr	r3, [r3]
 953 0138 DB68     		ldr	r3, [r3, #12]
 954 013a DAB2     		uxtb	r2, r3
 955 013c FB68     		ldr	r3, [r7, #12]
 956 013e 1B68     		ldr	r3, [r3]
 957 0140 62F4C072 		orn	r2, r2, #384
 958 0144 DA60     		str	r2, [r3, #12]
 959 0146 FFF7FEFF 		bl	HAL_GetTick
 960 014a B861     		str	r0, [r7, #24]
 961 014c 13E0     		b	.L46
 962              	.L47:
 963 014e FFF7FEFF 		bl	HAL_GetTick
 964 0152 0246     		mov	r2, r0
 965 0154 BB69     		ldr	r3, [r7, #24]
 966 0156 D31A     		subs	r3, r2, r3
 967 0158 B3F57A7F 		cmp	r3, #1000
 968 015c 0BD9     		bls	.L46
 969 015e FB68     		ldr	r3, [r7, #12]
 970 0160 1B68     		ldr	r3, [r3]
 971 0162 FF22     		movs	r2, #255
 972 0164 5A62     		str	r2, [r3, #36]
 973 0166 FB68     		ldr	r3, [r7, #12]
 974 0168 0322     		movs	r2, #3
 975 016a 5A77     		strb	r2, [r3, #29]
 976 016c FB68     		ldr	r3, [r7, #12]
 977 016e 0022     		movs	r2, #0
 978 0170 1A77     		strb	r2, [r3, #28]
 979 0172 0323     		movs	r3, #3
 980 0174 6AE0     		b	.L40
 981              	.L46:
 982 0176 FB68     		ldr	r3, [r7, #12]
 983 0178 1B68     		ldr	r3, [r3]
 984 017a DB68     		ldr	r3, [r3, #12]
 985 017c 03F00103 		and	r3, r3, #1
 986 0180 002B     		cmp	r3, #0
ARM GAS  C:\Users\user\AppData\Local\Temp\ccevxruo.s 			page 18


 987 0182 E4D0     		beq	.L47
 988 0184 FB68     		ldr	r3, [r7, #12]
 989 0186 1B68     		ldr	r3, [r3]
 990 0188 FA69     		ldr	r2, [r7, #28]
 991 018a DA61     		str	r2, [r3, #28]
 992 018c FB68     		ldr	r3, [r7, #12]
 993 018e 1B68     		ldr	r3, [r3]
 994 0190 7A69     		ldr	r2, [r7, #20]
 995 0192 5A64     		str	r2, [r3, #68]
 996 0194 FB68     		ldr	r3, [r7, #12]
 997 0196 1B68     		ldr	r3, [r3]
 998 0198 9A68     		ldr	r2, [r3, #8]
 999 019a FB68     		ldr	r3, [r7, #12]
 1000 019c 1B68     		ldr	r3, [r3]
 1001 019e 42F48072 		orr	r2, r2, #256
 1002 01a2 9A60     		str	r2, [r3, #8]
 1003 01a4 47E0     		b	.L48
 1004              	.L45:
 1005 01a6 FB68     		ldr	r3, [r7, #12]
 1006 01a8 1B68     		ldr	r3, [r3]
 1007 01aa 9A68     		ldr	r2, [r3, #8]
 1008 01ac FB68     		ldr	r3, [r7, #12]
 1009 01ae 1B68     		ldr	r3, [r3]
 1010 01b0 22F40072 		bic	r2, r2, #512
 1011 01b4 9A60     		str	r2, [r3, #8]
 1012 01b6 FB68     		ldr	r3, [r7, #12]
 1013 01b8 1B68     		ldr	r3, [r3]
 1014 01ba 9A68     		ldr	r2, [r3, #8]
 1015 01bc FB68     		ldr	r3, [r7, #12]
 1016 01be 1B68     		ldr	r3, [r3]
 1017 01c0 22F40052 		bic	r2, r2, #8192
 1018 01c4 9A60     		str	r2, [r3, #8]
 1019 01c6 FB68     		ldr	r3, [r7, #12]
 1020 01c8 1B68     		ldr	r3, [r3]
 1021 01ca DB68     		ldr	r3, [r3, #12]
 1022 01cc DAB2     		uxtb	r2, r3
 1023 01ce FB68     		ldr	r3, [r7, #12]
 1024 01d0 1B68     		ldr	r3, [r3]
 1025 01d2 62F42072 		orn	r2, r2, #640
 1026 01d6 DA60     		str	r2, [r3, #12]
 1027 01d8 FFF7FEFF 		bl	HAL_GetTick
 1028 01dc B861     		str	r0, [r7, #24]
 1029 01de 13E0     		b	.L49
 1030              	.L50:
 1031 01e0 FFF7FEFF 		bl	HAL_GetTick
 1032 01e4 0246     		mov	r2, r0
 1033 01e6 BB69     		ldr	r3, [r7, #24]
 1034 01e8 D31A     		subs	r3, r2, r3
 1035 01ea B3F57A7F 		cmp	r3, #1000
 1036 01ee 0BD9     		bls	.L49
 1037 01f0 FB68     		ldr	r3, [r7, #12]
 1038 01f2 1B68     		ldr	r3, [r3]
 1039 01f4 FF22     		movs	r2, #255
 1040 01f6 5A62     		str	r2, [r3, #36]
 1041 01f8 FB68     		ldr	r3, [r7, #12]
 1042 01fa 0322     		movs	r2, #3
 1043 01fc 5A77     		strb	r2, [r3, #29]
ARM GAS  C:\Users\user\AppData\Local\Temp\ccevxruo.s 			page 19


 1044 01fe FB68     		ldr	r3, [r7, #12]
 1045 0200 0022     		movs	r2, #0
 1046 0202 1A77     		strb	r2, [r3, #28]
 1047 0204 0323     		movs	r3, #3
 1048 0206 21E0     		b	.L40
 1049              	.L49:
 1050 0208 FB68     		ldr	r3, [r7, #12]
 1051 020a 1B68     		ldr	r3, [r3]
 1052 020c DB68     		ldr	r3, [r3, #12]
 1053 020e 03F00203 		and	r3, r3, #2
 1054 0212 002B     		cmp	r3, #0
 1055 0214 E4D0     		beq	.L50
 1056 0216 FB68     		ldr	r3, [r7, #12]
 1057 0218 1B68     		ldr	r3, [r3]
 1058 021a FA69     		ldr	r2, [r7, #28]
 1059 021c 1A62     		str	r2, [r3, #32]
 1060 021e FB68     		ldr	r3, [r7, #12]
 1061 0220 1B68     		ldr	r3, [r3]
 1062 0222 7A69     		ldr	r2, [r7, #20]
 1063 0224 9A64     		str	r2, [r3, #72]
 1064 0226 FB68     		ldr	r3, [r7, #12]
 1065 0228 1B68     		ldr	r3, [r3]
 1066 022a 9A68     		ldr	r2, [r3, #8]
 1067 022c FB68     		ldr	r3, [r7, #12]
 1068 022e 1B68     		ldr	r3, [r3]
 1069 0230 42F40072 		orr	r2, r2, #512
 1070 0234 9A60     		str	r2, [r3, #8]
 1071              	.L48:
 1072 0236 FB68     		ldr	r3, [r7, #12]
 1073 0238 1B68     		ldr	r3, [r3]
 1074 023a FF22     		movs	r2, #255
 1075 023c 5A62     		str	r2, [r3, #36]
 1076 023e FB68     		ldr	r3, [r7, #12]
 1077 0240 0122     		movs	r2, #1
 1078 0242 5A77     		strb	r2, [r3, #29]
 1079 0244 FB68     		ldr	r3, [r7, #12]
 1080 0246 0022     		movs	r2, #0
 1081 0248 1A77     		strb	r2, [r3, #28]
 1082 024a 0023     		movs	r3, #0
 1083              	.L40:
 1084 024c 1846     		mov	r0, r3
 1085 024e 2437     		adds	r7, r7, #36
 1086 0250 BD46     		mov	sp, r7
 1087              		@ sp needed
 1088 0252 90BD     		pop	{r4, r7, pc}
 1090              		.section	.text.HAL_RTC_SetAlarm_IT,"ax",%progbits
 1091              		.align	1
 1092              		.global	HAL_RTC_SetAlarm_IT
 1093              		.syntax unified
 1094              		.thumb
 1095              		.thumb_func
 1097              	HAL_RTC_SetAlarm_IT:
 1098              		@ args = 0, pretend = 0, frame = 32
 1099              		@ frame_needed = 1, uses_anonymous_args = 0
 1100 0000 90B5     		push	{r4, r7, lr}
 1101 0002 89B0     		sub	sp, sp, #36
 1102 0004 00AF     		add	r7, sp, #0
ARM GAS  C:\Users\user\AppData\Local\Temp\ccevxruo.s 			page 20


 1103 0006 F860     		str	r0, [r7, #12]
 1104 0008 B960     		str	r1, [r7, #8]
 1105 000a 7A60     		str	r2, [r7, #4]
 1106 000c 9A4B     		ldr	r3, .L64
 1107 000e 1B68     		ldr	r3, [r3]
 1108 0010 9A4A     		ldr	r2, .L64+4
 1109 0012 A2FB0323 		umull	r2, r3, r2, r3
 1110 0016 DB0A     		lsrs	r3, r3, #11
 1111 0018 4FF47A72 		mov	r2, #1000
 1112 001c 02FB03F3 		mul	r3, r2, r3
 1113 0020 7B61     		str	r3, [r7, #20]
 1114 0022 0023     		movs	r3, #0
 1115 0024 FB61     		str	r3, [r7, #28]
 1116 0026 0023     		movs	r3, #0
 1117 0028 BB61     		str	r3, [r7, #24]
 1118 002a FB68     		ldr	r3, [r7, #12]
 1119 002c 1B7F     		ldrb	r3, [r3, #28]	@ zero_extendqisi2
 1120 002e 012B     		cmp	r3, #1
 1121 0030 01D1     		bne	.L52
 1122 0032 0223     		movs	r3, #2
 1123 0034 1CE1     		b	.L53
 1124              	.L52:
 1125 0036 FB68     		ldr	r3, [r7, #12]
 1126 0038 0122     		movs	r2, #1
 1127 003a 1A77     		strb	r2, [r3, #28]
 1128 003c FB68     		ldr	r3, [r7, #12]
 1129 003e 0222     		movs	r2, #2
 1130 0040 5A77     		strb	r2, [r3, #29]
 1131 0042 7B68     		ldr	r3, [r7, #4]
 1132 0044 002B     		cmp	r3, #0
 1133 0046 37D1     		bne	.L54
 1134 0048 FB68     		ldr	r3, [r7, #12]
 1135 004a 1B68     		ldr	r3, [r3]
 1136 004c 9B68     		ldr	r3, [r3, #8]
 1137 004e 03F04003 		and	r3, r3, #64
 1138 0052 002B     		cmp	r3, #0
 1139 0054 02D1     		bne	.L55
 1140 0056 BB68     		ldr	r3, [r7, #8]
 1141 0058 0022     		movs	r2, #0
 1142 005a DA70     		strb	r2, [r3, #3]
 1143              	.L55:
 1144 005c BB68     		ldr	r3, [r7, #8]
 1145 005e 1B78     		ldrb	r3, [r3]	@ zero_extendqisi2
 1146 0060 1846     		mov	r0, r3
 1147 0062 FFF7FEFF 		bl	RTC_ByteToBcd2
 1148 0066 0346     		mov	r3, r0
 1149 0068 1C04     		lsls	r4, r3, #16
 1150 006a BB68     		ldr	r3, [r7, #8]
 1151 006c 5B78     		ldrb	r3, [r3, #1]	@ zero_extendqisi2
 1152 006e 1846     		mov	r0, r3
 1153 0070 FFF7FEFF 		bl	RTC_ByteToBcd2
 1154 0074 0346     		mov	r3, r0
 1155 0076 1B02     		lsls	r3, r3, #8
 1156 0078 1C43     		orrs	r4, r4, r3
 1157 007a BB68     		ldr	r3, [r7, #8]
 1158 007c 9B78     		ldrb	r3, [r3, #2]	@ zero_extendqisi2
 1159 007e 1846     		mov	r0, r3
ARM GAS  C:\Users\user\AppData\Local\Temp\ccevxruo.s 			page 21


 1160 0080 FFF7FEFF 		bl	RTC_ByteToBcd2
 1161 0084 0346     		mov	r3, r0
 1162 0086 44EA0302 		orr	r2, r4, r3
 1163 008a BB68     		ldr	r3, [r7, #8]
 1164 008c DB78     		ldrb	r3, [r3, #3]	@ zero_extendqisi2
 1165 008e 9B05     		lsls	r3, r3, #22
 1166 0090 42EA0304 		orr	r4, r2, r3
 1167 0094 BB68     		ldr	r3, [r7, #8]
 1168 0096 93F82030 		ldrb	r3, [r3, #32]	@ zero_extendqisi2
 1169 009a 1846     		mov	r0, r3
 1170 009c FFF7FEFF 		bl	RTC_ByteToBcd2
 1171 00a0 0346     		mov	r3, r0
 1172 00a2 1B06     		lsls	r3, r3, #24
 1173 00a4 44EA0302 		orr	r2, r4, r3
 1174 00a8 BB68     		ldr	r3, [r7, #8]
 1175 00aa DB69     		ldr	r3, [r3, #28]
 1176 00ac 1A43     		orrs	r2, r2, r3
 1177 00ae BB68     		ldr	r3, [r7, #8]
 1178 00b0 5B69     		ldr	r3, [r3, #20]
 1179 00b2 1343     		orrs	r3, r3, r2
 1180 00b4 FB61     		str	r3, [r7, #28]
 1181 00b6 23E0     		b	.L56
 1182              	.L54:
 1183 00b8 FB68     		ldr	r3, [r7, #12]
 1184 00ba 1B68     		ldr	r3, [r3]
 1185 00bc 9B68     		ldr	r3, [r3, #8]
 1186 00be 03F04003 		and	r3, r3, #64
 1187 00c2 002B     		cmp	r3, #0
 1188 00c4 02D1     		bne	.L57
 1189 00c6 BB68     		ldr	r3, [r7, #8]
 1190 00c8 0022     		movs	r2, #0
 1191 00ca DA70     		strb	r2, [r3, #3]
 1192              	.L57:
 1193 00cc BB68     		ldr	r3, [r7, #8]
 1194 00ce 1B78     		ldrb	r3, [r3]	@ zero_extendqisi2
 1195 00d0 1A04     		lsls	r2, r3, #16
 1196 00d2 BB68     		ldr	r3, [r7, #8]
 1197 00d4 5B78     		ldrb	r3, [r3, #1]	@ zero_extendqisi2
 1198 00d6 1B02     		lsls	r3, r3, #8
 1199 00d8 1343     		orrs	r3, r3, r2
 1200 00da BA68     		ldr	r2, [r7, #8]
 1201 00dc 9278     		ldrb	r2, [r2, #2]	@ zero_extendqisi2
 1202 00de 1A43     		orrs	r2, r2, r3
 1203 00e0 BB68     		ldr	r3, [r7, #8]
 1204 00e2 DB78     		ldrb	r3, [r3, #3]	@ zero_extendqisi2
 1205 00e4 9B05     		lsls	r3, r3, #22
 1206 00e6 1A43     		orrs	r2, r2, r3
 1207 00e8 BB68     		ldr	r3, [r7, #8]
 1208 00ea 93F82030 		ldrb	r3, [r3, #32]	@ zero_extendqisi2
 1209 00ee 1B06     		lsls	r3, r3, #24
 1210 00f0 1A43     		orrs	r2, r2, r3
 1211 00f2 BB68     		ldr	r3, [r7, #8]
 1212 00f4 DB69     		ldr	r3, [r3, #28]
 1213 00f6 1A43     		orrs	r2, r2, r3
 1214 00f8 BB68     		ldr	r3, [r7, #8]
 1215 00fa 5B69     		ldr	r3, [r3, #20]
 1216 00fc 1343     		orrs	r3, r3, r2
ARM GAS  C:\Users\user\AppData\Local\Temp\ccevxruo.s 			page 22


 1217 00fe FB61     		str	r3, [r7, #28]
 1218              	.L56:
 1219 0100 BB68     		ldr	r3, [r7, #8]
 1220 0102 5A68     		ldr	r2, [r3, #4]
 1221 0104 BB68     		ldr	r3, [r7, #8]
 1222 0106 9B69     		ldr	r3, [r3, #24]
 1223 0108 1343     		orrs	r3, r3, r2
 1224 010a BB61     		str	r3, [r7, #24]
 1225 010c FB68     		ldr	r3, [r7, #12]
 1226 010e 1B68     		ldr	r3, [r3]
 1227 0110 CA22     		movs	r2, #202
 1228 0112 5A62     		str	r2, [r3, #36]
 1229 0114 FB68     		ldr	r3, [r7, #12]
 1230 0116 1B68     		ldr	r3, [r3]
 1231 0118 5322     		movs	r2, #83
 1232 011a 5A62     		str	r2, [r3, #36]
 1233 011c BB68     		ldr	r3, [r7, #8]
 1234 011e 5B6A     		ldr	r3, [r3, #36]
 1235 0120 B3F5807F 		cmp	r3, #256
 1236 0124 41D1     		bne	.L58
 1237 0126 FB68     		ldr	r3, [r7, #12]
 1238 0128 1B68     		ldr	r3, [r3]
 1239 012a 9A68     		ldr	r2, [r3, #8]
 1240 012c FB68     		ldr	r3, [r7, #12]
 1241 012e 1B68     		ldr	r3, [r3]
 1242 0130 22F48072 		bic	r2, r2, #256
 1243 0134 9A60     		str	r2, [r3, #8]
 1244 0136 FB68     		ldr	r3, [r7, #12]
 1245 0138 1B68     		ldr	r3, [r3]
 1246 013a DB68     		ldr	r3, [r3, #12]
 1247 013c DAB2     		uxtb	r2, r3
 1248 013e FB68     		ldr	r3, [r7, #12]
 1249 0140 1B68     		ldr	r3, [r3]
 1250 0142 62F4C072 		orn	r2, r2, #384
 1251 0146 DA60     		str	r2, [r3, #12]
 1252              	.L60:
 1253 0148 7B69     		ldr	r3, [r7, #20]
 1254 014a 5A1E     		subs	r2, r3, #1
 1255 014c 7A61     		str	r2, [r7, #20]
 1256 014e 002B     		cmp	r3, #0
 1257 0150 0BD1     		bne	.L59
 1258 0152 FB68     		ldr	r3, [r7, #12]
 1259 0154 1B68     		ldr	r3, [r3]
 1260 0156 FF22     		movs	r2, #255
 1261 0158 5A62     		str	r2, [r3, #36]
 1262 015a FB68     		ldr	r3, [r7, #12]
 1263 015c 0322     		movs	r2, #3
 1264 015e 5A77     		strb	r2, [r3, #29]
 1265 0160 FB68     		ldr	r3, [r7, #12]
 1266 0162 0022     		movs	r2, #0
 1267 0164 1A77     		strb	r2, [r3, #28]
 1268 0166 0323     		movs	r3, #3
 1269 0168 82E0     		b	.L53
 1270              	.L59:
 1271 016a FB68     		ldr	r3, [r7, #12]
 1272 016c 1B68     		ldr	r3, [r3]
 1273 016e DB68     		ldr	r3, [r3, #12]
ARM GAS  C:\Users\user\AppData\Local\Temp\ccevxruo.s 			page 23


 1274 0170 03F00103 		and	r3, r3, #1
 1275 0174 002B     		cmp	r3, #0
 1276 0176 E7D0     		beq	.L60
 1277 0178 FB68     		ldr	r3, [r7, #12]
 1278 017a 1B68     		ldr	r3, [r3]
 1279 017c FA69     		ldr	r2, [r7, #28]
 1280 017e DA61     		str	r2, [r3, #28]
 1281 0180 FB68     		ldr	r3, [r7, #12]
 1282 0182 1B68     		ldr	r3, [r3]
 1283 0184 BA69     		ldr	r2, [r7, #24]
 1284 0186 5A64     		str	r2, [r3, #68]
 1285 0188 FB68     		ldr	r3, [r7, #12]
 1286 018a 1B68     		ldr	r3, [r3]
 1287 018c 9A68     		ldr	r2, [r3, #8]
 1288 018e FB68     		ldr	r3, [r7, #12]
 1289 0190 1B68     		ldr	r3, [r3]
 1290 0192 42F48072 		orr	r2, r2, #256
 1291 0196 9A60     		str	r2, [r3, #8]
 1292 0198 FB68     		ldr	r3, [r7, #12]
 1293 019a 1B68     		ldr	r3, [r3]
 1294 019c 9A68     		ldr	r2, [r3, #8]
 1295 019e FB68     		ldr	r3, [r7, #12]
 1296 01a0 1B68     		ldr	r3, [r3]
 1297 01a2 42F48052 		orr	r2, r2, #4096
 1298 01a6 9A60     		str	r2, [r3, #8]
 1299 01a8 4BE0     		b	.L61
 1300              	.L58:
 1301 01aa FB68     		ldr	r3, [r7, #12]
 1302 01ac 1B68     		ldr	r3, [r3]
 1303 01ae 9A68     		ldr	r2, [r3, #8]
 1304 01b0 FB68     		ldr	r3, [r7, #12]
 1305 01b2 1B68     		ldr	r3, [r3]
 1306 01b4 22F40072 		bic	r2, r2, #512
 1307 01b8 9A60     		str	r2, [r3, #8]
 1308 01ba FB68     		ldr	r3, [r7, #12]
 1309 01bc 1B68     		ldr	r3, [r3]
 1310 01be DB68     		ldr	r3, [r3, #12]
 1311 01c0 DAB2     		uxtb	r2, r3
 1312 01c2 FB68     		ldr	r3, [r7, #12]
 1313 01c4 1B68     		ldr	r3, [r3]
 1314 01c6 62F42072 		orn	r2, r2, #640
 1315 01ca DA60     		str	r2, [r3, #12]
 1316 01cc 2A4B     		ldr	r3, .L64
 1317 01ce 1B68     		ldr	r3, [r3]
 1318 01d0 2A4A     		ldr	r2, .L64+4
 1319 01d2 A2FB0323 		umull	r2, r3, r2, r3
 1320 01d6 DB0A     		lsrs	r3, r3, #11
 1321 01d8 4FF47A72 		mov	r2, #1000
 1322 01dc 02FB03F3 		mul	r3, r2, r3
 1323 01e0 7B61     		str	r3, [r7, #20]
 1324              	.L63:
 1325 01e2 7B69     		ldr	r3, [r7, #20]
 1326 01e4 5A1E     		subs	r2, r3, #1
 1327 01e6 7A61     		str	r2, [r7, #20]
 1328 01e8 002B     		cmp	r3, #0
 1329 01ea 0BD1     		bne	.L62
 1330 01ec FB68     		ldr	r3, [r7, #12]
ARM GAS  C:\Users\user\AppData\Local\Temp\ccevxruo.s 			page 24


 1331 01ee 1B68     		ldr	r3, [r3]
 1332 01f0 FF22     		movs	r2, #255
 1333 01f2 5A62     		str	r2, [r3, #36]
 1334 01f4 FB68     		ldr	r3, [r7, #12]
 1335 01f6 0322     		movs	r2, #3
 1336 01f8 5A77     		strb	r2, [r3, #29]
 1337 01fa FB68     		ldr	r3, [r7, #12]
 1338 01fc 0022     		movs	r2, #0
 1339 01fe 1A77     		strb	r2, [r3, #28]
 1340 0200 0323     		movs	r3, #3
 1341 0202 35E0     		b	.L53
 1342              	.L62:
 1343 0204 FB68     		ldr	r3, [r7, #12]
 1344 0206 1B68     		ldr	r3, [r3]
 1345 0208 DB68     		ldr	r3, [r3, #12]
 1346 020a 03F00203 		and	r3, r3, #2
 1347 020e 002B     		cmp	r3, #0
 1348 0210 E7D0     		beq	.L63
 1349 0212 FB68     		ldr	r3, [r7, #12]
 1350 0214 1B68     		ldr	r3, [r3]
 1351 0216 FA69     		ldr	r2, [r7, #28]
 1352 0218 1A62     		str	r2, [r3, #32]
 1353 021a FB68     		ldr	r3, [r7, #12]
 1354 021c 1B68     		ldr	r3, [r3]
 1355 021e BA69     		ldr	r2, [r7, #24]
 1356 0220 9A64     		str	r2, [r3, #72]
 1357 0222 FB68     		ldr	r3, [r7, #12]
 1358 0224 1B68     		ldr	r3, [r3]
 1359 0226 9A68     		ldr	r2, [r3, #8]
 1360 0228 FB68     		ldr	r3, [r7, #12]
 1361 022a 1B68     		ldr	r3, [r3]
 1362 022c 42F40072 		orr	r2, r2, #512
 1363 0230 9A60     		str	r2, [r3, #8]
 1364 0232 FB68     		ldr	r3, [r7, #12]
 1365 0234 1B68     		ldr	r3, [r3]
 1366 0236 9A68     		ldr	r2, [r3, #8]
 1367 0238 FB68     		ldr	r3, [r7, #12]
 1368 023a 1B68     		ldr	r3, [r3]
 1369 023c 42F40052 		orr	r2, r2, #8192
 1370 0240 9A60     		str	r2, [r3, #8]
 1371              	.L61:
 1372 0242 0F4B     		ldr	r3, .L64+8
 1373 0244 1B68     		ldr	r3, [r3]
 1374 0246 0E4A     		ldr	r2, .L64+8
 1375 0248 43F40033 		orr	r3, r3, #131072
 1376 024c 1360     		str	r3, [r2]
 1377 024e 0C4B     		ldr	r3, .L64+8
 1378 0250 9B68     		ldr	r3, [r3, #8]
 1379 0252 0B4A     		ldr	r2, .L64+8
 1380 0254 43F40033 		orr	r3, r3, #131072
 1381 0258 9360     		str	r3, [r2, #8]
 1382 025a FB68     		ldr	r3, [r7, #12]
 1383 025c 1B68     		ldr	r3, [r3]
 1384 025e FF22     		movs	r2, #255
 1385 0260 5A62     		str	r2, [r3, #36]
 1386 0262 FB68     		ldr	r3, [r7, #12]
 1387 0264 0122     		movs	r2, #1
ARM GAS  C:\Users\user\AppData\Local\Temp\ccevxruo.s 			page 25


 1388 0266 5A77     		strb	r2, [r3, #29]
 1389 0268 FB68     		ldr	r3, [r7, #12]
 1390 026a 0022     		movs	r2, #0
 1391 026c 1A77     		strb	r2, [r3, #28]
 1392 026e 0023     		movs	r3, #0
 1393              	.L53:
 1394 0270 1846     		mov	r0, r3
 1395 0272 2437     		adds	r7, r7, #36
 1396 0274 BD46     		mov	sp, r7
 1397              		@ sp needed
 1398 0276 90BD     		pop	{r4, r7, pc}
 1399              	.L65:
 1400              		.align	2
 1401              	.L64:
 1402 0278 00000000 		.word	SystemCoreClock
 1403 027c D34D6210 		.word	274877907
 1404 0280 003C0140 		.word	1073822720
 1406              		.section	.text.HAL_RTC_DeactivateAlarm,"ax",%progbits
 1407              		.align	1
 1408              		.global	HAL_RTC_DeactivateAlarm
 1409              		.syntax unified
 1410              		.thumb
 1411              		.thumb_func
 1413              	HAL_RTC_DeactivateAlarm:
 1414              		@ args = 0, pretend = 0, frame = 16
 1415              		@ frame_needed = 1, uses_anonymous_args = 0
 1416 0000 80B5     		push	{r7, lr}
 1417 0002 84B0     		sub	sp, sp, #16
 1418 0004 00AF     		add	r7, sp, #0
 1419 0006 7860     		str	r0, [r7, #4]
 1420 0008 3960     		str	r1, [r7]
 1421 000a 0023     		movs	r3, #0
 1422 000c FB60     		str	r3, [r7, #12]
 1423 000e 7B68     		ldr	r3, [r7, #4]
 1424 0010 1B7F     		ldrb	r3, [r3, #28]	@ zero_extendqisi2
 1425 0012 012B     		cmp	r3, #1
 1426 0014 01D1     		bne	.L67
 1427 0016 0223     		movs	r3, #2
 1428 0018 7BE0     		b	.L68
 1429              	.L67:
 1430 001a 7B68     		ldr	r3, [r7, #4]
 1431 001c 0122     		movs	r2, #1
 1432 001e 1A77     		strb	r2, [r3, #28]
 1433 0020 7B68     		ldr	r3, [r7, #4]
 1434 0022 0222     		movs	r2, #2
 1435 0024 5A77     		strb	r2, [r3, #29]
 1436 0026 7B68     		ldr	r3, [r7, #4]
 1437 0028 1B68     		ldr	r3, [r3]
 1438 002a CA22     		movs	r2, #202
 1439 002c 5A62     		str	r2, [r3, #36]
 1440 002e 7B68     		ldr	r3, [r7, #4]
 1441 0030 1B68     		ldr	r3, [r3]
 1442 0032 5322     		movs	r2, #83
 1443 0034 5A62     		str	r2, [r3, #36]
 1444 0036 3B68     		ldr	r3, [r7]
 1445 0038 B3F5807F 		cmp	r3, #256
 1446 003c 2FD1     		bne	.L69
ARM GAS  C:\Users\user\AppData\Local\Temp\ccevxruo.s 			page 26


 1447 003e 7B68     		ldr	r3, [r7, #4]
 1448 0040 1B68     		ldr	r3, [r3]
 1449 0042 9A68     		ldr	r2, [r3, #8]
 1450 0044 7B68     		ldr	r3, [r7, #4]
 1451 0046 1B68     		ldr	r3, [r3]
 1452 0048 22F48072 		bic	r2, r2, #256
 1453 004c 9A60     		str	r2, [r3, #8]
 1454 004e 7B68     		ldr	r3, [r7, #4]
 1455 0050 1B68     		ldr	r3, [r3]
 1456 0052 9A68     		ldr	r2, [r3, #8]
 1457 0054 7B68     		ldr	r3, [r7, #4]
 1458 0056 1B68     		ldr	r3, [r3]
 1459 0058 22F48052 		bic	r2, r2, #4096
 1460 005c 9A60     		str	r2, [r3, #8]
 1461 005e FFF7FEFF 		bl	HAL_GetTick
 1462 0062 F860     		str	r0, [r7, #12]
 1463 0064 13E0     		b	.L70
 1464              	.L71:
 1465 0066 FFF7FEFF 		bl	HAL_GetTick
 1466 006a 0246     		mov	r2, r0
 1467 006c FB68     		ldr	r3, [r7, #12]
 1468 006e D31A     		subs	r3, r2, r3
 1469 0070 B3F57A7F 		cmp	r3, #1000
 1470 0074 0BD9     		bls	.L70
 1471 0076 7B68     		ldr	r3, [r7, #4]
 1472 0078 1B68     		ldr	r3, [r3]
 1473 007a FF22     		movs	r2, #255
 1474 007c 5A62     		str	r2, [r3, #36]
 1475 007e 7B68     		ldr	r3, [r7, #4]
 1476 0080 0322     		movs	r2, #3
 1477 0082 5A77     		strb	r2, [r3, #29]
 1478 0084 7B68     		ldr	r3, [r7, #4]
 1479 0086 0022     		movs	r2, #0
 1480 0088 1A77     		strb	r2, [r3, #28]
 1481 008a 0323     		movs	r3, #3
 1482 008c 41E0     		b	.L68
 1483              	.L70:
 1484 008e 7B68     		ldr	r3, [r7, #4]
 1485 0090 1B68     		ldr	r3, [r3]
 1486 0092 DB68     		ldr	r3, [r3, #12]
 1487 0094 03F00103 		and	r3, r3, #1
 1488 0098 002B     		cmp	r3, #0
 1489 009a E4D0     		beq	.L71
 1490 009c 2EE0     		b	.L72
 1491              	.L69:
 1492 009e 7B68     		ldr	r3, [r7, #4]
 1493 00a0 1B68     		ldr	r3, [r3]
 1494 00a2 9A68     		ldr	r2, [r3, #8]
 1495 00a4 7B68     		ldr	r3, [r7, #4]
 1496 00a6 1B68     		ldr	r3, [r3]
 1497 00a8 22F40072 		bic	r2, r2, #512
 1498 00ac 9A60     		str	r2, [r3, #8]
 1499 00ae 7B68     		ldr	r3, [r7, #4]
 1500 00b0 1B68     		ldr	r3, [r3]
 1501 00b2 9A68     		ldr	r2, [r3, #8]
 1502 00b4 7B68     		ldr	r3, [r7, #4]
 1503 00b6 1B68     		ldr	r3, [r3]
ARM GAS  C:\Users\user\AppData\Local\Temp\ccevxruo.s 			page 27


 1504 00b8 22F40052 		bic	r2, r2, #8192
 1505 00bc 9A60     		str	r2, [r3, #8]
 1506 00be FFF7FEFF 		bl	HAL_GetTick
 1507 00c2 F860     		str	r0, [r7, #12]
 1508 00c4 13E0     		b	.L73
 1509              	.L74:
 1510 00c6 FFF7FEFF 		bl	HAL_GetTick
 1511 00ca 0246     		mov	r2, r0
 1512 00cc FB68     		ldr	r3, [r7, #12]
 1513 00ce D31A     		subs	r3, r2, r3
 1514 00d0 B3F57A7F 		cmp	r3, #1000
 1515 00d4 0BD9     		bls	.L73
 1516 00d6 7B68     		ldr	r3, [r7, #4]
 1517 00d8 1B68     		ldr	r3, [r3]
 1518 00da FF22     		movs	r2, #255
 1519 00dc 5A62     		str	r2, [r3, #36]
 1520 00de 7B68     		ldr	r3, [r7, #4]
 1521 00e0 0322     		movs	r2, #3
 1522 00e2 5A77     		strb	r2, [r3, #29]
 1523 00e4 7B68     		ldr	r3, [r7, #4]
 1524 00e6 0022     		movs	r2, #0
 1525 00e8 1A77     		strb	r2, [r3, #28]
 1526 00ea 0323     		movs	r3, #3
 1527 00ec 11E0     		b	.L68
 1528              	.L73:
 1529 00ee 7B68     		ldr	r3, [r7, #4]
 1530 00f0 1B68     		ldr	r3, [r3]
 1531 00f2 DB68     		ldr	r3, [r3, #12]
 1532 00f4 03F00203 		and	r3, r3, #2
 1533 00f8 002B     		cmp	r3, #0
 1534 00fa E4D0     		beq	.L74
 1535              	.L72:
 1536 00fc 7B68     		ldr	r3, [r7, #4]
 1537 00fe 1B68     		ldr	r3, [r3]
 1538 0100 FF22     		movs	r2, #255
 1539 0102 5A62     		str	r2, [r3, #36]
 1540 0104 7B68     		ldr	r3, [r7, #4]
 1541 0106 0122     		movs	r2, #1
 1542 0108 5A77     		strb	r2, [r3, #29]
 1543 010a 7B68     		ldr	r3, [r7, #4]
 1544 010c 0022     		movs	r2, #0
 1545 010e 1A77     		strb	r2, [r3, #28]
 1546 0110 0023     		movs	r3, #0
 1547              	.L68:
 1548 0112 1846     		mov	r0, r3
 1549 0114 1037     		adds	r7, r7, #16
 1550 0116 BD46     		mov	sp, r7
 1551              		@ sp needed
 1552 0118 80BD     		pop	{r7, pc}
 1554              		.section	.text.HAL_RTC_GetAlarm,"ax",%progbits
 1555              		.align	1
 1556              		.global	HAL_RTC_GetAlarm
 1557              		.syntax unified
 1558              		.thumb
 1559              		.thumb_func
 1561              	HAL_RTC_GetAlarm:
 1562              		@ args = 0, pretend = 0, frame = 24
ARM GAS  C:\Users\user\AppData\Local\Temp\ccevxruo.s 			page 28


 1563              		@ frame_needed = 1, uses_anonymous_args = 0
 1564 0000 80B5     		push	{r7, lr}
 1565 0002 86B0     		sub	sp, sp, #24
 1566 0004 00AF     		add	r7, sp, #0
 1567 0006 F860     		str	r0, [r7, #12]
 1568 0008 B960     		str	r1, [r7, #8]
 1569 000a 7A60     		str	r2, [r7, #4]
 1570 000c 3B60     		str	r3, [r7]
 1571 000e 0023     		movs	r3, #0
 1572 0010 7B61     		str	r3, [r7, #20]
 1573 0012 0023     		movs	r3, #0
 1574 0014 3B61     		str	r3, [r7, #16]
 1575 0016 7B68     		ldr	r3, [r7, #4]
 1576 0018 B3F5807F 		cmp	r3, #256
 1577 001c 0ED1     		bne	.L76
 1578 001e BB68     		ldr	r3, [r7, #8]
 1579 0020 4FF48072 		mov	r2, #256
 1580 0024 5A62     		str	r2, [r3, #36]
 1581 0026 FB68     		ldr	r3, [r7, #12]
 1582 0028 1B68     		ldr	r3, [r3]
 1583 002a DB69     		ldr	r3, [r3, #28]
 1584 002c 7B61     		str	r3, [r7, #20]
 1585 002e FB68     		ldr	r3, [r7, #12]
 1586 0030 1B68     		ldr	r3, [r3]
 1587 0032 5B6C     		ldr	r3, [r3, #68]
 1588 0034 C3F30E03 		ubfx	r3, r3, #0, #15
 1589 0038 3B61     		str	r3, [r7, #16]
 1590 003a 0DE0     		b	.L77
 1591              	.L76:
 1592 003c BB68     		ldr	r3, [r7, #8]
 1593 003e 4FF40072 		mov	r2, #512
 1594 0042 5A62     		str	r2, [r3, #36]
 1595 0044 FB68     		ldr	r3, [r7, #12]
 1596 0046 1B68     		ldr	r3, [r3]
 1597 0048 1B6A     		ldr	r3, [r3, #32]
 1598 004a 7B61     		str	r3, [r7, #20]
 1599 004c FB68     		ldr	r3, [r7, #12]
 1600 004e 1B68     		ldr	r3, [r3]
 1601 0050 9B6C     		ldr	r3, [r3, #72]
 1602 0052 C3F30E03 		ubfx	r3, r3, #0, #15
 1603 0056 3B61     		str	r3, [r7, #16]
 1604              	.L77:
 1605 0058 7B69     		ldr	r3, [r7, #20]
 1606 005a 1B0C     		lsrs	r3, r3, #16
 1607 005c DBB2     		uxtb	r3, r3
 1608 005e 03F03F03 		and	r3, r3, #63
 1609 0062 DAB2     		uxtb	r2, r3
 1610 0064 BB68     		ldr	r3, [r7, #8]
 1611 0066 1A70     		strb	r2, [r3]
 1612 0068 7B69     		ldr	r3, [r7, #20]
 1613 006a 1B0A     		lsrs	r3, r3, #8
 1614 006c DBB2     		uxtb	r3, r3
 1615 006e 03F07F03 		and	r3, r3, #127
 1616 0072 DAB2     		uxtb	r2, r3
 1617 0074 BB68     		ldr	r3, [r7, #8]
 1618 0076 5A70     		strb	r2, [r3, #1]
 1619 0078 7B69     		ldr	r3, [r7, #20]
ARM GAS  C:\Users\user\AppData\Local\Temp\ccevxruo.s 			page 29


 1620 007a DBB2     		uxtb	r3, r3
 1621 007c 03F07F03 		and	r3, r3, #127
 1622 0080 DAB2     		uxtb	r2, r3
 1623 0082 BB68     		ldr	r3, [r7, #8]
 1624 0084 9A70     		strb	r2, [r3, #2]
 1625 0086 7B69     		ldr	r3, [r7, #20]
 1626 0088 9B0D     		lsrs	r3, r3, #22
 1627 008a DBB2     		uxtb	r3, r3
 1628 008c 03F00103 		and	r3, r3, #1
 1629 0090 DAB2     		uxtb	r2, r3
 1630 0092 BB68     		ldr	r3, [r7, #8]
 1631 0094 DA70     		strb	r2, [r3, #3]
 1632 0096 BB68     		ldr	r3, [r7, #8]
 1633 0098 3A69     		ldr	r2, [r7, #16]
 1634 009a 5A60     		str	r2, [r3, #4]
 1635 009c 7B69     		ldr	r3, [r7, #20]
 1636 009e 1B0E     		lsrs	r3, r3, #24
 1637 00a0 DBB2     		uxtb	r3, r3
 1638 00a2 03F03F03 		and	r3, r3, #63
 1639 00a6 DAB2     		uxtb	r2, r3
 1640 00a8 BB68     		ldr	r3, [r7, #8]
 1641 00aa 83F82020 		strb	r2, [r3, #32]
 1642 00ae 7B69     		ldr	r3, [r7, #20]
 1643 00b0 03F08042 		and	r2, r3, #1073741824
 1644 00b4 BB68     		ldr	r3, [r7, #8]
 1645 00b6 DA61     		str	r2, [r3, #28]
 1646 00b8 7B69     		ldr	r3, [r7, #20]
 1647 00ba 03F08032 		and	r2, r3, #-2139062144
 1648 00be BB68     		ldr	r3, [r7, #8]
 1649 00c0 5A61     		str	r2, [r3, #20]
 1650 00c2 3B68     		ldr	r3, [r7]
 1651 00c4 002B     		cmp	r3, #0
 1652 00c6 25D1     		bne	.L78
 1653 00c8 BB68     		ldr	r3, [r7, #8]
 1654 00ca 1B78     		ldrb	r3, [r3]	@ zero_extendqisi2
 1655 00cc 1846     		mov	r0, r3
 1656 00ce FFF7FEFF 		bl	RTC_Bcd2ToByte
 1657 00d2 0346     		mov	r3, r0
 1658 00d4 1A46     		mov	r2, r3
 1659 00d6 BB68     		ldr	r3, [r7, #8]
 1660 00d8 1A70     		strb	r2, [r3]
 1661 00da BB68     		ldr	r3, [r7, #8]
 1662 00dc 5B78     		ldrb	r3, [r3, #1]	@ zero_extendqisi2
 1663 00de 1846     		mov	r0, r3
 1664 00e0 FFF7FEFF 		bl	RTC_Bcd2ToByte
 1665 00e4 0346     		mov	r3, r0
 1666 00e6 1A46     		mov	r2, r3
 1667 00e8 BB68     		ldr	r3, [r7, #8]
 1668 00ea 5A70     		strb	r2, [r3, #1]
 1669 00ec BB68     		ldr	r3, [r7, #8]
 1670 00ee 9B78     		ldrb	r3, [r3, #2]	@ zero_extendqisi2
 1671 00f0 1846     		mov	r0, r3
 1672 00f2 FFF7FEFF 		bl	RTC_Bcd2ToByte
 1673 00f6 0346     		mov	r3, r0
 1674 00f8 1A46     		mov	r2, r3
 1675 00fa BB68     		ldr	r3, [r7, #8]
 1676 00fc 9A70     		strb	r2, [r3, #2]
ARM GAS  C:\Users\user\AppData\Local\Temp\ccevxruo.s 			page 30


 1677 00fe BB68     		ldr	r3, [r7, #8]
 1678 0100 93F82030 		ldrb	r3, [r3, #32]	@ zero_extendqisi2
 1679 0104 1846     		mov	r0, r3
 1680 0106 FFF7FEFF 		bl	RTC_Bcd2ToByte
 1681 010a 0346     		mov	r3, r0
 1682 010c 1A46     		mov	r2, r3
 1683 010e BB68     		ldr	r3, [r7, #8]
 1684 0110 83F82020 		strb	r2, [r3, #32]
 1685              	.L78:
 1686 0114 0023     		movs	r3, #0
 1687 0116 1846     		mov	r0, r3
 1688 0118 1837     		adds	r7, r7, #24
 1689 011a BD46     		mov	sp, r7
 1690              		@ sp needed
 1691 011c 80BD     		pop	{r7, pc}
 1693              		.section	.text.HAL_RTC_AlarmIRQHandler,"ax",%progbits
 1694              		.align	1
 1695              		.global	HAL_RTC_AlarmIRQHandler
 1696              		.syntax unified
 1697              		.thumb
 1698              		.thumb_func
 1700              	HAL_RTC_AlarmIRQHandler:
 1701              		@ args = 0, pretend = 0, frame = 8
 1702              		@ frame_needed = 1, uses_anonymous_args = 0
 1703 0000 80B5     		push	{r7, lr}
 1704 0002 82B0     		sub	sp, sp, #8
 1705 0004 00AF     		add	r7, sp, #0
 1706 0006 7860     		str	r0, [r7, #4]
 1707 0008 7B68     		ldr	r3, [r7, #4]
 1708 000a 1B68     		ldr	r3, [r3]
 1709 000c 9B68     		ldr	r3, [r3, #8]
 1710 000e 03F48053 		and	r3, r3, #4096
 1711 0012 002B     		cmp	r3, #0
 1712 0014 12D0     		beq	.L81
 1713 0016 7B68     		ldr	r3, [r7, #4]
 1714 0018 1B68     		ldr	r3, [r3]
 1715 001a DB68     		ldr	r3, [r3, #12]
 1716 001c 03F48073 		and	r3, r3, #256
 1717 0020 002B     		cmp	r3, #0
 1718 0022 0BD0     		beq	.L81
 1719 0024 7868     		ldr	r0, [r7, #4]
 1720 0026 FFF7FEFF 		bl	HAL_RTC_AlarmAEventCallback
 1721 002a 7B68     		ldr	r3, [r7, #4]
 1722 002c 1B68     		ldr	r3, [r3]
 1723 002e DB68     		ldr	r3, [r3, #12]
 1724 0030 DAB2     		uxtb	r2, r3
 1725 0032 7B68     		ldr	r3, [r7, #4]
 1726 0034 1B68     		ldr	r3, [r3]
 1727 0036 62F4C072 		orn	r2, r2, #384
 1728 003a DA60     		str	r2, [r3, #12]
 1729              	.L81:
 1730 003c 7B68     		ldr	r3, [r7, #4]
 1731 003e 1B68     		ldr	r3, [r3]
 1732 0040 9B68     		ldr	r3, [r3, #8]
 1733 0042 03F40053 		and	r3, r3, #8192
 1734 0046 002B     		cmp	r3, #0
 1735 0048 12D0     		beq	.L82
ARM GAS  C:\Users\user\AppData\Local\Temp\ccevxruo.s 			page 31


 1736 004a 7B68     		ldr	r3, [r7, #4]
 1737 004c 1B68     		ldr	r3, [r3]
 1738 004e DB68     		ldr	r3, [r3, #12]
 1739 0050 03F40073 		and	r3, r3, #512
 1740 0054 002B     		cmp	r3, #0
 1741 0056 0BD0     		beq	.L82
 1742 0058 7868     		ldr	r0, [r7, #4]
 1743 005a FFF7FEFF 		bl	HAL_RTCEx_AlarmBEventCallback
 1744 005e 7B68     		ldr	r3, [r7, #4]
 1745 0060 1B68     		ldr	r3, [r3]
 1746 0062 DB68     		ldr	r3, [r3, #12]
 1747 0064 DAB2     		uxtb	r2, r3
 1748 0066 7B68     		ldr	r3, [r7, #4]
 1749 0068 1B68     		ldr	r3, [r3]
 1750 006a 62F42072 		orn	r2, r2, #640
 1751 006e DA60     		str	r2, [r3, #12]
 1752              	.L82:
 1753 0070 054B     		ldr	r3, .L83
 1754 0072 4FF40032 		mov	r2, #131072
 1755 0076 5A61     		str	r2, [r3, #20]
 1756 0078 7B68     		ldr	r3, [r7, #4]
 1757 007a 0122     		movs	r2, #1
 1758 007c 5A77     		strb	r2, [r3, #29]
 1759 007e 00BF     		nop
 1760 0080 0837     		adds	r7, r7, #8
 1761 0082 BD46     		mov	sp, r7
 1762              		@ sp needed
 1763 0084 80BD     		pop	{r7, pc}
 1764              	.L84:
 1765 0086 00BF     		.align	2
 1766              	.L83:
 1767 0088 003C0140 		.word	1073822720
 1769              		.section	.text.HAL_RTC_AlarmAEventCallback,"ax",%progbits
 1770              		.align	1
 1771              		.weak	HAL_RTC_AlarmAEventCallback
 1772              		.syntax unified
 1773              		.thumb
 1774              		.thumb_func
 1776              	HAL_RTC_AlarmAEventCallback:
 1777              		@ args = 0, pretend = 0, frame = 8
 1778              		@ frame_needed = 1, uses_anonymous_args = 0
 1779              		@ link register save eliminated.
 1780 0000 80B4     		push	{r7}
 1781 0002 83B0     		sub	sp, sp, #12
 1782 0004 00AF     		add	r7, sp, #0
 1783 0006 7860     		str	r0, [r7, #4]
 1784 0008 00BF     		nop
 1785 000a 0C37     		adds	r7, r7, #12
 1786 000c BD46     		mov	sp, r7
 1787              		@ sp needed
 1788 000e 5DF8047B 		ldr	r7, [sp], #4
 1789 0012 7047     		bx	lr
 1791              		.section	.text.HAL_RTC_PollForAlarmAEvent,"ax",%progbits
 1792              		.align	1
 1793              		.global	HAL_RTC_PollForAlarmAEvent
 1794              		.syntax unified
 1795              		.thumb
ARM GAS  C:\Users\user\AppData\Local\Temp\ccevxruo.s 			page 32


 1796              		.thumb_func
 1798              	HAL_RTC_PollForAlarmAEvent:
 1799              		@ args = 0, pretend = 0, frame = 16
 1800              		@ frame_needed = 1, uses_anonymous_args = 0
 1801 0000 80B5     		push	{r7, lr}
 1802 0002 84B0     		sub	sp, sp, #16
 1803 0004 00AF     		add	r7, sp, #0
 1804 0006 7860     		str	r0, [r7, #4]
 1805 0008 3960     		str	r1, [r7]
 1806 000a 0023     		movs	r3, #0
 1807 000c FB60     		str	r3, [r7, #12]
 1808 000e FFF7FEFF 		bl	HAL_GetTick
 1809 0012 F860     		str	r0, [r7, #12]
 1810 0014 13E0     		b	.L88
 1811              	.L91:
 1812 0016 3B68     		ldr	r3, [r7]
 1813 0018 B3F1FF3F 		cmp	r3, #-1
 1814 001c 0FD0     		beq	.L88
 1815 001e 3B68     		ldr	r3, [r7]
 1816 0020 002B     		cmp	r3, #0
 1817 0022 07D0     		beq	.L89
 1818 0024 FFF7FEFF 		bl	HAL_GetTick
 1819 0028 0246     		mov	r2, r0
 1820 002a FB68     		ldr	r3, [r7, #12]
 1821 002c D31A     		subs	r3, r2, r3
 1822 002e 3A68     		ldr	r2, [r7]
 1823 0030 9A42     		cmp	r2, r3
 1824 0032 04D2     		bcs	.L88
 1825              	.L89:
 1826 0034 7B68     		ldr	r3, [r7, #4]
 1827 0036 0322     		movs	r2, #3
 1828 0038 5A77     		strb	r2, [r3, #29]
 1829 003a 0323     		movs	r3, #3
 1830 003c 13E0     		b	.L90
 1831              	.L88:
 1832 003e 7B68     		ldr	r3, [r7, #4]
 1833 0040 1B68     		ldr	r3, [r3]
 1834 0042 DB68     		ldr	r3, [r3, #12]
 1835 0044 03F48073 		and	r3, r3, #256
 1836 0048 002B     		cmp	r3, #0
 1837 004a E4D0     		beq	.L91
 1838 004c 7B68     		ldr	r3, [r7, #4]
 1839 004e 1B68     		ldr	r3, [r3]
 1840 0050 DB68     		ldr	r3, [r3, #12]
 1841 0052 DAB2     		uxtb	r2, r3
 1842 0054 7B68     		ldr	r3, [r7, #4]
 1843 0056 1B68     		ldr	r3, [r3]
 1844 0058 62F4C072 		orn	r2, r2, #384
 1845 005c DA60     		str	r2, [r3, #12]
 1846 005e 7B68     		ldr	r3, [r7, #4]
 1847 0060 0122     		movs	r2, #1
 1848 0062 5A77     		strb	r2, [r3, #29]
 1849 0064 0023     		movs	r3, #0
 1850              	.L90:
 1851 0066 1846     		mov	r0, r3
 1852 0068 1037     		adds	r7, r7, #16
 1853 006a BD46     		mov	sp, r7
ARM GAS  C:\Users\user\AppData\Local\Temp\ccevxruo.s 			page 33


 1854              		@ sp needed
 1855 006c 80BD     		pop	{r7, pc}
 1857              		.section	.text.HAL_RTC_WaitForSynchro,"ax",%progbits
 1858              		.align	1
 1859              		.global	HAL_RTC_WaitForSynchro
 1860              		.syntax unified
 1861              		.thumb
 1862              		.thumb_func
 1864              	HAL_RTC_WaitForSynchro:
 1865              		@ args = 0, pretend = 0, frame = 16
 1866              		@ frame_needed = 1, uses_anonymous_args = 0
 1867 0000 80B5     		push	{r7, lr}
 1868 0002 84B0     		sub	sp, sp, #16
 1869 0004 00AF     		add	r7, sp, #0
 1870 0006 7860     		str	r0, [r7, #4]
 1871 0008 0023     		movs	r3, #0
 1872 000a FB60     		str	r3, [r7, #12]
 1873 000c 7B68     		ldr	r3, [r7, #4]
 1874 000e 1B68     		ldr	r3, [r3]
 1875 0010 DA68     		ldr	r2, [r3, #12]
 1876 0012 7B68     		ldr	r3, [r7, #4]
 1877 0014 1B68     		ldr	r3, [r3]
 1878 0016 22F0A002 		bic	r2, r2, #160
 1879 001a DA60     		str	r2, [r3, #12]
 1880 001c FFF7FEFF 		bl	HAL_GetTick
 1881 0020 F860     		str	r0, [r7, #12]
 1882 0022 09E0     		b	.L93
 1883              	.L95:
 1884 0024 FFF7FEFF 		bl	HAL_GetTick
 1885 0028 0246     		mov	r2, r0
 1886 002a FB68     		ldr	r3, [r7, #12]
 1887 002c D31A     		subs	r3, r2, r3
 1888 002e B3F57A7F 		cmp	r3, #1000
 1889 0032 01D9     		bls	.L93
 1890 0034 0323     		movs	r3, #3
 1891 0036 07E0     		b	.L94
 1892              	.L93:
 1893 0038 7B68     		ldr	r3, [r7, #4]
 1894 003a 1B68     		ldr	r3, [r3]
 1895 003c DB68     		ldr	r3, [r3, #12]
 1896 003e 03F02003 		and	r3, r3, #32
 1897 0042 002B     		cmp	r3, #0
 1898 0044 EED0     		beq	.L95
 1899 0046 0023     		movs	r3, #0
 1900              	.L94:
 1901 0048 1846     		mov	r0, r3
 1902 004a 1037     		adds	r7, r7, #16
 1903 004c BD46     		mov	sp, r7
 1904              		@ sp needed
 1905 004e 80BD     		pop	{r7, pc}
 1907              		.section	.text.HAL_RTC_DST_Add1Hour,"ax",%progbits
 1908              		.align	1
 1909              		.global	HAL_RTC_DST_Add1Hour
 1910              		.syntax unified
 1911              		.thumb
 1912              		.thumb_func
 1914              	HAL_RTC_DST_Add1Hour:
ARM GAS  C:\Users\user\AppData\Local\Temp\ccevxruo.s 			page 34


 1915              		@ args = 0, pretend = 0, frame = 8
 1916              		@ frame_needed = 1, uses_anonymous_args = 0
 1917              		@ link register save eliminated.
 1918 0000 80B4     		push	{r7}
 1919 0002 83B0     		sub	sp, sp, #12
 1920 0004 00AF     		add	r7, sp, #0
 1921 0006 7860     		str	r0, [r7, #4]
 1922 0008 7B68     		ldr	r3, [r7, #4]
 1923 000a 1B68     		ldr	r3, [r3]
 1924 000c CA22     		movs	r2, #202
 1925 000e 5A62     		str	r2, [r3, #36]
 1926 0010 7B68     		ldr	r3, [r7, #4]
 1927 0012 1B68     		ldr	r3, [r3]
 1928 0014 5322     		movs	r2, #83
 1929 0016 5A62     		str	r2, [r3, #36]
 1930 0018 7B68     		ldr	r3, [r7, #4]
 1931 001a 1B68     		ldr	r3, [r3]
 1932 001c 9A68     		ldr	r2, [r3, #8]
 1933 001e 7B68     		ldr	r3, [r7, #4]
 1934 0020 1B68     		ldr	r3, [r3]
 1935 0022 42F48032 		orr	r2, r2, #65536
 1936 0026 9A60     		str	r2, [r3, #8]
 1937 0028 7B68     		ldr	r3, [r7, #4]
 1938 002a 1B68     		ldr	r3, [r3]
 1939 002c FF22     		movs	r2, #255
 1940 002e 5A62     		str	r2, [r3, #36]
 1941 0030 00BF     		nop
 1942 0032 0C37     		adds	r7, r7, #12
 1943 0034 BD46     		mov	sp, r7
 1944              		@ sp needed
 1945 0036 5DF8047B 		ldr	r7, [sp], #4
 1946 003a 7047     		bx	lr
 1948              		.section	.text.HAL_RTC_DST_Sub1Hour,"ax",%progbits
 1949              		.align	1
 1950              		.global	HAL_RTC_DST_Sub1Hour
 1951              		.syntax unified
 1952              		.thumb
 1953              		.thumb_func
 1955              	HAL_RTC_DST_Sub1Hour:
 1956              		@ args = 0, pretend = 0, frame = 8
 1957              		@ frame_needed = 1, uses_anonymous_args = 0
 1958              		@ link register save eliminated.
 1959 0000 80B4     		push	{r7}
 1960 0002 83B0     		sub	sp, sp, #12
 1961 0004 00AF     		add	r7, sp, #0
 1962 0006 7860     		str	r0, [r7, #4]
 1963 0008 7B68     		ldr	r3, [r7, #4]
 1964 000a 1B68     		ldr	r3, [r3]
 1965 000c CA22     		movs	r2, #202
 1966 000e 5A62     		str	r2, [r3, #36]
 1967 0010 7B68     		ldr	r3, [r7, #4]
 1968 0012 1B68     		ldr	r3, [r3]
 1969 0014 5322     		movs	r2, #83
 1970 0016 5A62     		str	r2, [r3, #36]
 1971 0018 7B68     		ldr	r3, [r7, #4]
 1972 001a 1B68     		ldr	r3, [r3]
 1973 001c 9A68     		ldr	r2, [r3, #8]
ARM GAS  C:\Users\user\AppData\Local\Temp\ccevxruo.s 			page 35


 1974 001e 7B68     		ldr	r3, [r7, #4]
 1975 0020 1B68     		ldr	r3, [r3]
 1976 0022 42F40032 		orr	r2, r2, #131072
 1977 0026 9A60     		str	r2, [r3, #8]
 1978 0028 7B68     		ldr	r3, [r7, #4]
 1979 002a 1B68     		ldr	r3, [r3]
 1980 002c FF22     		movs	r2, #255
 1981 002e 5A62     		str	r2, [r3, #36]
 1982 0030 00BF     		nop
 1983 0032 0C37     		adds	r7, r7, #12
 1984 0034 BD46     		mov	sp, r7
 1985              		@ sp needed
 1986 0036 5DF8047B 		ldr	r7, [sp], #4
 1987 003a 7047     		bx	lr
 1989              		.section	.text.HAL_RTC_DST_SetStoreOperation,"ax",%progbits
 1990              		.align	1
 1991              		.global	HAL_RTC_DST_SetStoreOperation
 1992              		.syntax unified
 1993              		.thumb
 1994              		.thumb_func
 1996              	HAL_RTC_DST_SetStoreOperation:
 1997              		@ args = 0, pretend = 0, frame = 8
 1998              		@ frame_needed = 1, uses_anonymous_args = 0
 1999              		@ link register save eliminated.
 2000 0000 80B4     		push	{r7}
 2001 0002 83B0     		sub	sp, sp, #12
 2002 0004 00AF     		add	r7, sp, #0
 2003 0006 7860     		str	r0, [r7, #4]
 2004 0008 7B68     		ldr	r3, [r7, #4]
 2005 000a 1B68     		ldr	r3, [r3]
 2006 000c CA22     		movs	r2, #202
 2007 000e 5A62     		str	r2, [r3, #36]
 2008 0010 7B68     		ldr	r3, [r7, #4]
 2009 0012 1B68     		ldr	r3, [r3]
 2010 0014 5322     		movs	r2, #83
 2011 0016 5A62     		str	r2, [r3, #36]
 2012 0018 7B68     		ldr	r3, [r7, #4]
 2013 001a 1B68     		ldr	r3, [r3]
 2014 001c 9A68     		ldr	r2, [r3, #8]
 2015 001e 7B68     		ldr	r3, [r7, #4]
 2016 0020 1B68     		ldr	r3, [r3]
 2017 0022 42F48022 		orr	r2, r2, #262144
 2018 0026 9A60     		str	r2, [r3, #8]
 2019 0028 7B68     		ldr	r3, [r7, #4]
 2020 002a 1B68     		ldr	r3, [r3]
 2021 002c FF22     		movs	r2, #255
 2022 002e 5A62     		str	r2, [r3, #36]
 2023 0030 00BF     		nop
 2024 0032 0C37     		adds	r7, r7, #12
 2025 0034 BD46     		mov	sp, r7
 2026              		@ sp needed
 2027 0036 5DF8047B 		ldr	r7, [sp], #4
 2028 003a 7047     		bx	lr
 2030              		.section	.text.HAL_RTC_DST_ClearStoreOperation,"ax",%progbits
 2031              		.align	1
 2032              		.global	HAL_RTC_DST_ClearStoreOperation
 2033              		.syntax unified
ARM GAS  C:\Users\user\AppData\Local\Temp\ccevxruo.s 			page 36


 2034              		.thumb
 2035              		.thumb_func
 2037              	HAL_RTC_DST_ClearStoreOperation:
 2038              		@ args = 0, pretend = 0, frame = 8
 2039              		@ frame_needed = 1, uses_anonymous_args = 0
 2040              		@ link register save eliminated.
 2041 0000 80B4     		push	{r7}
 2042 0002 83B0     		sub	sp, sp, #12
 2043 0004 00AF     		add	r7, sp, #0
 2044 0006 7860     		str	r0, [r7, #4]
 2045 0008 7B68     		ldr	r3, [r7, #4]
 2046 000a 1B68     		ldr	r3, [r3]
 2047 000c CA22     		movs	r2, #202
 2048 000e 5A62     		str	r2, [r3, #36]
 2049 0010 7B68     		ldr	r3, [r7, #4]
 2050 0012 1B68     		ldr	r3, [r3]
 2051 0014 5322     		movs	r2, #83
 2052 0016 5A62     		str	r2, [r3, #36]
 2053 0018 7B68     		ldr	r3, [r7, #4]
 2054 001a 1B68     		ldr	r3, [r3]
 2055 001c 9A68     		ldr	r2, [r3, #8]
 2056 001e 7B68     		ldr	r3, [r7, #4]
 2057 0020 1B68     		ldr	r3, [r3]
 2058 0022 22F48022 		bic	r2, r2, #262144
 2059 0026 9A60     		str	r2, [r3, #8]
 2060 0028 7B68     		ldr	r3, [r7, #4]
 2061 002a 1B68     		ldr	r3, [r3]
 2062 002c FF22     		movs	r2, #255
 2063 002e 5A62     		str	r2, [r3, #36]
 2064 0030 00BF     		nop
 2065 0032 0C37     		adds	r7, r7, #12
 2066 0034 BD46     		mov	sp, r7
 2067              		@ sp needed
 2068 0036 5DF8047B 		ldr	r7, [sp], #4
 2069 003a 7047     		bx	lr
 2071              		.section	.text.HAL_RTC_DST_ReadStoreOperation,"ax",%progbits
 2072              		.align	1
 2073              		.global	HAL_RTC_DST_ReadStoreOperation
 2074              		.syntax unified
 2075              		.thumb
 2076              		.thumb_func
 2078              	HAL_RTC_DST_ReadStoreOperation:
 2079              		@ args = 0, pretend = 0, frame = 8
 2080              		@ frame_needed = 1, uses_anonymous_args = 0
 2081              		@ link register save eliminated.
 2082 0000 80B4     		push	{r7}
 2083 0002 83B0     		sub	sp, sp, #12
 2084 0004 00AF     		add	r7, sp, #0
 2085 0006 7860     		str	r0, [r7, #4]
 2086 0008 7B68     		ldr	r3, [r7, #4]
 2087 000a 1B68     		ldr	r3, [r3]
 2088 000c 9B68     		ldr	r3, [r3, #8]
 2089 000e 03F48023 		and	r3, r3, #262144
 2090 0012 1846     		mov	r0, r3
 2091 0014 0C37     		adds	r7, r7, #12
 2092 0016 BD46     		mov	sp, r7
 2093              		@ sp needed
ARM GAS  C:\Users\user\AppData\Local\Temp\ccevxruo.s 			page 37


 2094 0018 5DF8047B 		ldr	r7, [sp], #4
 2095 001c 7047     		bx	lr
 2097              		.section	.text.HAL_RTC_GetState,"ax",%progbits
 2098              		.align	1
 2099              		.global	HAL_RTC_GetState
 2100              		.syntax unified
 2101              		.thumb
 2102              		.thumb_func
 2104              	HAL_RTC_GetState:
 2105              		@ args = 0, pretend = 0, frame = 8
 2106              		@ frame_needed = 1, uses_anonymous_args = 0
 2107              		@ link register save eliminated.
 2108 0000 80B4     		push	{r7}
 2109 0002 83B0     		sub	sp, sp, #12
 2110 0004 00AF     		add	r7, sp, #0
 2111 0006 7860     		str	r0, [r7, #4]
 2112 0008 7B68     		ldr	r3, [r7, #4]
 2113 000a 5B7F     		ldrb	r3, [r3, #29]
 2114 000c DBB2     		uxtb	r3, r3
 2115 000e 1846     		mov	r0, r3
 2116 0010 0C37     		adds	r7, r7, #12
 2117 0012 BD46     		mov	sp, r7
 2118              		@ sp needed
 2119 0014 5DF8047B 		ldr	r7, [sp], #4
 2120 0018 7047     		bx	lr
 2122              		.section	.text.RTC_EnterInitMode,"ax",%progbits
 2123              		.align	1
 2124              		.global	RTC_EnterInitMode
 2125              		.syntax unified
 2126              		.thumb
 2127              		.thumb_func
 2129              	RTC_EnterInitMode:
 2130              		@ args = 0, pretend = 0, frame = 16
 2131              		@ frame_needed = 1, uses_anonymous_args = 0
 2132 0000 80B5     		push	{r7, lr}
 2133 0002 84B0     		sub	sp, sp, #16
 2134 0004 00AF     		add	r7, sp, #0
 2135 0006 7860     		str	r0, [r7, #4]
 2136 0008 0023     		movs	r3, #0
 2137 000a BB60     		str	r3, [r7, #8]
 2138 000c 0023     		movs	r3, #0
 2139 000e FB73     		strb	r3, [r7, #15]
 2140 0010 7B68     		ldr	r3, [r7, #4]
 2141 0012 1B68     		ldr	r3, [r3]
 2142 0014 DB68     		ldr	r3, [r3, #12]
 2143 0016 03F04003 		and	r3, r3, #64
 2144 001a 002B     		cmp	r3, #0
 2145 001c 22D1     		bne	.L105
 2146 001e 7B68     		ldr	r3, [r7, #4]
 2147 0020 1B68     		ldr	r3, [r3]
 2148 0022 DA68     		ldr	r2, [r3, #12]
 2149 0024 7B68     		ldr	r3, [r7, #4]
 2150 0026 1B68     		ldr	r3, [r3]
 2151 0028 42F08002 		orr	r2, r2, #128
 2152 002c DA60     		str	r2, [r3, #12]
 2153 002e FFF7FEFF 		bl	HAL_GetTick
 2154 0032 B860     		str	r0, [r7, #8]
ARM GAS  C:\Users\user\AppData\Local\Temp\ccevxruo.s 			page 38


 2155 0034 0CE0     		b	.L107
 2156              	.L108:
 2157 0036 FFF7FEFF 		bl	HAL_GetTick
 2158 003a 0246     		mov	r2, r0
 2159 003c BB68     		ldr	r3, [r7, #8]
 2160 003e D31A     		subs	r3, r2, r3
 2161 0040 B3F57A7F 		cmp	r3, #1000
 2162 0044 04D9     		bls	.L107
 2163 0046 7B68     		ldr	r3, [r7, #4]
 2164 0048 0422     		movs	r2, #4
 2165 004a 5A77     		strb	r2, [r3, #29]
 2166 004c 0123     		movs	r3, #1
 2167 004e FB73     		strb	r3, [r7, #15]
 2168              	.L107:
 2169 0050 7B68     		ldr	r3, [r7, #4]
 2170 0052 1B68     		ldr	r3, [r3]
 2171 0054 DB68     		ldr	r3, [r3, #12]
 2172 0056 03F04003 		and	r3, r3, #64
 2173 005a 002B     		cmp	r3, #0
 2174 005c 02D1     		bne	.L105
 2175 005e FB7B     		ldrb	r3, [r7, #15]	@ zero_extendqisi2
 2176 0060 012B     		cmp	r3, #1
 2177 0062 E8D1     		bne	.L108
 2178              	.L105:
 2179 0064 FB7B     		ldrb	r3, [r7, #15]	@ zero_extendqisi2
 2180 0066 1846     		mov	r0, r3
 2181 0068 1037     		adds	r7, r7, #16
 2182 006a BD46     		mov	sp, r7
 2183              		@ sp needed
 2184 006c 80BD     		pop	{r7, pc}
 2186              		.section	.text.RTC_ExitInitMode,"ax",%progbits
 2187              		.align	1
 2188              		.global	RTC_ExitInitMode
 2189              		.syntax unified
 2190              		.thumb
 2191              		.thumb_func
 2193              	RTC_ExitInitMode:
 2194              		@ args = 0, pretend = 0, frame = 16
 2195              		@ frame_needed = 1, uses_anonymous_args = 0
 2196 0000 80B5     		push	{r7, lr}
 2197 0002 84B0     		sub	sp, sp, #16
 2198 0004 00AF     		add	r7, sp, #0
 2199 0006 7860     		str	r0, [r7, #4]
 2200 0008 0023     		movs	r3, #0
 2201 000a FB73     		strb	r3, [r7, #15]
 2202 000c 7B68     		ldr	r3, [r7, #4]
 2203 000e 1B68     		ldr	r3, [r3]
 2204 0010 DA68     		ldr	r2, [r3, #12]
 2205 0012 7B68     		ldr	r3, [r7, #4]
 2206 0014 1B68     		ldr	r3, [r3]
 2207 0016 22F08002 		bic	r2, r2, #128
 2208 001a DA60     		str	r2, [r3, #12]
 2209 001c 7B68     		ldr	r3, [r7, #4]
 2210 001e 1B68     		ldr	r3, [r3]
 2211 0020 9B68     		ldr	r3, [r3, #8]
 2212 0022 03F02003 		and	r3, r3, #32
 2213 0026 002B     		cmp	r3, #0
ARM GAS  C:\Users\user\AppData\Local\Temp\ccevxruo.s 			page 39


 2214 0028 0AD1     		bne	.L111
 2215 002a 7868     		ldr	r0, [r7, #4]
 2216 002c FFF7FEFF 		bl	HAL_RTC_WaitForSynchro
 2217 0030 0346     		mov	r3, r0
 2218 0032 002B     		cmp	r3, #0
 2219 0034 04D0     		beq	.L111
 2220 0036 7B68     		ldr	r3, [r7, #4]
 2221 0038 0422     		movs	r2, #4
 2222 003a 5A77     		strb	r2, [r3, #29]
 2223 003c 0123     		movs	r3, #1
 2224 003e FB73     		strb	r3, [r7, #15]
 2225              	.L111:
 2226 0040 FB7B     		ldrb	r3, [r7, #15]	@ zero_extendqisi2
 2227 0042 1846     		mov	r0, r3
 2228 0044 1037     		adds	r7, r7, #16
 2229 0046 BD46     		mov	sp, r7
 2230              		@ sp needed
 2231 0048 80BD     		pop	{r7, pc}
 2233              		.section	.text.RTC_ByteToBcd2,"ax",%progbits
 2234              		.align	1
 2235              		.global	RTC_ByteToBcd2
 2236              		.syntax unified
 2237              		.thumb
 2238              		.thumb_func
 2240              	RTC_ByteToBcd2:
 2241              		@ args = 0, pretend = 0, frame = 16
 2242              		@ frame_needed = 1, uses_anonymous_args = 0
 2243              		@ link register save eliminated.
 2244 0000 80B4     		push	{r7}
 2245 0002 85B0     		sub	sp, sp, #20
 2246 0004 00AF     		add	r7, sp, #0
 2247 0006 0346     		mov	r3, r0
 2248 0008 FB71     		strb	r3, [r7, #7]
 2249 000a 0023     		movs	r3, #0
 2250 000c FB73     		strb	r3, [r7, #15]
 2251 000e 05E0     		b	.L114
 2252              	.L115:
 2253 0010 FB7B     		ldrb	r3, [r7, #15]	@ zero_extendqisi2
 2254 0012 0133     		adds	r3, r3, #1
 2255 0014 FB73     		strb	r3, [r7, #15]
 2256 0016 FB79     		ldrb	r3, [r7, #7]
 2257 0018 0A3B     		subs	r3, r3, #10
 2258 001a FB71     		strb	r3, [r7, #7]
 2259              	.L114:
 2260 001c FB79     		ldrb	r3, [r7, #7]	@ zero_extendqisi2
 2261 001e 092B     		cmp	r3, #9
 2262 0020 F6D8     		bhi	.L115
 2263 0022 FB7B     		ldrb	r3, [r7, #15]
 2264 0024 1B01     		lsls	r3, r3, #4
 2265 0026 DAB2     		uxtb	r2, r3
 2266 0028 FB79     		ldrb	r3, [r7, #7]
 2267 002a 1343     		orrs	r3, r3, r2
 2268 002c DBB2     		uxtb	r3, r3
 2269 002e 1846     		mov	r0, r3
 2270 0030 1437     		adds	r7, r7, #20
 2271 0032 BD46     		mov	sp, r7
 2272              		@ sp needed
ARM GAS  C:\Users\user\AppData\Local\Temp\ccevxruo.s 			page 40


 2273 0034 5DF8047B 		ldr	r7, [sp], #4
 2274 0038 7047     		bx	lr
 2276              		.section	.text.RTC_Bcd2ToByte,"ax",%progbits
 2277              		.align	1
 2278              		.global	RTC_Bcd2ToByte
 2279              		.syntax unified
 2280              		.thumb
 2281              		.thumb_func
 2283              	RTC_Bcd2ToByte:
 2284              		@ args = 0, pretend = 0, frame = 16
 2285              		@ frame_needed = 1, uses_anonymous_args = 0
 2286              		@ link register save eliminated.
 2287 0000 80B4     		push	{r7}
 2288 0002 85B0     		sub	sp, sp, #20
 2289 0004 00AF     		add	r7, sp, #0
 2290 0006 0346     		mov	r3, r0
 2291 0008 FB71     		strb	r3, [r7, #7]
 2292 000a 0023     		movs	r3, #0
 2293 000c FB73     		strb	r3, [r7, #15]
 2294 000e FB79     		ldrb	r3, [r7, #7]	@ zero_extendqisi2
 2295 0010 1B09     		lsrs	r3, r3, #4
 2296 0012 DBB2     		uxtb	r3, r3
 2297 0014 1A46     		mov	r2, r3
 2298 0016 9200     		lsls	r2, r2, #2
 2299 0018 1344     		add	r3, r3, r2
 2300 001a 5B00     		lsls	r3, r3, #1
 2301 001c FB73     		strb	r3, [r7, #15]
 2302 001e FB79     		ldrb	r3, [r7, #7]
 2303 0020 03F00F03 		and	r3, r3, #15
 2304 0024 DAB2     		uxtb	r2, r3
 2305 0026 FB7B     		ldrb	r3, [r7, #15]
 2306 0028 1344     		add	r3, r3, r2
 2307 002a DBB2     		uxtb	r3, r3
 2308 002c 1846     		mov	r0, r3
 2309 002e 1437     		adds	r7, r7, #20
 2310 0030 BD46     		mov	sp, r7
 2311              		@ sp needed
 2312 0032 5DF8047B 		ldr	r7, [sp], #4
 2313 0036 7047     		bx	lr
 2315              		.ident	"GCC: (GNU Tools for STM32 12.3.rel1.20240306-1730) 12.3.1 20230626"
ARM GAS  C:\Users\user\AppData\Local\Temp\ccevxruo.s 			page 41

