ARM GAS  C:\Users\user\AppData\Local\Temp\cc4Ji2Oa.s 			page 1


   1              		.cpu cortex-m4
   2              		.arch armv7e-m
   3              		.fpu fpv4-sp-d16
   4              		.eabi_attribute 27, 1
   5              		.eabi_attribute 28, 1
   6              		.eabi_attribute 20, 1
   7              		.eabi_attribute 21, 1
   8              		.eabi_attribute 23, 3
   9              		.eabi_attribute 24, 1
  10              		.eabi_attribute 25, 1
  11              		.eabi_attribute 26, 1
  12              		.eabi_attribute 30, 6
  13              		.eabi_attribute 34, 1
  14              		.eabi_attribute 18, 4
  15              		.file	"stm32f4xx_hal_dma.c"
  16              		.text
  17              		.section	.text.HAL_DMA_Init,"ax",%progbits
  18              		.align	1
  19              		.global	HAL_DMA_Init
  20              		.syntax unified
  21              		.thumb
  22              		.thumb_func
  24              	HAL_DMA_Init:
  25              		@ args = 0, pretend = 0, frame = 24
  26              		@ frame_needed = 1, uses_anonymous_args = 0
  27 0000 80B5     		push	{r7, lr}
  28 0002 86B0     		sub	sp, sp, #24
  29 0004 00AF     		add	r7, sp, #0
  30 0006 7860     		str	r0, [r7, #4]
  31 0008 0023     		movs	r3, #0
  32 000a 7B61     		str	r3, [r7, #20]
  33 000c FFF7FEFF 		bl	HAL_GetTick
  34 0010 3861     		str	r0, [r7, #16]
  35 0012 7B68     		ldr	r3, [r7, #4]
  36 0014 002B     		cmp	r3, #0
  37 0016 01D1     		bne	.L2
  38 0018 0123     		movs	r3, #1
  39 001a 99E0     		b	.L3
  40              	.L2:
  41 001c 7B68     		ldr	r3, [r7, #4]
  42 001e 0222     		movs	r2, #2
  43 0020 83F83520 		strb	r2, [r3, #53]
  44 0024 7B68     		ldr	r3, [r7, #4]
  45 0026 0022     		movs	r2, #0
  46 0028 83F83420 		strb	r2, [r3, #52]
  47 002c 7B68     		ldr	r3, [r7, #4]
  48 002e 1B68     		ldr	r3, [r3]
  49 0030 1A68     		ldr	r2, [r3]
  50 0032 7B68     		ldr	r3, [r7, #4]
  51 0034 1B68     		ldr	r3, [r3]
  52 0036 22F00102 		bic	r2, r2, #1
  53 003a 1A60     		str	r2, [r3]
  54 003c 0FE0     		b	.L4
  55              	.L5:
  56 003e FFF7FEFF 		bl	HAL_GetTick
  57 0042 0246     		mov	r2, r0
  58 0044 3B69     		ldr	r3, [r7, #16]
ARM GAS  C:\Users\user\AppData\Local\Temp\cc4Ji2Oa.s 			page 2


  59 0046 D31A     		subs	r3, r2, r3
  60 0048 052B     		cmp	r3, #5
  61 004a 08D9     		bls	.L4
  62 004c 7B68     		ldr	r3, [r7, #4]
  63 004e 2022     		movs	r2, #32
  64 0050 5A65     		str	r2, [r3, #84]
  65 0052 7B68     		ldr	r3, [r7, #4]
  66 0054 0322     		movs	r2, #3
  67 0056 83F83520 		strb	r2, [r3, #53]
  68 005a 0323     		movs	r3, #3
  69 005c 78E0     		b	.L3
  70              	.L4:
  71 005e 7B68     		ldr	r3, [r7, #4]
  72 0060 1B68     		ldr	r3, [r3]
  73 0062 1B68     		ldr	r3, [r3]
  74 0064 03F00103 		and	r3, r3, #1
  75 0068 002B     		cmp	r3, #0
  76 006a E8D1     		bne	.L5
  77 006c 7B68     		ldr	r3, [r7, #4]
  78 006e 1B68     		ldr	r3, [r3]
  79 0070 1B68     		ldr	r3, [r3]
  80 0072 7B61     		str	r3, [r7, #20]
  81 0074 7A69     		ldr	r2, [r7, #20]
  82 0076 384B     		ldr	r3, .L8
  83 0078 1340     		ands	r3, r3, r2
  84 007a 7B61     		str	r3, [r7, #20]
  85 007c 7B68     		ldr	r3, [r7, #4]
  86 007e 5A68     		ldr	r2, [r3, #4]
  87 0080 7B68     		ldr	r3, [r7, #4]
  88 0082 9B68     		ldr	r3, [r3, #8]
  89 0084 1A43     		orrs	r2, r2, r3
  90 0086 7B68     		ldr	r3, [r7, #4]
  91 0088 DB68     		ldr	r3, [r3, #12]
  92 008a 1A43     		orrs	r2, r2, r3
  93 008c 7B68     		ldr	r3, [r7, #4]
  94 008e 1B69     		ldr	r3, [r3, #16]
  95 0090 1A43     		orrs	r2, r2, r3
  96 0092 7B68     		ldr	r3, [r7, #4]
  97 0094 5B69     		ldr	r3, [r3, #20]
  98 0096 1A43     		orrs	r2, r2, r3
  99 0098 7B68     		ldr	r3, [r7, #4]
 100 009a 9B69     		ldr	r3, [r3, #24]
 101 009c 1A43     		orrs	r2, r2, r3
 102 009e 7B68     		ldr	r3, [r7, #4]
 103 00a0 DB69     		ldr	r3, [r3, #28]
 104 00a2 1A43     		orrs	r2, r2, r3
 105 00a4 7B68     		ldr	r3, [r7, #4]
 106 00a6 1B6A     		ldr	r3, [r3, #32]
 107 00a8 1343     		orrs	r3, r3, r2
 108 00aa 7A69     		ldr	r2, [r7, #20]
 109 00ac 1343     		orrs	r3, r3, r2
 110 00ae 7B61     		str	r3, [r7, #20]
 111 00b0 7B68     		ldr	r3, [r7, #4]
 112 00b2 5B6A     		ldr	r3, [r3, #36]
 113 00b4 042B     		cmp	r3, #4
 114 00b6 07D1     		bne	.L6
 115 00b8 7B68     		ldr	r3, [r7, #4]
ARM GAS  C:\Users\user\AppData\Local\Temp\cc4Ji2Oa.s 			page 3


 116 00ba DA6A     		ldr	r2, [r3, #44]
 117 00bc 7B68     		ldr	r3, [r7, #4]
 118 00be 1B6B     		ldr	r3, [r3, #48]
 119 00c0 1343     		orrs	r3, r3, r2
 120 00c2 7A69     		ldr	r2, [r7, #20]
 121 00c4 1343     		orrs	r3, r3, r2
 122 00c6 7B61     		str	r3, [r7, #20]
 123              	.L6:
 124 00c8 7B68     		ldr	r3, [r7, #4]
 125 00ca 1B68     		ldr	r3, [r3]
 126 00cc 7A69     		ldr	r2, [r7, #20]
 127 00ce 1A60     		str	r2, [r3]
 128 00d0 7B68     		ldr	r3, [r7, #4]
 129 00d2 1B68     		ldr	r3, [r3]
 130 00d4 5B69     		ldr	r3, [r3, #20]
 131 00d6 7B61     		str	r3, [r7, #20]
 132 00d8 7B69     		ldr	r3, [r7, #20]
 133 00da 23F00703 		bic	r3, r3, #7
 134 00de 7B61     		str	r3, [r7, #20]
 135 00e0 7B68     		ldr	r3, [r7, #4]
 136 00e2 5B6A     		ldr	r3, [r3, #36]
 137 00e4 7A69     		ldr	r2, [r7, #20]
 138 00e6 1343     		orrs	r3, r3, r2
 139 00e8 7B61     		str	r3, [r7, #20]
 140 00ea 7B68     		ldr	r3, [r7, #4]
 141 00ec 5B6A     		ldr	r3, [r3, #36]
 142 00ee 042B     		cmp	r3, #4
 143 00f0 17D1     		bne	.L7
 144 00f2 7B68     		ldr	r3, [r7, #4]
 145 00f4 9B6A     		ldr	r3, [r3, #40]
 146 00f6 7A69     		ldr	r2, [r7, #20]
 147 00f8 1343     		orrs	r3, r3, r2
 148 00fa 7B61     		str	r3, [r7, #20]
 149 00fc 7B68     		ldr	r3, [r7, #4]
 150 00fe DB6A     		ldr	r3, [r3, #44]
 151 0100 002B     		cmp	r3, #0
 152 0102 0ED0     		beq	.L7
 153 0104 7868     		ldr	r0, [r7, #4]
 154 0106 FFF7FEFF 		bl	DMA_CheckFifoParam
 155 010a 0346     		mov	r3, r0
 156 010c 002B     		cmp	r3, #0
 157 010e 08D0     		beq	.L7
 158 0110 7B68     		ldr	r3, [r7, #4]
 159 0112 4022     		movs	r2, #64
 160 0114 5A65     		str	r2, [r3, #84]
 161 0116 7B68     		ldr	r3, [r7, #4]
 162 0118 0122     		movs	r2, #1
 163 011a 83F83520 		strb	r2, [r3, #53]
 164 011e 0123     		movs	r3, #1
 165 0120 16E0     		b	.L3
 166              	.L7:
 167 0122 7B68     		ldr	r3, [r7, #4]
 168 0124 1B68     		ldr	r3, [r3]
 169 0126 7A69     		ldr	r2, [r7, #20]
 170 0128 5A61     		str	r2, [r3, #20]
 171 012a 7868     		ldr	r0, [r7, #4]
 172 012c FFF7FEFF 		bl	DMA_CalcBaseAndBitshift
ARM GAS  C:\Users\user\AppData\Local\Temp\cc4Ji2Oa.s 			page 4


 173 0130 0346     		mov	r3, r0
 174 0132 FB60     		str	r3, [r7, #12]
 175 0134 7B68     		ldr	r3, [r7, #4]
 176 0136 DB6D     		ldr	r3, [r3, #92]
 177 0138 3F22     		movs	r2, #63
 178 013a 9A40     		lsls	r2, r2, r3
 179 013c FB68     		ldr	r3, [r7, #12]
 180 013e 9A60     		str	r2, [r3, #8]
 181 0140 7B68     		ldr	r3, [r7, #4]
 182 0142 0022     		movs	r2, #0
 183 0144 5A65     		str	r2, [r3, #84]
 184 0146 7B68     		ldr	r3, [r7, #4]
 185 0148 0122     		movs	r2, #1
 186 014a 83F83520 		strb	r2, [r3, #53]
 187 014e 0023     		movs	r3, #0
 188              	.L3:
 189 0150 1846     		mov	r0, r3
 190 0152 1837     		adds	r7, r7, #24
 191 0154 BD46     		mov	sp, r7
 192              		@ sp needed
 193 0156 80BD     		pop	{r7, pc}
 194              	.L9:
 195              		.align	2
 196              	.L8:
 197 0158 3F8010F0 		.word	-267354049
 199              		.section	.text.HAL_DMA_DeInit,"ax",%progbits
 200              		.align	1
 201              		.global	HAL_DMA_DeInit
 202              		.syntax unified
 203              		.thumb
 204              		.thumb_func
 206              	HAL_DMA_DeInit:
 207              		@ args = 0, pretend = 0, frame = 16
 208              		@ frame_needed = 1, uses_anonymous_args = 0
 209 0000 80B5     		push	{r7, lr}
 210 0002 84B0     		sub	sp, sp, #16
 211 0004 00AF     		add	r7, sp, #0
 212 0006 7860     		str	r0, [r7, #4]
 213 0008 7B68     		ldr	r3, [r7, #4]
 214 000a 002B     		cmp	r3, #0
 215 000c 01D1     		bne	.L11
 216 000e 0123     		movs	r3, #1
 217 0010 50E0     		b	.L12
 218              	.L11:
 219 0012 7B68     		ldr	r3, [r7, #4]
 220 0014 93F83530 		ldrb	r3, [r3, #53]
 221 0018 DBB2     		uxtb	r3, r3
 222 001a 022B     		cmp	r3, #2
 223 001c 01D1     		bne	.L13
 224 001e 0223     		movs	r3, #2
 225 0020 48E0     		b	.L12
 226              	.L13:
 227 0022 7B68     		ldr	r3, [r7, #4]
 228 0024 1B68     		ldr	r3, [r3]
 229 0026 1A68     		ldr	r2, [r3]
 230 0028 7B68     		ldr	r3, [r7, #4]
 231 002a 1B68     		ldr	r3, [r3]
ARM GAS  C:\Users\user\AppData\Local\Temp\cc4Ji2Oa.s 			page 5


 232 002c 22F00102 		bic	r2, r2, #1
 233 0030 1A60     		str	r2, [r3]
 234 0032 7B68     		ldr	r3, [r7, #4]
 235 0034 1B68     		ldr	r3, [r3]
 236 0036 0022     		movs	r2, #0
 237 0038 1A60     		str	r2, [r3]
 238 003a 7B68     		ldr	r3, [r7, #4]
 239 003c 1B68     		ldr	r3, [r3]
 240 003e 0022     		movs	r2, #0
 241 0040 5A60     		str	r2, [r3, #4]
 242 0042 7B68     		ldr	r3, [r7, #4]
 243 0044 1B68     		ldr	r3, [r3]
 244 0046 0022     		movs	r2, #0
 245 0048 9A60     		str	r2, [r3, #8]
 246 004a 7B68     		ldr	r3, [r7, #4]
 247 004c 1B68     		ldr	r3, [r3]
 248 004e 0022     		movs	r2, #0
 249 0050 DA60     		str	r2, [r3, #12]
 250 0052 7B68     		ldr	r3, [r7, #4]
 251 0054 1B68     		ldr	r3, [r3]
 252 0056 0022     		movs	r2, #0
 253 0058 1A61     		str	r2, [r3, #16]
 254 005a 7B68     		ldr	r3, [r7, #4]
 255 005c 1B68     		ldr	r3, [r3]
 256 005e 2122     		movs	r2, #33
 257 0060 5A61     		str	r2, [r3, #20]
 258 0062 7868     		ldr	r0, [r7, #4]
 259 0064 FFF7FEFF 		bl	DMA_CalcBaseAndBitshift
 260 0068 0346     		mov	r3, r0
 261 006a FB60     		str	r3, [r7, #12]
 262 006c 7B68     		ldr	r3, [r7, #4]
 263 006e 0022     		movs	r2, #0
 264 0070 DA63     		str	r2, [r3, #60]
 265 0072 7B68     		ldr	r3, [r7, #4]
 266 0074 0022     		movs	r2, #0
 267 0076 1A64     		str	r2, [r3, #64]
 268 0078 7B68     		ldr	r3, [r7, #4]
 269 007a 0022     		movs	r2, #0
 270 007c 5A64     		str	r2, [r3, #68]
 271 007e 7B68     		ldr	r3, [r7, #4]
 272 0080 0022     		movs	r2, #0
 273 0082 9A64     		str	r2, [r3, #72]
 274 0084 7B68     		ldr	r3, [r7, #4]
 275 0086 0022     		movs	r2, #0
 276 0088 DA64     		str	r2, [r3, #76]
 277 008a 7B68     		ldr	r3, [r7, #4]
 278 008c 0022     		movs	r2, #0
 279 008e 1A65     		str	r2, [r3, #80]
 280 0090 7B68     		ldr	r3, [r7, #4]
 281 0092 DB6D     		ldr	r3, [r3, #92]
 282 0094 3F22     		movs	r2, #63
 283 0096 9A40     		lsls	r2, r2, r3
 284 0098 FB68     		ldr	r3, [r7, #12]
 285 009a 9A60     		str	r2, [r3, #8]
 286 009c 7B68     		ldr	r3, [r7, #4]
 287 009e 0022     		movs	r2, #0
 288 00a0 5A65     		str	r2, [r3, #84]
ARM GAS  C:\Users\user\AppData\Local\Temp\cc4Ji2Oa.s 			page 6


 289 00a2 7B68     		ldr	r3, [r7, #4]
 290 00a4 0022     		movs	r2, #0
 291 00a6 83F83520 		strb	r2, [r3, #53]
 292 00aa 7B68     		ldr	r3, [r7, #4]
 293 00ac 0022     		movs	r2, #0
 294 00ae 83F83420 		strb	r2, [r3, #52]
 295 00b2 0023     		movs	r3, #0
 296              	.L12:
 297 00b4 1846     		mov	r0, r3
 298 00b6 1037     		adds	r7, r7, #16
 299 00b8 BD46     		mov	sp, r7
 300              		@ sp needed
 301 00ba 80BD     		pop	{r7, pc}
 303              		.section	.text.HAL_DMA_Start,"ax",%progbits
 304              		.align	1
 305              		.global	HAL_DMA_Start
 306              		.syntax unified
 307              		.thumb
 308              		.thumb_func
 310              	HAL_DMA_Start:
 311              		@ args = 0, pretend = 0, frame = 24
 312              		@ frame_needed = 1, uses_anonymous_args = 0
 313 0000 80B5     		push	{r7, lr}
 314 0002 86B0     		sub	sp, sp, #24
 315 0004 00AF     		add	r7, sp, #0
 316 0006 F860     		str	r0, [r7, #12]
 317 0008 B960     		str	r1, [r7, #8]
 318 000a 7A60     		str	r2, [r7, #4]
 319 000c 3B60     		str	r3, [r7]
 320 000e 0023     		movs	r3, #0
 321 0010 FB75     		strb	r3, [r7, #23]
 322 0012 FB68     		ldr	r3, [r7, #12]
 323 0014 93F83430 		ldrb	r3, [r3, #52]	@ zero_extendqisi2
 324 0018 012B     		cmp	r3, #1
 325 001a 01D1     		bne	.L15
 326 001c 0223     		movs	r3, #2
 327 001e 26E0     		b	.L16
 328              	.L15:
 329 0020 FB68     		ldr	r3, [r7, #12]
 330 0022 0122     		movs	r2, #1
 331 0024 83F83420 		strb	r2, [r3, #52]
 332 0028 FB68     		ldr	r3, [r7, #12]
 333 002a 93F83530 		ldrb	r3, [r3, #53]
 334 002e DBB2     		uxtb	r3, r3
 335 0030 012B     		cmp	r3, #1
 336 0032 15D1     		bne	.L17
 337 0034 FB68     		ldr	r3, [r7, #12]
 338 0036 0222     		movs	r2, #2
 339 0038 83F83520 		strb	r2, [r3, #53]
 340 003c FB68     		ldr	r3, [r7, #12]
 341 003e 0022     		movs	r2, #0
 342 0040 5A65     		str	r2, [r3, #84]
 343 0042 3B68     		ldr	r3, [r7]
 344 0044 7A68     		ldr	r2, [r7, #4]
 345 0046 B968     		ldr	r1, [r7, #8]
 346 0048 F868     		ldr	r0, [r7, #12]
 347 004a FFF7FEFF 		bl	DMA_SetConfig
ARM GAS  C:\Users\user\AppData\Local\Temp\cc4Ji2Oa.s 			page 7


 348 004e FB68     		ldr	r3, [r7, #12]
 349 0050 1B68     		ldr	r3, [r3]
 350 0052 1A68     		ldr	r2, [r3]
 351 0054 FB68     		ldr	r3, [r7, #12]
 352 0056 1B68     		ldr	r3, [r3]
 353 0058 42F00102 		orr	r2, r2, #1
 354 005c 1A60     		str	r2, [r3]
 355 005e 05E0     		b	.L18
 356              	.L17:
 357 0060 FB68     		ldr	r3, [r7, #12]
 358 0062 0022     		movs	r2, #0
 359 0064 83F83420 		strb	r2, [r3, #52]
 360 0068 0223     		movs	r3, #2
 361 006a FB75     		strb	r3, [r7, #23]
 362              	.L18:
 363 006c FB7D     		ldrb	r3, [r7, #23]	@ zero_extendqisi2
 364              	.L16:
 365 006e 1846     		mov	r0, r3
 366 0070 1837     		adds	r7, r7, #24
 367 0072 BD46     		mov	sp, r7
 368              		@ sp needed
 369 0074 80BD     		pop	{r7, pc}
 371              		.section	.text.HAL_DMA_Start_IT,"ax",%progbits
 372              		.align	1
 373              		.global	HAL_DMA_Start_IT
 374              		.syntax unified
 375              		.thumb
 376              		.thumb_func
 378              	HAL_DMA_Start_IT:
 379              		@ args = 0, pretend = 0, frame = 24
 380              		@ frame_needed = 1, uses_anonymous_args = 0
 381 0000 80B5     		push	{r7, lr}
 382 0002 86B0     		sub	sp, sp, #24
 383 0004 00AF     		add	r7, sp, #0
 384 0006 F860     		str	r0, [r7, #12]
 385 0008 B960     		str	r1, [r7, #8]
 386 000a 7A60     		str	r2, [r7, #4]
 387 000c 3B60     		str	r3, [r7]
 388 000e 0023     		movs	r3, #0
 389 0010 FB75     		strb	r3, [r7, #23]
 390 0012 FB68     		ldr	r3, [r7, #12]
 391 0014 9B6D     		ldr	r3, [r3, #88]
 392 0016 3B61     		str	r3, [r7, #16]
 393 0018 FB68     		ldr	r3, [r7, #12]
 394 001a 93F83430 		ldrb	r3, [r3, #52]	@ zero_extendqisi2
 395 001e 012B     		cmp	r3, #1
 396 0020 01D1     		bne	.L20
 397 0022 0223     		movs	r3, #2
 398 0024 40E0     		b	.L21
 399              	.L20:
 400 0026 FB68     		ldr	r3, [r7, #12]
 401 0028 0122     		movs	r2, #1
 402 002a 83F83420 		strb	r2, [r3, #52]
 403 002e FB68     		ldr	r3, [r7, #12]
 404 0030 93F83530 		ldrb	r3, [r3, #53]
 405 0034 DBB2     		uxtb	r3, r3
 406 0036 012B     		cmp	r3, #1
ARM GAS  C:\Users\user\AppData\Local\Temp\cc4Ji2Oa.s 			page 8


 407 0038 2FD1     		bne	.L22
 408 003a FB68     		ldr	r3, [r7, #12]
 409 003c 0222     		movs	r2, #2
 410 003e 83F83520 		strb	r2, [r3, #53]
 411 0042 FB68     		ldr	r3, [r7, #12]
 412 0044 0022     		movs	r2, #0
 413 0046 5A65     		str	r2, [r3, #84]
 414 0048 3B68     		ldr	r3, [r7]
 415 004a 7A68     		ldr	r2, [r7, #4]
 416 004c B968     		ldr	r1, [r7, #8]
 417 004e F868     		ldr	r0, [r7, #12]
 418 0050 FFF7FEFF 		bl	DMA_SetConfig
 419 0054 FB68     		ldr	r3, [r7, #12]
 420 0056 DB6D     		ldr	r3, [r3, #92]
 421 0058 3F22     		movs	r2, #63
 422 005a 9A40     		lsls	r2, r2, r3
 423 005c 3B69     		ldr	r3, [r7, #16]
 424 005e 9A60     		str	r2, [r3, #8]
 425 0060 FB68     		ldr	r3, [r7, #12]
 426 0062 1B68     		ldr	r3, [r3]
 427 0064 1A68     		ldr	r2, [r3]
 428 0066 FB68     		ldr	r3, [r7, #12]
 429 0068 1B68     		ldr	r3, [r3]
 430 006a 42F01602 		orr	r2, r2, #22
 431 006e 1A60     		str	r2, [r3]
 432 0070 FB68     		ldr	r3, [r7, #12]
 433 0072 1B6C     		ldr	r3, [r3, #64]
 434 0074 002B     		cmp	r3, #0
 435 0076 07D0     		beq	.L23
 436 0078 FB68     		ldr	r3, [r7, #12]
 437 007a 1B68     		ldr	r3, [r3]
 438 007c 1A68     		ldr	r2, [r3]
 439 007e FB68     		ldr	r3, [r7, #12]
 440 0080 1B68     		ldr	r3, [r3]
 441 0082 42F00802 		orr	r2, r2, #8
 442 0086 1A60     		str	r2, [r3]
 443              	.L23:
 444 0088 FB68     		ldr	r3, [r7, #12]
 445 008a 1B68     		ldr	r3, [r3]
 446 008c 1A68     		ldr	r2, [r3]
 447 008e FB68     		ldr	r3, [r7, #12]
 448 0090 1B68     		ldr	r3, [r3]
 449 0092 42F00102 		orr	r2, r2, #1
 450 0096 1A60     		str	r2, [r3]
 451 0098 05E0     		b	.L24
 452              	.L22:
 453 009a FB68     		ldr	r3, [r7, #12]
 454 009c 0022     		movs	r2, #0
 455 009e 83F83420 		strb	r2, [r3, #52]
 456 00a2 0223     		movs	r3, #2
 457 00a4 FB75     		strb	r3, [r7, #23]
 458              	.L24:
 459 00a6 FB7D     		ldrb	r3, [r7, #23]	@ zero_extendqisi2
 460              	.L21:
 461 00a8 1846     		mov	r0, r3
 462 00aa 1837     		adds	r7, r7, #24
 463 00ac BD46     		mov	sp, r7
ARM GAS  C:\Users\user\AppData\Local\Temp\cc4Ji2Oa.s 			page 9


 464              		@ sp needed
 465 00ae 80BD     		pop	{r7, pc}
 467              		.section	.text.HAL_DMA_Abort,"ax",%progbits
 468              		.align	1
 469              		.global	HAL_DMA_Abort
 470              		.syntax unified
 471              		.thumb
 472              		.thumb_func
 474              	HAL_DMA_Abort:
 475              		@ args = 0, pretend = 0, frame = 16
 476              		@ frame_needed = 1, uses_anonymous_args = 0
 477 0000 80B5     		push	{r7, lr}
 478 0002 84B0     		sub	sp, sp, #16
 479 0004 00AF     		add	r7, sp, #0
 480 0006 7860     		str	r0, [r7, #4]
 481 0008 7B68     		ldr	r3, [r7, #4]
 482 000a 9B6D     		ldr	r3, [r3, #88]
 483 000c FB60     		str	r3, [r7, #12]
 484 000e FFF7FEFF 		bl	HAL_GetTick
 485 0012 B860     		str	r0, [r7, #8]
 486 0014 7B68     		ldr	r3, [r7, #4]
 487 0016 93F83530 		ldrb	r3, [r3, #53]
 488 001a DBB2     		uxtb	r3, r3
 489 001c 022B     		cmp	r3, #2
 490 001e 08D0     		beq	.L26
 491 0020 7B68     		ldr	r3, [r7, #4]
 492 0022 8022     		movs	r2, #128
 493 0024 5A65     		str	r2, [r3, #84]
 494 0026 7B68     		ldr	r3, [r7, #4]
 495 0028 0022     		movs	r2, #0
 496 002a 83F83420 		strb	r2, [r3, #52]
 497 002e 0123     		movs	r3, #1
 498 0030 52E0     		b	.L27
 499              	.L26:
 500 0032 7B68     		ldr	r3, [r7, #4]
 501 0034 1B68     		ldr	r3, [r3]
 502 0036 1A68     		ldr	r2, [r3]
 503 0038 7B68     		ldr	r3, [r7, #4]
 504 003a 1B68     		ldr	r3, [r3]
 505 003c 22F01602 		bic	r2, r2, #22
 506 0040 1A60     		str	r2, [r3]
 507 0042 7B68     		ldr	r3, [r7, #4]
 508 0044 1B68     		ldr	r3, [r3]
 509 0046 5A69     		ldr	r2, [r3, #20]
 510 0048 7B68     		ldr	r3, [r7, #4]
 511 004a 1B68     		ldr	r3, [r3]
 512 004c 22F08002 		bic	r2, r2, #128
 513 0050 5A61     		str	r2, [r3, #20]
 514 0052 7B68     		ldr	r3, [r7, #4]
 515 0054 1B6C     		ldr	r3, [r3, #64]
 516 0056 002B     		cmp	r3, #0
 517 0058 03D1     		bne	.L28
 518 005a 7B68     		ldr	r3, [r7, #4]
 519 005c 9B6C     		ldr	r3, [r3, #72]
 520 005e 002B     		cmp	r3, #0
 521 0060 07D0     		beq	.L29
 522              	.L28:
ARM GAS  C:\Users\user\AppData\Local\Temp\cc4Ji2Oa.s 			page 10


 523 0062 7B68     		ldr	r3, [r7, #4]
 524 0064 1B68     		ldr	r3, [r3]
 525 0066 1A68     		ldr	r2, [r3]
 526 0068 7B68     		ldr	r3, [r7, #4]
 527 006a 1B68     		ldr	r3, [r3]
 528 006c 22F00802 		bic	r2, r2, #8
 529 0070 1A60     		str	r2, [r3]
 530              	.L29:
 531 0072 7B68     		ldr	r3, [r7, #4]
 532 0074 1B68     		ldr	r3, [r3]
 533 0076 1A68     		ldr	r2, [r3]
 534 0078 7B68     		ldr	r3, [r7, #4]
 535 007a 1B68     		ldr	r3, [r3]
 536 007c 22F00102 		bic	r2, r2, #1
 537 0080 1A60     		str	r2, [r3]
 538 0082 13E0     		b	.L30
 539              	.L31:
 540 0084 FFF7FEFF 		bl	HAL_GetTick
 541 0088 0246     		mov	r2, r0
 542 008a BB68     		ldr	r3, [r7, #8]
 543 008c D31A     		subs	r3, r2, r3
 544 008e 052B     		cmp	r3, #5
 545 0090 0CD9     		bls	.L30
 546 0092 7B68     		ldr	r3, [r7, #4]
 547 0094 2022     		movs	r2, #32
 548 0096 5A65     		str	r2, [r3, #84]
 549 0098 7B68     		ldr	r3, [r7, #4]
 550 009a 0322     		movs	r2, #3
 551 009c 83F83520 		strb	r2, [r3, #53]
 552 00a0 7B68     		ldr	r3, [r7, #4]
 553 00a2 0022     		movs	r2, #0
 554 00a4 83F83420 		strb	r2, [r3, #52]
 555 00a8 0323     		movs	r3, #3
 556 00aa 15E0     		b	.L27
 557              	.L30:
 558 00ac 7B68     		ldr	r3, [r7, #4]
 559 00ae 1B68     		ldr	r3, [r3]
 560 00b0 1B68     		ldr	r3, [r3]
 561 00b2 03F00103 		and	r3, r3, #1
 562 00b6 002B     		cmp	r3, #0
 563 00b8 E4D1     		bne	.L31
 564 00ba 7B68     		ldr	r3, [r7, #4]
 565 00bc DB6D     		ldr	r3, [r3, #92]
 566 00be 3F22     		movs	r2, #63
 567 00c0 9A40     		lsls	r2, r2, r3
 568 00c2 FB68     		ldr	r3, [r7, #12]
 569 00c4 9A60     		str	r2, [r3, #8]
 570 00c6 7B68     		ldr	r3, [r7, #4]
 571 00c8 0122     		movs	r2, #1
 572 00ca 83F83520 		strb	r2, [r3, #53]
 573 00ce 7B68     		ldr	r3, [r7, #4]
 574 00d0 0022     		movs	r2, #0
 575 00d2 83F83420 		strb	r2, [r3, #52]
 576 00d6 0023     		movs	r3, #0
 577              	.L27:
 578 00d8 1846     		mov	r0, r3
 579 00da 1037     		adds	r7, r7, #16
ARM GAS  C:\Users\user\AppData\Local\Temp\cc4Ji2Oa.s 			page 11


 580 00dc BD46     		mov	sp, r7
 581              		@ sp needed
 582 00de 80BD     		pop	{r7, pc}
 584              		.section	.text.HAL_DMA_Abort_IT,"ax",%progbits
 585              		.align	1
 586              		.global	HAL_DMA_Abort_IT
 587              		.syntax unified
 588              		.thumb
 589              		.thumb_func
 591              	HAL_DMA_Abort_IT:
 592              		@ args = 0, pretend = 0, frame = 8
 593              		@ frame_needed = 1, uses_anonymous_args = 0
 594              		@ link register save eliminated.
 595 0000 80B4     		push	{r7}
 596 0002 83B0     		sub	sp, sp, #12
 597 0004 00AF     		add	r7, sp, #0
 598 0006 7860     		str	r0, [r7, #4]
 599 0008 7B68     		ldr	r3, [r7, #4]
 600 000a 93F83530 		ldrb	r3, [r3, #53]
 601 000e DBB2     		uxtb	r3, r3
 602 0010 022B     		cmp	r3, #2
 603 0012 04D0     		beq	.L33
 604 0014 7B68     		ldr	r3, [r7, #4]
 605 0016 8022     		movs	r2, #128
 606 0018 5A65     		str	r2, [r3, #84]
 607 001a 0123     		movs	r3, #1
 608 001c 0CE0     		b	.L34
 609              	.L33:
 610 001e 7B68     		ldr	r3, [r7, #4]
 611 0020 0522     		movs	r2, #5
 612 0022 83F83520 		strb	r2, [r3, #53]
 613 0026 7B68     		ldr	r3, [r7, #4]
 614 0028 1B68     		ldr	r3, [r3]
 615 002a 1A68     		ldr	r2, [r3]
 616 002c 7B68     		ldr	r3, [r7, #4]
 617 002e 1B68     		ldr	r3, [r3]
 618 0030 22F00102 		bic	r2, r2, #1
 619 0034 1A60     		str	r2, [r3]
 620 0036 0023     		movs	r3, #0
 621              	.L34:
 622 0038 1846     		mov	r0, r3
 623 003a 0C37     		adds	r7, r7, #12
 624 003c BD46     		mov	sp, r7
 625              		@ sp needed
 626 003e 5DF8047B 		ldr	r7, [sp], #4
 627 0042 7047     		bx	lr
 629              		.section	.text.HAL_DMA_PollForTransfer,"ax",%progbits
 630              		.align	1
 631              		.global	HAL_DMA_PollForTransfer
 632              		.syntax unified
 633              		.thumb
 634              		.thumb_func
 636              	HAL_DMA_PollForTransfer:
 637              		@ args = 0, pretend = 0, frame = 40
 638              		@ frame_needed = 1, uses_anonymous_args = 0
 639 0000 80B5     		push	{r7, lr}
 640 0002 8AB0     		sub	sp, sp, #40
ARM GAS  C:\Users\user\AppData\Local\Temp\cc4Ji2Oa.s 			page 12


 641 0004 00AF     		add	r7, sp, #0
 642 0006 F860     		str	r0, [r7, #12]
 643 0008 0B46     		mov	r3, r1
 644 000a 7A60     		str	r2, [r7, #4]
 645 000c FB72     		strb	r3, [r7, #11]
 646 000e 0023     		movs	r3, #0
 647 0010 FB77     		strb	r3, [r7, #31]
 648 0012 FFF7FEFF 		bl	HAL_GetTick
 649 0016 B861     		str	r0, [r7, #24]
 650 0018 FB68     		ldr	r3, [r7, #12]
 651 001a 93F83530 		ldrb	r3, [r3, #53]
 652 001e DBB2     		uxtb	r3, r3
 653 0020 022B     		cmp	r3, #2
 654 0022 08D0     		beq	.L36
 655 0024 FB68     		ldr	r3, [r7, #12]
 656 0026 8022     		movs	r2, #128
 657 0028 5A65     		str	r2, [r3, #84]
 658 002a FB68     		ldr	r3, [r7, #12]
 659 002c 0022     		movs	r2, #0
 660 002e 83F83420 		strb	r2, [r3, #52]
 661 0032 0123     		movs	r3, #1
 662 0034 BFE0     		b	.L37
 663              	.L36:
 664 0036 FB68     		ldr	r3, [r7, #12]
 665 0038 1B68     		ldr	r3, [r3]
 666 003a 1B68     		ldr	r3, [r3]
 667 003c 03F48073 		and	r3, r3, #256
 668 0040 002B     		cmp	r3, #0
 669 0042 05D0     		beq	.L38
 670 0044 FB68     		ldr	r3, [r7, #12]
 671 0046 4FF48072 		mov	r2, #256
 672 004a 5A65     		str	r2, [r3, #84]
 673 004c 0123     		movs	r3, #1
 674 004e B2E0     		b	.L37
 675              	.L38:
 676 0050 FB7A     		ldrb	r3, [r7, #11]	@ zero_extendqisi2
 677 0052 002B     		cmp	r3, #0
 678 0054 06D1     		bne	.L39
 679 0056 FB68     		ldr	r3, [r7, #12]
 680 0058 DB6D     		ldr	r3, [r3, #92]
 681 005a 2022     		movs	r2, #32
 682 005c 02FA03F3 		lsl	r3, r2, r3
 683 0060 7B62     		str	r3, [r7, #36]
 684 0062 05E0     		b	.L40
 685              	.L39:
 686 0064 FB68     		ldr	r3, [r7, #12]
 687 0066 DB6D     		ldr	r3, [r3, #92]
 688 0068 1022     		movs	r2, #16
 689 006a 02FA03F3 		lsl	r3, r2, r3
 690 006e 7B62     		str	r3, [r7, #36]
 691              	.L40:
 692 0070 FB68     		ldr	r3, [r7, #12]
 693 0072 9B6D     		ldr	r3, [r3, #88]
 694 0074 7B61     		str	r3, [r7, #20]
 695 0076 7B69     		ldr	r3, [r7, #20]
 696 0078 1B68     		ldr	r3, [r3]
 697 007a 3B62     		str	r3, [r7, #32]
ARM GAS  C:\Users\user\AppData\Local\Temp\cc4Ji2Oa.s 			page 13


 698 007c 5AE0     		b	.L41
 699              	.L48:
 700 007e 7B68     		ldr	r3, [r7, #4]
 701 0080 B3F1FF3F 		cmp	r3, #-1
 702 0084 17D0     		beq	.L42
 703 0086 7B68     		ldr	r3, [r7, #4]
 704 0088 002B     		cmp	r3, #0
 705 008a 07D0     		beq	.L43
 706 008c FFF7FEFF 		bl	HAL_GetTick
 707 0090 0246     		mov	r2, r0
 708 0092 BB69     		ldr	r3, [r7, #24]
 709 0094 D31A     		subs	r3, r2, r3
 710 0096 7A68     		ldr	r2, [r7, #4]
 711 0098 9A42     		cmp	r2, r3
 712 009a 0CD2     		bcs	.L42
 713              	.L43:
 714 009c FB68     		ldr	r3, [r7, #12]
 715 009e 2022     		movs	r2, #32
 716 00a0 5A65     		str	r2, [r3, #84]
 717 00a2 FB68     		ldr	r3, [r7, #12]
 718 00a4 0122     		movs	r2, #1
 719 00a6 83F83520 		strb	r2, [r3, #53]
 720 00aa FB68     		ldr	r3, [r7, #12]
 721 00ac 0022     		movs	r2, #0
 722 00ae 83F83420 		strb	r2, [r3, #52]
 723 00b2 0323     		movs	r3, #3
 724 00b4 7FE0     		b	.L37
 725              	.L42:
 726 00b6 7B69     		ldr	r3, [r7, #20]
 727 00b8 1B68     		ldr	r3, [r3]
 728 00ba 3B62     		str	r3, [r7, #32]
 729 00bc FB68     		ldr	r3, [r7, #12]
 730 00be DB6D     		ldr	r3, [r3, #92]
 731 00c0 0822     		movs	r2, #8
 732 00c2 9A40     		lsls	r2, r2, r3
 733 00c4 3B6A     		ldr	r3, [r7, #32]
 734 00c6 1340     		ands	r3, r3, r2
 735 00c8 002B     		cmp	r3, #0
 736 00ca 0BD0     		beq	.L44
 737 00cc FB68     		ldr	r3, [r7, #12]
 738 00ce 5B6D     		ldr	r3, [r3, #84]
 739 00d0 43F00102 		orr	r2, r3, #1
 740 00d4 FB68     		ldr	r3, [r7, #12]
 741 00d6 5A65     		str	r2, [r3, #84]
 742 00d8 FB68     		ldr	r3, [r7, #12]
 743 00da DB6D     		ldr	r3, [r3, #92]
 744 00dc 0822     		movs	r2, #8
 745 00de 9A40     		lsls	r2, r2, r3
 746 00e0 7B69     		ldr	r3, [r7, #20]
 747 00e2 9A60     		str	r2, [r3, #8]
 748              	.L44:
 749 00e4 FB68     		ldr	r3, [r7, #12]
 750 00e6 DB6D     		ldr	r3, [r3, #92]
 751 00e8 0122     		movs	r2, #1
 752 00ea 9A40     		lsls	r2, r2, r3
 753 00ec 3B6A     		ldr	r3, [r7, #32]
 754 00ee 1340     		ands	r3, r3, r2
ARM GAS  C:\Users\user\AppData\Local\Temp\cc4Ji2Oa.s 			page 14


 755 00f0 002B     		cmp	r3, #0
 756 00f2 0BD0     		beq	.L45
 757 00f4 FB68     		ldr	r3, [r7, #12]
 758 00f6 5B6D     		ldr	r3, [r3, #84]
 759 00f8 43F00202 		orr	r2, r3, #2
 760 00fc FB68     		ldr	r3, [r7, #12]
 761 00fe 5A65     		str	r2, [r3, #84]
 762 0100 FB68     		ldr	r3, [r7, #12]
 763 0102 DB6D     		ldr	r3, [r3, #92]
 764 0104 0122     		movs	r2, #1
 765 0106 9A40     		lsls	r2, r2, r3
 766 0108 7B69     		ldr	r3, [r7, #20]
 767 010a 9A60     		str	r2, [r3, #8]
 768              	.L45:
 769 010c FB68     		ldr	r3, [r7, #12]
 770 010e DB6D     		ldr	r3, [r3, #92]
 771 0110 0422     		movs	r2, #4
 772 0112 9A40     		lsls	r2, r2, r3
 773 0114 3B6A     		ldr	r3, [r7, #32]
 774 0116 1340     		ands	r3, r3, r2
 775 0118 002B     		cmp	r3, #0
 776 011a 0BD0     		beq	.L41
 777 011c FB68     		ldr	r3, [r7, #12]
 778 011e 5B6D     		ldr	r3, [r3, #84]
 779 0120 43F00402 		orr	r2, r3, #4
 780 0124 FB68     		ldr	r3, [r7, #12]
 781 0126 5A65     		str	r2, [r3, #84]
 782 0128 FB68     		ldr	r3, [r7, #12]
 783 012a DB6D     		ldr	r3, [r3, #92]
 784 012c 0422     		movs	r2, #4
 785 012e 9A40     		lsls	r2, r2, r3
 786 0130 7B69     		ldr	r3, [r7, #20]
 787 0132 9A60     		str	r2, [r3, #8]
 788              	.L41:
 789 0134 3A6A     		ldr	r2, [r7, #32]
 790 0136 7B6A     		ldr	r3, [r7, #36]
 791 0138 1340     		ands	r3, r3, r2
 792 013a 002B     		cmp	r3, #0
 793 013c 05D1     		bne	.L47
 794 013e FB68     		ldr	r3, [r7, #12]
 795 0140 5B6D     		ldr	r3, [r3, #84]
 796 0142 03F00103 		and	r3, r3, #1
 797 0146 002B     		cmp	r3, #0
 798 0148 99D0     		beq	.L48
 799              	.L47:
 800 014a FB68     		ldr	r3, [r7, #12]
 801 014c 5B6D     		ldr	r3, [r3, #84]
 802 014e 002B     		cmp	r3, #0
 803 0150 18D0     		beq	.L49
 804 0152 FB68     		ldr	r3, [r7, #12]
 805 0154 5B6D     		ldr	r3, [r3, #84]
 806 0156 03F00103 		and	r3, r3, #1
 807 015a 002B     		cmp	r3, #0
 808 015c 12D0     		beq	.L49
 809 015e F868     		ldr	r0, [r7, #12]
 810 0160 FFF7FEFF 		bl	HAL_DMA_Abort
 811 0164 FB68     		ldr	r3, [r7, #12]
ARM GAS  C:\Users\user\AppData\Local\Temp\cc4Ji2Oa.s 			page 15


 812 0166 DB6D     		ldr	r3, [r3, #92]
 813 0168 3022     		movs	r2, #48
 814 016a 9A40     		lsls	r2, r2, r3
 815 016c 7B69     		ldr	r3, [r7, #20]
 816 016e 9A60     		str	r2, [r3, #8]
 817 0170 FB68     		ldr	r3, [r7, #12]
 818 0172 0122     		movs	r2, #1
 819 0174 83F83520 		strb	r2, [r3, #53]
 820 0178 FB68     		ldr	r3, [r7, #12]
 821 017a 0022     		movs	r2, #0
 822 017c 83F83420 		strb	r2, [r3, #52]
 823 0180 0123     		movs	r3, #1
 824 0182 18E0     		b	.L37
 825              	.L49:
 826 0184 FB7A     		ldrb	r3, [r7, #11]	@ zero_extendqisi2
 827 0186 002B     		cmp	r3, #0
 828 0188 0ED1     		bne	.L50
 829 018a FB68     		ldr	r3, [r7, #12]
 830 018c DB6D     		ldr	r3, [r3, #92]
 831 018e 3022     		movs	r2, #48
 832 0190 9A40     		lsls	r2, r2, r3
 833 0192 7B69     		ldr	r3, [r7, #20]
 834 0194 9A60     		str	r2, [r3, #8]
 835 0196 FB68     		ldr	r3, [r7, #12]
 836 0198 0122     		movs	r2, #1
 837 019a 83F83520 		strb	r2, [r3, #53]
 838 019e FB68     		ldr	r3, [r7, #12]
 839 01a0 0022     		movs	r2, #0
 840 01a2 83F83420 		strb	r2, [r3, #52]
 841 01a6 05E0     		b	.L51
 842              	.L50:
 843 01a8 FB68     		ldr	r3, [r7, #12]
 844 01aa DB6D     		ldr	r3, [r3, #92]
 845 01ac 1022     		movs	r2, #16
 846 01ae 9A40     		lsls	r2, r2, r3
 847 01b0 7B69     		ldr	r3, [r7, #20]
 848 01b2 9A60     		str	r2, [r3, #8]
 849              	.L51:
 850 01b4 FB7F     		ldrb	r3, [r7, #31]	@ zero_extendqisi2
 851              	.L37:
 852 01b6 1846     		mov	r0, r3
 853 01b8 2837     		adds	r7, r7, #40
 854 01ba BD46     		mov	sp, r7
 855              		@ sp needed
 856 01bc 80BD     		pop	{r7, pc}
 858              		.section	.text.HAL_DMA_IRQHandler,"ax",%progbits
 859              		.align	1
 860              		.global	HAL_DMA_IRQHandler
 861              		.syntax unified
 862              		.thumb
 863              		.thumb_func
 865              	HAL_DMA_IRQHandler:
 866              		@ args = 0, pretend = 0, frame = 24
 867              		@ frame_needed = 1, uses_anonymous_args = 0
 868 0000 80B5     		push	{r7, lr}
 869 0002 86B0     		sub	sp, sp, #24
 870 0004 00AF     		add	r7, sp, #0
ARM GAS  C:\Users\user\AppData\Local\Temp\cc4Ji2Oa.s 			page 16


 871 0006 7860     		str	r0, [r7, #4]
 872 0008 0023     		movs	r3, #0
 873 000a BB60     		str	r3, [r7, #8]
 874 000c 8E4B     		ldr	r3, .L75
 875 000e 1B68     		ldr	r3, [r3]
 876 0010 8E4A     		ldr	r2, .L75+4
 877 0012 A2FB0323 		umull	r2, r3, r2, r3
 878 0016 9B0A     		lsrs	r3, r3, #10
 879 0018 7B61     		str	r3, [r7, #20]
 880 001a 7B68     		ldr	r3, [r7, #4]
 881 001c 9B6D     		ldr	r3, [r3, #88]
 882 001e 3B61     		str	r3, [r7, #16]
 883 0020 3B69     		ldr	r3, [r7, #16]
 884 0022 1B68     		ldr	r3, [r3]
 885 0024 FB60     		str	r3, [r7, #12]
 886 0026 7B68     		ldr	r3, [r7, #4]
 887 0028 DB6D     		ldr	r3, [r3, #92]
 888 002a 0822     		movs	r2, #8
 889 002c 9A40     		lsls	r2, r2, r3
 890 002e FB68     		ldr	r3, [r7, #12]
 891 0030 1340     		ands	r3, r3, r2
 892 0032 002B     		cmp	r3, #0
 893 0034 1AD0     		beq	.L53
 894 0036 7B68     		ldr	r3, [r7, #4]
 895 0038 1B68     		ldr	r3, [r3]
 896 003a 1B68     		ldr	r3, [r3]
 897 003c 03F00403 		and	r3, r3, #4
 898 0040 002B     		cmp	r3, #0
 899 0042 13D0     		beq	.L53
 900 0044 7B68     		ldr	r3, [r7, #4]
 901 0046 1B68     		ldr	r3, [r3]
 902 0048 1A68     		ldr	r2, [r3]
 903 004a 7B68     		ldr	r3, [r7, #4]
 904 004c 1B68     		ldr	r3, [r3]
 905 004e 22F00402 		bic	r2, r2, #4
 906 0052 1A60     		str	r2, [r3]
 907 0054 7B68     		ldr	r3, [r7, #4]
 908 0056 DB6D     		ldr	r3, [r3, #92]
 909 0058 0822     		movs	r2, #8
 910 005a 9A40     		lsls	r2, r2, r3
 911 005c 3B69     		ldr	r3, [r7, #16]
 912 005e 9A60     		str	r2, [r3, #8]
 913 0060 7B68     		ldr	r3, [r7, #4]
 914 0062 5B6D     		ldr	r3, [r3, #84]
 915 0064 43F00102 		orr	r2, r3, #1
 916 0068 7B68     		ldr	r3, [r7, #4]
 917 006a 5A65     		str	r2, [r3, #84]
 918              	.L53:
 919 006c 7B68     		ldr	r3, [r7, #4]
 920 006e DB6D     		ldr	r3, [r3, #92]
 921 0070 0122     		movs	r2, #1
 922 0072 9A40     		lsls	r2, r2, r3
 923 0074 FB68     		ldr	r3, [r7, #12]
 924 0076 1340     		ands	r3, r3, r2
 925 0078 002B     		cmp	r3, #0
 926 007a 12D0     		beq	.L54
 927 007c 7B68     		ldr	r3, [r7, #4]
ARM GAS  C:\Users\user\AppData\Local\Temp\cc4Ji2Oa.s 			page 17


 928 007e 1B68     		ldr	r3, [r3]
 929 0080 5B69     		ldr	r3, [r3, #20]
 930 0082 03F08003 		and	r3, r3, #128
 931 0086 002B     		cmp	r3, #0
 932 0088 0BD0     		beq	.L54
 933 008a 7B68     		ldr	r3, [r7, #4]
 934 008c DB6D     		ldr	r3, [r3, #92]
 935 008e 0122     		movs	r2, #1
 936 0090 9A40     		lsls	r2, r2, r3
 937 0092 3B69     		ldr	r3, [r7, #16]
 938 0094 9A60     		str	r2, [r3, #8]
 939 0096 7B68     		ldr	r3, [r7, #4]
 940 0098 5B6D     		ldr	r3, [r3, #84]
 941 009a 43F00202 		orr	r2, r3, #2
 942 009e 7B68     		ldr	r3, [r7, #4]
 943 00a0 5A65     		str	r2, [r3, #84]
 944              	.L54:
 945 00a2 7B68     		ldr	r3, [r7, #4]
 946 00a4 DB6D     		ldr	r3, [r3, #92]
 947 00a6 0422     		movs	r2, #4
 948 00a8 9A40     		lsls	r2, r2, r3
 949 00aa FB68     		ldr	r3, [r7, #12]
 950 00ac 1340     		ands	r3, r3, r2
 951 00ae 002B     		cmp	r3, #0
 952 00b0 12D0     		beq	.L55
 953 00b2 7B68     		ldr	r3, [r7, #4]
 954 00b4 1B68     		ldr	r3, [r3]
 955 00b6 1B68     		ldr	r3, [r3]
 956 00b8 03F00203 		and	r3, r3, #2
 957 00bc 002B     		cmp	r3, #0
 958 00be 0BD0     		beq	.L55
 959 00c0 7B68     		ldr	r3, [r7, #4]
 960 00c2 DB6D     		ldr	r3, [r3, #92]
 961 00c4 0422     		movs	r2, #4
 962 00c6 9A40     		lsls	r2, r2, r3
 963 00c8 3B69     		ldr	r3, [r7, #16]
 964 00ca 9A60     		str	r2, [r3, #8]
 965 00cc 7B68     		ldr	r3, [r7, #4]
 966 00ce 5B6D     		ldr	r3, [r3, #84]
 967 00d0 43F00402 		orr	r2, r3, #4
 968 00d4 7B68     		ldr	r3, [r7, #4]
 969 00d6 5A65     		str	r2, [r3, #84]
 970              	.L55:
 971 00d8 7B68     		ldr	r3, [r7, #4]
 972 00da DB6D     		ldr	r3, [r3, #92]
 973 00dc 1022     		movs	r2, #16
 974 00de 9A40     		lsls	r2, r2, r3
 975 00e0 FB68     		ldr	r3, [r7, #12]
 976 00e2 1340     		ands	r3, r3, r2
 977 00e4 002B     		cmp	r3, #0
 978 00e6 43D0     		beq	.L56
 979 00e8 7B68     		ldr	r3, [r7, #4]
 980 00ea 1B68     		ldr	r3, [r3]
 981 00ec 1B68     		ldr	r3, [r3]
 982 00ee 03F00803 		and	r3, r3, #8
 983 00f2 002B     		cmp	r3, #0
 984 00f4 3CD0     		beq	.L56
ARM GAS  C:\Users\user\AppData\Local\Temp\cc4Ji2Oa.s 			page 18


 985 00f6 7B68     		ldr	r3, [r7, #4]
 986 00f8 DB6D     		ldr	r3, [r3, #92]
 987 00fa 1022     		movs	r2, #16
 988 00fc 9A40     		lsls	r2, r2, r3
 989 00fe 3B69     		ldr	r3, [r7, #16]
 990 0100 9A60     		str	r2, [r3, #8]
 991 0102 7B68     		ldr	r3, [r7, #4]
 992 0104 1B68     		ldr	r3, [r3]
 993 0106 1B68     		ldr	r3, [r3]
 994 0108 03F48023 		and	r3, r3, #262144
 995 010c 002B     		cmp	r3, #0
 996 010e 18D0     		beq	.L57
 997 0110 7B68     		ldr	r3, [r7, #4]
 998 0112 1B68     		ldr	r3, [r3]
 999 0114 1B68     		ldr	r3, [r3]
 1000 0116 03F40023 		and	r3, r3, #524288
 1001 011a 002B     		cmp	r3, #0
 1002 011c 08D1     		bne	.L58
 1003 011e 7B68     		ldr	r3, [r7, #4]
 1004 0120 1B6C     		ldr	r3, [r3, #64]
 1005 0122 002B     		cmp	r3, #0
 1006 0124 24D0     		beq	.L56
 1007 0126 7B68     		ldr	r3, [r7, #4]
 1008 0128 1B6C     		ldr	r3, [r3, #64]
 1009 012a 7868     		ldr	r0, [r7, #4]
 1010 012c 9847     		blx	r3
 1011 012e 1FE0     		b	.L56
 1012              	.L58:
 1013 0130 7B68     		ldr	r3, [r7, #4]
 1014 0132 9B6C     		ldr	r3, [r3, #72]
 1015 0134 002B     		cmp	r3, #0
 1016 0136 1BD0     		beq	.L56
 1017 0138 7B68     		ldr	r3, [r7, #4]
 1018 013a 9B6C     		ldr	r3, [r3, #72]
 1019 013c 7868     		ldr	r0, [r7, #4]
 1020 013e 9847     		blx	r3
 1021 0140 16E0     		b	.L56
 1022              	.L57:
 1023 0142 7B68     		ldr	r3, [r7, #4]
 1024 0144 1B68     		ldr	r3, [r3]
 1025 0146 1B68     		ldr	r3, [r3]
 1026 0148 03F48073 		and	r3, r3, #256
 1027 014c 002B     		cmp	r3, #0
 1028 014e 07D1     		bne	.L59
 1029 0150 7B68     		ldr	r3, [r7, #4]
 1030 0152 1B68     		ldr	r3, [r3]
 1031 0154 1A68     		ldr	r2, [r3]
 1032 0156 7B68     		ldr	r3, [r7, #4]
 1033 0158 1B68     		ldr	r3, [r3]
 1034 015a 22F00802 		bic	r2, r2, #8
 1035 015e 1A60     		str	r2, [r3]
 1036              	.L59:
 1037 0160 7B68     		ldr	r3, [r7, #4]
 1038 0162 1B6C     		ldr	r3, [r3, #64]
 1039 0164 002B     		cmp	r3, #0
 1040 0166 03D0     		beq	.L56
 1041 0168 7B68     		ldr	r3, [r7, #4]
ARM GAS  C:\Users\user\AppData\Local\Temp\cc4Ji2Oa.s 			page 19


 1042 016a 1B6C     		ldr	r3, [r3, #64]
 1043 016c 7868     		ldr	r0, [r7, #4]
 1044 016e 9847     		blx	r3
 1045              	.L56:
 1046 0170 7B68     		ldr	r3, [r7, #4]
 1047 0172 DB6D     		ldr	r3, [r3, #92]
 1048 0174 2022     		movs	r2, #32
 1049 0176 9A40     		lsls	r2, r2, r3
 1050 0178 FB68     		ldr	r3, [r7, #12]
 1051 017a 1340     		ands	r3, r3, r2
 1052 017c 002B     		cmp	r3, #0
 1053 017e 00F08F80 		beq	.L60
 1054 0182 7B68     		ldr	r3, [r7, #4]
 1055 0184 1B68     		ldr	r3, [r3]
 1056 0186 1B68     		ldr	r3, [r3]
 1057 0188 03F01003 		and	r3, r3, #16
 1058 018c 002B     		cmp	r3, #0
 1059 018e 00F08780 		beq	.L60
 1060 0192 7B68     		ldr	r3, [r7, #4]
 1061 0194 DB6D     		ldr	r3, [r3, #92]
 1062 0196 2022     		movs	r2, #32
 1063 0198 9A40     		lsls	r2, r2, r3
 1064 019a 3B69     		ldr	r3, [r7, #16]
 1065 019c 9A60     		str	r2, [r3, #8]
 1066 019e 7B68     		ldr	r3, [r7, #4]
 1067 01a0 93F83530 		ldrb	r3, [r3, #53]
 1068 01a4 DBB2     		uxtb	r3, r3
 1069 01a6 052B     		cmp	r3, #5
 1070 01a8 36D1     		bne	.L61
 1071 01aa 7B68     		ldr	r3, [r7, #4]
 1072 01ac 1B68     		ldr	r3, [r3]
 1073 01ae 1A68     		ldr	r2, [r3]
 1074 01b0 7B68     		ldr	r3, [r7, #4]
 1075 01b2 1B68     		ldr	r3, [r3]
 1076 01b4 22F01602 		bic	r2, r2, #22
 1077 01b8 1A60     		str	r2, [r3]
 1078 01ba 7B68     		ldr	r3, [r7, #4]
 1079 01bc 1B68     		ldr	r3, [r3]
 1080 01be 5A69     		ldr	r2, [r3, #20]
 1081 01c0 7B68     		ldr	r3, [r7, #4]
 1082 01c2 1B68     		ldr	r3, [r3]
 1083 01c4 22F08002 		bic	r2, r2, #128
 1084 01c8 5A61     		str	r2, [r3, #20]
 1085 01ca 7B68     		ldr	r3, [r7, #4]
 1086 01cc 1B6C     		ldr	r3, [r3, #64]
 1087 01ce 002B     		cmp	r3, #0
 1088 01d0 03D1     		bne	.L62
 1089 01d2 7B68     		ldr	r3, [r7, #4]
 1090 01d4 9B6C     		ldr	r3, [r3, #72]
 1091 01d6 002B     		cmp	r3, #0
 1092 01d8 07D0     		beq	.L63
 1093              	.L62:
 1094 01da 7B68     		ldr	r3, [r7, #4]
 1095 01dc 1B68     		ldr	r3, [r3]
 1096 01de 1A68     		ldr	r2, [r3]
 1097 01e0 7B68     		ldr	r3, [r7, #4]
 1098 01e2 1B68     		ldr	r3, [r3]
ARM GAS  C:\Users\user\AppData\Local\Temp\cc4Ji2Oa.s 			page 20


 1099 01e4 22F00802 		bic	r2, r2, #8
 1100 01e8 1A60     		str	r2, [r3]
 1101              	.L63:
 1102 01ea 7B68     		ldr	r3, [r7, #4]
 1103 01ec DB6D     		ldr	r3, [r3, #92]
 1104 01ee 3F22     		movs	r2, #63
 1105 01f0 9A40     		lsls	r2, r2, r3
 1106 01f2 3B69     		ldr	r3, [r7, #16]
 1107 01f4 9A60     		str	r2, [r3, #8]
 1108 01f6 7B68     		ldr	r3, [r7, #4]
 1109 01f8 0122     		movs	r2, #1
 1110 01fa 83F83520 		strb	r2, [r3, #53]
 1111 01fe 7B68     		ldr	r3, [r7, #4]
 1112 0200 0022     		movs	r2, #0
 1113 0202 83F83420 		strb	r2, [r3, #52]
 1114 0206 7B68     		ldr	r3, [r7, #4]
 1115 0208 1B6D     		ldr	r3, [r3, #80]
 1116 020a 002B     		cmp	r3, #0
 1117 020c 7ED0     		beq	.L73
 1118 020e 7B68     		ldr	r3, [r7, #4]
 1119 0210 1B6D     		ldr	r3, [r3, #80]
 1120 0212 7868     		ldr	r0, [r7, #4]
 1121 0214 9847     		blx	r3
 1122 0216 79E0     		b	.L73
 1123              	.L61:
 1124 0218 7B68     		ldr	r3, [r7, #4]
 1125 021a 1B68     		ldr	r3, [r3]
 1126 021c 1B68     		ldr	r3, [r3]
 1127 021e 03F48023 		and	r3, r3, #262144
 1128 0222 002B     		cmp	r3, #0
 1129 0224 1DD0     		beq	.L66
 1130 0226 7B68     		ldr	r3, [r7, #4]
 1131 0228 1B68     		ldr	r3, [r3]
 1132 022a 1B68     		ldr	r3, [r3]
 1133 022c 03F40023 		and	r3, r3, #524288
 1134 0230 002B     		cmp	r3, #0
 1135 0232 0DD1     		bne	.L67
 1136 0234 7B68     		ldr	r3, [r7, #4]
 1137 0236 5B6C     		ldr	r3, [r3, #68]
 1138 0238 002B     		cmp	r3, #0
 1139 023a 31D0     		beq	.L60
 1140 023c 7B68     		ldr	r3, [r7, #4]
 1141 023e 5B6C     		ldr	r3, [r3, #68]
 1142 0240 7868     		ldr	r0, [r7, #4]
 1143 0242 9847     		blx	r3
 1144 0244 2CE0     		b	.L60
 1145              	.L76:
 1146 0246 00BF     		.align	2
 1147              	.L75:
 1148 0248 00000000 		.word	SystemCoreClock
 1149 024c B5814E1B 		.word	458129845
 1150              	.L67:
 1151 0250 7B68     		ldr	r3, [r7, #4]
 1152 0252 DB6B     		ldr	r3, [r3, #60]
 1153 0254 002B     		cmp	r3, #0
 1154 0256 23D0     		beq	.L60
 1155 0258 7B68     		ldr	r3, [r7, #4]
ARM GAS  C:\Users\user\AppData\Local\Temp\cc4Ji2Oa.s 			page 21


 1156 025a DB6B     		ldr	r3, [r3, #60]
 1157 025c 7868     		ldr	r0, [r7, #4]
 1158 025e 9847     		blx	r3
 1159 0260 1EE0     		b	.L60
 1160              	.L66:
 1161 0262 7B68     		ldr	r3, [r7, #4]
 1162 0264 1B68     		ldr	r3, [r3]
 1163 0266 1B68     		ldr	r3, [r3]
 1164 0268 03F48073 		and	r3, r3, #256
 1165 026c 002B     		cmp	r3, #0
 1166 026e 0FD1     		bne	.L68
 1167 0270 7B68     		ldr	r3, [r7, #4]
 1168 0272 1B68     		ldr	r3, [r3]
 1169 0274 1A68     		ldr	r2, [r3]
 1170 0276 7B68     		ldr	r3, [r7, #4]
 1171 0278 1B68     		ldr	r3, [r3]
 1172 027a 22F01002 		bic	r2, r2, #16
 1173 027e 1A60     		str	r2, [r3]
 1174 0280 7B68     		ldr	r3, [r7, #4]
 1175 0282 0122     		movs	r2, #1
 1176 0284 83F83520 		strb	r2, [r3, #53]
 1177 0288 7B68     		ldr	r3, [r7, #4]
 1178 028a 0022     		movs	r2, #0
 1179 028c 83F83420 		strb	r2, [r3, #52]
 1180              	.L68:
 1181 0290 7B68     		ldr	r3, [r7, #4]
 1182 0292 DB6B     		ldr	r3, [r3, #60]
 1183 0294 002B     		cmp	r3, #0
 1184 0296 03D0     		beq	.L60
 1185 0298 7B68     		ldr	r3, [r7, #4]
 1186 029a DB6B     		ldr	r3, [r3, #60]
 1187 029c 7868     		ldr	r0, [r7, #4]
 1188 029e 9847     		blx	r3
 1189              	.L60:
 1190 02a0 7B68     		ldr	r3, [r7, #4]
 1191 02a2 5B6D     		ldr	r3, [r3, #84]
 1192 02a4 002B     		cmp	r3, #0
 1193 02a6 32D0     		beq	.L52
 1194 02a8 7B68     		ldr	r3, [r7, #4]
 1195 02aa 5B6D     		ldr	r3, [r3, #84]
 1196 02ac 03F00103 		and	r3, r3, #1
 1197 02b0 002B     		cmp	r3, #0
 1198 02b2 22D0     		beq	.L69
 1199 02b4 7B68     		ldr	r3, [r7, #4]
 1200 02b6 0522     		movs	r2, #5
 1201 02b8 83F83520 		strb	r2, [r3, #53]
 1202 02bc 7B68     		ldr	r3, [r7, #4]
 1203 02be 1B68     		ldr	r3, [r3]
 1204 02c0 1A68     		ldr	r2, [r3]
 1205 02c2 7B68     		ldr	r3, [r7, #4]
 1206 02c4 1B68     		ldr	r3, [r3]
 1207 02c6 22F00102 		bic	r2, r2, #1
 1208 02ca 1A60     		str	r2, [r3]
 1209              	.L72:
 1210 02cc BB68     		ldr	r3, [r7, #8]
 1211 02ce 0133     		adds	r3, r3, #1
 1212 02d0 BB60     		str	r3, [r7, #8]
ARM GAS  C:\Users\user\AppData\Local\Temp\cc4Ji2Oa.s 			page 22


 1213 02d2 7A69     		ldr	r2, [r7, #20]
 1214 02d4 9A42     		cmp	r2, r3
 1215 02d6 07D3     		bcc	.L74
 1216 02d8 7B68     		ldr	r3, [r7, #4]
 1217 02da 1B68     		ldr	r3, [r3]
 1218 02dc 1B68     		ldr	r3, [r3]
 1219 02de 03F00103 		and	r3, r3, #1
 1220 02e2 002B     		cmp	r3, #0
 1221 02e4 F2D1     		bne	.L72
 1222 02e6 00E0     		b	.L71
 1223              	.L74:
 1224 02e8 00BF     		nop
 1225              	.L71:
 1226 02ea 7B68     		ldr	r3, [r7, #4]
 1227 02ec 0122     		movs	r2, #1
 1228 02ee 83F83520 		strb	r2, [r3, #53]
 1229 02f2 7B68     		ldr	r3, [r7, #4]
 1230 02f4 0022     		movs	r2, #0
 1231 02f6 83F83420 		strb	r2, [r3, #52]
 1232              	.L69:
 1233 02fa 7B68     		ldr	r3, [r7, #4]
 1234 02fc DB6C     		ldr	r3, [r3, #76]
 1235 02fe 002B     		cmp	r3, #0
 1236 0300 05D0     		beq	.L52
 1237 0302 7B68     		ldr	r3, [r7, #4]
 1238 0304 DB6C     		ldr	r3, [r3, #76]
 1239 0306 7868     		ldr	r0, [r7, #4]
 1240 0308 9847     		blx	r3
 1241 030a 00E0     		b	.L52
 1242              	.L73:
 1243 030c 00BF     		nop
 1244              	.L52:
 1245 030e 1837     		adds	r7, r7, #24
 1246 0310 BD46     		mov	sp, r7
 1247              		@ sp needed
 1248 0312 80BD     		pop	{r7, pc}
 1250              		.section	.text.HAL_DMA_RegisterCallback,"ax",%progbits
 1251              		.align	1
 1252              		.global	HAL_DMA_RegisterCallback
 1253              		.syntax unified
 1254              		.thumb
 1255              		.thumb_func
 1257              	HAL_DMA_RegisterCallback:
 1258              		@ args = 0, pretend = 0, frame = 24
 1259              		@ frame_needed = 1, uses_anonymous_args = 0
 1260              		@ link register save eliminated.
 1261 0000 80B4     		push	{r7}
 1262 0002 87B0     		sub	sp, sp, #28
 1263 0004 00AF     		add	r7, sp, #0
 1264 0006 F860     		str	r0, [r7, #12]
 1265 0008 0B46     		mov	r3, r1
 1266 000a 7A60     		str	r2, [r7, #4]
 1267 000c FB72     		strb	r3, [r7, #11]
 1268 000e 0023     		movs	r3, #0
 1269 0010 FB75     		strb	r3, [r7, #23]
 1270 0012 FB68     		ldr	r3, [r7, #12]
 1271 0014 93F83430 		ldrb	r3, [r3, #52]	@ zero_extendqisi2
ARM GAS  C:\Users\user\AppData\Local\Temp\cc4Ji2Oa.s 			page 23


 1272 0018 012B     		cmp	r3, #1
 1273 001a 01D1     		bne	.L78
 1274 001c 0223     		movs	r3, #2
 1275 001e 3DE0     		b	.L79
 1276              	.L78:
 1277 0020 FB68     		ldr	r3, [r7, #12]
 1278 0022 0122     		movs	r2, #1
 1279 0024 83F83420 		strb	r2, [r3, #52]
 1280 0028 FB68     		ldr	r3, [r7, #12]
 1281 002a 93F83530 		ldrb	r3, [r3, #53]
 1282 002e DBB2     		uxtb	r3, r3
 1283 0030 012B     		cmp	r3, #1
 1284 0032 2CD1     		bne	.L80
 1285 0034 FB7A     		ldrb	r3, [r7, #11]	@ zero_extendqisi2
 1286 0036 052B     		cmp	r3, #5
 1287 0038 26D8     		bhi	.L81
 1288 003a 01A2     		adr	r2, .L83
 1289 003c 52F823F0 		ldr	pc, [r2, r3, lsl #2]
 1290              		.p2align 2
 1291              	.L83:
 1292 0040 59000000 		.word	.L88+1
 1293 0044 61000000 		.word	.L87+1
 1294 0048 69000000 		.word	.L86+1
 1295 004c 71000000 		.word	.L85+1
 1296 0050 79000000 		.word	.L84+1
 1297 0054 81000000 		.word	.L82+1
 1298              		.p2align 1
 1299              	.L88:
 1300 0058 FB68     		ldr	r3, [r7, #12]
 1301 005a 7A68     		ldr	r2, [r7, #4]
 1302 005c DA63     		str	r2, [r3, #60]
 1303 005e 18E0     		b	.L90
 1304              	.L87:
 1305 0060 FB68     		ldr	r3, [r7, #12]
 1306 0062 7A68     		ldr	r2, [r7, #4]
 1307 0064 1A64     		str	r2, [r3, #64]
 1308 0066 14E0     		b	.L90
 1309              	.L86:
 1310 0068 FB68     		ldr	r3, [r7, #12]
 1311 006a 7A68     		ldr	r2, [r7, #4]
 1312 006c 5A64     		str	r2, [r3, #68]
 1313 006e 10E0     		b	.L90
 1314              	.L85:
 1315 0070 FB68     		ldr	r3, [r7, #12]
 1316 0072 7A68     		ldr	r2, [r7, #4]
 1317 0074 9A64     		str	r2, [r3, #72]
 1318 0076 0CE0     		b	.L90
 1319              	.L84:
 1320 0078 FB68     		ldr	r3, [r7, #12]
 1321 007a 7A68     		ldr	r2, [r7, #4]
 1322 007c DA64     		str	r2, [r3, #76]
 1323 007e 08E0     		b	.L90
 1324              	.L82:
 1325 0080 FB68     		ldr	r3, [r7, #12]
 1326 0082 7A68     		ldr	r2, [r7, #4]
 1327 0084 1A65     		str	r2, [r3, #80]
 1328 0086 04E0     		b	.L90
ARM GAS  C:\Users\user\AppData\Local\Temp\cc4Ji2Oa.s 			page 24


 1329              	.L81:
 1330 0088 0123     		movs	r3, #1
 1331 008a FB75     		strb	r3, [r7, #23]
 1332 008c 01E0     		b	.L90
 1333              	.L80:
 1334 008e 0123     		movs	r3, #1
 1335 0090 FB75     		strb	r3, [r7, #23]
 1336              	.L90:
 1337 0092 FB68     		ldr	r3, [r7, #12]
 1338 0094 0022     		movs	r2, #0
 1339 0096 83F83420 		strb	r2, [r3, #52]
 1340 009a FB7D     		ldrb	r3, [r7, #23]	@ zero_extendqisi2
 1341              	.L79:
 1342 009c 1846     		mov	r0, r3
 1343 009e 1C37     		adds	r7, r7, #28
 1344 00a0 BD46     		mov	sp, r7
 1345              		@ sp needed
 1346 00a2 5DF8047B 		ldr	r7, [sp], #4
 1347 00a6 7047     		bx	lr
 1349              		.section	.text.HAL_DMA_UnRegisterCallback,"ax",%progbits
 1350              		.align	1
 1351              		.global	HAL_DMA_UnRegisterCallback
 1352              		.syntax unified
 1353              		.thumb
 1354              		.thumb_func
 1356              	HAL_DMA_UnRegisterCallback:
 1357              		@ args = 0, pretend = 0, frame = 16
 1358              		@ frame_needed = 1, uses_anonymous_args = 0
 1359              		@ link register save eliminated.
 1360 0000 80B4     		push	{r7}
 1361 0002 85B0     		sub	sp, sp, #20
 1362 0004 00AF     		add	r7, sp, #0
 1363 0006 7860     		str	r0, [r7, #4]
 1364 0008 0B46     		mov	r3, r1
 1365 000a FB70     		strb	r3, [r7, #3]
 1366 000c 0023     		movs	r3, #0
 1367 000e FB73     		strb	r3, [r7, #15]
 1368 0010 7B68     		ldr	r3, [r7, #4]
 1369 0012 93F83430 		ldrb	r3, [r3, #52]	@ zero_extendqisi2
 1370 0016 012B     		cmp	r3, #1
 1371 0018 01D1     		bne	.L92
 1372 001a 0223     		movs	r3, #2
 1373 001c 53E0     		b	.L93
 1374              	.L92:
 1375 001e 7B68     		ldr	r3, [r7, #4]
 1376 0020 0122     		movs	r2, #1
 1377 0022 83F83420 		strb	r2, [r3, #52]
 1378 0026 7B68     		ldr	r3, [r7, #4]
 1379 0028 93F83530 		ldrb	r3, [r3, #53]
 1380 002c DBB2     		uxtb	r3, r3
 1381 002e 012B     		cmp	r3, #1
 1382 0030 42D1     		bne	.L94
 1383 0032 FB78     		ldrb	r3, [r7, #3]	@ zero_extendqisi2
 1384 0034 062B     		cmp	r3, #6
 1385 0036 3CD8     		bhi	.L95
 1386 0038 01A2     		adr	r2, .L97
 1387 003a 52F823F0 		ldr	pc, [r2, r3, lsl #2]
ARM GAS  C:\Users\user\AppData\Local\Temp\cc4Ji2Oa.s 			page 25


 1388 003e 00BF     		.p2align 2
 1389              	.L97:
 1390 0040 5D000000 		.word	.L103+1
 1391 0044 65000000 		.word	.L102+1
 1392 0048 6D000000 		.word	.L101+1
 1393 004c 75000000 		.word	.L100+1
 1394 0050 7D000000 		.word	.L99+1
 1395 0054 85000000 		.word	.L98+1
 1396 0058 8D000000 		.word	.L96+1
 1397              		.p2align 1
 1398              	.L103:
 1399 005c 7B68     		ldr	r3, [r7, #4]
 1400 005e 0022     		movs	r2, #0
 1401 0060 DA63     		str	r2, [r3, #60]
 1402 0062 2BE0     		b	.L105
 1403              	.L102:
 1404 0064 7B68     		ldr	r3, [r7, #4]
 1405 0066 0022     		movs	r2, #0
 1406 0068 1A64     		str	r2, [r3, #64]
 1407 006a 27E0     		b	.L105
 1408              	.L101:
 1409 006c 7B68     		ldr	r3, [r7, #4]
 1410 006e 0022     		movs	r2, #0
 1411 0070 5A64     		str	r2, [r3, #68]
 1412 0072 23E0     		b	.L105
 1413              	.L100:
 1414 0074 7B68     		ldr	r3, [r7, #4]
 1415 0076 0022     		movs	r2, #0
 1416 0078 9A64     		str	r2, [r3, #72]
 1417 007a 1FE0     		b	.L105
 1418              	.L99:
 1419 007c 7B68     		ldr	r3, [r7, #4]
 1420 007e 0022     		movs	r2, #0
 1421 0080 DA64     		str	r2, [r3, #76]
 1422 0082 1BE0     		b	.L105
 1423              	.L98:
 1424 0084 7B68     		ldr	r3, [r7, #4]
 1425 0086 0022     		movs	r2, #0
 1426 0088 1A65     		str	r2, [r3, #80]
 1427 008a 17E0     		b	.L105
 1428              	.L96:
 1429 008c 7B68     		ldr	r3, [r7, #4]
 1430 008e 0022     		movs	r2, #0
 1431 0090 DA63     		str	r2, [r3, #60]
 1432 0092 7B68     		ldr	r3, [r7, #4]
 1433 0094 0022     		movs	r2, #0
 1434 0096 1A64     		str	r2, [r3, #64]
 1435 0098 7B68     		ldr	r3, [r7, #4]
 1436 009a 0022     		movs	r2, #0
 1437 009c 5A64     		str	r2, [r3, #68]
 1438 009e 7B68     		ldr	r3, [r7, #4]
 1439 00a0 0022     		movs	r2, #0
 1440 00a2 9A64     		str	r2, [r3, #72]
 1441 00a4 7B68     		ldr	r3, [r7, #4]
 1442 00a6 0022     		movs	r2, #0
 1443 00a8 DA64     		str	r2, [r3, #76]
 1444 00aa 7B68     		ldr	r3, [r7, #4]
ARM GAS  C:\Users\user\AppData\Local\Temp\cc4Ji2Oa.s 			page 26


 1445 00ac 0022     		movs	r2, #0
 1446 00ae 1A65     		str	r2, [r3, #80]
 1447 00b0 04E0     		b	.L105
 1448              	.L95:
 1449 00b2 0123     		movs	r3, #1
 1450 00b4 FB73     		strb	r3, [r7, #15]
 1451 00b6 01E0     		b	.L105
 1452              	.L94:
 1453 00b8 0123     		movs	r3, #1
 1454 00ba FB73     		strb	r3, [r7, #15]
 1455              	.L105:
 1456 00bc 7B68     		ldr	r3, [r7, #4]
 1457 00be 0022     		movs	r2, #0
 1458 00c0 83F83420 		strb	r2, [r3, #52]
 1459 00c4 FB7B     		ldrb	r3, [r7, #15]	@ zero_extendqisi2
 1460              	.L93:
 1461 00c6 1846     		mov	r0, r3
 1462 00c8 1437     		adds	r7, r7, #20
 1463 00ca BD46     		mov	sp, r7
 1464              		@ sp needed
 1465 00cc 5DF8047B 		ldr	r7, [sp], #4
 1466 00d0 7047     		bx	lr
 1468 00d2 00BF     		.section	.text.HAL_DMA_GetState,"ax",%progbits
 1469              		.align	1
 1470              		.global	HAL_DMA_GetState
 1471              		.syntax unified
 1472              		.thumb
 1473              		.thumb_func
 1475              	HAL_DMA_GetState:
 1476              		@ args = 0, pretend = 0, frame = 8
 1477              		@ frame_needed = 1, uses_anonymous_args = 0
 1478              		@ link register save eliminated.
 1479 0000 80B4     		push	{r7}
 1480 0002 83B0     		sub	sp, sp, #12
 1481 0004 00AF     		add	r7, sp, #0
 1482 0006 7860     		str	r0, [r7, #4]
 1483 0008 7B68     		ldr	r3, [r7, #4]
 1484 000a 93F83530 		ldrb	r3, [r3, #53]
 1485 000e DBB2     		uxtb	r3, r3
 1486 0010 1846     		mov	r0, r3
 1487 0012 0C37     		adds	r7, r7, #12
 1488 0014 BD46     		mov	sp, r7
 1489              		@ sp needed
 1490 0016 5DF8047B 		ldr	r7, [sp], #4
 1491 001a 7047     		bx	lr
 1493              		.section	.text.HAL_DMA_GetError,"ax",%progbits
 1494              		.align	1
 1495              		.global	HAL_DMA_GetError
 1496              		.syntax unified
 1497              		.thumb
 1498              		.thumb_func
 1500              	HAL_DMA_GetError:
 1501              		@ args = 0, pretend = 0, frame = 8
 1502              		@ frame_needed = 1, uses_anonymous_args = 0
 1503              		@ link register save eliminated.
 1504 0000 80B4     		push	{r7}
 1505 0002 83B0     		sub	sp, sp, #12
ARM GAS  C:\Users\user\AppData\Local\Temp\cc4Ji2Oa.s 			page 27


 1506 0004 00AF     		add	r7, sp, #0
 1507 0006 7860     		str	r0, [r7, #4]
 1508 0008 7B68     		ldr	r3, [r7, #4]
 1509 000a 5B6D     		ldr	r3, [r3, #84]
 1510 000c 1846     		mov	r0, r3
 1511 000e 0C37     		adds	r7, r7, #12
 1512 0010 BD46     		mov	sp, r7
 1513              		@ sp needed
 1514 0012 5DF8047B 		ldr	r7, [sp], #4
 1515 0016 7047     		bx	lr
 1517              		.section	.text.DMA_SetConfig,"ax",%progbits
 1518              		.align	1
 1519              		.syntax unified
 1520              		.thumb
 1521              		.thumb_func
 1523              	DMA_SetConfig:
 1524              		@ args = 0, pretend = 0, frame = 16
 1525              		@ frame_needed = 1, uses_anonymous_args = 0
 1526              		@ link register save eliminated.
 1527 0000 80B4     		push	{r7}
 1528 0002 85B0     		sub	sp, sp, #20
 1529 0004 00AF     		add	r7, sp, #0
 1530 0006 F860     		str	r0, [r7, #12]
 1531 0008 B960     		str	r1, [r7, #8]
 1532 000a 7A60     		str	r2, [r7, #4]
 1533 000c 3B60     		str	r3, [r7]
 1534 000e FB68     		ldr	r3, [r7, #12]
 1535 0010 1B68     		ldr	r3, [r3]
 1536 0012 1A68     		ldr	r2, [r3]
 1537 0014 FB68     		ldr	r3, [r7, #12]
 1538 0016 1B68     		ldr	r3, [r3]
 1539 0018 22F48022 		bic	r2, r2, #262144
 1540 001c 1A60     		str	r2, [r3]
 1541 001e FB68     		ldr	r3, [r7, #12]
 1542 0020 1B68     		ldr	r3, [r3]
 1543 0022 3A68     		ldr	r2, [r7]
 1544 0024 5A60     		str	r2, [r3, #4]
 1545 0026 FB68     		ldr	r3, [r7, #12]
 1546 0028 9B68     		ldr	r3, [r3, #8]
 1547 002a 402B     		cmp	r3, #64
 1548 002c 08D1     		bne	.L111
 1549 002e FB68     		ldr	r3, [r7, #12]
 1550 0030 1B68     		ldr	r3, [r3]
 1551 0032 7A68     		ldr	r2, [r7, #4]
 1552 0034 9A60     		str	r2, [r3, #8]
 1553 0036 FB68     		ldr	r3, [r7, #12]
 1554 0038 1B68     		ldr	r3, [r3]
 1555 003a BA68     		ldr	r2, [r7, #8]
 1556 003c DA60     		str	r2, [r3, #12]
 1557 003e 07E0     		b	.L113
 1558              	.L111:
 1559 0040 FB68     		ldr	r3, [r7, #12]
 1560 0042 1B68     		ldr	r3, [r3]
 1561 0044 BA68     		ldr	r2, [r7, #8]
 1562 0046 9A60     		str	r2, [r3, #8]
 1563 0048 FB68     		ldr	r3, [r7, #12]
 1564 004a 1B68     		ldr	r3, [r3]
ARM GAS  C:\Users\user\AppData\Local\Temp\cc4Ji2Oa.s 			page 28


 1565 004c 7A68     		ldr	r2, [r7, #4]
 1566 004e DA60     		str	r2, [r3, #12]
 1567              	.L113:
 1568 0050 00BF     		nop
 1569 0052 1437     		adds	r7, r7, #20
 1570 0054 BD46     		mov	sp, r7
 1571              		@ sp needed
 1572 0056 5DF8047B 		ldr	r7, [sp], #4
 1573 005a 7047     		bx	lr
 1575              		.section	.text.DMA_CalcBaseAndBitshift,"ax",%progbits
 1576              		.align	1
 1577              		.syntax unified
 1578              		.thumb
 1579              		.thumb_func
 1581              	DMA_CalcBaseAndBitshift:
 1582              		@ args = 0, pretend = 0, frame = 16
 1583              		@ frame_needed = 1, uses_anonymous_args = 0
 1584              		@ link register save eliminated.
 1585 0000 80B4     		push	{r7}
 1586 0002 85B0     		sub	sp, sp, #20
 1587 0004 00AF     		add	r7, sp, #0
 1588 0006 7860     		str	r0, [r7, #4]
 1589 0008 7B68     		ldr	r3, [r7, #4]
 1590 000a 1B68     		ldr	r3, [r3]
 1591 000c DBB2     		uxtb	r3, r3
 1592 000e 103B     		subs	r3, r3, #16
 1593 0010 144A     		ldr	r2, .L118
 1594 0012 A2FB0323 		umull	r2, r3, r2, r3
 1595 0016 1B09     		lsrs	r3, r3, #4
 1596 0018 FB60     		str	r3, [r7, #12]
 1597 001a 134A     		ldr	r2, .L118+4
 1598 001c FB68     		ldr	r3, [r7, #12]
 1599 001e 1344     		add	r3, r3, r2
 1600 0020 1B78     		ldrb	r3, [r3]	@ zero_extendqisi2
 1601 0022 1A46     		mov	r2, r3
 1602 0024 7B68     		ldr	r3, [r7, #4]
 1603 0026 DA65     		str	r2, [r3, #92]
 1604 0028 FB68     		ldr	r3, [r7, #12]
 1605 002a 032B     		cmp	r3, #3
 1606 002c 09D9     		bls	.L115
 1607 002e 7B68     		ldr	r3, [r7, #4]
 1608 0030 1B68     		ldr	r3, [r3]
 1609 0032 23F47F73 		bic	r3, r3, #1020
 1610 0036 23F00303 		bic	r3, r3, #3
 1611 003a 1A1D     		adds	r2, r3, #4
 1612 003c 7B68     		ldr	r3, [r7, #4]
 1613 003e 9A65     		str	r2, [r3, #88]
 1614 0040 07E0     		b	.L116
 1615              	.L115:
 1616 0042 7B68     		ldr	r3, [r7, #4]
 1617 0044 1B68     		ldr	r3, [r3]
 1618 0046 23F47F73 		bic	r3, r3, #1020
 1619 004a 23F00303 		bic	r3, r3, #3
 1620 004e 7A68     		ldr	r2, [r7, #4]
 1621 0050 9365     		str	r3, [r2, #88]
 1622              	.L116:
 1623 0052 7B68     		ldr	r3, [r7, #4]
ARM GAS  C:\Users\user\AppData\Local\Temp\cc4Ji2Oa.s 			page 29


 1624 0054 9B6D     		ldr	r3, [r3, #88]
 1625 0056 1846     		mov	r0, r3
 1626 0058 1437     		adds	r7, r7, #20
 1627 005a BD46     		mov	sp, r7
 1628              		@ sp needed
 1629 005c 5DF8047B 		ldr	r7, [sp], #4
 1630 0060 7047     		bx	lr
 1631              	.L119:
 1632 0062 00BF     		.align	2
 1633              	.L118:
 1634 0064 ABAAAAAA 		.word	-1431655765
 1635 0068 00000000 		.word	flagBitshiftOffset.0
 1637              		.section	.text.DMA_CheckFifoParam,"ax",%progbits
 1638              		.align	1
 1639              		.syntax unified
 1640              		.thumb
 1641              		.thumb_func
 1643              	DMA_CheckFifoParam:
 1644              		@ args = 0, pretend = 0, frame = 16
 1645              		@ frame_needed = 1, uses_anonymous_args = 0
 1646              		@ link register save eliminated.
 1647 0000 80B4     		push	{r7}
 1648 0002 85B0     		sub	sp, sp, #20
 1649 0004 00AF     		add	r7, sp, #0
 1650 0006 7860     		str	r0, [r7, #4]
 1651 0008 0023     		movs	r3, #0
 1652 000a FB73     		strb	r3, [r7, #15]
 1653 000c 7B68     		ldr	r3, [r7, #4]
 1654 000e 9B6A     		ldr	r3, [r3, #40]
 1655 0010 BB60     		str	r3, [r7, #8]
 1656 0012 7B68     		ldr	r3, [r7, #4]
 1657 0014 9B69     		ldr	r3, [r3, #24]
 1658 0016 002B     		cmp	r3, #0
 1659 0018 1FD1     		bne	.L121
 1660 001a BB68     		ldr	r3, [r7, #8]
 1661 001c 032B     		cmp	r3, #3
 1662 001e 56D8     		bhi	.L145
 1663 0020 01A2     		adr	r2, .L124
 1664 0022 52F823F0 		ldr	pc, [r2, r3, lsl #2]
 1665 0026 00BF     		.p2align 2
 1666              	.L124:
 1667 0028 39000000 		.word	.L125+1
 1668 002c 4B000000 		.word	.L126+1
 1669 0030 39000000 		.word	.L125+1
 1670 0034 CF000000 		.word	.L145+1
 1671              		.p2align 1
 1672              	.L125:
 1673 0038 7B68     		ldr	r3, [r7, #4]
 1674 003a DB6A     		ldr	r3, [r3, #44]
 1675 003c 03F08073 		and	r3, r3, #16777216
 1676 0040 002B     		cmp	r3, #0
 1677 0042 46D0     		beq	.L146
 1678 0044 0123     		movs	r3, #1
 1679 0046 FB73     		strb	r3, [r7, #15]
 1680 0048 43E0     		b	.L146
 1681              	.L126:
 1682 004a 7B68     		ldr	r3, [r7, #4]
ARM GAS  C:\Users\user\AppData\Local\Temp\cc4Ji2Oa.s 			page 30


 1683 004c DB6A     		ldr	r3, [r3, #44]
 1684 004e B3F1C07F 		cmp	r3, #25165824
 1685 0052 40D1     		bne	.L147
 1686 0054 0123     		movs	r3, #1
 1687 0056 FB73     		strb	r3, [r7, #15]
 1688 0058 3DE0     		b	.L147
 1689              	.L121:
 1690 005a 7B68     		ldr	r3, [r7, #4]
 1691 005c 9B69     		ldr	r3, [r3, #24]
 1692 005e B3F5005F 		cmp	r3, #8192
 1693 0062 21D1     		bne	.L131
 1694 0064 BB68     		ldr	r3, [r7, #8]
 1695 0066 032B     		cmp	r3, #3
 1696 0068 37D8     		bhi	.L148
 1697 006a 01A2     		adr	r2, .L134
 1698 006c 52F823F0 		ldr	pc, [r2, r3, lsl #2]
 1699              		.p2align 2
 1700              	.L134:
 1701 0070 81000000 		.word	.L135+1
 1702 0074 87000000 		.word	.L136+1
 1703 0078 81000000 		.word	.L135+1
 1704 007c 99000000 		.word	.L133+1
 1705              		.p2align 1
 1706              	.L135:
 1707 0080 0123     		movs	r3, #1
 1708 0082 FB73     		strb	r3, [r7, #15]
 1709 0084 30E0     		b	.L130
 1710              	.L136:
 1711 0086 7B68     		ldr	r3, [r7, #4]
 1712 0088 DB6A     		ldr	r3, [r3, #44]
 1713 008a 03F08073 		and	r3, r3, #16777216
 1714 008e 002B     		cmp	r3, #0
 1715 0090 25D0     		beq	.L149
 1716 0092 0123     		movs	r3, #1
 1717 0094 FB73     		strb	r3, [r7, #15]
 1718 0096 22E0     		b	.L149
 1719              	.L133:
 1720 0098 7B68     		ldr	r3, [r7, #4]
 1721 009a DB6A     		ldr	r3, [r3, #44]
 1722 009c B3F1C07F 		cmp	r3, #25165824
 1723 00a0 1FD1     		bne	.L150
 1724 00a2 0123     		movs	r3, #1
 1725 00a4 FB73     		strb	r3, [r7, #15]
 1726 00a6 1CE0     		b	.L150
 1727              	.L131:
 1728 00a8 BB68     		ldr	r3, [r7, #8]
 1729 00aa 022B     		cmp	r3, #2
 1730 00ac 03D9     		bls	.L140
 1731 00ae BB68     		ldr	r3, [r7, #8]
 1732 00b0 032B     		cmp	r3, #3
 1733 00b2 03D0     		beq	.L141
 1734 00b4 18E0     		b	.L130
 1735              	.L140:
 1736 00b6 0123     		movs	r3, #1
 1737 00b8 FB73     		strb	r3, [r7, #15]
 1738 00ba 15E0     		b	.L130
 1739              	.L141:
ARM GAS  C:\Users\user\AppData\Local\Temp\cc4Ji2Oa.s 			page 31


 1740 00bc 7B68     		ldr	r3, [r7, #4]
 1741 00be DB6A     		ldr	r3, [r3, #44]
 1742 00c0 03F08073 		and	r3, r3, #16777216
 1743 00c4 002B     		cmp	r3, #0
 1744 00c6 0ED0     		beq	.L151
 1745 00c8 0123     		movs	r3, #1
 1746 00ca FB73     		strb	r3, [r7, #15]
 1747 00cc 0BE0     		b	.L151
 1748              	.L145:
 1749 00ce 00BF     		nop
 1750 00d0 0AE0     		b	.L130
 1751              	.L146:
 1752 00d2 00BF     		nop
 1753 00d4 08E0     		b	.L130
 1754              	.L147:
 1755 00d6 00BF     		nop
 1756 00d8 06E0     		b	.L130
 1757              	.L148:
 1758 00da 00BF     		nop
 1759 00dc 04E0     		b	.L130
 1760              	.L149:
 1761 00de 00BF     		nop
 1762 00e0 02E0     		b	.L130
 1763              	.L150:
 1764 00e2 00BF     		nop
 1765 00e4 00E0     		b	.L130
 1766              	.L151:
 1767 00e6 00BF     		nop
 1768              	.L130:
 1769 00e8 FB7B     		ldrb	r3, [r7, #15]	@ zero_extendqisi2
 1770 00ea 1846     		mov	r0, r3
 1771 00ec 1437     		adds	r7, r7, #20
 1772 00ee BD46     		mov	sp, r7
 1773              		@ sp needed
 1774 00f0 5DF8047B 		ldr	r7, [sp], #4
 1775 00f4 7047     		bx	lr
 1777 00f6 00BF     		.section	.rodata.flagBitshiftOffset.0,"a"
 1778              		.align	2
 1781              	flagBitshiftOffset.0:
 1782 0000 00061016 		.ascii	"\000\006\020\026\000\006\020\026"
 1782      00061016 
 1783              		.ident	"GCC: (GNU Tools for STM32 12.3.rel1.20240306-1730) 12.3.1 20230626"
ARM GAS  C:\Users\user\AppData\Local\Temp\cc4Ji2Oa.s 			page 32

