ARM GAS  C:\Users\user\AppData\Local\Temp\ccka7JqF.s 			page 1


   1              		.cpu cortex-m4
   2              		.arch armv7e-m
   3              		.fpu fpv4-sp-d16
   4              		.eabi_attribute 27, 1
   5              		.eabi_attribute 28, 1
   6              		.eabi_attribute 20, 1
   7              		.eabi_attribute 21, 1
   8              		.eabi_attribute 23, 3
   9              		.eabi_attribute 24, 1
  10              		.eabi_attribute 25, 1
  11              		.eabi_attribute 26, 1
  12              		.eabi_attribute 30, 6
  13              		.eabi_attribute 34, 1
  14              		.eabi_attribute 18, 4
  15              		.file	"stm32f4xx_hal_pwr.c"
  16              		.text
  17              		.section	.text.HAL_PWR_DeInit,"ax",%progbits
  18              		.align	1
  19              		.global	HAL_PWR_DeInit
  20              		.syntax unified
  21              		.thumb
  22              		.thumb_func
  24              	HAL_PWR_DeInit:
  25              		@ args = 0, pretend = 0, frame = 0
  26              		@ frame_needed = 1, uses_anonymous_args = 0
  27              		@ link register save eliminated.
  28 0000 80B4     		push	{r7}
  29 0002 00AF     		add	r7, sp, #0
  30 0004 084B     		ldr	r3, .L2
  31 0006 1B6A     		ldr	r3, [r3, #32]
  32 0008 074A     		ldr	r2, .L2
  33 000a 43F08053 		orr	r3, r3, #268435456
  34 000e 1362     		str	r3, [r2, #32]
  35 0010 054B     		ldr	r3, .L2
  36 0012 1B6A     		ldr	r3, [r3, #32]
  37 0014 044A     		ldr	r2, .L2
  38 0016 23F08053 		bic	r3, r3, #268435456
  39 001a 1362     		str	r3, [r2, #32]
  40 001c 00BF     		nop
  41 001e BD46     		mov	sp, r7
  42              		@ sp needed
  43 0020 5DF8047B 		ldr	r7, [sp], #4
  44 0024 7047     		bx	lr
  45              	.L3:
  46 0026 00BF     		.align	2
  47              	.L2:
  48 0028 00380240 		.word	1073887232
  50              		.section	.text.HAL_PWR_EnableBkUpAccess,"ax",%progbits
  51              		.align	1
  52              		.global	HAL_PWR_EnableBkUpAccess
  53              		.syntax unified
  54              		.thumb
  55              		.thumb_func
  57              	HAL_PWR_EnableBkUpAccess:
  58              		@ args = 0, pretend = 0, frame = 8
  59              		@ frame_needed = 1, uses_anonymous_args = 0
  60              		@ link register save eliminated.
ARM GAS  C:\Users\user\AppData\Local\Temp\ccka7JqF.s 			page 2


  61 0000 80B4     		push	{r7}
  62 0002 83B0     		sub	sp, sp, #12
  63 0004 00AF     		add	r7, sp, #0
  64 0006 064B     		ldr	r3, .L5
  65 0008 0122     		movs	r2, #1
  66 000a 1A60     		str	r2, [r3]
  67 000c 054B     		ldr	r3, .L5+4
  68 000e 1B68     		ldr	r3, [r3]
  69 0010 7B60     		str	r3, [r7, #4]
  70 0012 7B68     		ldr	r3, [r7, #4]
  71 0014 00BF     		nop
  72 0016 0C37     		adds	r7, r7, #12
  73 0018 BD46     		mov	sp, r7
  74              		@ sp needed
  75 001a 5DF8047B 		ldr	r7, [sp], #4
  76 001e 7047     		bx	lr
  77              	.L6:
  78              		.align	2
  79              	.L5:
  80 0020 20000E42 		.word	1108213792
  81 0024 00700040 		.word	1073770496
  83              		.section	.text.HAL_PWR_DisableBkUpAccess,"ax",%progbits
  84              		.align	1
  85              		.global	HAL_PWR_DisableBkUpAccess
  86              		.syntax unified
  87              		.thumb
  88              		.thumb_func
  90              	HAL_PWR_DisableBkUpAccess:
  91              		@ args = 0, pretend = 0, frame = 8
  92              		@ frame_needed = 1, uses_anonymous_args = 0
  93              		@ link register save eliminated.
  94 0000 80B4     		push	{r7}
  95 0002 83B0     		sub	sp, sp, #12
  96 0004 00AF     		add	r7, sp, #0
  97 0006 064B     		ldr	r3, .L8
  98 0008 0022     		movs	r2, #0
  99 000a 1A60     		str	r2, [r3]
 100 000c 054B     		ldr	r3, .L8+4
 101 000e 1B68     		ldr	r3, [r3]
 102 0010 7B60     		str	r3, [r7, #4]
 103 0012 7B68     		ldr	r3, [r7, #4]
 104 0014 00BF     		nop
 105 0016 0C37     		adds	r7, r7, #12
 106 0018 BD46     		mov	sp, r7
 107              		@ sp needed
 108 001a 5DF8047B 		ldr	r7, [sp], #4
 109 001e 7047     		bx	lr
 110              	.L9:
 111              		.align	2
 112              	.L8:
 113 0020 20000E42 		.word	1108213792
 114 0024 00700040 		.word	1073770496
 116              		.section	.text.HAL_PWR_ConfigPVD,"ax",%progbits
 117              		.align	1
 118              		.global	HAL_PWR_ConfigPVD
 119              		.syntax unified
 120              		.thumb
ARM GAS  C:\Users\user\AppData\Local\Temp\ccka7JqF.s 			page 3


 121              		.thumb_func
 123              	HAL_PWR_ConfigPVD:
 124              		@ args = 0, pretend = 0, frame = 8
 125              		@ frame_needed = 1, uses_anonymous_args = 0
 126              		@ link register save eliminated.
 127 0000 80B4     		push	{r7}
 128 0002 83B0     		sub	sp, sp, #12
 129 0004 00AF     		add	r7, sp, #0
 130 0006 7860     		str	r0, [r7, #4]
 131 0008 2B4B     		ldr	r3, .L16
 132 000a 1B68     		ldr	r3, [r3]
 133 000c 23F0E002 		bic	r2, r3, #224
 134 0010 7B68     		ldr	r3, [r7, #4]
 135 0012 1B68     		ldr	r3, [r3]
 136 0014 2849     		ldr	r1, .L16
 137 0016 1343     		orrs	r3, r3, r2
 138 0018 0B60     		str	r3, [r1]
 139 001a 284B     		ldr	r3, .L16+4
 140 001c 5B68     		ldr	r3, [r3, #4]
 141 001e 274A     		ldr	r2, .L16+4
 142 0020 23F48033 		bic	r3, r3, #65536
 143 0024 5360     		str	r3, [r2, #4]
 144 0026 254B     		ldr	r3, .L16+4
 145 0028 1B68     		ldr	r3, [r3]
 146 002a 244A     		ldr	r2, .L16+4
 147 002c 23F48033 		bic	r3, r3, #65536
 148 0030 1360     		str	r3, [r2]
 149 0032 224B     		ldr	r3, .L16+4
 150 0034 9B68     		ldr	r3, [r3, #8]
 151 0036 214A     		ldr	r2, .L16+4
 152 0038 23F48033 		bic	r3, r3, #65536
 153 003c 9360     		str	r3, [r2, #8]
 154 003e 1F4B     		ldr	r3, .L16+4
 155 0040 DB68     		ldr	r3, [r3, #12]
 156 0042 1E4A     		ldr	r2, .L16+4
 157 0044 23F48033 		bic	r3, r3, #65536
 158 0048 D360     		str	r3, [r2, #12]
 159 004a 7B68     		ldr	r3, [r7, #4]
 160 004c 5B68     		ldr	r3, [r3, #4]
 161 004e 03F48033 		and	r3, r3, #65536
 162 0052 002B     		cmp	r3, #0
 163 0054 05D0     		beq	.L11
 164 0056 194B     		ldr	r3, .L16+4
 165 0058 1B68     		ldr	r3, [r3]
 166 005a 184A     		ldr	r2, .L16+4
 167 005c 43F48033 		orr	r3, r3, #65536
 168 0060 1360     		str	r3, [r2]
 169              	.L11:
 170 0062 7B68     		ldr	r3, [r7, #4]
 171 0064 5B68     		ldr	r3, [r3, #4]
 172 0066 03F40033 		and	r3, r3, #131072
 173 006a 002B     		cmp	r3, #0
 174 006c 05D0     		beq	.L12
 175 006e 134B     		ldr	r3, .L16+4
 176 0070 5B68     		ldr	r3, [r3, #4]
 177 0072 124A     		ldr	r2, .L16+4
 178 0074 43F48033 		orr	r3, r3, #65536
ARM GAS  C:\Users\user\AppData\Local\Temp\ccka7JqF.s 			page 4


 179 0078 5360     		str	r3, [r2, #4]
 180              	.L12:
 181 007a 7B68     		ldr	r3, [r7, #4]
 182 007c 5B68     		ldr	r3, [r3, #4]
 183 007e 03F00103 		and	r3, r3, #1
 184 0082 002B     		cmp	r3, #0
 185 0084 05D0     		beq	.L13
 186 0086 0D4B     		ldr	r3, .L16+4
 187 0088 9B68     		ldr	r3, [r3, #8]
 188 008a 0C4A     		ldr	r2, .L16+4
 189 008c 43F48033 		orr	r3, r3, #65536
 190 0090 9360     		str	r3, [r2, #8]
 191              	.L13:
 192 0092 7B68     		ldr	r3, [r7, #4]
 193 0094 5B68     		ldr	r3, [r3, #4]
 194 0096 03F00203 		and	r3, r3, #2
 195 009a 002B     		cmp	r3, #0
 196 009c 05D0     		beq	.L15
 197 009e 074B     		ldr	r3, .L16+4
 198 00a0 DB68     		ldr	r3, [r3, #12]
 199 00a2 064A     		ldr	r2, .L16+4
 200 00a4 43F48033 		orr	r3, r3, #65536
 201 00a8 D360     		str	r3, [r2, #12]
 202              	.L15:
 203 00aa 00BF     		nop
 204 00ac 0C37     		adds	r7, r7, #12
 205 00ae BD46     		mov	sp, r7
 206              		@ sp needed
 207 00b0 5DF8047B 		ldr	r7, [sp], #4
 208 00b4 7047     		bx	lr
 209              	.L17:
 210 00b6 00BF     		.align	2
 211              	.L16:
 212 00b8 00700040 		.word	1073770496
 213 00bc 003C0140 		.word	1073822720
 215              		.section	.text.HAL_PWR_EnablePVD,"ax",%progbits
 216              		.align	1
 217              		.global	HAL_PWR_EnablePVD
 218              		.syntax unified
 219              		.thumb
 220              		.thumb_func
 222              	HAL_PWR_EnablePVD:
 223              		@ args = 0, pretend = 0, frame = 0
 224              		@ frame_needed = 1, uses_anonymous_args = 0
 225              		@ link register save eliminated.
 226 0000 80B4     		push	{r7}
 227 0002 00AF     		add	r7, sp, #0
 228 0004 034B     		ldr	r3, .L19
 229 0006 0122     		movs	r2, #1
 230 0008 1A60     		str	r2, [r3]
 231 000a 00BF     		nop
 232 000c BD46     		mov	sp, r7
 233              		@ sp needed
 234 000e 5DF8047B 		ldr	r7, [sp], #4
 235 0012 7047     		bx	lr
 236              	.L20:
 237              		.align	2
ARM GAS  C:\Users\user\AppData\Local\Temp\ccka7JqF.s 			page 5


 238              	.L19:
 239 0014 10000E42 		.word	1108213776
 241              		.section	.text.HAL_PWR_DisablePVD,"ax",%progbits
 242              		.align	1
 243              		.global	HAL_PWR_DisablePVD
 244              		.syntax unified
 245              		.thumb
 246              		.thumb_func
 248              	HAL_PWR_DisablePVD:
 249              		@ args = 0, pretend = 0, frame = 0
 250              		@ frame_needed = 1, uses_anonymous_args = 0
 251              		@ link register save eliminated.
 252 0000 80B4     		push	{r7}
 253 0002 00AF     		add	r7, sp, #0
 254 0004 034B     		ldr	r3, .L22
 255 0006 0022     		movs	r2, #0
 256 0008 1A60     		str	r2, [r3]
 257 000a 00BF     		nop
 258 000c BD46     		mov	sp, r7
 259              		@ sp needed
 260 000e 5DF8047B 		ldr	r7, [sp], #4
 261 0012 7047     		bx	lr
 262              	.L23:
 263              		.align	2
 264              	.L22:
 265 0014 10000E42 		.word	1108213776
 267              		.section	.text.HAL_PWR_EnableWakeUpPin,"ax",%progbits
 268              		.align	1
 269              		.global	HAL_PWR_EnableWakeUpPin
 270              		.syntax unified
 271              		.thumb
 272              		.thumb_func
 274              	HAL_PWR_EnableWakeUpPin:
 275              		@ args = 0, pretend = 0, frame = 8
 276              		@ frame_needed = 1, uses_anonymous_args = 0
 277              		@ link register save eliminated.
 278 0000 80B4     		push	{r7}
 279 0002 83B0     		sub	sp, sp, #12
 280 0004 00AF     		add	r7, sp, #0
 281 0006 7860     		str	r0, [r7, #4]
 282 0008 054B     		ldr	r3, .L25
 283 000a 5A68     		ldr	r2, [r3, #4]
 284 000c 0449     		ldr	r1, .L25
 285 000e 7B68     		ldr	r3, [r7, #4]
 286 0010 1343     		orrs	r3, r3, r2
 287 0012 4B60     		str	r3, [r1, #4]
 288 0014 00BF     		nop
 289 0016 0C37     		adds	r7, r7, #12
 290 0018 BD46     		mov	sp, r7
 291              		@ sp needed
 292 001a 5DF8047B 		ldr	r7, [sp], #4
 293 001e 7047     		bx	lr
 294              	.L26:
 295              		.align	2
 296              	.L25:
 297 0020 00700040 		.word	1073770496
 299              		.section	.text.HAL_PWR_DisableWakeUpPin,"ax",%progbits
ARM GAS  C:\Users\user\AppData\Local\Temp\ccka7JqF.s 			page 6


 300              		.align	1
 301              		.global	HAL_PWR_DisableWakeUpPin
 302              		.syntax unified
 303              		.thumb
 304              		.thumb_func
 306              	HAL_PWR_DisableWakeUpPin:
 307              		@ args = 0, pretend = 0, frame = 8
 308              		@ frame_needed = 1, uses_anonymous_args = 0
 309              		@ link register save eliminated.
 310 0000 80B4     		push	{r7}
 311 0002 83B0     		sub	sp, sp, #12
 312 0004 00AF     		add	r7, sp, #0
 313 0006 7860     		str	r0, [r7, #4]
 314 0008 064B     		ldr	r3, .L28
 315 000a 5A68     		ldr	r2, [r3, #4]
 316 000c 7B68     		ldr	r3, [r7, #4]
 317 000e DB43     		mvns	r3, r3
 318 0010 0449     		ldr	r1, .L28
 319 0012 1340     		ands	r3, r3, r2
 320 0014 4B60     		str	r3, [r1, #4]
 321 0016 00BF     		nop
 322 0018 0C37     		adds	r7, r7, #12
 323 001a BD46     		mov	sp, r7
 324              		@ sp needed
 325 001c 5DF8047B 		ldr	r7, [sp], #4
 326 0020 7047     		bx	lr
 327              	.L29:
 328 0022 00BF     		.align	2
 329              	.L28:
 330 0024 00700040 		.word	1073770496
 332              		.section	.text.HAL_PWR_EnterSLEEPMode,"ax",%progbits
 333              		.align	1
 334              		.global	HAL_PWR_EnterSLEEPMode
 335              		.syntax unified
 336              		.thumb
 337              		.thumb_func
 339              	HAL_PWR_EnterSLEEPMode:
 340              		@ args = 0, pretend = 0, frame = 8
 341              		@ frame_needed = 1, uses_anonymous_args = 0
 342              		@ link register save eliminated.
 343 0000 80B4     		push	{r7}
 344 0002 83B0     		sub	sp, sp, #12
 345 0004 00AF     		add	r7, sp, #0
 346 0006 7860     		str	r0, [r7, #4]
 347 0008 0B46     		mov	r3, r1
 348 000a FB70     		strb	r3, [r7, #3]
 349 000c 094B     		ldr	r3, .L34
 350 000e 1B69     		ldr	r3, [r3, #16]
 351 0010 084A     		ldr	r2, .L34
 352 0012 23F00403 		bic	r3, r3, #4
 353 0016 1361     		str	r3, [r2, #16]
 354 0018 FB78     		ldrb	r3, [r7, #3]	@ zero_extendqisi2
 355 001a 012B     		cmp	r3, #1
 356 001c 01D1     		bne	.L31
 357              		.syntax unified
 358              	@ 392 "Drivers/STM32F4xx_HAL_Driver/Src/stm32f4xx_hal_pwr.c" 1
 359 001e 30BF     		wfi
ARM GAS  C:\Users\user\AppData\Local\Temp\ccka7JqF.s 			page 7


 360              	@ 0 "" 2
 361              		.thumb
 362              		.syntax unified
 363 0020 02E0     		b	.L33
 364              	.L31:
 365              		.syntax unified
 366              	@ 397 "Drivers/STM32F4xx_HAL_Driver/Src/stm32f4xx_hal_pwr.c" 1
 367 0022 40BF     		sev
 368              	@ 0 "" 2
 369              	@ 398 "Drivers/STM32F4xx_HAL_Driver/Src/stm32f4xx_hal_pwr.c" 1
 370 0024 20BF     		wfe
 371              	@ 0 "" 2
 372              	@ 399 "Drivers/STM32F4xx_HAL_Driver/Src/stm32f4xx_hal_pwr.c" 1
 373 0026 20BF     		wfe
 374              	@ 0 "" 2
 375              		.thumb
 376              		.syntax unified
 377              	.L33:
 378 0028 00BF     		nop
 379 002a 0C37     		adds	r7, r7, #12
 380 002c BD46     		mov	sp, r7
 381              		@ sp needed
 382 002e 5DF8047B 		ldr	r7, [sp], #4
 383 0032 7047     		bx	lr
 384              	.L35:
 385              		.align	2
 386              	.L34:
 387 0034 00ED00E0 		.word	-536810240
 389              		.section	.text.HAL_PWR_EnterSTOPMode,"ax",%progbits
 390              		.align	1
 391              		.global	HAL_PWR_EnterSTOPMode
 392              		.syntax unified
 393              		.thumb
 394              		.thumb_func
 396              	HAL_PWR_EnterSTOPMode:
 397              		@ args = 0, pretend = 0, frame = 8
 398              		@ frame_needed = 1, uses_anonymous_args = 0
 399              		@ link register save eliminated.
 400 0000 80B4     		push	{r7}
 401 0002 83B0     		sub	sp, sp, #12
 402 0004 00AF     		add	r7, sp, #0
 403 0006 7860     		str	r0, [r7, #4]
 404 0008 0B46     		mov	r3, r1
 405 000a FB70     		strb	r3, [r7, #3]
 406 000c 104B     		ldr	r3, .L39
 407 000e 1B68     		ldr	r3, [r3]
 408 0010 23F00302 		bic	r2, r3, #3
 409 0014 0E49     		ldr	r1, .L39
 410 0016 7B68     		ldr	r3, [r7, #4]
 411 0018 1343     		orrs	r3, r3, r2
 412 001a 0B60     		str	r3, [r1]
 413 001c 0D4B     		ldr	r3, .L39+4
 414 001e 1B69     		ldr	r3, [r3, #16]
 415 0020 0C4A     		ldr	r2, .L39+4
 416 0022 43F00403 		orr	r3, r3, #4
 417 0026 1361     		str	r3, [r2, #16]
 418 0028 FB78     		ldrb	r3, [r7, #3]	@ zero_extendqisi2
ARM GAS  C:\Users\user\AppData\Local\Temp\ccka7JqF.s 			page 8


 419 002a 012B     		cmp	r3, #1
 420 002c 01D1     		bne	.L37
 421              		.syntax unified
 422              	@ 438 "Drivers/STM32F4xx_HAL_Driver/Src/stm32f4xx_hal_pwr.c" 1
 423 002e 30BF     		wfi
 424              	@ 0 "" 2
 425              		.thumb
 426              		.syntax unified
 427 0030 02E0     		b	.L38
 428              	.L37:
 429              		.syntax unified
 430              	@ 443 "Drivers/STM32F4xx_HAL_Driver/Src/stm32f4xx_hal_pwr.c" 1
 431 0032 40BF     		sev
 432              	@ 0 "" 2
 433              	@ 444 "Drivers/STM32F4xx_HAL_Driver/Src/stm32f4xx_hal_pwr.c" 1
 434 0034 20BF     		wfe
 435              	@ 0 "" 2
 436              	@ 445 "Drivers/STM32F4xx_HAL_Driver/Src/stm32f4xx_hal_pwr.c" 1
 437 0036 20BF     		wfe
 438              	@ 0 "" 2
 439              		.thumb
 440              		.syntax unified
 441              	.L38:
 442 0038 064B     		ldr	r3, .L39+4
 443 003a 1B69     		ldr	r3, [r3, #16]
 444 003c 054A     		ldr	r2, .L39+4
 445 003e 23F00403 		bic	r3, r3, #4
 446 0042 1361     		str	r3, [r2, #16]
 447 0044 00BF     		nop
 448 0046 0C37     		adds	r7, r7, #12
 449 0048 BD46     		mov	sp, r7
 450              		@ sp needed
 451 004a 5DF8047B 		ldr	r7, [sp], #4
 452 004e 7047     		bx	lr
 453              	.L40:
 454              		.align	2
 455              	.L39:
 456 0050 00700040 		.word	1073770496
 457 0054 00ED00E0 		.word	-536810240
 459              		.section	.text.HAL_PWR_EnterSTANDBYMode,"ax",%progbits
 460              		.align	1
 461              		.global	HAL_PWR_EnterSTANDBYMode
 462              		.syntax unified
 463              		.thumb
 464              		.thumb_func
 466              	HAL_PWR_EnterSTANDBYMode:
 467              		@ args = 0, pretend = 0, frame = 0
 468              		@ frame_needed = 1, uses_anonymous_args = 0
 469              		@ link register save eliminated.
 470 0000 80B4     		push	{r7}
 471 0002 00AF     		add	r7, sp, #0
 472 0004 084B     		ldr	r3, .L42
 473 0006 1B68     		ldr	r3, [r3]
 474 0008 074A     		ldr	r2, .L42
 475 000a 43F00203 		orr	r3, r3, #2
 476 000e 1360     		str	r3, [r2]
 477 0010 064B     		ldr	r3, .L42+4
ARM GAS  C:\Users\user\AppData\Local\Temp\ccka7JqF.s 			page 9


 478 0012 1B69     		ldr	r3, [r3, #16]
 479 0014 054A     		ldr	r2, .L42+4
 480 0016 43F00403 		orr	r3, r3, #4
 481 001a 1361     		str	r3, [r2, #16]
 482              		.syntax unified
 483              	@ 474 "Drivers/STM32F4xx_HAL_Driver/Src/stm32f4xx_hal_pwr.c" 1
 484 001c 30BF     		wfi
 485              	@ 0 "" 2
 486              		.thumb
 487              		.syntax unified
 488 001e 00BF     		nop
 489 0020 BD46     		mov	sp, r7
 490              		@ sp needed
 491 0022 5DF8047B 		ldr	r7, [sp], #4
 492 0026 7047     		bx	lr
 493              	.L43:
 494              		.align	2
 495              	.L42:
 496 0028 00700040 		.word	1073770496
 497 002c 00ED00E0 		.word	-536810240
 499              		.section	.text.HAL_PWR_PVD_IRQHandler,"ax",%progbits
 500              		.align	1
 501              		.global	HAL_PWR_PVD_IRQHandler
 502              		.syntax unified
 503              		.thumb
 504              		.thumb_func
 506              	HAL_PWR_PVD_IRQHandler:
 507              		@ args = 0, pretend = 0, frame = 0
 508              		@ frame_needed = 1, uses_anonymous_args = 0
 509 0000 80B5     		push	{r7, lr}
 510 0002 00AF     		add	r7, sp, #0
 511 0004 064B     		ldr	r3, .L47
 512 0006 5B69     		ldr	r3, [r3, #20]
 513 0008 03F48033 		and	r3, r3, #65536
 514 000c 002B     		cmp	r3, #0
 515 000e 05D0     		beq	.L46
 516 0010 FFF7FEFF 		bl	HAL_PWR_PVDCallback
 517 0014 024B     		ldr	r3, .L47
 518 0016 4FF48032 		mov	r2, #65536
 519 001a 5A61     		str	r2, [r3, #20]
 520              	.L46:
 521 001c 00BF     		nop
 522 001e 80BD     		pop	{r7, pc}
 523              	.L48:
 524              		.align	2
 525              	.L47:
 526 0020 003C0140 		.word	1073822720
 528              		.section	.text.HAL_PWR_PVDCallback,"ax",%progbits
 529              		.align	1
 530              		.weak	HAL_PWR_PVDCallback
 531              		.syntax unified
 532              		.thumb
 533              		.thumb_func
 535              	HAL_PWR_PVDCallback:
 536              		@ args = 0, pretend = 0, frame = 0
 537              		@ frame_needed = 1, uses_anonymous_args = 0
 538              		@ link register save eliminated.
ARM GAS  C:\Users\user\AppData\Local\Temp\ccka7JqF.s 			page 10


 539 0000 80B4     		push	{r7}
 540 0002 00AF     		add	r7, sp, #0
 541 0004 00BF     		nop
 542 0006 BD46     		mov	sp, r7
 543              		@ sp needed
 544 0008 5DF8047B 		ldr	r7, [sp], #4
 545 000c 7047     		bx	lr
 547              		.section	.text.HAL_PWR_EnableSleepOnExit,"ax",%progbits
 548              		.align	1
 549              		.global	HAL_PWR_EnableSleepOnExit
 550              		.syntax unified
 551              		.thumb
 552              		.thumb_func
 554              	HAL_PWR_EnableSleepOnExit:
 555              		@ args = 0, pretend = 0, frame = 0
 556              		@ frame_needed = 1, uses_anonymous_args = 0
 557              		@ link register save eliminated.
 558 0000 80B4     		push	{r7}
 559 0002 00AF     		add	r7, sp, #0
 560 0004 054B     		ldr	r3, .L51
 561 0006 1B69     		ldr	r3, [r3, #16]
 562 0008 044A     		ldr	r2, .L51
 563 000a 43F00203 		orr	r3, r3, #2
 564 000e 1361     		str	r3, [r2, #16]
 565 0010 00BF     		nop
 566 0012 BD46     		mov	sp, r7
 567              		@ sp needed
 568 0014 5DF8047B 		ldr	r7, [sp], #4
 569 0018 7047     		bx	lr
 570              	.L52:
 571 001a 00BF     		.align	2
 572              	.L51:
 573 001c 00ED00E0 		.word	-536810240
 575              		.section	.text.HAL_PWR_DisableSleepOnExit,"ax",%progbits
 576              		.align	1
 577              		.global	HAL_PWR_DisableSleepOnExit
 578              		.syntax unified
 579              		.thumb
 580              		.thumb_func
 582              	HAL_PWR_DisableSleepOnExit:
 583              		@ args = 0, pretend = 0, frame = 0
 584              		@ frame_needed = 1, uses_anonymous_args = 0
 585              		@ link register save eliminated.
 586 0000 80B4     		push	{r7}
 587 0002 00AF     		add	r7, sp, #0
 588 0004 054B     		ldr	r3, .L54
 589 0006 1B69     		ldr	r3, [r3, #16]
 590 0008 044A     		ldr	r2, .L54
 591 000a 23F00203 		bic	r3, r3, #2
 592 000e 1361     		str	r3, [r2, #16]
 593 0010 00BF     		nop
 594 0012 BD46     		mov	sp, r7
 595              		@ sp needed
 596 0014 5DF8047B 		ldr	r7, [sp], #4
 597 0018 7047     		bx	lr
 598              	.L55:
 599 001a 00BF     		.align	2
ARM GAS  C:\Users\user\AppData\Local\Temp\ccka7JqF.s 			page 11


 600              	.L54:
 601 001c 00ED00E0 		.word	-536810240
 603              		.section	.text.HAL_PWR_EnableSEVOnPend,"ax",%progbits
 604              		.align	1
 605              		.global	HAL_PWR_EnableSEVOnPend
 606              		.syntax unified
 607              		.thumb
 608              		.thumb_func
 610              	HAL_PWR_EnableSEVOnPend:
 611              		@ args = 0, pretend = 0, frame = 0
 612              		@ frame_needed = 1, uses_anonymous_args = 0
 613              		@ link register save eliminated.
 614 0000 80B4     		push	{r7}
 615 0002 00AF     		add	r7, sp, #0
 616 0004 054B     		ldr	r3, .L57
 617 0006 1B69     		ldr	r3, [r3, #16]
 618 0008 044A     		ldr	r2, .L57
 619 000a 43F01003 		orr	r3, r3, #16
 620 000e 1361     		str	r3, [r2, #16]
 621 0010 00BF     		nop
 622 0012 BD46     		mov	sp, r7
 623              		@ sp needed
 624 0014 5DF8047B 		ldr	r7, [sp], #4
 625 0018 7047     		bx	lr
 626              	.L58:
 627 001a 00BF     		.align	2
 628              	.L57:
 629 001c 00ED00E0 		.word	-536810240
 631              		.section	.text.HAL_PWR_DisableSEVOnPend,"ax",%progbits
 632              		.align	1
 633              		.global	HAL_PWR_DisableSEVOnPend
 634              		.syntax unified
 635              		.thumb
 636              		.thumb_func
 638              	HAL_PWR_DisableSEVOnPend:
 639              		@ args = 0, pretend = 0, frame = 0
 640              		@ frame_needed = 1, uses_anonymous_args = 0
 641              		@ link register save eliminated.
 642 0000 80B4     		push	{r7}
 643 0002 00AF     		add	r7, sp, #0
 644 0004 054B     		ldr	r3, .L60
 645 0006 1B69     		ldr	r3, [r3, #16]
 646 0008 044A     		ldr	r2, .L60
 647 000a 23F01003 		bic	r3, r3, #16
 648 000e 1361     		str	r3, [r2, #16]
 649 0010 00BF     		nop
 650 0012 BD46     		mov	sp, r7
 651              		@ sp needed
 652 0014 5DF8047B 		ldr	r7, [sp], #4
 653 0018 7047     		bx	lr
 654              	.L61:
 655 001a 00BF     		.align	2
 656              	.L60:
 657 001c 00ED00E0 		.word	-536810240
 659              		.ident	"GCC: (GNU Tools for STM32 12.3.rel1.20240306-1730) 12.3.1 20230626"
ARM GAS  C:\Users\user\AppData\Local\Temp\ccka7JqF.s 			page 12

