ARM GAS  C:\Users\user\AppData\Local\Temp\ccimlsD1.s 			page 1


   1              		.cpu cortex-m4
   2              		.arch armv7e-m
   3              		.fpu fpv4-sp-d16
   4              		.eabi_attribute 27, 1
   5              		.eabi_attribute 28, 1
   6              		.eabi_attribute 20, 1
   7              		.eabi_attribute 21, 1
   8              		.eabi_attribute 23, 3
   9              		.eabi_attribute 24, 1
  10              		.eabi_attribute 25, 1
  11              		.eabi_attribute 26, 1
  12              		.eabi_attribute 30, 6
  13              		.eabi_attribute 34, 1
  14              		.eabi_attribute 18, 4
  15              		.file	"stm32f4xx_hal_uart.c"
  16              		.text
  17              		.section	.text.HAL_UART_Init,"ax",%progbits
  18              		.align	1
  19              		.global	HAL_UART_Init
  20              		.syntax unified
  21              		.thumb
  22              		.thumb_func
  24              	HAL_UART_Init:
  25              		@ args = 0, pretend = 0, frame = 8
  26              		@ frame_needed = 1, uses_anonymous_args = 0
  27 0000 80B5     		push	{r7, lr}
  28 0002 82B0     		sub	sp, sp, #8
  29 0004 00AF     		add	r7, sp, #0
  30 0006 7860     		str	r0, [r7, #4]
  31 0008 7B68     		ldr	r3, [r7, #4]
  32 000a 002B     		cmp	r3, #0
  33 000c 01D1     		bne	.L2
  34 000e 0123     		movs	r3, #1
  35 0010 3FE0     		b	.L3
  36              	.L2:
  37 0012 7B68     		ldr	r3, [r7, #4]
  38 0014 93F83D30 		ldrb	r3, [r3, #61]
  39 0018 DBB2     		uxtb	r3, r3
  40 001a 002B     		cmp	r3, #0
  41 001c 06D1     		bne	.L4
  42 001e 7B68     		ldr	r3, [r7, #4]
  43 0020 0022     		movs	r2, #0
  44 0022 83F83C20 		strb	r2, [r3, #60]
  45 0026 7868     		ldr	r0, [r7, #4]
  46 0028 FFF7FEFF 		bl	HAL_UART_MspInit
  47              	.L4:
  48 002c 7B68     		ldr	r3, [r7, #4]
  49 002e 2422     		movs	r2, #36
  50 0030 83F83D20 		strb	r2, [r3, #61]
  51 0034 7B68     		ldr	r3, [r7, #4]
  52 0036 1B68     		ldr	r3, [r3]
  53 0038 DA68     		ldr	r2, [r3, #12]
  54 003a 7B68     		ldr	r3, [r7, #4]
  55 003c 1B68     		ldr	r3, [r3]
  56 003e 22F40052 		bic	r2, r2, #8192
  57 0042 DA60     		str	r2, [r3, #12]
  58 0044 7868     		ldr	r0, [r7, #4]
ARM GAS  C:\Users\user\AppData\Local\Temp\ccimlsD1.s 			page 2


  59 0046 FFF7FEFF 		bl	UART_SetConfig
  60 004a 7B68     		ldr	r3, [r7, #4]
  61 004c 1B68     		ldr	r3, [r3]
  62 004e 1A69     		ldr	r2, [r3, #16]
  63 0050 7B68     		ldr	r3, [r7, #4]
  64 0052 1B68     		ldr	r3, [r3]
  65 0054 22F49042 		bic	r2, r2, #18432
  66 0058 1A61     		str	r2, [r3, #16]
  67 005a 7B68     		ldr	r3, [r7, #4]
  68 005c 1B68     		ldr	r3, [r3]
  69 005e 5A69     		ldr	r2, [r3, #20]
  70 0060 7B68     		ldr	r3, [r7, #4]
  71 0062 1B68     		ldr	r3, [r3]
  72 0064 22F02A02 		bic	r2, r2, #42
  73 0068 5A61     		str	r2, [r3, #20]
  74 006a 7B68     		ldr	r3, [r7, #4]
  75 006c 1B68     		ldr	r3, [r3]
  76 006e DA68     		ldr	r2, [r3, #12]
  77 0070 7B68     		ldr	r3, [r7, #4]
  78 0072 1B68     		ldr	r3, [r3]
  79 0074 42F40052 		orr	r2, r2, #8192
  80 0078 DA60     		str	r2, [r3, #12]
  81 007a 7B68     		ldr	r3, [r7, #4]
  82 007c 0022     		movs	r2, #0
  83 007e 1A64     		str	r2, [r3, #64]
  84 0080 7B68     		ldr	r3, [r7, #4]
  85 0082 2022     		movs	r2, #32
  86 0084 83F83D20 		strb	r2, [r3, #61]
  87 0088 7B68     		ldr	r3, [r7, #4]
  88 008a 2022     		movs	r2, #32
  89 008c 83F83E20 		strb	r2, [r3, #62]
  90 0090 0023     		movs	r3, #0
  91              	.L3:
  92 0092 1846     		mov	r0, r3
  93 0094 0837     		adds	r7, r7, #8
  94 0096 BD46     		mov	sp, r7
  95              		@ sp needed
  96 0098 80BD     		pop	{r7, pc}
  98              		.section	.text.HAL_HalfDuplex_Init,"ax",%progbits
  99              		.align	1
 100              		.global	HAL_HalfDuplex_Init
 101              		.syntax unified
 102              		.thumb
 103              		.thumb_func
 105              	HAL_HalfDuplex_Init:
 106              		@ args = 0, pretend = 0, frame = 8
 107              		@ frame_needed = 1, uses_anonymous_args = 0
 108 0000 80B5     		push	{r7, lr}
 109 0002 82B0     		sub	sp, sp, #8
 110 0004 00AF     		add	r7, sp, #0
 111 0006 7860     		str	r0, [r7, #4]
 112 0008 7B68     		ldr	r3, [r7, #4]
 113 000a 002B     		cmp	r3, #0
 114 000c 01D1     		bne	.L6
 115 000e 0123     		movs	r3, #1
 116 0010 47E0     		b	.L7
 117              	.L6:
ARM GAS  C:\Users\user\AppData\Local\Temp\ccimlsD1.s 			page 3


 118 0012 7B68     		ldr	r3, [r7, #4]
 119 0014 93F83D30 		ldrb	r3, [r3, #61]
 120 0018 DBB2     		uxtb	r3, r3
 121 001a 002B     		cmp	r3, #0
 122 001c 06D1     		bne	.L8
 123 001e 7B68     		ldr	r3, [r7, #4]
 124 0020 0022     		movs	r2, #0
 125 0022 83F83C20 		strb	r2, [r3, #60]
 126 0026 7868     		ldr	r0, [r7, #4]
 127 0028 FFF7FEFF 		bl	HAL_UART_MspInit
 128              	.L8:
 129 002c 7B68     		ldr	r3, [r7, #4]
 130 002e 2422     		movs	r2, #36
 131 0030 83F83D20 		strb	r2, [r3, #61]
 132 0034 7B68     		ldr	r3, [r7, #4]
 133 0036 1B68     		ldr	r3, [r3]
 134 0038 DA68     		ldr	r2, [r3, #12]
 135 003a 7B68     		ldr	r3, [r7, #4]
 136 003c 1B68     		ldr	r3, [r3]
 137 003e 22F40052 		bic	r2, r2, #8192
 138 0042 DA60     		str	r2, [r3, #12]
 139 0044 7868     		ldr	r0, [r7, #4]
 140 0046 FFF7FEFF 		bl	UART_SetConfig
 141 004a 7B68     		ldr	r3, [r7, #4]
 142 004c 1B68     		ldr	r3, [r3]
 143 004e 1A69     		ldr	r2, [r3, #16]
 144 0050 7B68     		ldr	r3, [r7, #4]
 145 0052 1B68     		ldr	r3, [r3]
 146 0054 22F49042 		bic	r2, r2, #18432
 147 0058 1A61     		str	r2, [r3, #16]
 148 005a 7B68     		ldr	r3, [r7, #4]
 149 005c 1B68     		ldr	r3, [r3]
 150 005e 5A69     		ldr	r2, [r3, #20]
 151 0060 7B68     		ldr	r3, [r7, #4]
 152 0062 1B68     		ldr	r3, [r3]
 153 0064 22F02202 		bic	r2, r2, #34
 154 0068 5A61     		str	r2, [r3, #20]
 155 006a 7B68     		ldr	r3, [r7, #4]
 156 006c 1B68     		ldr	r3, [r3]
 157 006e 5A69     		ldr	r2, [r3, #20]
 158 0070 7B68     		ldr	r3, [r7, #4]
 159 0072 1B68     		ldr	r3, [r3]
 160 0074 42F00802 		orr	r2, r2, #8
 161 0078 5A61     		str	r2, [r3, #20]
 162 007a 7B68     		ldr	r3, [r7, #4]
 163 007c 1B68     		ldr	r3, [r3]
 164 007e DA68     		ldr	r2, [r3, #12]
 165 0080 7B68     		ldr	r3, [r7, #4]
 166 0082 1B68     		ldr	r3, [r3]
 167 0084 42F40052 		orr	r2, r2, #8192
 168 0088 DA60     		str	r2, [r3, #12]
 169 008a 7B68     		ldr	r3, [r7, #4]
 170 008c 0022     		movs	r2, #0
 171 008e 1A64     		str	r2, [r3, #64]
 172 0090 7B68     		ldr	r3, [r7, #4]
 173 0092 2022     		movs	r2, #32
 174 0094 83F83D20 		strb	r2, [r3, #61]
ARM GAS  C:\Users\user\AppData\Local\Temp\ccimlsD1.s 			page 4


 175 0098 7B68     		ldr	r3, [r7, #4]
 176 009a 2022     		movs	r2, #32
 177 009c 83F83E20 		strb	r2, [r3, #62]
 178 00a0 0023     		movs	r3, #0
 179              	.L7:
 180 00a2 1846     		mov	r0, r3
 181 00a4 0837     		adds	r7, r7, #8
 182 00a6 BD46     		mov	sp, r7
 183              		@ sp needed
 184 00a8 80BD     		pop	{r7, pc}
 186              		.section	.text.HAL_LIN_Init,"ax",%progbits
 187              		.align	1
 188              		.global	HAL_LIN_Init
 189              		.syntax unified
 190              		.thumb
 191              		.thumb_func
 193              	HAL_LIN_Init:
 194              		@ args = 0, pretend = 0, frame = 8
 195              		@ frame_needed = 1, uses_anonymous_args = 0
 196 0000 80B5     		push	{r7, lr}
 197 0002 82B0     		sub	sp, sp, #8
 198 0004 00AF     		add	r7, sp, #0
 199 0006 7860     		str	r0, [r7, #4]
 200 0008 3960     		str	r1, [r7]
 201 000a 7B68     		ldr	r3, [r7, #4]
 202 000c 002B     		cmp	r3, #0
 203 000e 01D1     		bne	.L10
 204 0010 0123     		movs	r3, #1
 205 0012 57E0     		b	.L11
 206              	.L10:
 207 0014 7B68     		ldr	r3, [r7, #4]
 208 0016 93F83D30 		ldrb	r3, [r3, #61]
 209 001a DBB2     		uxtb	r3, r3
 210 001c 002B     		cmp	r3, #0
 211 001e 06D1     		bne	.L12
 212 0020 7B68     		ldr	r3, [r7, #4]
 213 0022 0022     		movs	r2, #0
 214 0024 83F83C20 		strb	r2, [r3, #60]
 215 0028 7868     		ldr	r0, [r7, #4]
 216 002a FFF7FEFF 		bl	HAL_UART_MspInit
 217              	.L12:
 218 002e 7B68     		ldr	r3, [r7, #4]
 219 0030 2422     		movs	r2, #36
 220 0032 83F83D20 		strb	r2, [r3, #61]
 221 0036 7B68     		ldr	r3, [r7, #4]
 222 0038 1B68     		ldr	r3, [r3]
 223 003a DA68     		ldr	r2, [r3, #12]
 224 003c 7B68     		ldr	r3, [r7, #4]
 225 003e 1B68     		ldr	r3, [r3]
 226 0040 22F40052 		bic	r2, r2, #8192
 227 0044 DA60     		str	r2, [r3, #12]
 228 0046 7868     		ldr	r0, [r7, #4]
 229 0048 FFF7FEFF 		bl	UART_SetConfig
 230 004c 7B68     		ldr	r3, [r7, #4]
 231 004e 1B68     		ldr	r3, [r3]
 232 0050 1A69     		ldr	r2, [r3, #16]
 233 0052 7B68     		ldr	r3, [r7, #4]
ARM GAS  C:\Users\user\AppData\Local\Temp\ccimlsD1.s 			page 5


 234 0054 1B68     		ldr	r3, [r3]
 235 0056 22F40062 		bic	r2, r2, #2048
 236 005a 1A61     		str	r2, [r3, #16]
 237 005c 7B68     		ldr	r3, [r7, #4]
 238 005e 1B68     		ldr	r3, [r3]
 239 0060 5A69     		ldr	r2, [r3, #20]
 240 0062 7B68     		ldr	r3, [r7, #4]
 241 0064 1B68     		ldr	r3, [r3]
 242 0066 22F02A02 		bic	r2, r2, #42
 243 006a 5A61     		str	r2, [r3, #20]
 244 006c 7B68     		ldr	r3, [r7, #4]
 245 006e 1B68     		ldr	r3, [r3]
 246 0070 1A69     		ldr	r2, [r3, #16]
 247 0072 7B68     		ldr	r3, [r7, #4]
 248 0074 1B68     		ldr	r3, [r3]
 249 0076 42F48042 		orr	r2, r2, #16384
 250 007a 1A61     		str	r2, [r3, #16]
 251 007c 7B68     		ldr	r3, [r7, #4]
 252 007e 1B68     		ldr	r3, [r3]
 253 0080 1A69     		ldr	r2, [r3, #16]
 254 0082 7B68     		ldr	r3, [r7, #4]
 255 0084 1B68     		ldr	r3, [r3]
 256 0086 22F02002 		bic	r2, r2, #32
 257 008a 1A61     		str	r2, [r3, #16]
 258 008c 7B68     		ldr	r3, [r7, #4]
 259 008e 1B68     		ldr	r3, [r3]
 260 0090 1969     		ldr	r1, [r3, #16]
 261 0092 7B68     		ldr	r3, [r7, #4]
 262 0094 1B68     		ldr	r3, [r3]
 263 0096 3A68     		ldr	r2, [r7]
 264 0098 0A43     		orrs	r2, r2, r1
 265 009a 1A61     		str	r2, [r3, #16]
 266 009c 7B68     		ldr	r3, [r7, #4]
 267 009e 1B68     		ldr	r3, [r3]
 268 00a0 DA68     		ldr	r2, [r3, #12]
 269 00a2 7B68     		ldr	r3, [r7, #4]
 270 00a4 1B68     		ldr	r3, [r3]
 271 00a6 42F40052 		orr	r2, r2, #8192
 272 00aa DA60     		str	r2, [r3, #12]
 273 00ac 7B68     		ldr	r3, [r7, #4]
 274 00ae 0022     		movs	r2, #0
 275 00b0 1A64     		str	r2, [r3, #64]
 276 00b2 7B68     		ldr	r3, [r7, #4]
 277 00b4 2022     		movs	r2, #32
 278 00b6 83F83D20 		strb	r2, [r3, #61]
 279 00ba 7B68     		ldr	r3, [r7, #4]
 280 00bc 2022     		movs	r2, #32
 281 00be 83F83E20 		strb	r2, [r3, #62]
 282 00c2 0023     		movs	r3, #0
 283              	.L11:
 284 00c4 1846     		mov	r0, r3
 285 00c6 0837     		adds	r7, r7, #8
 286 00c8 BD46     		mov	sp, r7
 287              		@ sp needed
 288 00ca 80BD     		pop	{r7, pc}
 290              		.section	.text.HAL_MultiProcessor_Init,"ax",%progbits
 291              		.align	1
ARM GAS  C:\Users\user\AppData\Local\Temp\ccimlsD1.s 			page 6


 292              		.global	HAL_MultiProcessor_Init
 293              		.syntax unified
 294              		.thumb
 295              		.thumb_func
 297              	HAL_MultiProcessor_Init:
 298              		@ args = 0, pretend = 0, frame = 16
 299              		@ frame_needed = 1, uses_anonymous_args = 0
 300 0000 80B5     		push	{r7, lr}
 301 0002 84B0     		sub	sp, sp, #16
 302 0004 00AF     		add	r7, sp, #0
 303 0006 F860     		str	r0, [r7, #12]
 304 0008 0B46     		mov	r3, r1
 305 000a 7A60     		str	r2, [r7, #4]
 306 000c FB72     		strb	r3, [r7, #11]
 307 000e FB68     		ldr	r3, [r7, #12]
 308 0010 002B     		cmp	r3, #0
 309 0012 01D1     		bne	.L14
 310 0014 0123     		movs	r3, #1
 311 0016 5FE0     		b	.L15
 312              	.L14:
 313 0018 FB68     		ldr	r3, [r7, #12]
 314 001a 93F83D30 		ldrb	r3, [r3, #61]
 315 001e DBB2     		uxtb	r3, r3
 316 0020 002B     		cmp	r3, #0
 317 0022 06D1     		bne	.L16
 318 0024 FB68     		ldr	r3, [r7, #12]
 319 0026 0022     		movs	r2, #0
 320 0028 83F83C20 		strb	r2, [r3, #60]
 321 002c F868     		ldr	r0, [r7, #12]
 322 002e FFF7FEFF 		bl	HAL_UART_MspInit
 323              	.L16:
 324 0032 FB68     		ldr	r3, [r7, #12]
 325 0034 2422     		movs	r2, #36
 326 0036 83F83D20 		strb	r2, [r3, #61]
 327 003a FB68     		ldr	r3, [r7, #12]
 328 003c 1B68     		ldr	r3, [r3]
 329 003e DA68     		ldr	r2, [r3, #12]
 330 0040 FB68     		ldr	r3, [r7, #12]
 331 0042 1B68     		ldr	r3, [r3]
 332 0044 22F40052 		bic	r2, r2, #8192
 333 0048 DA60     		str	r2, [r3, #12]
 334 004a F868     		ldr	r0, [r7, #12]
 335 004c FFF7FEFF 		bl	UART_SetConfig
 336 0050 FB68     		ldr	r3, [r7, #12]
 337 0052 1B68     		ldr	r3, [r3]
 338 0054 1A69     		ldr	r2, [r3, #16]
 339 0056 FB68     		ldr	r3, [r7, #12]
 340 0058 1B68     		ldr	r3, [r3]
 341 005a 22F49042 		bic	r2, r2, #18432
 342 005e 1A61     		str	r2, [r3, #16]
 343 0060 FB68     		ldr	r3, [r7, #12]
 344 0062 1B68     		ldr	r3, [r3]
 345 0064 5A69     		ldr	r2, [r3, #20]
 346 0066 FB68     		ldr	r3, [r7, #12]
 347 0068 1B68     		ldr	r3, [r3]
 348 006a 22F02A02 		bic	r2, r2, #42
 349 006e 5A61     		str	r2, [r3, #20]
ARM GAS  C:\Users\user\AppData\Local\Temp\ccimlsD1.s 			page 7


 350 0070 FB68     		ldr	r3, [r7, #12]
 351 0072 1B68     		ldr	r3, [r3]
 352 0074 1A69     		ldr	r2, [r3, #16]
 353 0076 FB68     		ldr	r3, [r7, #12]
 354 0078 1B68     		ldr	r3, [r3]
 355 007a 22F00F02 		bic	r2, r2, #15
 356 007e 1A61     		str	r2, [r3, #16]
 357 0080 FB68     		ldr	r3, [r7, #12]
 358 0082 1B68     		ldr	r3, [r3]
 359 0084 1969     		ldr	r1, [r3, #16]
 360 0086 FA7A     		ldrb	r2, [r7, #11]	@ zero_extendqisi2
 361 0088 FB68     		ldr	r3, [r7, #12]
 362 008a 1B68     		ldr	r3, [r3]
 363 008c 0A43     		orrs	r2, r2, r1
 364 008e 1A61     		str	r2, [r3, #16]
 365 0090 FB68     		ldr	r3, [r7, #12]
 366 0092 1B68     		ldr	r3, [r3]
 367 0094 DA68     		ldr	r2, [r3, #12]
 368 0096 FB68     		ldr	r3, [r7, #12]
 369 0098 1B68     		ldr	r3, [r3]
 370 009a 22F40062 		bic	r2, r2, #2048
 371 009e DA60     		str	r2, [r3, #12]
 372 00a0 FB68     		ldr	r3, [r7, #12]
 373 00a2 1B68     		ldr	r3, [r3]
 374 00a4 D968     		ldr	r1, [r3, #12]
 375 00a6 FB68     		ldr	r3, [r7, #12]
 376 00a8 1B68     		ldr	r3, [r3]
 377 00aa 7A68     		ldr	r2, [r7, #4]
 378 00ac 0A43     		orrs	r2, r2, r1
 379 00ae DA60     		str	r2, [r3, #12]
 380 00b0 FB68     		ldr	r3, [r7, #12]
 381 00b2 1B68     		ldr	r3, [r3]
 382 00b4 DA68     		ldr	r2, [r3, #12]
 383 00b6 FB68     		ldr	r3, [r7, #12]
 384 00b8 1B68     		ldr	r3, [r3]
 385 00ba 42F40052 		orr	r2, r2, #8192
 386 00be DA60     		str	r2, [r3, #12]
 387 00c0 FB68     		ldr	r3, [r7, #12]
 388 00c2 0022     		movs	r2, #0
 389 00c4 1A64     		str	r2, [r3, #64]
 390 00c6 FB68     		ldr	r3, [r7, #12]
 391 00c8 2022     		movs	r2, #32
 392 00ca 83F83D20 		strb	r2, [r3, #61]
 393 00ce FB68     		ldr	r3, [r7, #12]
 394 00d0 2022     		movs	r2, #32
 395 00d2 83F83E20 		strb	r2, [r3, #62]
 396 00d6 0023     		movs	r3, #0
 397              	.L15:
 398 00d8 1846     		mov	r0, r3
 399 00da 1037     		adds	r7, r7, #16
 400 00dc BD46     		mov	sp, r7
 401              		@ sp needed
 402 00de 80BD     		pop	{r7, pc}
 404              		.section	.text.HAL_UART_DeInit,"ax",%progbits
 405              		.align	1
 406              		.global	HAL_UART_DeInit
 407              		.syntax unified
ARM GAS  C:\Users\user\AppData\Local\Temp\ccimlsD1.s 			page 8


 408              		.thumb
 409              		.thumb_func
 411              	HAL_UART_DeInit:
 412              		@ args = 0, pretend = 0, frame = 8
 413              		@ frame_needed = 1, uses_anonymous_args = 0
 414 0000 80B5     		push	{r7, lr}
 415 0002 82B0     		sub	sp, sp, #8
 416 0004 00AF     		add	r7, sp, #0
 417 0006 7860     		str	r0, [r7, #4]
 418 0008 7B68     		ldr	r3, [r7, #4]
 419 000a 002B     		cmp	r3, #0
 420 000c 01D1     		bne	.L18
 421 000e 0123     		movs	r3, #1
 422 0010 21E0     		b	.L19
 423              	.L18:
 424 0012 7B68     		ldr	r3, [r7, #4]
 425 0014 2422     		movs	r2, #36
 426 0016 83F83D20 		strb	r2, [r3, #61]
 427 001a 7B68     		ldr	r3, [r7, #4]
 428 001c 1B68     		ldr	r3, [r3]
 429 001e DA68     		ldr	r2, [r3, #12]
 430 0020 7B68     		ldr	r3, [r7, #4]
 431 0022 1B68     		ldr	r3, [r3]
 432 0024 22F40052 		bic	r2, r2, #8192
 433 0028 DA60     		str	r2, [r3, #12]
 434 002a 7868     		ldr	r0, [r7, #4]
 435 002c FFF7FEFF 		bl	HAL_UART_MspDeInit
 436 0030 7B68     		ldr	r3, [r7, #4]
 437 0032 0022     		movs	r2, #0
 438 0034 1A64     		str	r2, [r3, #64]
 439 0036 7B68     		ldr	r3, [r7, #4]
 440 0038 0022     		movs	r2, #0
 441 003a 83F83D20 		strb	r2, [r3, #61]
 442 003e 7B68     		ldr	r3, [r7, #4]
 443 0040 0022     		movs	r2, #0
 444 0042 83F83E20 		strb	r2, [r3, #62]
 445 0046 7B68     		ldr	r3, [r7, #4]
 446 0048 0022     		movs	r2, #0
 447 004a 1A63     		str	r2, [r3, #48]
 448 004c 7B68     		ldr	r3, [r7, #4]
 449 004e 0022     		movs	r2, #0
 450 0050 83F83C20 		strb	r2, [r3, #60]
 451 0054 0023     		movs	r3, #0
 452              	.L19:
 453 0056 1846     		mov	r0, r3
 454 0058 0837     		adds	r7, r7, #8
 455 005a BD46     		mov	sp, r7
 456              		@ sp needed
 457 005c 80BD     		pop	{r7, pc}
 459              		.section	.text.HAL_UART_MspInit,"ax",%progbits
 460              		.align	1
 461              		.weak	HAL_UART_MspInit
 462              		.syntax unified
 463              		.thumb
 464              		.thumb_func
 466              	HAL_UART_MspInit:
 467              		@ args = 0, pretend = 0, frame = 8
ARM GAS  C:\Users\user\AppData\Local\Temp\ccimlsD1.s 			page 9


 468              		@ frame_needed = 1, uses_anonymous_args = 0
 469              		@ link register save eliminated.
 470 0000 80B4     		push	{r7}
 471 0002 83B0     		sub	sp, sp, #12
 472 0004 00AF     		add	r7, sp, #0
 473 0006 7860     		str	r0, [r7, #4]
 474 0008 00BF     		nop
 475 000a 0C37     		adds	r7, r7, #12
 476 000c BD46     		mov	sp, r7
 477              		@ sp needed
 478 000e 5DF8047B 		ldr	r7, [sp], #4
 479 0012 7047     		bx	lr
 481              		.section	.text.HAL_UART_MspDeInit,"ax",%progbits
 482              		.align	1
 483              		.weak	HAL_UART_MspDeInit
 484              		.syntax unified
 485              		.thumb
 486              		.thumb_func
 488              	HAL_UART_MspDeInit:
 489              		@ args = 0, pretend = 0, frame = 8
 490              		@ frame_needed = 1, uses_anonymous_args = 0
 491              		@ link register save eliminated.
 492 0000 80B4     		push	{r7}
 493 0002 83B0     		sub	sp, sp, #12
 494 0004 00AF     		add	r7, sp, #0
 495 0006 7860     		str	r0, [r7, #4]
 496 0008 00BF     		nop
 497 000a 0C37     		adds	r7, r7, #12
 498 000c BD46     		mov	sp, r7
 499              		@ sp needed
 500 000e 5DF8047B 		ldr	r7, [sp], #4
 501 0012 7047     		bx	lr
 503              		.section	.text.HAL_UART_Transmit,"ax",%progbits
 504              		.align	1
 505              		.global	HAL_UART_Transmit
 506              		.syntax unified
 507              		.thumb
 508              		.thumb_func
 510              	HAL_UART_Transmit:
 511              		@ args = 0, pretend = 0, frame = 32
 512              		@ frame_needed = 1, uses_anonymous_args = 0
 513 0000 80B5     		push	{r7, lr}
 514 0002 8AB0     		sub	sp, sp, #40
 515 0004 02AF     		add	r7, sp, #8
 516 0006 F860     		str	r0, [r7, #12]
 517 0008 B960     		str	r1, [r7, #8]
 518 000a 3B60     		str	r3, [r7]
 519 000c 1346     		mov	r3, r2	@ movhi
 520 000e FB80     		strh	r3, [r7, #6]	@ movhi
 521 0010 0023     		movs	r3, #0
 522 0012 7B61     		str	r3, [r7, #20]
 523 0014 FB68     		ldr	r3, [r7, #12]
 524 0016 93F83D30 		ldrb	r3, [r3, #61]
 525 001a DBB2     		uxtb	r3, r3
 526 001c 202B     		cmp	r3, #32
 527 001e 7CD1     		bne	.L23
 528 0020 BB68     		ldr	r3, [r7, #8]
ARM GAS  C:\Users\user\AppData\Local\Temp\ccimlsD1.s 			page 10


 529 0022 002B     		cmp	r3, #0
 530 0024 02D0     		beq	.L24
 531 0026 FB88     		ldrh	r3, [r7, #6]
 532 0028 002B     		cmp	r3, #0
 533 002a 01D1     		bne	.L25
 534              	.L24:
 535 002c 0123     		movs	r3, #1
 536 002e 75E0     		b	.L26
 537              	.L25:
 538 0030 FB68     		ldr	r3, [r7, #12]
 539 0032 93F83C30 		ldrb	r3, [r3, #60]	@ zero_extendqisi2
 540 0036 012B     		cmp	r3, #1
 541 0038 01D1     		bne	.L27
 542 003a 0223     		movs	r3, #2
 543 003c 6EE0     		b	.L26
 544              	.L27:
 545 003e FB68     		ldr	r3, [r7, #12]
 546 0040 0122     		movs	r2, #1
 547 0042 83F83C20 		strb	r2, [r3, #60]
 548 0046 FB68     		ldr	r3, [r7, #12]
 549 0048 0022     		movs	r2, #0
 550 004a 1A64     		str	r2, [r3, #64]
 551 004c FB68     		ldr	r3, [r7, #12]
 552 004e 2122     		movs	r2, #33
 553 0050 83F83D20 		strb	r2, [r3, #61]
 554 0054 FFF7FEFF 		bl	HAL_GetTick
 555 0058 7861     		str	r0, [r7, #20]
 556 005a FB68     		ldr	r3, [r7, #12]
 557 005c FA88     		ldrh	r2, [r7, #6]	@ movhi
 558 005e 9A84     		strh	r2, [r3, #36]	@ movhi
 559 0060 FB68     		ldr	r3, [r7, #12]
 560 0062 FA88     		ldrh	r2, [r7, #6]	@ movhi
 561 0064 DA84     		strh	r2, [r3, #38]	@ movhi
 562 0066 FB68     		ldr	r3, [r7, #12]
 563 0068 9B68     		ldr	r3, [r3, #8]
 564 006a B3F5805F 		cmp	r3, #4096
 565 006e 08D1     		bne	.L28
 566 0070 FB68     		ldr	r3, [r7, #12]
 567 0072 1B69     		ldr	r3, [r3, #16]
 568 0074 002B     		cmp	r3, #0
 569 0076 04D1     		bne	.L28
 570 0078 0023     		movs	r3, #0
 571 007a FB61     		str	r3, [r7, #28]
 572 007c BB68     		ldr	r3, [r7, #8]
 573 007e BB61     		str	r3, [r7, #24]
 574 0080 03E0     		b	.L29
 575              	.L28:
 576 0082 BB68     		ldr	r3, [r7, #8]
 577 0084 FB61     		str	r3, [r7, #28]
 578 0086 0023     		movs	r3, #0
 579 0088 BB61     		str	r3, [r7, #24]
 580              	.L29:
 581 008a FB68     		ldr	r3, [r7, #12]
 582 008c 0022     		movs	r2, #0
 583 008e 83F83C20 		strb	r2, [r3, #60]
 584 0092 2AE0     		b	.L30
 585              	.L34:
ARM GAS  C:\Users\user\AppData\Local\Temp\ccimlsD1.s 			page 11


 586 0094 3B68     		ldr	r3, [r7]
 587 0096 0093     		str	r3, [sp]
 588 0098 7B69     		ldr	r3, [r7, #20]
 589 009a 0022     		movs	r2, #0
 590 009c 8021     		movs	r1, #128
 591 009e F868     		ldr	r0, [r7, #12]
 592 00a0 FFF7FEFF 		bl	UART_WaitOnFlagUntilTimeout
 593 00a4 0346     		mov	r3, r0
 594 00a6 002B     		cmp	r3, #0
 595 00a8 01D0     		beq	.L31
 596 00aa 0323     		movs	r3, #3
 597 00ac 36E0     		b	.L26
 598              	.L31:
 599 00ae FB69     		ldr	r3, [r7, #28]
 600 00b0 002B     		cmp	r3, #0
 601 00b2 0BD1     		bne	.L32
 602 00b4 BB69     		ldr	r3, [r7, #24]
 603 00b6 1B88     		ldrh	r3, [r3]
 604 00b8 1A46     		mov	r2, r3
 605 00ba FB68     		ldr	r3, [r7, #12]
 606 00bc 1B68     		ldr	r3, [r3]
 607 00be C2F30802 		ubfx	r2, r2, #0, #9
 608 00c2 5A60     		str	r2, [r3, #4]
 609 00c4 BB69     		ldr	r3, [r7, #24]
 610 00c6 0233     		adds	r3, r3, #2
 611 00c8 BB61     		str	r3, [r7, #24]
 612 00ca 07E0     		b	.L33
 613              	.L32:
 614 00cc FB69     		ldr	r3, [r7, #28]
 615 00ce 1A78     		ldrb	r2, [r3]	@ zero_extendqisi2
 616 00d0 FB68     		ldr	r3, [r7, #12]
 617 00d2 1B68     		ldr	r3, [r3]
 618 00d4 5A60     		str	r2, [r3, #4]
 619 00d6 FB69     		ldr	r3, [r7, #28]
 620 00d8 0133     		adds	r3, r3, #1
 621 00da FB61     		str	r3, [r7, #28]
 622              	.L33:
 623 00dc FB68     		ldr	r3, [r7, #12]
 624 00de DB8C     		ldrh	r3, [r3, #38]	@ movhi
 625 00e0 9BB2     		uxth	r3, r3
 626 00e2 013B     		subs	r3, r3, #1
 627 00e4 9AB2     		uxth	r2, r3
 628 00e6 FB68     		ldr	r3, [r7, #12]
 629 00e8 DA84     		strh	r2, [r3, #38]	@ movhi
 630              	.L30:
 631 00ea FB68     		ldr	r3, [r7, #12]
 632 00ec DB8C     		ldrh	r3, [r3, #38]	@ movhi
 633 00ee 9BB2     		uxth	r3, r3
 634 00f0 002B     		cmp	r3, #0
 635 00f2 CFD1     		bne	.L34
 636 00f4 3B68     		ldr	r3, [r7]
 637 00f6 0093     		str	r3, [sp]
 638 00f8 7B69     		ldr	r3, [r7, #20]
 639 00fa 0022     		movs	r2, #0
 640 00fc 4021     		movs	r1, #64
 641 00fe F868     		ldr	r0, [r7, #12]
 642 0100 FFF7FEFF 		bl	UART_WaitOnFlagUntilTimeout
ARM GAS  C:\Users\user\AppData\Local\Temp\ccimlsD1.s 			page 12


 643 0104 0346     		mov	r3, r0
 644 0106 002B     		cmp	r3, #0
 645 0108 01D0     		beq	.L35
 646 010a 0323     		movs	r3, #3
 647 010c 06E0     		b	.L26
 648              	.L35:
 649 010e FB68     		ldr	r3, [r7, #12]
 650 0110 2022     		movs	r2, #32
 651 0112 83F83D20 		strb	r2, [r3, #61]
 652 0116 0023     		movs	r3, #0
 653 0118 00E0     		b	.L26
 654              	.L23:
 655 011a 0223     		movs	r3, #2
 656              	.L26:
 657 011c 1846     		mov	r0, r3
 658 011e 2037     		adds	r7, r7, #32
 659 0120 BD46     		mov	sp, r7
 660              		@ sp needed
 661 0122 80BD     		pop	{r7, pc}
 663              		.section	.text.HAL_UART_Receive,"ax",%progbits
 664              		.align	1
 665              		.global	HAL_UART_Receive
 666              		.syntax unified
 667              		.thumb
 668              		.thumb_func
 670              	HAL_UART_Receive:
 671              		@ args = 0, pretend = 0, frame = 32
 672              		@ frame_needed = 1, uses_anonymous_args = 0
 673 0000 80B5     		push	{r7, lr}
 674 0002 8AB0     		sub	sp, sp, #40
 675 0004 02AF     		add	r7, sp, #8
 676 0006 F860     		str	r0, [r7, #12]
 677 0008 B960     		str	r1, [r7, #8]
 678 000a 3B60     		str	r3, [r7]
 679 000c 1346     		mov	r3, r2	@ movhi
 680 000e FB80     		strh	r3, [r7, #6]	@ movhi
 681 0010 0023     		movs	r3, #0
 682 0012 7B61     		str	r3, [r7, #20]
 683 0014 FB68     		ldr	r3, [r7, #12]
 684 0016 93F83E30 		ldrb	r3, [r3, #62]
 685 001a DBB2     		uxtb	r3, r3
 686 001c 202B     		cmp	r3, #32
 687 001e 40F08C80 		bne	.L37
 688 0022 BB68     		ldr	r3, [r7, #8]
 689 0024 002B     		cmp	r3, #0
 690 0026 02D0     		beq	.L38
 691 0028 FB88     		ldrh	r3, [r7, #6]
 692 002a 002B     		cmp	r3, #0
 693 002c 01D1     		bne	.L39
 694              	.L38:
 695 002e 0123     		movs	r3, #1
 696 0030 84E0     		b	.L40
 697              	.L39:
 698 0032 FB68     		ldr	r3, [r7, #12]
 699 0034 93F83C30 		ldrb	r3, [r3, #60]	@ zero_extendqisi2
 700 0038 012B     		cmp	r3, #1
 701 003a 01D1     		bne	.L41
ARM GAS  C:\Users\user\AppData\Local\Temp\ccimlsD1.s 			page 13


 702 003c 0223     		movs	r3, #2
 703 003e 7DE0     		b	.L40
 704              	.L41:
 705 0040 FB68     		ldr	r3, [r7, #12]
 706 0042 0122     		movs	r2, #1
 707 0044 83F83C20 		strb	r2, [r3, #60]
 708 0048 FB68     		ldr	r3, [r7, #12]
 709 004a 0022     		movs	r2, #0
 710 004c 1A64     		str	r2, [r3, #64]
 711 004e FB68     		ldr	r3, [r7, #12]
 712 0050 2222     		movs	r2, #34
 713 0052 83F83E20 		strb	r2, [r3, #62]
 714 0056 FB68     		ldr	r3, [r7, #12]
 715 0058 0022     		movs	r2, #0
 716 005a 1A63     		str	r2, [r3, #48]
 717 005c FFF7FEFF 		bl	HAL_GetTick
 718 0060 7861     		str	r0, [r7, #20]
 719 0062 FB68     		ldr	r3, [r7, #12]
 720 0064 FA88     		ldrh	r2, [r7, #6]	@ movhi
 721 0066 9A85     		strh	r2, [r3, #44]	@ movhi
 722 0068 FB68     		ldr	r3, [r7, #12]
 723 006a FA88     		ldrh	r2, [r7, #6]	@ movhi
 724 006c DA85     		strh	r2, [r3, #46]	@ movhi
 725 006e FB68     		ldr	r3, [r7, #12]
 726 0070 9B68     		ldr	r3, [r3, #8]
 727 0072 B3F5805F 		cmp	r3, #4096
 728 0076 08D1     		bne	.L42
 729 0078 FB68     		ldr	r3, [r7, #12]
 730 007a 1B69     		ldr	r3, [r3, #16]
 731 007c 002B     		cmp	r3, #0
 732 007e 04D1     		bne	.L42
 733 0080 0023     		movs	r3, #0
 734 0082 FB61     		str	r3, [r7, #28]
 735 0084 BB68     		ldr	r3, [r7, #8]
 736 0086 BB61     		str	r3, [r7, #24]
 737 0088 03E0     		b	.L43
 738              	.L42:
 739 008a BB68     		ldr	r3, [r7, #8]
 740 008c FB61     		str	r3, [r7, #28]
 741 008e 0023     		movs	r3, #0
 742 0090 BB61     		str	r3, [r7, #24]
 743              	.L43:
 744 0092 FB68     		ldr	r3, [r7, #12]
 745 0094 0022     		movs	r2, #0
 746 0096 83F83C20 		strb	r2, [r3, #60]
 747 009a 43E0     		b	.L44
 748              	.L51:
 749 009c 3B68     		ldr	r3, [r7]
 750 009e 0093     		str	r3, [sp]
 751 00a0 7B69     		ldr	r3, [r7, #20]
 752 00a2 0022     		movs	r2, #0
 753 00a4 2021     		movs	r1, #32
 754 00a6 F868     		ldr	r0, [r7, #12]
 755 00a8 FFF7FEFF 		bl	UART_WaitOnFlagUntilTimeout
 756 00ac 0346     		mov	r3, r0
 757 00ae 002B     		cmp	r3, #0
 758 00b0 01D0     		beq	.L45
ARM GAS  C:\Users\user\AppData\Local\Temp\ccimlsD1.s 			page 14


 759 00b2 0323     		movs	r3, #3
 760 00b4 42E0     		b	.L40
 761              	.L45:
 762 00b6 FB69     		ldr	r3, [r7, #28]
 763 00b8 002B     		cmp	r3, #0
 764 00ba 0CD1     		bne	.L46
 765 00bc FB68     		ldr	r3, [r7, #12]
 766 00be 1B68     		ldr	r3, [r3]
 767 00c0 5B68     		ldr	r3, [r3, #4]
 768 00c2 9BB2     		uxth	r3, r3
 769 00c4 C3F30803 		ubfx	r3, r3, #0, #9
 770 00c8 9AB2     		uxth	r2, r3
 771 00ca BB69     		ldr	r3, [r7, #24]
 772 00cc 1A80     		strh	r2, [r3]	@ movhi
 773 00ce BB69     		ldr	r3, [r7, #24]
 774 00d0 0233     		adds	r3, r3, #2
 775 00d2 BB61     		str	r3, [r7, #24]
 776 00d4 1FE0     		b	.L47
 777              	.L46:
 778 00d6 FB68     		ldr	r3, [r7, #12]
 779 00d8 9B68     		ldr	r3, [r3, #8]
 780 00da B3F5805F 		cmp	r3, #4096
 781 00de 07D0     		beq	.L48
 782 00e0 FB68     		ldr	r3, [r7, #12]
 783 00e2 9B68     		ldr	r3, [r3, #8]
 784 00e4 002B     		cmp	r3, #0
 785 00e6 0AD1     		bne	.L49
 786 00e8 FB68     		ldr	r3, [r7, #12]
 787 00ea 1B69     		ldr	r3, [r3, #16]
 788 00ec 002B     		cmp	r3, #0
 789 00ee 06D1     		bne	.L49
 790              	.L48:
 791 00f0 FB68     		ldr	r3, [r7, #12]
 792 00f2 1B68     		ldr	r3, [r3]
 793 00f4 5B68     		ldr	r3, [r3, #4]
 794 00f6 DAB2     		uxtb	r2, r3
 795 00f8 FB69     		ldr	r3, [r7, #28]
 796 00fa 1A70     		strb	r2, [r3]
 797 00fc 08E0     		b	.L50
 798              	.L49:
 799 00fe FB68     		ldr	r3, [r7, #12]
 800 0100 1B68     		ldr	r3, [r3]
 801 0102 5B68     		ldr	r3, [r3, #4]
 802 0104 DBB2     		uxtb	r3, r3
 803 0106 03F07F03 		and	r3, r3, #127
 804 010a DAB2     		uxtb	r2, r3
 805 010c FB69     		ldr	r3, [r7, #28]
 806 010e 1A70     		strb	r2, [r3]
 807              	.L50:
 808 0110 FB69     		ldr	r3, [r7, #28]
 809 0112 0133     		adds	r3, r3, #1
 810 0114 FB61     		str	r3, [r7, #28]
 811              	.L47:
 812 0116 FB68     		ldr	r3, [r7, #12]
 813 0118 DB8D     		ldrh	r3, [r3, #46]	@ movhi
 814 011a 9BB2     		uxth	r3, r3
 815 011c 013B     		subs	r3, r3, #1
ARM GAS  C:\Users\user\AppData\Local\Temp\ccimlsD1.s 			page 15


 816 011e 9AB2     		uxth	r2, r3
 817 0120 FB68     		ldr	r3, [r7, #12]
 818 0122 DA85     		strh	r2, [r3, #46]	@ movhi
 819              	.L44:
 820 0124 FB68     		ldr	r3, [r7, #12]
 821 0126 DB8D     		ldrh	r3, [r3, #46]	@ movhi
 822 0128 9BB2     		uxth	r3, r3
 823 012a 002B     		cmp	r3, #0
 824 012c B6D1     		bne	.L51
 825 012e FB68     		ldr	r3, [r7, #12]
 826 0130 2022     		movs	r2, #32
 827 0132 83F83E20 		strb	r2, [r3, #62]
 828 0136 0023     		movs	r3, #0
 829 0138 00E0     		b	.L40
 830              	.L37:
 831 013a 0223     		movs	r3, #2
 832              	.L40:
 833 013c 1846     		mov	r0, r3
 834 013e 2037     		adds	r7, r7, #32
 835 0140 BD46     		mov	sp, r7
 836              		@ sp needed
 837 0142 80BD     		pop	{r7, pc}
 839              		.section	.text.HAL_UART_Transmit_IT,"ax",%progbits
 840              		.align	1
 841              		.global	HAL_UART_Transmit_IT
 842              		.syntax unified
 843              		.thumb
 844              		.thumb_func
 846              	HAL_UART_Transmit_IT:
 847              		@ args = 0, pretend = 0, frame = 16
 848              		@ frame_needed = 1, uses_anonymous_args = 0
 849              		@ link register save eliminated.
 850 0000 80B4     		push	{r7}
 851 0002 85B0     		sub	sp, sp, #20
 852 0004 00AF     		add	r7, sp, #0
 853 0006 F860     		str	r0, [r7, #12]
 854 0008 B960     		str	r1, [r7, #8]
 855 000a 1346     		mov	r3, r2
 856 000c FB80     		strh	r3, [r7, #6]	@ movhi
 857 000e FB68     		ldr	r3, [r7, #12]
 858 0010 93F83D30 		ldrb	r3, [r3, #61]
 859 0014 DBB2     		uxtb	r3, r3
 860 0016 202B     		cmp	r3, #32
 861 0018 30D1     		bne	.L53
 862 001a BB68     		ldr	r3, [r7, #8]
 863 001c 002B     		cmp	r3, #0
 864 001e 02D0     		beq	.L54
 865 0020 FB88     		ldrh	r3, [r7, #6]
 866 0022 002B     		cmp	r3, #0
 867 0024 01D1     		bne	.L55
 868              	.L54:
 869 0026 0123     		movs	r3, #1
 870 0028 29E0     		b	.L56
 871              	.L55:
 872 002a FB68     		ldr	r3, [r7, #12]
 873 002c 93F83C30 		ldrb	r3, [r3, #60]	@ zero_extendqisi2
 874 0030 012B     		cmp	r3, #1
ARM GAS  C:\Users\user\AppData\Local\Temp\ccimlsD1.s 			page 16


 875 0032 01D1     		bne	.L57
 876 0034 0223     		movs	r3, #2
 877 0036 22E0     		b	.L56
 878              	.L57:
 879 0038 FB68     		ldr	r3, [r7, #12]
 880 003a 0122     		movs	r2, #1
 881 003c 83F83C20 		strb	r2, [r3, #60]
 882 0040 FB68     		ldr	r3, [r7, #12]
 883 0042 BA68     		ldr	r2, [r7, #8]
 884 0044 1A62     		str	r2, [r3, #32]
 885 0046 FB68     		ldr	r3, [r7, #12]
 886 0048 FA88     		ldrh	r2, [r7, #6]	@ movhi
 887 004a 9A84     		strh	r2, [r3, #36]	@ movhi
 888 004c FB68     		ldr	r3, [r7, #12]
 889 004e FA88     		ldrh	r2, [r7, #6]	@ movhi
 890 0050 DA84     		strh	r2, [r3, #38]	@ movhi
 891 0052 FB68     		ldr	r3, [r7, #12]
 892 0054 0022     		movs	r2, #0
 893 0056 1A64     		str	r2, [r3, #64]
 894 0058 FB68     		ldr	r3, [r7, #12]
 895 005a 2122     		movs	r2, #33
 896 005c 83F83D20 		strb	r2, [r3, #61]
 897 0060 FB68     		ldr	r3, [r7, #12]
 898 0062 0022     		movs	r2, #0
 899 0064 83F83C20 		strb	r2, [r3, #60]
 900 0068 FB68     		ldr	r3, [r7, #12]
 901 006a 1B68     		ldr	r3, [r3]
 902 006c DA68     		ldr	r2, [r3, #12]
 903 006e FB68     		ldr	r3, [r7, #12]
 904 0070 1B68     		ldr	r3, [r3]
 905 0072 42F08002 		orr	r2, r2, #128
 906 0076 DA60     		str	r2, [r3, #12]
 907 0078 0023     		movs	r3, #0
 908 007a 00E0     		b	.L56
 909              	.L53:
 910 007c 0223     		movs	r3, #2
 911              	.L56:
 912 007e 1846     		mov	r0, r3
 913 0080 1437     		adds	r7, r7, #20
 914 0082 BD46     		mov	sp, r7
 915              		@ sp needed
 916 0084 5DF8047B 		ldr	r7, [sp], #4
 917 0088 7047     		bx	lr
 919              		.section	.text.HAL_UART_Receive_IT,"ax",%progbits
 920              		.align	1
 921              		.global	HAL_UART_Receive_IT
 922              		.syntax unified
 923              		.thumb
 924              		.thumb_func
 926              	HAL_UART_Receive_IT:
 927              		@ args = 0, pretend = 0, frame = 16
 928              		@ frame_needed = 1, uses_anonymous_args = 0
 929 0000 80B5     		push	{r7, lr}
 930 0002 84B0     		sub	sp, sp, #16
 931 0004 00AF     		add	r7, sp, #0
 932 0006 F860     		str	r0, [r7, #12]
 933 0008 B960     		str	r1, [r7, #8]
ARM GAS  C:\Users\user\AppData\Local\Temp\ccimlsD1.s 			page 17


 934 000a 1346     		mov	r3, r2
 935 000c FB80     		strh	r3, [r7, #6]	@ movhi
 936 000e FB68     		ldr	r3, [r7, #12]
 937 0010 93F83E30 		ldrb	r3, [r3, #62]
 938 0014 DBB2     		uxtb	r3, r3
 939 0016 202B     		cmp	r3, #32
 940 0018 1DD1     		bne	.L59
 941 001a BB68     		ldr	r3, [r7, #8]
 942 001c 002B     		cmp	r3, #0
 943 001e 02D0     		beq	.L60
 944 0020 FB88     		ldrh	r3, [r7, #6]
 945 0022 002B     		cmp	r3, #0
 946 0024 01D1     		bne	.L61
 947              	.L60:
 948 0026 0123     		movs	r3, #1
 949 0028 16E0     		b	.L62
 950              	.L61:
 951 002a FB68     		ldr	r3, [r7, #12]
 952 002c 93F83C30 		ldrb	r3, [r3, #60]	@ zero_extendqisi2
 953 0030 012B     		cmp	r3, #1
 954 0032 01D1     		bne	.L63
 955 0034 0223     		movs	r3, #2
 956 0036 0FE0     		b	.L62
 957              	.L63:
 958 0038 FB68     		ldr	r3, [r7, #12]
 959 003a 0122     		movs	r2, #1
 960 003c 83F83C20 		strb	r2, [r3, #60]
 961 0040 FB68     		ldr	r3, [r7, #12]
 962 0042 0022     		movs	r2, #0
 963 0044 1A63     		str	r2, [r3, #48]
 964 0046 FB88     		ldrh	r3, [r7, #6]
 965 0048 1A46     		mov	r2, r3
 966 004a B968     		ldr	r1, [r7, #8]
 967 004c F868     		ldr	r0, [r7, #12]
 968 004e FFF7FEFF 		bl	UART_Start_Receive_IT
 969 0052 0346     		mov	r3, r0
 970 0054 00E0     		b	.L62
 971              	.L59:
 972 0056 0223     		movs	r3, #2
 973              	.L62:
 974 0058 1846     		mov	r0, r3
 975 005a 1037     		adds	r7, r7, #16
 976 005c BD46     		mov	sp, r7
 977              		@ sp needed
 978 005e 80BD     		pop	{r7, pc}
 980              		.section	.text.HAL_UART_Transmit_DMA,"ax",%progbits
 981              		.align	1
 982              		.global	HAL_UART_Transmit_DMA
 983              		.syntax unified
 984              		.thumb
 985              		.thumb_func
 987              	HAL_UART_Transmit_DMA:
 988              		@ args = 0, pretend = 0, frame = 48
 989              		@ frame_needed = 1, uses_anonymous_args = 0
 990 0000 80B5     		push	{r7, lr}
 991 0002 8CB0     		sub	sp, sp, #48
 992 0004 00AF     		add	r7, sp, #0
ARM GAS  C:\Users\user\AppData\Local\Temp\ccimlsD1.s 			page 18


 993 0006 F860     		str	r0, [r7, #12]
 994 0008 B960     		str	r1, [r7, #8]
 995 000a 1346     		mov	r3, r2
 996 000c FB80     		strh	r3, [r7, #6]	@ movhi
 997 000e FB68     		ldr	r3, [r7, #12]
 998 0010 93F83D30 		ldrb	r3, [r3, #61]
 999 0014 DBB2     		uxtb	r3, r3
 1000 0016 202B     		cmp	r3, #32
 1001 0018 65D1     		bne	.L65
 1002 001a BB68     		ldr	r3, [r7, #8]
 1003 001c 002B     		cmp	r3, #0
 1004 001e 02D0     		beq	.L66
 1005 0020 FB88     		ldrh	r3, [r7, #6]
 1006 0022 002B     		cmp	r3, #0
 1007 0024 01D1     		bne	.L67
 1008              	.L66:
 1009 0026 0123     		movs	r3, #1
 1010 0028 5EE0     		b	.L68
 1011              	.L67:
 1012 002a FB68     		ldr	r3, [r7, #12]
 1013 002c 93F83C30 		ldrb	r3, [r3, #60]	@ zero_extendqisi2
 1014 0030 012B     		cmp	r3, #1
 1015 0032 01D1     		bne	.L69
 1016 0034 0223     		movs	r3, #2
 1017 0036 57E0     		b	.L68
 1018              	.L69:
 1019 0038 FB68     		ldr	r3, [r7, #12]
 1020 003a 0122     		movs	r2, #1
 1021 003c 83F83C20 		strb	r2, [r3, #60]
 1022 0040 BA68     		ldr	r2, [r7, #8]
 1023 0042 FB68     		ldr	r3, [r7, #12]
 1024 0044 1A62     		str	r2, [r3, #32]
 1025 0046 FB68     		ldr	r3, [r7, #12]
 1026 0048 FA88     		ldrh	r2, [r7, #6]	@ movhi
 1027 004a 9A84     		strh	r2, [r3, #36]	@ movhi
 1028 004c FB68     		ldr	r3, [r7, #12]
 1029 004e FA88     		ldrh	r2, [r7, #6]	@ movhi
 1030 0050 DA84     		strh	r2, [r3, #38]	@ movhi
 1031 0052 FB68     		ldr	r3, [r7, #12]
 1032 0054 0022     		movs	r2, #0
 1033 0056 1A64     		str	r2, [r3, #64]
 1034 0058 FB68     		ldr	r3, [r7, #12]
 1035 005a 2122     		movs	r2, #33
 1036 005c 83F83D20 		strb	r2, [r3, #61]
 1037 0060 FB68     		ldr	r3, [r7, #12]
 1038 0062 5B6B     		ldr	r3, [r3, #52]
 1039 0064 224A     		ldr	r2, .L73
 1040 0066 DA63     		str	r2, [r3, #60]
 1041 0068 FB68     		ldr	r3, [r7, #12]
 1042 006a 5B6B     		ldr	r3, [r3, #52]
 1043 006c 214A     		ldr	r2, .L73+4
 1044 006e 1A64     		str	r2, [r3, #64]
 1045 0070 FB68     		ldr	r3, [r7, #12]
 1046 0072 5B6B     		ldr	r3, [r3, #52]
 1047 0074 204A     		ldr	r2, .L73+8
 1048 0076 DA64     		str	r2, [r3, #76]
 1049 0078 FB68     		ldr	r3, [r7, #12]
ARM GAS  C:\Users\user\AppData\Local\Temp\ccimlsD1.s 			page 19


 1050 007a 5B6B     		ldr	r3, [r3, #52]
 1051 007c 0022     		movs	r2, #0
 1052 007e 1A65     		str	r2, [r3, #80]
 1053 0080 07F10803 		add	r3, r7, #8
 1054 0084 FB62     		str	r3, [r7, #44]
 1055 0086 FB68     		ldr	r3, [r7, #12]
 1056 0088 586B     		ldr	r0, [r3, #52]
 1057 008a FB6A     		ldr	r3, [r7, #44]
 1058 008c 1968     		ldr	r1, [r3]
 1059 008e FB68     		ldr	r3, [r7, #12]
 1060 0090 1B68     		ldr	r3, [r3]
 1061 0092 0433     		adds	r3, r3, #4
 1062 0094 1A46     		mov	r2, r3
 1063 0096 FB88     		ldrh	r3, [r7, #6]
 1064 0098 FFF7FEFF 		bl	HAL_DMA_Start_IT
 1065 009c FB68     		ldr	r3, [r7, #12]
 1066 009e 1B68     		ldr	r3, [r3]
 1067 00a0 6FF04002 		mvn	r2, #64
 1068 00a4 1A60     		str	r2, [r3]
 1069 00a6 FB68     		ldr	r3, [r7, #12]
 1070 00a8 0022     		movs	r2, #0
 1071 00aa 83F83C20 		strb	r2, [r3, #60]
 1072              	.L72:
 1073 00ae FB68     		ldr	r3, [r7, #12]
 1074 00b0 1B68     		ldr	r3, [r3]
 1075 00b2 1433     		adds	r3, r3, #20
 1076 00b4 BB61     		str	r3, [r7, #24]
 1077 00b6 BB69     		ldr	r3, [r7, #24]
 1078              		.syntax unified
 1079              	@ 1072 "Drivers/CMSIS/Include/cmsis_gcc.h" 1
 1080 00b8 53E8003F 		ldrex r3, [r3]
 1081              	@ 0 "" 2
 1082              		.thumb
 1083              		.syntax unified
 1084 00bc 7B61     		str	r3, [r7, #20]
 1085 00be 7B69     		ldr	r3, [r7, #20]
 1086 00c0 43F08003 		orr	r3, r3, #128
 1087 00c4 BB62     		str	r3, [r7, #40]
 1088 00c6 FB68     		ldr	r3, [r7, #12]
 1089 00c8 1B68     		ldr	r3, [r3]
 1090 00ca 1433     		adds	r3, r3, #20
 1091 00cc BA6A     		ldr	r2, [r7, #40]
 1092 00ce 7A62     		str	r2, [r7, #36]
 1093 00d0 3B62     		str	r3, [r7, #32]
 1094 00d2 396A     		ldr	r1, [r7, #32]
 1095 00d4 7A6A     		ldr	r2, [r7, #36]
 1096              		.syntax unified
 1097              	@ 1123 "Drivers/CMSIS/Include/cmsis_gcc.h" 1
 1098 00d6 41E80023 		strex r3, r2, [r1]
 1099              	@ 0 "" 2
 1100              		.thumb
 1101              		.syntax unified
 1102 00da FB61     		str	r3, [r7, #28]
 1103 00dc FB69     		ldr	r3, [r7, #28]
 1104 00de 002B     		cmp	r3, #0
 1105 00e0 E5D1     		bne	.L72
 1106 00e2 0023     		movs	r3, #0
ARM GAS  C:\Users\user\AppData\Local\Temp\ccimlsD1.s 			page 20


 1107 00e4 00E0     		b	.L68
 1108              	.L65:
 1109 00e6 0223     		movs	r3, #2
 1110              	.L68:
 1111 00e8 1846     		mov	r0, r3
 1112 00ea 3037     		adds	r7, r7, #48
 1113 00ec BD46     		mov	sp, r7
 1114              		@ sp needed
 1115 00ee 80BD     		pop	{r7, pc}
 1116              	.L74:
 1117              		.align	2
 1118              	.L73:
 1119 00f0 00000000 		.word	UART_DMATransmitCplt
 1120 00f4 00000000 		.word	UART_DMATxHalfCplt
 1121 00f8 00000000 		.word	UART_DMAError
 1123              		.section	.text.HAL_UART_Receive_DMA,"ax",%progbits
 1124              		.align	1
 1125              		.global	HAL_UART_Receive_DMA
 1126              		.syntax unified
 1127              		.thumb
 1128              		.thumb_func
 1130              	HAL_UART_Receive_DMA:
 1131              		@ args = 0, pretend = 0, frame = 16
 1132              		@ frame_needed = 1, uses_anonymous_args = 0
 1133 0000 80B5     		push	{r7, lr}
 1134 0002 84B0     		sub	sp, sp, #16
 1135 0004 00AF     		add	r7, sp, #0
 1136 0006 F860     		str	r0, [r7, #12]
 1137 0008 B960     		str	r1, [r7, #8]
 1138 000a 1346     		mov	r3, r2
 1139 000c FB80     		strh	r3, [r7, #6]	@ movhi
 1140 000e FB68     		ldr	r3, [r7, #12]
 1141 0010 93F83E30 		ldrb	r3, [r3, #62]
 1142 0014 DBB2     		uxtb	r3, r3
 1143 0016 202B     		cmp	r3, #32
 1144 0018 1DD1     		bne	.L76
 1145 001a BB68     		ldr	r3, [r7, #8]
 1146 001c 002B     		cmp	r3, #0
 1147 001e 02D0     		beq	.L77
 1148 0020 FB88     		ldrh	r3, [r7, #6]
 1149 0022 002B     		cmp	r3, #0
 1150 0024 01D1     		bne	.L78
 1151              	.L77:
 1152 0026 0123     		movs	r3, #1
 1153 0028 16E0     		b	.L79
 1154              	.L78:
 1155 002a FB68     		ldr	r3, [r7, #12]
 1156 002c 93F83C30 		ldrb	r3, [r3, #60]	@ zero_extendqisi2
 1157 0030 012B     		cmp	r3, #1
 1158 0032 01D1     		bne	.L80
 1159 0034 0223     		movs	r3, #2
 1160 0036 0FE0     		b	.L79
 1161              	.L80:
 1162 0038 FB68     		ldr	r3, [r7, #12]
 1163 003a 0122     		movs	r2, #1
 1164 003c 83F83C20 		strb	r2, [r3, #60]
 1165 0040 FB68     		ldr	r3, [r7, #12]
ARM GAS  C:\Users\user\AppData\Local\Temp\ccimlsD1.s 			page 21


 1166 0042 0022     		movs	r2, #0
 1167 0044 1A63     		str	r2, [r3, #48]
 1168 0046 FB88     		ldrh	r3, [r7, #6]
 1169 0048 1A46     		mov	r2, r3
 1170 004a B968     		ldr	r1, [r7, #8]
 1171 004c F868     		ldr	r0, [r7, #12]
 1172 004e FFF7FEFF 		bl	UART_Start_Receive_DMA
 1173 0052 0346     		mov	r3, r0
 1174 0054 00E0     		b	.L79
 1175              	.L76:
 1176 0056 0223     		movs	r3, #2
 1177              	.L79:
 1178 0058 1846     		mov	r0, r3
 1179 005a 1037     		adds	r7, r7, #16
 1180 005c BD46     		mov	sp, r7
 1181              		@ sp needed
 1182 005e 80BD     		pop	{r7, pc}
 1184              		.section	.text.HAL_UART_DMAPause,"ax",%progbits
 1185              		.align	1
 1186              		.global	HAL_UART_DMAPause
 1187              		.syntax unified
 1188              		.thumb
 1189              		.thumb_func
 1191              	HAL_UART_DMAPause:
 1192              		@ args = 0, pretend = 0, frame = 112
 1193              		@ frame_needed = 1, uses_anonymous_args = 0
 1194              		@ link register save eliminated.
 1195 0000 80B4     		push	{r7}
 1196 0002 9DB0     		sub	sp, sp, #116
 1197 0004 00AF     		add	r7, sp, #0
 1198 0006 7860     		str	r0, [r7, #4]
 1199 0008 0023     		movs	r3, #0
 1200 000a FB66     		str	r3, [r7, #108]
 1201 000c 7B68     		ldr	r3, [r7, #4]
 1202 000e 93F83C30 		ldrb	r3, [r3, #60]	@ zero_extendqisi2
 1203 0012 012B     		cmp	r3, #1
 1204 0014 01D1     		bne	.L82
 1205 0016 0223     		movs	r3, #2
 1206 0018 98E0     		b	.L83
 1207              	.L82:
 1208 001a 7B68     		ldr	r3, [r7, #4]
 1209 001c 0122     		movs	r2, #1
 1210 001e 83F83C20 		strb	r2, [r3, #60]
 1211 0022 7B68     		ldr	r3, [r7, #4]
 1212 0024 1B68     		ldr	r3, [r3]
 1213 0026 5B69     		ldr	r3, [r3, #20]
 1214 0028 03F08003 		and	r3, r3, #128
 1215 002c 802B     		cmp	r3, #128
 1216 002e 0CBF     		ite	eq
 1217 0030 0123     		moveq	r3, #1
 1218 0032 0023     		movne	r3, #0
 1219 0034 DBB2     		uxtb	r3, r3
 1220 0036 FB66     		str	r3, [r7, #108]
 1221 0038 7B68     		ldr	r3, [r7, #4]
 1222 003a 93F83D30 		ldrb	r3, [r3, #61]
 1223 003e DBB2     		uxtb	r3, r3
 1224 0040 212B     		cmp	r3, #33
ARM GAS  C:\Users\user\AppData\Local\Temp\ccimlsD1.s 			page 22


 1225 0042 1CD1     		bne	.L84
 1226 0044 FB6E     		ldr	r3, [r7, #108]
 1227 0046 002B     		cmp	r3, #0
 1228 0048 19D0     		beq	.L84
 1229              	.L87:
 1230 004a 7B68     		ldr	r3, [r7, #4]
 1231 004c 1B68     		ldr	r3, [r3]
 1232 004e 1433     		adds	r3, r3, #20
 1233 0050 FB64     		str	r3, [r7, #76]
 1234 0052 FB6C     		ldr	r3, [r7, #76]
 1235              		.syntax unified
 1236              	@ 1072 "Drivers/CMSIS/Include/cmsis_gcc.h" 1
 1237 0054 53E8003F 		ldrex r3, [r3]
 1238              	@ 0 "" 2
 1239              		.thumb
 1240              		.syntax unified
 1241 0058 BB64     		str	r3, [r7, #72]
 1242 005a BB6C     		ldr	r3, [r7, #72]
 1243 005c 23F08003 		bic	r3, r3, #128
 1244 0060 BB66     		str	r3, [r7, #104]
 1245 0062 7B68     		ldr	r3, [r7, #4]
 1246 0064 1B68     		ldr	r3, [r3]
 1247 0066 1433     		adds	r3, r3, #20
 1248 0068 BA6E     		ldr	r2, [r7, #104]
 1249 006a BA65     		str	r2, [r7, #88]
 1250 006c 7B65     		str	r3, [r7, #84]
 1251 006e 796D     		ldr	r1, [r7, #84]
 1252 0070 BA6D     		ldr	r2, [r7, #88]
 1253              		.syntax unified
 1254              	@ 1123 "Drivers/CMSIS/Include/cmsis_gcc.h" 1
 1255 0072 41E80023 		strex r3, r2, [r1]
 1256              	@ 0 "" 2
 1257              		.thumb
 1258              		.syntax unified
 1259 0076 3B65     		str	r3, [r7, #80]
 1260 0078 3B6D     		ldr	r3, [r7, #80]
 1261 007a 002B     		cmp	r3, #0
 1262 007c E5D1     		bne	.L87
 1263              	.L84:
 1264 007e 7B68     		ldr	r3, [r7, #4]
 1265 0080 1B68     		ldr	r3, [r3]
 1266 0082 5B69     		ldr	r3, [r3, #20]
 1267 0084 03F04003 		and	r3, r3, #64
 1268 0088 402B     		cmp	r3, #64
 1269 008a 0CBF     		ite	eq
 1270 008c 0123     		moveq	r3, #1
 1271 008e 0023     		movne	r3, #0
 1272 0090 DBB2     		uxtb	r3, r3
 1273 0092 FB66     		str	r3, [r7, #108]
 1274 0094 7B68     		ldr	r3, [r7, #4]
 1275 0096 93F83E30 		ldrb	r3, [r3, #62]
 1276 009a DBB2     		uxtb	r3, r3
 1277 009c 222B     		cmp	r3, #34
 1278 009e 50D1     		bne	.L88
 1279 00a0 FB6E     		ldr	r3, [r7, #108]
 1280 00a2 002B     		cmp	r3, #0
 1281 00a4 4DD0     		beq	.L88
ARM GAS  C:\Users\user\AppData\Local\Temp\ccimlsD1.s 			page 23


 1282              	.L91:
 1283 00a6 7B68     		ldr	r3, [r7, #4]
 1284 00a8 1B68     		ldr	r3, [r3]
 1285 00aa 0C33     		adds	r3, r3, #12
 1286 00ac BB63     		str	r3, [r7, #56]
 1287 00ae BB6B     		ldr	r3, [r7, #56]
 1288              		.syntax unified
 1289              	@ 1072 "Drivers/CMSIS/Include/cmsis_gcc.h" 1
 1290 00b0 53E8003F 		ldrex r3, [r3]
 1291              	@ 0 "" 2
 1292              		.thumb
 1293              		.syntax unified
 1294 00b4 7B63     		str	r3, [r7, #52]
 1295 00b6 7B6B     		ldr	r3, [r7, #52]
 1296 00b8 23F48073 		bic	r3, r3, #256
 1297 00bc 7B66     		str	r3, [r7, #100]
 1298 00be 7B68     		ldr	r3, [r7, #4]
 1299 00c0 1B68     		ldr	r3, [r3]
 1300 00c2 0C33     		adds	r3, r3, #12
 1301 00c4 7A6E     		ldr	r2, [r7, #100]
 1302 00c6 7A64     		str	r2, [r7, #68]
 1303 00c8 3B64     		str	r3, [r7, #64]
 1304 00ca 396C     		ldr	r1, [r7, #64]
 1305 00cc 7A6C     		ldr	r2, [r7, #68]
 1306              		.syntax unified
 1307              	@ 1123 "Drivers/CMSIS/Include/cmsis_gcc.h" 1
 1308 00ce 41E80023 		strex r3, r2, [r1]
 1309              	@ 0 "" 2
 1310              		.thumb
 1311              		.syntax unified
 1312 00d2 FB63     		str	r3, [r7, #60]
 1313 00d4 FB6B     		ldr	r3, [r7, #60]
 1314 00d6 002B     		cmp	r3, #0
 1315 00d8 E5D1     		bne	.L91
 1316              	.L94:
 1317 00da 7B68     		ldr	r3, [r7, #4]
 1318 00dc 1B68     		ldr	r3, [r3]
 1319 00de 1433     		adds	r3, r3, #20
 1320 00e0 7B62     		str	r3, [r7, #36]
 1321 00e2 7B6A     		ldr	r3, [r7, #36]
 1322              		.syntax unified
 1323              	@ 1072 "Drivers/CMSIS/Include/cmsis_gcc.h" 1
 1324 00e4 53E8003F 		ldrex r3, [r3]
 1325              	@ 0 "" 2
 1326              		.thumb
 1327              		.syntax unified
 1328 00e8 3B62     		str	r3, [r7, #32]
 1329 00ea 3B6A     		ldr	r3, [r7, #32]
 1330 00ec 23F00103 		bic	r3, r3, #1
 1331 00f0 3B66     		str	r3, [r7, #96]
 1332 00f2 7B68     		ldr	r3, [r7, #4]
 1333 00f4 1B68     		ldr	r3, [r3]
 1334 00f6 1433     		adds	r3, r3, #20
 1335 00f8 3A6E     		ldr	r2, [r7, #96]
 1336 00fa 3A63     		str	r2, [r7, #48]
 1337 00fc FB62     		str	r3, [r7, #44]
 1338 00fe F96A     		ldr	r1, [r7, #44]
ARM GAS  C:\Users\user\AppData\Local\Temp\ccimlsD1.s 			page 24


 1339 0100 3A6B     		ldr	r2, [r7, #48]
 1340              		.syntax unified
 1341              	@ 1123 "Drivers/CMSIS/Include/cmsis_gcc.h" 1
 1342 0102 41E80023 		strex r3, r2, [r1]
 1343              	@ 0 "" 2
 1344              		.thumb
 1345              		.syntax unified
 1346 0106 BB62     		str	r3, [r7, #40]
 1347 0108 BB6A     		ldr	r3, [r7, #40]
 1348 010a 002B     		cmp	r3, #0
 1349 010c E5D1     		bne	.L94
 1350              	.L97:
 1351 010e 7B68     		ldr	r3, [r7, #4]
 1352 0110 1B68     		ldr	r3, [r3]
 1353 0112 1433     		adds	r3, r3, #20
 1354 0114 3B61     		str	r3, [r7, #16]
 1355 0116 3B69     		ldr	r3, [r7, #16]
 1356              		.syntax unified
 1357              	@ 1072 "Drivers/CMSIS/Include/cmsis_gcc.h" 1
 1358 0118 53E8003F 		ldrex r3, [r3]
 1359              	@ 0 "" 2
 1360              		.thumb
 1361              		.syntax unified
 1362 011c FB60     		str	r3, [r7, #12]
 1363 011e FB68     		ldr	r3, [r7, #12]
 1364 0120 23F04003 		bic	r3, r3, #64
 1365 0124 FB65     		str	r3, [r7, #92]
 1366 0126 7B68     		ldr	r3, [r7, #4]
 1367 0128 1B68     		ldr	r3, [r3]
 1368 012a 1433     		adds	r3, r3, #20
 1369 012c FA6D     		ldr	r2, [r7, #92]
 1370 012e FA61     		str	r2, [r7, #28]
 1371 0130 BB61     		str	r3, [r7, #24]
 1372 0132 B969     		ldr	r1, [r7, #24]
 1373 0134 FA69     		ldr	r2, [r7, #28]
 1374              		.syntax unified
 1375              	@ 1123 "Drivers/CMSIS/Include/cmsis_gcc.h" 1
 1376 0136 41E80023 		strex r3, r2, [r1]
 1377              	@ 0 "" 2
 1378              		.thumb
 1379              		.syntax unified
 1380 013a 7B61     		str	r3, [r7, #20]
 1381 013c 7B69     		ldr	r3, [r7, #20]
 1382 013e 002B     		cmp	r3, #0
 1383 0140 E5D1     		bne	.L97
 1384              	.L88:
 1385 0142 7B68     		ldr	r3, [r7, #4]
 1386 0144 0022     		movs	r2, #0
 1387 0146 83F83C20 		strb	r2, [r3, #60]
 1388 014a 0023     		movs	r3, #0
 1389              	.L83:
 1390 014c 1846     		mov	r0, r3
 1391 014e 7437     		adds	r7, r7, #116
 1392 0150 BD46     		mov	sp, r7
 1393              		@ sp needed
 1394 0152 5DF8047B 		ldr	r7, [sp], #4
 1395 0156 7047     		bx	lr
ARM GAS  C:\Users\user\AppData\Local\Temp\ccimlsD1.s 			page 25


 1397              		.section	.text.HAL_UART_DMAResume,"ax",%progbits
 1398              		.align	1
 1399              		.global	HAL_UART_DMAResume
 1400              		.syntax unified
 1401              		.thumb
 1402              		.thumb_func
 1404              	HAL_UART_DMAResume:
 1405              		@ args = 0, pretend = 0, frame = 112
 1406              		@ frame_needed = 1, uses_anonymous_args = 0
 1407              		@ link register save eliminated.
 1408 0000 80B4     		push	{r7}
 1409 0002 9DB0     		sub	sp, sp, #116
 1410 0004 00AF     		add	r7, sp, #0
 1411 0006 7860     		str	r0, [r7, #4]
 1412 0008 7B68     		ldr	r3, [r7, #4]
 1413 000a 93F83C30 		ldrb	r3, [r3, #60]	@ zero_extendqisi2
 1414 000e 012B     		cmp	r3, #1
 1415 0010 01D1     		bne	.L99
 1416 0012 0223     		movs	r3, #2
 1417 0014 8BE0     		b	.L100
 1418              	.L99:
 1419 0016 7B68     		ldr	r3, [r7, #4]
 1420 0018 0122     		movs	r2, #1
 1421 001a 83F83C20 		strb	r2, [r3, #60]
 1422 001e 7B68     		ldr	r3, [r7, #4]
 1423 0020 93F83D30 		ldrb	r3, [r3, #61]
 1424 0024 DBB2     		uxtb	r3, r3
 1425 0026 212B     		cmp	r3, #33
 1426 0028 19D1     		bne	.L101
 1427              	.L104:
 1428 002a 7B68     		ldr	r3, [r7, #4]
 1429 002c 1B68     		ldr	r3, [r3]
 1430 002e 1433     		adds	r3, r3, #20
 1431 0030 3B65     		str	r3, [r7, #80]
 1432 0032 3B6D     		ldr	r3, [r7, #80]
 1433              		.syntax unified
 1434              	@ 1072 "Drivers/CMSIS/Include/cmsis_gcc.h" 1
 1435 0034 53E8003F 		ldrex r3, [r3]
 1436              	@ 0 "" 2
 1437              		.thumb
 1438              		.syntax unified
 1439 0038 FB64     		str	r3, [r7, #76]
 1440 003a FB6C     		ldr	r3, [r7, #76]
 1441 003c 43F08003 		orr	r3, r3, #128
 1442 0040 FB66     		str	r3, [r7, #108]
 1443 0042 7B68     		ldr	r3, [r7, #4]
 1444 0044 1B68     		ldr	r3, [r3]
 1445 0046 1433     		adds	r3, r3, #20
 1446 0048 FA6E     		ldr	r2, [r7, #108]
 1447 004a FA65     		str	r2, [r7, #92]
 1448 004c BB65     		str	r3, [r7, #88]
 1449 004e B96D     		ldr	r1, [r7, #88]
 1450 0050 FA6D     		ldr	r2, [r7, #92]
 1451              		.syntax unified
 1452              	@ 1123 "Drivers/CMSIS/Include/cmsis_gcc.h" 1
 1453 0052 41E80023 		strex r3, r2, [r1]
 1454              	@ 0 "" 2
ARM GAS  C:\Users\user\AppData\Local\Temp\ccimlsD1.s 			page 26


 1455              		.thumb
 1456              		.syntax unified
 1457 0056 7B65     		str	r3, [r7, #84]
 1458 0058 7B6D     		ldr	r3, [r7, #84]
 1459 005a 002B     		cmp	r3, #0
 1460 005c E5D1     		bne	.L104
 1461              	.L101:
 1462 005e 7B68     		ldr	r3, [r7, #4]
 1463 0060 93F83E30 		ldrb	r3, [r3, #62]
 1464 0064 DBB2     		uxtb	r3, r3
 1465 0066 222B     		cmp	r3, #34
 1466 0068 5CD1     		bne	.L105
 1467 006a 0023     		movs	r3, #0
 1468 006c FB60     		str	r3, [r7, #12]
 1469 006e 7B68     		ldr	r3, [r7, #4]
 1470 0070 1B68     		ldr	r3, [r3]
 1471 0072 1B68     		ldr	r3, [r3]
 1472 0074 FB60     		str	r3, [r7, #12]
 1473 0076 7B68     		ldr	r3, [r7, #4]
 1474 0078 1B68     		ldr	r3, [r3]
 1475 007a 5B68     		ldr	r3, [r3, #4]
 1476 007c FB60     		str	r3, [r7, #12]
 1477 007e FB68     		ldr	r3, [r7, #12]
 1478 0080 7B68     		ldr	r3, [r7, #4]
 1479 0082 1B69     		ldr	r3, [r3, #16]
 1480 0084 002B     		cmp	r3, #0
 1481 0086 19D0     		beq	.L112
 1482              	.L109:
 1483 0088 7B68     		ldr	r3, [r7, #4]
 1484 008a 1B68     		ldr	r3, [r3]
 1485 008c 0C33     		adds	r3, r3, #12
 1486 008e FB63     		str	r3, [r7, #60]
 1487 0090 FB6B     		ldr	r3, [r7, #60]
 1488              		.syntax unified
 1489              	@ 1072 "Drivers/CMSIS/Include/cmsis_gcc.h" 1
 1490 0092 53E8003F 		ldrex r3, [r3]
 1491              	@ 0 "" 2
 1492              		.thumb
 1493              		.syntax unified
 1494 0096 BB63     		str	r3, [r7, #56]
 1495 0098 BB6B     		ldr	r3, [r7, #56]
 1496 009a 43F48073 		orr	r3, r3, #256
 1497 009e BB66     		str	r3, [r7, #104]
 1498 00a0 7B68     		ldr	r3, [r7, #4]
 1499 00a2 1B68     		ldr	r3, [r3]
 1500 00a4 0C33     		adds	r3, r3, #12
 1501 00a6 BA6E     		ldr	r2, [r7, #104]
 1502 00a8 BA64     		str	r2, [r7, #72]
 1503 00aa 7B64     		str	r3, [r7, #68]
 1504 00ac 796C     		ldr	r1, [r7, #68]
 1505 00ae BA6C     		ldr	r2, [r7, #72]
 1506              		.syntax unified
 1507              	@ 1123 "Drivers/CMSIS/Include/cmsis_gcc.h" 1
 1508 00b0 41E80023 		strex r3, r2, [r1]
 1509              	@ 0 "" 2
 1510              		.thumb
 1511              		.syntax unified
ARM GAS  C:\Users\user\AppData\Local\Temp\ccimlsD1.s 			page 27


 1512 00b4 3B64     		str	r3, [r7, #64]
 1513 00b6 3B6C     		ldr	r3, [r7, #64]
 1514 00b8 002B     		cmp	r3, #0
 1515 00ba E5D1     		bne	.L109
 1516              	.L112:
 1517 00bc 7B68     		ldr	r3, [r7, #4]
 1518 00be 1B68     		ldr	r3, [r3]
 1519 00c0 1433     		adds	r3, r3, #20
 1520 00c2 BB62     		str	r3, [r7, #40]
 1521 00c4 BB6A     		ldr	r3, [r7, #40]
 1522              		.syntax unified
 1523              	@ 1072 "Drivers/CMSIS/Include/cmsis_gcc.h" 1
 1524 00c6 53E8003F 		ldrex r3, [r3]
 1525              	@ 0 "" 2
 1526              		.thumb
 1527              		.syntax unified
 1528 00ca 7B62     		str	r3, [r7, #36]
 1529 00cc 7B6A     		ldr	r3, [r7, #36]
 1530 00ce 43F00103 		orr	r3, r3, #1
 1531 00d2 7B66     		str	r3, [r7, #100]
 1532 00d4 7B68     		ldr	r3, [r7, #4]
 1533 00d6 1B68     		ldr	r3, [r3]
 1534 00d8 1433     		adds	r3, r3, #20
 1535 00da 7A6E     		ldr	r2, [r7, #100]
 1536 00dc 7A63     		str	r2, [r7, #52]
 1537 00de 3B63     		str	r3, [r7, #48]
 1538 00e0 396B     		ldr	r1, [r7, #48]
 1539 00e2 7A6B     		ldr	r2, [r7, #52]
 1540              		.syntax unified
 1541              	@ 1123 "Drivers/CMSIS/Include/cmsis_gcc.h" 1
 1542 00e4 41E80023 		strex r3, r2, [r1]
 1543              	@ 0 "" 2
 1544              		.thumb
 1545              		.syntax unified
 1546 00e8 FB62     		str	r3, [r7, #44]
 1547 00ea FB6A     		ldr	r3, [r7, #44]
 1548 00ec 002B     		cmp	r3, #0
 1549 00ee E5D1     		bne	.L112
 1550              	.L115:
 1551 00f0 7B68     		ldr	r3, [r7, #4]
 1552 00f2 1B68     		ldr	r3, [r3]
 1553 00f4 1433     		adds	r3, r3, #20
 1554 00f6 7B61     		str	r3, [r7, #20]
 1555 00f8 7B69     		ldr	r3, [r7, #20]
 1556              		.syntax unified
 1557              	@ 1072 "Drivers/CMSIS/Include/cmsis_gcc.h" 1
 1558 00fa 53E8003F 		ldrex r3, [r3]
 1559              	@ 0 "" 2
 1560              		.thumb
 1561              		.syntax unified
 1562 00fe 3B61     		str	r3, [r7, #16]
 1563 0100 3B69     		ldr	r3, [r7, #16]
 1564 0102 43F04003 		orr	r3, r3, #64
 1565 0106 3B66     		str	r3, [r7, #96]
 1566 0108 7B68     		ldr	r3, [r7, #4]
 1567 010a 1B68     		ldr	r3, [r3]
 1568 010c 1433     		adds	r3, r3, #20
ARM GAS  C:\Users\user\AppData\Local\Temp\ccimlsD1.s 			page 28


 1569 010e 3A6E     		ldr	r2, [r7, #96]
 1570 0110 3A62     		str	r2, [r7, #32]
 1571 0112 FB61     		str	r3, [r7, #28]
 1572 0114 F969     		ldr	r1, [r7, #28]
 1573 0116 3A6A     		ldr	r2, [r7, #32]
 1574              		.syntax unified
 1575              	@ 1123 "Drivers/CMSIS/Include/cmsis_gcc.h" 1
 1576 0118 41E80023 		strex r3, r2, [r1]
 1577              	@ 0 "" 2
 1578              		.thumb
 1579              		.syntax unified
 1580 011c BB61     		str	r3, [r7, #24]
 1581 011e BB69     		ldr	r3, [r7, #24]
 1582 0120 002B     		cmp	r3, #0
 1583 0122 E5D1     		bne	.L115
 1584              	.L105:
 1585 0124 7B68     		ldr	r3, [r7, #4]
 1586 0126 0022     		movs	r2, #0
 1587 0128 83F83C20 		strb	r2, [r3, #60]
 1588 012c 0023     		movs	r3, #0
 1589              	.L100:
 1590 012e 1846     		mov	r0, r3
 1591 0130 7437     		adds	r7, r7, #116
 1592 0132 BD46     		mov	sp, r7
 1593              		@ sp needed
 1594 0134 5DF8047B 		ldr	r7, [sp], #4
 1595 0138 7047     		bx	lr
 1597              		.section	.text.HAL_UART_DMAStop,"ax",%progbits
 1598              		.align	1
 1599              		.global	HAL_UART_DMAStop
 1600              		.syntax unified
 1601              		.thumb
 1602              		.thumb_func
 1604              	HAL_UART_DMAStop:
 1605              		@ args = 0, pretend = 0, frame = 64
 1606              		@ frame_needed = 1, uses_anonymous_args = 0
 1607 0000 80B5     		push	{r7, lr}
 1608 0002 90B0     		sub	sp, sp, #64
 1609 0004 00AF     		add	r7, sp, #0
 1610 0006 7860     		str	r0, [r7, #4]
 1611 0008 0023     		movs	r3, #0
 1612 000a FB63     		str	r3, [r7, #60]
 1613 000c 7B68     		ldr	r3, [r7, #4]
 1614 000e 1B68     		ldr	r3, [r3]
 1615 0010 5B69     		ldr	r3, [r3, #20]
 1616 0012 03F08003 		and	r3, r3, #128
 1617 0016 802B     		cmp	r3, #128
 1618 0018 0CBF     		ite	eq
 1619 001a 0123     		moveq	r3, #1
 1620 001c 0023     		movne	r3, #0
 1621 001e DBB2     		uxtb	r3, r3
 1622 0020 FB63     		str	r3, [r7, #60]
 1623 0022 7B68     		ldr	r3, [r7, #4]
 1624 0024 93F83D30 		ldrb	r3, [r3, #61]
 1625 0028 DBB2     		uxtb	r3, r3
 1626 002a 212B     		cmp	r3, #33
 1627 002c 28D1     		bne	.L117
ARM GAS  C:\Users\user\AppData\Local\Temp\ccimlsD1.s 			page 29


 1628 002e FB6B     		ldr	r3, [r7, #60]
 1629 0030 002B     		cmp	r3, #0
 1630 0032 25D0     		beq	.L117
 1631              	.L120:
 1632 0034 7B68     		ldr	r3, [r7, #4]
 1633 0036 1B68     		ldr	r3, [r3]
 1634 0038 1433     		adds	r3, r3, #20
 1635 003a 7B62     		str	r3, [r7, #36]
 1636 003c 7B6A     		ldr	r3, [r7, #36]
 1637              		.syntax unified
 1638              	@ 1072 "Drivers/CMSIS/Include/cmsis_gcc.h" 1
 1639 003e 53E8003F 		ldrex r3, [r3]
 1640              	@ 0 "" 2
 1641              		.thumb
 1642              		.syntax unified
 1643 0042 3B62     		str	r3, [r7, #32]
 1644 0044 3B6A     		ldr	r3, [r7, #32]
 1645 0046 23F08003 		bic	r3, r3, #128
 1646 004a BB63     		str	r3, [r7, #56]
 1647 004c 7B68     		ldr	r3, [r7, #4]
 1648 004e 1B68     		ldr	r3, [r3]
 1649 0050 1433     		adds	r3, r3, #20
 1650 0052 BA6B     		ldr	r2, [r7, #56]
 1651 0054 3A63     		str	r2, [r7, #48]
 1652 0056 FB62     		str	r3, [r7, #44]
 1653 0058 F96A     		ldr	r1, [r7, #44]
 1654 005a 3A6B     		ldr	r2, [r7, #48]
 1655              		.syntax unified
 1656              	@ 1123 "Drivers/CMSIS/Include/cmsis_gcc.h" 1
 1657 005c 41E80023 		strex r3, r2, [r1]
 1658              	@ 0 "" 2
 1659              		.thumb
 1660              		.syntax unified
 1661 0060 BB62     		str	r3, [r7, #40]
 1662 0062 BB6A     		ldr	r3, [r7, #40]
 1663 0064 002B     		cmp	r3, #0
 1664 0066 E5D1     		bne	.L120
 1665 0068 7B68     		ldr	r3, [r7, #4]
 1666 006a 5B6B     		ldr	r3, [r3, #52]
 1667 006c 002B     		cmp	r3, #0
 1668 006e 04D0     		beq	.L121
 1669 0070 7B68     		ldr	r3, [r7, #4]
 1670 0072 5B6B     		ldr	r3, [r3, #52]
 1671 0074 1846     		mov	r0, r3
 1672 0076 FFF7FEFF 		bl	HAL_DMA_Abort
 1673              	.L121:
 1674 007a 7868     		ldr	r0, [r7, #4]
 1675 007c FFF7FEFF 		bl	UART_EndTxTransfer
 1676              	.L117:
 1677 0080 7B68     		ldr	r3, [r7, #4]
 1678 0082 1B68     		ldr	r3, [r3]
 1679 0084 5B69     		ldr	r3, [r3, #20]
 1680 0086 03F04003 		and	r3, r3, #64
 1681 008a 402B     		cmp	r3, #64
 1682 008c 0CBF     		ite	eq
 1683 008e 0123     		moveq	r3, #1
 1684 0090 0023     		movne	r3, #0
ARM GAS  C:\Users\user\AppData\Local\Temp\ccimlsD1.s 			page 30


 1685 0092 DBB2     		uxtb	r3, r3
 1686 0094 FB63     		str	r3, [r7, #60]
 1687 0096 7B68     		ldr	r3, [r7, #4]
 1688 0098 93F83E30 		ldrb	r3, [r3, #62]
 1689 009c DBB2     		uxtb	r3, r3
 1690 009e 222B     		cmp	r3, #34
 1691 00a0 28D1     		bne	.L122
 1692 00a2 FB6B     		ldr	r3, [r7, #60]
 1693 00a4 002B     		cmp	r3, #0
 1694 00a6 25D0     		beq	.L122
 1695              	.L125:
 1696 00a8 7B68     		ldr	r3, [r7, #4]
 1697 00aa 1B68     		ldr	r3, [r3]
 1698 00ac 1433     		adds	r3, r3, #20
 1699 00ae 3B61     		str	r3, [r7, #16]
 1700 00b0 3B69     		ldr	r3, [r7, #16]
 1701              		.syntax unified
 1702              	@ 1072 "Drivers/CMSIS/Include/cmsis_gcc.h" 1
 1703 00b2 53E8003F 		ldrex r3, [r3]
 1704              	@ 0 "" 2
 1705              		.thumb
 1706              		.syntax unified
 1707 00b6 FB60     		str	r3, [r7, #12]
 1708 00b8 FB68     		ldr	r3, [r7, #12]
 1709 00ba 23F04003 		bic	r3, r3, #64
 1710 00be 7B63     		str	r3, [r7, #52]
 1711 00c0 7B68     		ldr	r3, [r7, #4]
 1712 00c2 1B68     		ldr	r3, [r3]
 1713 00c4 1433     		adds	r3, r3, #20
 1714 00c6 7A6B     		ldr	r2, [r7, #52]
 1715 00c8 FA61     		str	r2, [r7, #28]
 1716 00ca BB61     		str	r3, [r7, #24]
 1717 00cc B969     		ldr	r1, [r7, #24]
 1718 00ce FA69     		ldr	r2, [r7, #28]
 1719              		.syntax unified
 1720              	@ 1123 "Drivers/CMSIS/Include/cmsis_gcc.h" 1
 1721 00d0 41E80023 		strex r3, r2, [r1]
 1722              	@ 0 "" 2
 1723              		.thumb
 1724              		.syntax unified
 1725 00d4 7B61     		str	r3, [r7, #20]
 1726 00d6 7B69     		ldr	r3, [r7, #20]
 1727 00d8 002B     		cmp	r3, #0
 1728 00da E5D1     		bne	.L125
 1729 00dc 7B68     		ldr	r3, [r7, #4]
 1730 00de 9B6B     		ldr	r3, [r3, #56]
 1731 00e0 002B     		cmp	r3, #0
 1732 00e2 04D0     		beq	.L126
 1733 00e4 7B68     		ldr	r3, [r7, #4]
 1734 00e6 9B6B     		ldr	r3, [r3, #56]
 1735 00e8 1846     		mov	r0, r3
 1736 00ea FFF7FEFF 		bl	HAL_DMA_Abort
 1737              	.L126:
 1738 00ee 7868     		ldr	r0, [r7, #4]
 1739 00f0 FFF7FEFF 		bl	UART_EndRxTransfer
 1740              	.L122:
 1741 00f4 0023     		movs	r3, #0
ARM GAS  C:\Users\user\AppData\Local\Temp\ccimlsD1.s 			page 31


 1742 00f6 1846     		mov	r0, r3
 1743 00f8 4037     		adds	r7, r7, #64
 1744 00fa BD46     		mov	sp, r7
 1745              		@ sp needed
 1746 00fc 80BD     		pop	{r7, pc}
 1748              		.section	.text.HAL_UARTEx_ReceiveToIdle,"ax",%progbits
 1749              		.align	1
 1750              		.global	HAL_UARTEx_ReceiveToIdle
 1751              		.syntax unified
 1752              		.thumb
 1753              		.thumb_func
 1755              	HAL_UARTEx_ReceiveToIdle:
 1756              		@ args = 4, pretend = 0, frame = 32
 1757              		@ frame_needed = 1, uses_anonymous_args = 0
 1758 0000 80B5     		push	{r7, lr}
 1759 0002 88B0     		sub	sp, sp, #32
 1760 0004 00AF     		add	r7, sp, #0
 1761 0006 F860     		str	r0, [r7, #12]
 1762 0008 B960     		str	r1, [r7, #8]
 1763 000a 3B60     		str	r3, [r7]
 1764 000c 1346     		mov	r3, r2	@ movhi
 1765 000e FB80     		strh	r3, [r7, #6]	@ movhi
 1766 0010 FB68     		ldr	r3, [r7, #12]
 1767 0012 93F83E30 		ldrb	r3, [r3, #62]
 1768 0016 DBB2     		uxtb	r3, r3
 1769 0018 202B     		cmp	r3, #32
 1770 001a 40F0C980 		bne	.L129
 1771 001e BB68     		ldr	r3, [r7, #8]
 1772 0020 002B     		cmp	r3, #0
 1773 0022 02D0     		beq	.L130
 1774 0024 FB88     		ldrh	r3, [r7, #6]
 1775 0026 002B     		cmp	r3, #0
 1776 0028 01D1     		bne	.L131
 1777              	.L130:
 1778 002a 0123     		movs	r3, #1
 1779 002c C1E0     		b	.L132
 1780              	.L131:
 1781 002e FB68     		ldr	r3, [r7, #12]
 1782 0030 93F83C30 		ldrb	r3, [r3, #60]	@ zero_extendqisi2
 1783 0034 012B     		cmp	r3, #1
 1784 0036 01D1     		bne	.L133
 1785 0038 0223     		movs	r3, #2
 1786 003a BAE0     		b	.L132
 1787              	.L133:
 1788 003c FB68     		ldr	r3, [r7, #12]
 1789 003e 0122     		movs	r2, #1
 1790 0040 83F83C20 		strb	r2, [r3, #60]
 1791 0044 FB68     		ldr	r3, [r7, #12]
 1792 0046 0022     		movs	r2, #0
 1793 0048 1A64     		str	r2, [r3, #64]
 1794 004a FB68     		ldr	r3, [r7, #12]
 1795 004c 2222     		movs	r2, #34
 1796 004e 83F83E20 		strb	r2, [r3, #62]
 1797 0052 FB68     		ldr	r3, [r7, #12]
 1798 0054 0122     		movs	r2, #1
 1799 0056 1A63     		str	r2, [r3, #48]
 1800 0058 FFF7FEFF 		bl	HAL_GetTick
ARM GAS  C:\Users\user\AppData\Local\Temp\ccimlsD1.s 			page 32


 1801 005c 7861     		str	r0, [r7, #20]
 1802 005e FB68     		ldr	r3, [r7, #12]
 1803 0060 FA88     		ldrh	r2, [r7, #6]	@ movhi
 1804 0062 9A85     		strh	r2, [r3, #44]	@ movhi
 1805 0064 FB68     		ldr	r3, [r7, #12]
 1806 0066 FA88     		ldrh	r2, [r7, #6]	@ movhi
 1807 0068 DA85     		strh	r2, [r3, #46]	@ movhi
 1808 006a FB68     		ldr	r3, [r7, #12]
 1809 006c 9B68     		ldr	r3, [r3, #8]
 1810 006e B3F5805F 		cmp	r3, #4096
 1811 0072 08D1     		bne	.L134
 1812 0074 FB68     		ldr	r3, [r7, #12]
 1813 0076 1B69     		ldr	r3, [r3, #16]
 1814 0078 002B     		cmp	r3, #0
 1815 007a 04D1     		bne	.L134
 1816 007c 0023     		movs	r3, #0
 1817 007e FB61     		str	r3, [r7, #28]
 1818 0080 BB68     		ldr	r3, [r7, #8]
 1819 0082 BB61     		str	r3, [r7, #24]
 1820 0084 03E0     		b	.L135
 1821              	.L134:
 1822 0086 BB68     		ldr	r3, [r7, #8]
 1823 0088 FB61     		str	r3, [r7, #28]
 1824 008a 0023     		movs	r3, #0
 1825 008c BB61     		str	r3, [r7, #24]
 1826              	.L135:
 1827 008e FB68     		ldr	r3, [r7, #12]
 1828 0090 0022     		movs	r2, #0
 1829 0092 83F83C20 		strb	r2, [r3, #60]
 1830 0096 3B68     		ldr	r3, [r7]
 1831 0098 0022     		movs	r2, #0
 1832 009a 1A80     		strh	r2, [r3]	@ movhi
 1833 009c 74E0     		b	.L136
 1834              	.L146:
 1835 009e FB68     		ldr	r3, [r7, #12]
 1836 00a0 1B68     		ldr	r3, [r3]
 1837 00a2 1B68     		ldr	r3, [r3]
 1838 00a4 03F01003 		and	r3, r3, #16
 1839 00a8 102B     		cmp	r3, #16
 1840 00aa 14D1     		bne	.L137
 1841 00ac 0023     		movs	r3, #0
 1842 00ae 3B61     		str	r3, [r7, #16]
 1843 00b0 FB68     		ldr	r3, [r7, #12]
 1844 00b2 1B68     		ldr	r3, [r3]
 1845 00b4 1B68     		ldr	r3, [r3]
 1846 00b6 3B61     		str	r3, [r7, #16]
 1847 00b8 FB68     		ldr	r3, [r7, #12]
 1848 00ba 1B68     		ldr	r3, [r3]
 1849 00bc 5B68     		ldr	r3, [r3, #4]
 1850 00be 3B61     		str	r3, [r7, #16]
 1851 00c0 3B69     		ldr	r3, [r7, #16]
 1852 00c2 3B68     		ldr	r3, [r7]
 1853 00c4 1B88     		ldrh	r3, [r3]
 1854 00c6 002B     		cmp	r3, #0
 1855 00c8 05D0     		beq	.L137
 1856 00ca FB68     		ldr	r3, [r7, #12]
 1857 00cc 2022     		movs	r2, #32
ARM GAS  C:\Users\user\AppData\Local\Temp\ccimlsD1.s 			page 33


 1858 00ce 83F83E20 		strb	r2, [r3, #62]
 1859 00d2 0023     		movs	r3, #0
 1860 00d4 6DE0     		b	.L132
 1861              	.L137:
 1862 00d6 FB68     		ldr	r3, [r7, #12]
 1863 00d8 1B68     		ldr	r3, [r3]
 1864 00da 1B68     		ldr	r3, [r3]
 1865 00dc 03F02003 		and	r3, r3, #32
 1866 00e0 202B     		cmp	r3, #32
 1867 00e2 3CD1     		bne	.L138
 1868 00e4 FB69     		ldr	r3, [r7, #28]
 1869 00e6 002B     		cmp	r3, #0
 1870 00e8 0CD1     		bne	.L139
 1871 00ea FB68     		ldr	r3, [r7, #12]
 1872 00ec 1B68     		ldr	r3, [r3]
 1873 00ee 5B68     		ldr	r3, [r3, #4]
 1874 00f0 9BB2     		uxth	r3, r3
 1875 00f2 C3F30803 		ubfx	r3, r3, #0, #9
 1876 00f6 9AB2     		uxth	r2, r3
 1877 00f8 BB69     		ldr	r3, [r7, #24]
 1878 00fa 1A80     		strh	r2, [r3]	@ movhi
 1879 00fc BB69     		ldr	r3, [r7, #24]
 1880 00fe 0233     		adds	r3, r3, #2
 1881 0100 BB61     		str	r3, [r7, #24]
 1882 0102 1FE0     		b	.L140
 1883              	.L139:
 1884 0104 FB68     		ldr	r3, [r7, #12]
 1885 0106 9B68     		ldr	r3, [r3, #8]
 1886 0108 B3F5805F 		cmp	r3, #4096
 1887 010c 07D0     		beq	.L141
 1888 010e FB68     		ldr	r3, [r7, #12]
 1889 0110 9B68     		ldr	r3, [r3, #8]
 1890 0112 002B     		cmp	r3, #0
 1891 0114 0AD1     		bne	.L142
 1892 0116 FB68     		ldr	r3, [r7, #12]
 1893 0118 1B69     		ldr	r3, [r3, #16]
 1894 011a 002B     		cmp	r3, #0
 1895 011c 06D1     		bne	.L142
 1896              	.L141:
 1897 011e FB68     		ldr	r3, [r7, #12]
 1898 0120 1B68     		ldr	r3, [r3]
 1899 0122 5B68     		ldr	r3, [r3, #4]
 1900 0124 DAB2     		uxtb	r2, r3
 1901 0126 FB69     		ldr	r3, [r7, #28]
 1902 0128 1A70     		strb	r2, [r3]
 1903 012a 08E0     		b	.L143
 1904              	.L142:
 1905 012c FB68     		ldr	r3, [r7, #12]
 1906 012e 1B68     		ldr	r3, [r3]
 1907 0130 5B68     		ldr	r3, [r3, #4]
 1908 0132 DBB2     		uxtb	r3, r3
 1909 0134 03F07F03 		and	r3, r3, #127
 1910 0138 DAB2     		uxtb	r2, r3
 1911 013a FB69     		ldr	r3, [r7, #28]
 1912 013c 1A70     		strb	r2, [r3]
 1913              	.L143:
 1914 013e FB69     		ldr	r3, [r7, #28]
ARM GAS  C:\Users\user\AppData\Local\Temp\ccimlsD1.s 			page 34


 1915 0140 0133     		adds	r3, r3, #1
 1916 0142 FB61     		str	r3, [r7, #28]
 1917              	.L140:
 1918 0144 3B68     		ldr	r3, [r7]
 1919 0146 1B88     		ldrh	r3, [r3]
 1920 0148 0133     		adds	r3, r3, #1
 1921 014a 9AB2     		uxth	r2, r3
 1922 014c 3B68     		ldr	r3, [r7]
 1923 014e 1A80     		strh	r2, [r3]	@ movhi
 1924 0150 FB68     		ldr	r3, [r7, #12]
 1925 0152 DB8D     		ldrh	r3, [r3, #46]	@ movhi
 1926 0154 9BB2     		uxth	r3, r3
 1927 0156 013B     		subs	r3, r3, #1
 1928 0158 9AB2     		uxth	r2, r3
 1929 015a FB68     		ldr	r3, [r7, #12]
 1930 015c DA85     		strh	r2, [r3, #46]	@ movhi
 1931              	.L138:
 1932 015e BB6A     		ldr	r3, [r7, #40]
 1933 0160 B3F1FF3F 		cmp	r3, #-1
 1934 0164 10D0     		beq	.L136
 1935 0166 FFF7FEFF 		bl	HAL_GetTick
 1936 016a 0246     		mov	r2, r0
 1937 016c 7B69     		ldr	r3, [r7, #20]
 1938 016e D31A     		subs	r3, r2, r3
 1939 0170 BA6A     		ldr	r2, [r7, #40]
 1940 0172 9A42     		cmp	r2, r3
 1941 0174 02D3     		bcc	.L145
 1942 0176 BB6A     		ldr	r3, [r7, #40]
 1943 0178 002B     		cmp	r3, #0
 1944 017a 05D1     		bne	.L136
 1945              	.L145:
 1946 017c FB68     		ldr	r3, [r7, #12]
 1947 017e 2022     		movs	r2, #32
 1948 0180 83F83E20 		strb	r2, [r3, #62]
 1949 0184 0323     		movs	r3, #3
 1950 0186 14E0     		b	.L132
 1951              	.L136:
 1952 0188 FB68     		ldr	r3, [r7, #12]
 1953 018a DB8D     		ldrh	r3, [r3, #46]	@ movhi
 1954 018c 9BB2     		uxth	r3, r3
 1955 018e 002B     		cmp	r3, #0
 1956 0190 85D1     		bne	.L146
 1957 0192 FB68     		ldr	r3, [r7, #12]
 1958 0194 9A8D     		ldrh	r2, [r3, #44]
 1959 0196 FB68     		ldr	r3, [r7, #12]
 1960 0198 DB8D     		ldrh	r3, [r3, #46]	@ movhi
 1961 019a 9BB2     		uxth	r3, r3
 1962 019c D31A     		subs	r3, r2, r3
 1963 019e 9AB2     		uxth	r2, r3
 1964 01a0 3B68     		ldr	r3, [r7]
 1965 01a2 1A80     		strh	r2, [r3]	@ movhi
 1966 01a4 FB68     		ldr	r3, [r7, #12]
 1967 01a6 2022     		movs	r2, #32
 1968 01a8 83F83E20 		strb	r2, [r3, #62]
 1969 01ac 0023     		movs	r3, #0
 1970 01ae 00E0     		b	.L132
 1971              	.L129:
ARM GAS  C:\Users\user\AppData\Local\Temp\ccimlsD1.s 			page 35


 1972 01b0 0223     		movs	r3, #2
 1973              	.L132:
 1974 01b2 1846     		mov	r0, r3
 1975 01b4 2037     		adds	r7, r7, #32
 1976 01b6 BD46     		mov	sp, r7
 1977              		@ sp needed
 1978 01b8 80BD     		pop	{r7, pc}
 1980              		.section	.text.HAL_UARTEx_ReceiveToIdle_IT,"ax",%progbits
 1981              		.align	1
 1982              		.global	HAL_UARTEx_ReceiveToIdle_IT
 1983              		.syntax unified
 1984              		.thumb
 1985              		.thumb_func
 1987              	HAL_UARTEx_ReceiveToIdle_IT:
 1988              		@ args = 0, pretend = 0, frame = 48
 1989              		@ frame_needed = 1, uses_anonymous_args = 0
 1990 0000 80B5     		push	{r7, lr}
 1991 0002 8CB0     		sub	sp, sp, #48
 1992 0004 00AF     		add	r7, sp, #0
 1993 0006 F860     		str	r0, [r7, #12]
 1994 0008 B960     		str	r1, [r7, #8]
 1995 000a 1346     		mov	r3, r2
 1996 000c FB80     		strh	r3, [r7, #6]	@ movhi
 1997 000e FB68     		ldr	r3, [r7, #12]
 1998 0010 93F83E30 		ldrb	r3, [r3, #62]
 1999 0014 DBB2     		uxtb	r3, r3
 2000 0016 202B     		cmp	r3, #32
 2001 0018 52D1     		bne	.L148
 2002 001a BB68     		ldr	r3, [r7, #8]
 2003 001c 002B     		cmp	r3, #0
 2004 001e 02D0     		beq	.L149
 2005 0020 FB88     		ldrh	r3, [r7, #6]
 2006 0022 002B     		cmp	r3, #0
 2007 0024 01D1     		bne	.L150
 2008              	.L149:
 2009 0026 0123     		movs	r3, #1
 2010 0028 4BE0     		b	.L151
 2011              	.L150:
 2012 002a FB68     		ldr	r3, [r7, #12]
 2013 002c 93F83C30 		ldrb	r3, [r3, #60]	@ zero_extendqisi2
 2014 0030 012B     		cmp	r3, #1
 2015 0032 01D1     		bne	.L152
 2016 0034 0223     		movs	r3, #2
 2017 0036 44E0     		b	.L151
 2018              	.L152:
 2019 0038 FB68     		ldr	r3, [r7, #12]
 2020 003a 0122     		movs	r2, #1
 2021 003c 83F83C20 		strb	r2, [r3, #60]
 2022 0040 FB68     		ldr	r3, [r7, #12]
 2023 0042 0122     		movs	r2, #1
 2024 0044 1A63     		str	r2, [r3, #48]
 2025 0046 FB88     		ldrh	r3, [r7, #6]
 2026 0048 1A46     		mov	r2, r3
 2027 004a B968     		ldr	r1, [r7, #8]
 2028 004c F868     		ldr	r0, [r7, #12]
 2029 004e FFF7FEFF 		bl	UART_Start_Receive_IT
 2030 0052 0346     		mov	r3, r0
ARM GAS  C:\Users\user\AppData\Local\Temp\ccimlsD1.s 			page 36


 2031 0054 87F82F30 		strb	r3, [r7, #47]
 2032 0058 97F82F30 		ldrb	r3, [r7, #47]	@ zero_extendqisi2
 2033 005c 002B     		cmp	r3, #0
 2034 005e 2CD1     		bne	.L153
 2035 0060 FB68     		ldr	r3, [r7, #12]
 2036 0062 1B6B     		ldr	r3, [r3, #48]
 2037 0064 012B     		cmp	r3, #1
 2038 0066 25D1     		bne	.L154
 2039 0068 0023     		movs	r3, #0
 2040 006a 3B61     		str	r3, [r7, #16]
 2041 006c FB68     		ldr	r3, [r7, #12]
 2042 006e 1B68     		ldr	r3, [r3]
 2043 0070 1B68     		ldr	r3, [r3]
 2044 0072 3B61     		str	r3, [r7, #16]
 2045 0074 FB68     		ldr	r3, [r7, #12]
 2046 0076 1B68     		ldr	r3, [r3]
 2047 0078 5B68     		ldr	r3, [r3, #4]
 2048 007a 3B61     		str	r3, [r7, #16]
 2049 007c 3B69     		ldr	r3, [r7, #16]
 2050              	.L157:
 2051 007e FB68     		ldr	r3, [r7, #12]
 2052 0080 1B68     		ldr	r3, [r3]
 2053 0082 0C33     		adds	r3, r3, #12
 2054 0084 BB61     		str	r3, [r7, #24]
 2055 0086 BB69     		ldr	r3, [r7, #24]
 2056              		.syntax unified
 2057              	@ 1072 "Drivers/CMSIS/Include/cmsis_gcc.h" 1
 2058 0088 53E8003F 		ldrex r3, [r3]
 2059              	@ 0 "" 2
 2060              		.thumb
 2061              		.syntax unified
 2062 008c 7B61     		str	r3, [r7, #20]
 2063 008e 7B69     		ldr	r3, [r7, #20]
 2064 0090 43F01003 		orr	r3, r3, #16
 2065 0094 BB62     		str	r3, [r7, #40]
 2066 0096 FB68     		ldr	r3, [r7, #12]
 2067 0098 1B68     		ldr	r3, [r3]
 2068 009a 0C33     		adds	r3, r3, #12
 2069 009c BA6A     		ldr	r2, [r7, #40]
 2070 009e 7A62     		str	r2, [r7, #36]
 2071 00a0 3B62     		str	r3, [r7, #32]
 2072 00a2 396A     		ldr	r1, [r7, #32]
 2073 00a4 7A6A     		ldr	r2, [r7, #36]
 2074              		.syntax unified
 2075              	@ 1123 "Drivers/CMSIS/Include/cmsis_gcc.h" 1
 2076 00a6 41E80023 		strex r3, r2, [r1]
 2077              	@ 0 "" 2
 2078              		.thumb
 2079              		.syntax unified
 2080 00aa FB61     		str	r3, [r7, #28]
 2081 00ac FB69     		ldr	r3, [r7, #28]
 2082 00ae 002B     		cmp	r3, #0
 2083 00b0 E5D1     		bne	.L157
 2084 00b2 02E0     		b	.L153
 2085              	.L154:
 2086 00b4 0123     		movs	r3, #1
 2087 00b6 87F82F30 		strb	r3, [r7, #47]
ARM GAS  C:\Users\user\AppData\Local\Temp\ccimlsD1.s 			page 37


 2088              	.L153:
 2089 00ba 97F82F30 		ldrb	r3, [r7, #47]	@ zero_extendqisi2
 2090 00be 00E0     		b	.L151
 2091              	.L148:
 2092 00c0 0223     		movs	r3, #2
 2093              	.L151:
 2094 00c2 1846     		mov	r0, r3
 2095 00c4 3037     		adds	r7, r7, #48
 2096 00c6 BD46     		mov	sp, r7
 2097              		@ sp needed
 2098 00c8 80BD     		pop	{r7, pc}
 2100              		.section	.text.HAL_UARTEx_ReceiveToIdle_DMA,"ax",%progbits
 2101              		.align	1
 2102              		.global	HAL_UARTEx_ReceiveToIdle_DMA
 2103              		.syntax unified
 2104              		.thumb
 2105              		.thumb_func
 2107              	HAL_UARTEx_ReceiveToIdle_DMA:
 2108              		@ args = 0, pretend = 0, frame = 48
 2109              		@ frame_needed = 1, uses_anonymous_args = 0
 2110 0000 80B5     		push	{r7, lr}
 2111 0002 8CB0     		sub	sp, sp, #48
 2112 0004 00AF     		add	r7, sp, #0
 2113 0006 F860     		str	r0, [r7, #12]
 2114 0008 B960     		str	r1, [r7, #8]
 2115 000a 1346     		mov	r3, r2
 2116 000c FB80     		strh	r3, [r7, #6]	@ movhi
 2117 000e FB68     		ldr	r3, [r7, #12]
 2118 0010 93F83E30 		ldrb	r3, [r3, #62]
 2119 0014 DBB2     		uxtb	r3, r3
 2120 0016 202B     		cmp	r3, #32
 2121 0018 52D1     		bne	.L159
 2122 001a BB68     		ldr	r3, [r7, #8]
 2123 001c 002B     		cmp	r3, #0
 2124 001e 02D0     		beq	.L160
 2125 0020 FB88     		ldrh	r3, [r7, #6]
 2126 0022 002B     		cmp	r3, #0
 2127 0024 01D1     		bne	.L161
 2128              	.L160:
 2129 0026 0123     		movs	r3, #1
 2130 0028 4BE0     		b	.L162
 2131              	.L161:
 2132 002a FB68     		ldr	r3, [r7, #12]
 2133 002c 93F83C30 		ldrb	r3, [r3, #60]	@ zero_extendqisi2
 2134 0030 012B     		cmp	r3, #1
 2135 0032 01D1     		bne	.L163
 2136 0034 0223     		movs	r3, #2
 2137 0036 44E0     		b	.L162
 2138              	.L163:
 2139 0038 FB68     		ldr	r3, [r7, #12]
 2140 003a 0122     		movs	r2, #1
 2141 003c 83F83C20 		strb	r2, [r3, #60]
 2142 0040 FB68     		ldr	r3, [r7, #12]
 2143 0042 0122     		movs	r2, #1
 2144 0044 1A63     		str	r2, [r3, #48]
 2145 0046 FB88     		ldrh	r3, [r7, #6]
 2146 0048 1A46     		mov	r2, r3
ARM GAS  C:\Users\user\AppData\Local\Temp\ccimlsD1.s 			page 38


 2147 004a B968     		ldr	r1, [r7, #8]
 2148 004c F868     		ldr	r0, [r7, #12]
 2149 004e FFF7FEFF 		bl	UART_Start_Receive_DMA
 2150 0052 0346     		mov	r3, r0
 2151 0054 87F82F30 		strb	r3, [r7, #47]
 2152 0058 97F82F30 		ldrb	r3, [r7, #47]	@ zero_extendqisi2
 2153 005c 002B     		cmp	r3, #0
 2154 005e 2CD1     		bne	.L164
 2155 0060 FB68     		ldr	r3, [r7, #12]
 2156 0062 1B6B     		ldr	r3, [r3, #48]
 2157 0064 012B     		cmp	r3, #1
 2158 0066 25D1     		bne	.L165
 2159 0068 0023     		movs	r3, #0
 2160 006a 3B61     		str	r3, [r7, #16]
 2161 006c FB68     		ldr	r3, [r7, #12]
 2162 006e 1B68     		ldr	r3, [r3]
 2163 0070 1B68     		ldr	r3, [r3]
 2164 0072 3B61     		str	r3, [r7, #16]
 2165 0074 FB68     		ldr	r3, [r7, #12]
 2166 0076 1B68     		ldr	r3, [r3]
 2167 0078 5B68     		ldr	r3, [r3, #4]
 2168 007a 3B61     		str	r3, [r7, #16]
 2169 007c 3B69     		ldr	r3, [r7, #16]
 2170              	.L168:
 2171 007e FB68     		ldr	r3, [r7, #12]
 2172 0080 1B68     		ldr	r3, [r3]
 2173 0082 0C33     		adds	r3, r3, #12
 2174 0084 BB61     		str	r3, [r7, #24]
 2175 0086 BB69     		ldr	r3, [r7, #24]
 2176              		.syntax unified
 2177              	@ 1072 "Drivers/CMSIS/Include/cmsis_gcc.h" 1
 2178 0088 53E8003F 		ldrex r3, [r3]
 2179              	@ 0 "" 2
 2180              		.thumb
 2181              		.syntax unified
 2182 008c 7B61     		str	r3, [r7, #20]
 2183 008e 7B69     		ldr	r3, [r7, #20]
 2184 0090 43F01003 		orr	r3, r3, #16
 2185 0094 BB62     		str	r3, [r7, #40]
 2186 0096 FB68     		ldr	r3, [r7, #12]
 2187 0098 1B68     		ldr	r3, [r3]
 2188 009a 0C33     		adds	r3, r3, #12
 2189 009c BA6A     		ldr	r2, [r7, #40]
 2190 009e 7A62     		str	r2, [r7, #36]
 2191 00a0 3B62     		str	r3, [r7, #32]
 2192 00a2 396A     		ldr	r1, [r7, #32]
 2193 00a4 7A6A     		ldr	r2, [r7, #36]
 2194              		.syntax unified
 2195              	@ 1123 "Drivers/CMSIS/Include/cmsis_gcc.h" 1
 2196 00a6 41E80023 		strex r3, r2, [r1]
 2197              	@ 0 "" 2
 2198              		.thumb
 2199              		.syntax unified
 2200 00aa FB61     		str	r3, [r7, #28]
 2201 00ac FB69     		ldr	r3, [r7, #28]
 2202 00ae 002B     		cmp	r3, #0
 2203 00b0 E5D1     		bne	.L168
ARM GAS  C:\Users\user\AppData\Local\Temp\ccimlsD1.s 			page 39


 2204 00b2 02E0     		b	.L164
 2205              	.L165:
 2206 00b4 0123     		movs	r3, #1
 2207 00b6 87F82F30 		strb	r3, [r7, #47]
 2208              	.L164:
 2209 00ba 97F82F30 		ldrb	r3, [r7, #47]	@ zero_extendqisi2
 2210 00be 00E0     		b	.L162
 2211              	.L159:
 2212 00c0 0223     		movs	r3, #2
 2213              	.L162:
 2214 00c2 1846     		mov	r0, r3
 2215 00c4 3037     		adds	r7, r7, #48
 2216 00c6 BD46     		mov	sp, r7
 2217              		@ sp needed
 2218 00c8 80BD     		pop	{r7, pc}
 2220              		.section	.text.HAL_UART_Abort,"ax",%progbits
 2221              		.align	1
 2222              		.global	HAL_UART_Abort
 2223              		.syntax unified
 2224              		.thumb
 2225              		.thumb_func
 2227              	HAL_UART_Abort:
 2228              		@ args = 0, pretend = 0, frame = 128
 2229              		@ frame_needed = 1, uses_anonymous_args = 0
 2230 0000 80B5     		push	{r7, lr}
 2231 0002 A0B0     		sub	sp, sp, #128
 2232 0004 00AF     		add	r7, sp, #0
 2233 0006 7860     		str	r0, [r7, #4]
 2234              	.L172:
 2235 0008 7B68     		ldr	r3, [r7, #4]
 2236 000a 1B68     		ldr	r3, [r3]
 2237 000c 0C33     		adds	r3, r3, #12
 2238 000e FB65     		str	r3, [r7, #92]
 2239 0010 FB6D     		ldr	r3, [r7, #92]
 2240              		.syntax unified
 2241              	@ 1072 "Drivers/CMSIS/Include/cmsis_gcc.h" 1
 2242 0012 53E8003F 		ldrex r3, [r3]
 2243              	@ 0 "" 2
 2244              		.thumb
 2245              		.syntax unified
 2246 0016 BB65     		str	r3, [r7, #88]
 2247 0018 BB6D     		ldr	r3, [r7, #88]
 2248 001a 23F4F073 		bic	r3, r3, #480
 2249 001e FB67     		str	r3, [r7, #124]
 2250 0020 7B68     		ldr	r3, [r7, #4]
 2251 0022 1B68     		ldr	r3, [r3]
 2252 0024 0C33     		adds	r3, r3, #12
 2253 0026 FA6F     		ldr	r2, [r7, #124]
 2254 0028 BA66     		str	r2, [r7, #104]
 2255 002a 7B66     		str	r3, [r7, #100]
 2256 002c 796E     		ldr	r1, [r7, #100]
 2257 002e BA6E     		ldr	r2, [r7, #104]
 2258              		.syntax unified
 2259              	@ 1123 "Drivers/CMSIS/Include/cmsis_gcc.h" 1
 2260 0030 41E80023 		strex r3, r2, [r1]
 2261              	@ 0 "" 2
 2262              		.thumb
ARM GAS  C:\Users\user\AppData\Local\Temp\ccimlsD1.s 			page 40


 2263              		.syntax unified
 2264 0034 3B66     		str	r3, [r7, #96]
 2265 0036 3B6E     		ldr	r3, [r7, #96]
 2266 0038 002B     		cmp	r3, #0
 2267 003a E5D1     		bne	.L172
 2268              	.L175:
 2269 003c 7B68     		ldr	r3, [r7, #4]
 2270 003e 1B68     		ldr	r3, [r3]
 2271 0040 1433     		adds	r3, r3, #20
 2272 0042 BB64     		str	r3, [r7, #72]
 2273 0044 BB6C     		ldr	r3, [r7, #72]
 2274              		.syntax unified
 2275              	@ 1072 "Drivers/CMSIS/Include/cmsis_gcc.h" 1
 2276 0046 53E8003F 		ldrex r3, [r3]
 2277              	@ 0 "" 2
 2278              		.thumb
 2279              		.syntax unified
 2280 004a 7B64     		str	r3, [r7, #68]
 2281 004c 7B6C     		ldr	r3, [r7, #68]
 2282 004e 23F00103 		bic	r3, r3, #1
 2283 0052 BB67     		str	r3, [r7, #120]
 2284 0054 7B68     		ldr	r3, [r7, #4]
 2285 0056 1B68     		ldr	r3, [r3]
 2286 0058 1433     		adds	r3, r3, #20
 2287 005a BA6F     		ldr	r2, [r7, #120]
 2288 005c 7A65     		str	r2, [r7, #84]
 2289 005e 3B65     		str	r3, [r7, #80]
 2290 0060 396D     		ldr	r1, [r7, #80]
 2291 0062 7A6D     		ldr	r2, [r7, #84]
 2292              		.syntax unified
 2293              	@ 1123 "Drivers/CMSIS/Include/cmsis_gcc.h" 1
 2294 0064 41E80023 		strex r3, r2, [r1]
 2295              	@ 0 "" 2
 2296              		.thumb
 2297              		.syntax unified
 2298 0068 FB64     		str	r3, [r7, #76]
 2299 006a FB6C     		ldr	r3, [r7, #76]
 2300 006c 002B     		cmp	r3, #0
 2301 006e E5D1     		bne	.L175
 2302 0070 7B68     		ldr	r3, [r7, #4]
 2303 0072 1B6B     		ldr	r3, [r3, #48]
 2304 0074 012B     		cmp	r3, #1
 2305 0076 19D1     		bne	.L176
 2306              	.L179:
 2307 0078 7B68     		ldr	r3, [r7, #4]
 2308 007a 1B68     		ldr	r3, [r3]
 2309 007c 0C33     		adds	r3, r3, #12
 2310 007e 7B63     		str	r3, [r7, #52]
 2311 0080 7B6B     		ldr	r3, [r7, #52]
 2312              		.syntax unified
 2313              	@ 1072 "Drivers/CMSIS/Include/cmsis_gcc.h" 1
 2314 0082 53E8003F 		ldrex r3, [r3]
 2315              	@ 0 "" 2
 2316              		.thumb
 2317              		.syntax unified
 2318 0086 3B63     		str	r3, [r7, #48]
 2319 0088 3B6B     		ldr	r3, [r7, #48]
ARM GAS  C:\Users\user\AppData\Local\Temp\ccimlsD1.s 			page 41


 2320 008a 23F01003 		bic	r3, r3, #16
 2321 008e 7B67     		str	r3, [r7, #116]
 2322 0090 7B68     		ldr	r3, [r7, #4]
 2323 0092 1B68     		ldr	r3, [r3]
 2324 0094 0C33     		adds	r3, r3, #12
 2325 0096 7A6F     		ldr	r2, [r7, #116]
 2326 0098 3A64     		str	r2, [r7, #64]
 2327 009a FB63     		str	r3, [r7, #60]
 2328 009c F96B     		ldr	r1, [r7, #60]
 2329 009e 3A6C     		ldr	r2, [r7, #64]
 2330              		.syntax unified
 2331              	@ 1123 "Drivers/CMSIS/Include/cmsis_gcc.h" 1
 2332 00a0 41E80023 		strex r3, r2, [r1]
 2333              	@ 0 "" 2
 2334              		.thumb
 2335              		.syntax unified
 2336 00a4 BB63     		str	r3, [r7, #56]
 2337 00a6 BB6B     		ldr	r3, [r7, #56]
 2338 00a8 002B     		cmp	r3, #0
 2339 00aa E5D1     		bne	.L179
 2340              	.L176:
 2341 00ac 7B68     		ldr	r3, [r7, #4]
 2342 00ae 1B68     		ldr	r3, [r3]
 2343 00b0 5B69     		ldr	r3, [r3, #20]
 2344 00b2 03F08003 		and	r3, r3, #128
 2345 00b6 802B     		cmp	r3, #128
 2346 00b8 36D1     		bne	.L180
 2347              	.L183:
 2348 00ba 7B68     		ldr	r3, [r7, #4]
 2349 00bc 1B68     		ldr	r3, [r3]
 2350 00be 1433     		adds	r3, r3, #20
 2351 00c0 3B62     		str	r3, [r7, #32]
 2352 00c2 3B6A     		ldr	r3, [r7, #32]
 2353              		.syntax unified
 2354              	@ 1072 "Drivers/CMSIS/Include/cmsis_gcc.h" 1
 2355 00c4 53E8003F 		ldrex r3, [r3]
 2356              	@ 0 "" 2
 2357              		.thumb
 2358              		.syntax unified
 2359 00c8 FB61     		str	r3, [r7, #28]
 2360 00ca FB69     		ldr	r3, [r7, #28]
 2361 00cc 23F08003 		bic	r3, r3, #128
 2362 00d0 3B67     		str	r3, [r7, #112]
 2363 00d2 7B68     		ldr	r3, [r7, #4]
 2364 00d4 1B68     		ldr	r3, [r3]
 2365 00d6 1433     		adds	r3, r3, #20
 2366 00d8 3A6F     		ldr	r2, [r7, #112]
 2367 00da FA62     		str	r2, [r7, #44]
 2368 00dc BB62     		str	r3, [r7, #40]
 2369 00de B96A     		ldr	r1, [r7, #40]
 2370 00e0 FA6A     		ldr	r2, [r7, #44]
 2371              		.syntax unified
 2372              	@ 1123 "Drivers/CMSIS/Include/cmsis_gcc.h" 1
 2373 00e2 41E80023 		strex r3, r2, [r1]
 2374              	@ 0 "" 2
 2375              		.thumb
 2376              		.syntax unified
ARM GAS  C:\Users\user\AppData\Local\Temp\ccimlsD1.s 			page 42


 2377 00e6 7B62     		str	r3, [r7, #36]
 2378 00e8 7B6A     		ldr	r3, [r7, #36]
 2379 00ea 002B     		cmp	r3, #0
 2380 00ec E5D1     		bne	.L183
 2381 00ee 7B68     		ldr	r3, [r7, #4]
 2382 00f0 5B6B     		ldr	r3, [r3, #52]
 2383 00f2 002B     		cmp	r3, #0
 2384 00f4 18D0     		beq	.L180
 2385 00f6 7B68     		ldr	r3, [r7, #4]
 2386 00f8 5B6B     		ldr	r3, [r3, #52]
 2387 00fa 0022     		movs	r2, #0
 2388 00fc 1A65     		str	r2, [r3, #80]
 2389 00fe 7B68     		ldr	r3, [r7, #4]
 2390 0100 5B6B     		ldr	r3, [r3, #52]
 2391 0102 1846     		mov	r0, r3
 2392 0104 FFF7FEFF 		bl	HAL_DMA_Abort
 2393 0108 0346     		mov	r3, r0
 2394 010a 002B     		cmp	r3, #0
 2395 010c 0CD0     		beq	.L180
 2396 010e 7B68     		ldr	r3, [r7, #4]
 2397 0110 5B6B     		ldr	r3, [r3, #52]
 2398 0112 1846     		mov	r0, r3
 2399 0114 FFF7FEFF 		bl	HAL_DMA_GetError
 2400 0118 0346     		mov	r3, r0
 2401 011a 202B     		cmp	r3, #32
 2402 011c 04D1     		bne	.L180
 2403 011e 7B68     		ldr	r3, [r7, #4]
 2404 0120 1022     		movs	r2, #16
 2405 0122 1A64     		str	r2, [r3, #64]
 2406 0124 0323     		movs	r3, #3
 2407 0126 52E0     		b	.L184
 2408              	.L180:
 2409 0128 7B68     		ldr	r3, [r7, #4]
 2410 012a 1B68     		ldr	r3, [r3]
 2411 012c 5B69     		ldr	r3, [r3, #20]
 2412 012e 03F04003 		and	r3, r3, #64
 2413 0132 402B     		cmp	r3, #64
 2414 0134 36D1     		bne	.L185
 2415              	.L188:
 2416 0136 7B68     		ldr	r3, [r7, #4]
 2417 0138 1B68     		ldr	r3, [r3]
 2418 013a 1433     		adds	r3, r3, #20
 2419 013c FB60     		str	r3, [r7, #12]
 2420 013e FB68     		ldr	r3, [r7, #12]
 2421              		.syntax unified
 2422              	@ 1072 "Drivers/CMSIS/Include/cmsis_gcc.h" 1
 2423 0140 53E8003F 		ldrex r3, [r3]
 2424              	@ 0 "" 2
 2425              		.thumb
 2426              		.syntax unified
 2427 0144 BB60     		str	r3, [r7, #8]
 2428 0146 BB68     		ldr	r3, [r7, #8]
 2429 0148 23F04003 		bic	r3, r3, #64
 2430 014c FB66     		str	r3, [r7, #108]
 2431 014e 7B68     		ldr	r3, [r7, #4]
 2432 0150 1B68     		ldr	r3, [r3]
 2433 0152 1433     		adds	r3, r3, #20
ARM GAS  C:\Users\user\AppData\Local\Temp\ccimlsD1.s 			page 43


 2434 0154 FA6E     		ldr	r2, [r7, #108]
 2435 0156 BA61     		str	r2, [r7, #24]
 2436 0158 7B61     		str	r3, [r7, #20]
 2437 015a 7969     		ldr	r1, [r7, #20]
 2438 015c BA69     		ldr	r2, [r7, #24]
 2439              		.syntax unified
 2440              	@ 1123 "Drivers/CMSIS/Include/cmsis_gcc.h" 1
 2441 015e 41E80023 		strex r3, r2, [r1]
 2442              	@ 0 "" 2
 2443              		.thumb
 2444              		.syntax unified
 2445 0162 3B61     		str	r3, [r7, #16]
 2446 0164 3B69     		ldr	r3, [r7, #16]
 2447 0166 002B     		cmp	r3, #0
 2448 0168 E5D1     		bne	.L188
 2449 016a 7B68     		ldr	r3, [r7, #4]
 2450 016c 9B6B     		ldr	r3, [r3, #56]
 2451 016e 002B     		cmp	r3, #0
 2452 0170 18D0     		beq	.L185
 2453 0172 7B68     		ldr	r3, [r7, #4]
 2454 0174 9B6B     		ldr	r3, [r3, #56]
 2455 0176 0022     		movs	r2, #0
 2456 0178 1A65     		str	r2, [r3, #80]
 2457 017a 7B68     		ldr	r3, [r7, #4]
 2458 017c 9B6B     		ldr	r3, [r3, #56]
 2459 017e 1846     		mov	r0, r3
 2460 0180 FFF7FEFF 		bl	HAL_DMA_Abort
 2461 0184 0346     		mov	r3, r0
 2462 0186 002B     		cmp	r3, #0
 2463 0188 0CD0     		beq	.L185
 2464 018a 7B68     		ldr	r3, [r7, #4]
 2465 018c 9B6B     		ldr	r3, [r3, #56]
 2466 018e 1846     		mov	r0, r3
 2467 0190 FFF7FEFF 		bl	HAL_DMA_GetError
 2468 0194 0346     		mov	r3, r0
 2469 0196 202B     		cmp	r3, #32
 2470 0198 04D1     		bne	.L185
 2471 019a 7B68     		ldr	r3, [r7, #4]
 2472 019c 1022     		movs	r2, #16
 2473 019e 1A64     		str	r2, [r3, #64]
 2474 01a0 0323     		movs	r3, #3
 2475 01a2 14E0     		b	.L184
 2476              	.L185:
 2477 01a4 7B68     		ldr	r3, [r7, #4]
 2478 01a6 0022     		movs	r2, #0
 2479 01a8 DA84     		strh	r2, [r3, #38]	@ movhi
 2480 01aa 7B68     		ldr	r3, [r7, #4]
 2481 01ac 0022     		movs	r2, #0
 2482 01ae DA85     		strh	r2, [r3, #46]	@ movhi
 2483 01b0 7B68     		ldr	r3, [r7, #4]
 2484 01b2 0022     		movs	r2, #0
 2485 01b4 1A64     		str	r2, [r3, #64]
 2486 01b6 7B68     		ldr	r3, [r7, #4]
 2487 01b8 2022     		movs	r2, #32
 2488 01ba 83F83E20 		strb	r2, [r3, #62]
 2489 01be 7B68     		ldr	r3, [r7, #4]
 2490 01c0 2022     		movs	r2, #32
ARM GAS  C:\Users\user\AppData\Local\Temp\ccimlsD1.s 			page 44


 2491 01c2 83F83D20 		strb	r2, [r3, #61]
 2492 01c6 7B68     		ldr	r3, [r7, #4]
 2493 01c8 0022     		movs	r2, #0
 2494 01ca 1A63     		str	r2, [r3, #48]
 2495 01cc 0023     		movs	r3, #0
 2496              	.L184:
 2497 01ce 1846     		mov	r0, r3
 2498 01d0 8037     		adds	r7, r7, #128
 2499 01d2 BD46     		mov	sp, r7
 2500              		@ sp needed
 2501 01d4 80BD     		pop	{r7, pc}
 2503              		.section	.text.HAL_UART_AbortTransmit,"ax",%progbits
 2504              		.align	1
 2505              		.global	HAL_UART_AbortTransmit
 2506              		.syntax unified
 2507              		.thumb
 2508              		.thumb_func
 2510              	HAL_UART_AbortTransmit:
 2511              		@ args = 0, pretend = 0, frame = 56
 2512              		@ frame_needed = 1, uses_anonymous_args = 0
 2513 0000 80B5     		push	{r7, lr}
 2514 0002 8EB0     		sub	sp, sp, #56
 2515 0004 00AF     		add	r7, sp, #0
 2516 0006 7860     		str	r0, [r7, #4]
 2517              	.L192:
 2518 0008 7B68     		ldr	r3, [r7, #4]
 2519 000a 1B68     		ldr	r3, [r3]
 2520 000c 0C33     		adds	r3, r3, #12
 2521 000e 3B62     		str	r3, [r7, #32]
 2522 0010 3B6A     		ldr	r3, [r7, #32]
 2523              		.syntax unified
 2524              	@ 1072 "Drivers/CMSIS/Include/cmsis_gcc.h" 1
 2525 0012 53E8003F 		ldrex r3, [r3]
 2526              	@ 0 "" 2
 2527              		.thumb
 2528              		.syntax unified
 2529 0016 FB61     		str	r3, [r7, #28]
 2530 0018 FB69     		ldr	r3, [r7, #28]
 2531 001a 23F0C003 		bic	r3, r3, #192
 2532 001e 7B63     		str	r3, [r7, #52]
 2533 0020 7B68     		ldr	r3, [r7, #4]
 2534 0022 1B68     		ldr	r3, [r3]
 2535 0024 0C33     		adds	r3, r3, #12
 2536 0026 7A6B     		ldr	r2, [r7, #52]
 2537 0028 FA62     		str	r2, [r7, #44]
 2538 002a BB62     		str	r3, [r7, #40]
 2539 002c B96A     		ldr	r1, [r7, #40]
 2540 002e FA6A     		ldr	r2, [r7, #44]
 2541              		.syntax unified
 2542              	@ 1123 "Drivers/CMSIS/Include/cmsis_gcc.h" 1
 2543 0030 41E80023 		strex r3, r2, [r1]
 2544              	@ 0 "" 2
 2545              		.thumb
 2546              		.syntax unified
 2547 0034 7B62     		str	r3, [r7, #36]
 2548 0036 7B6A     		ldr	r3, [r7, #36]
 2549 0038 002B     		cmp	r3, #0
ARM GAS  C:\Users\user\AppData\Local\Temp\ccimlsD1.s 			page 45


 2550 003a E5D1     		bne	.L192
 2551 003c 7B68     		ldr	r3, [r7, #4]
 2552 003e 1B68     		ldr	r3, [r3]
 2553 0040 5B69     		ldr	r3, [r3, #20]
 2554 0042 03F08003 		and	r3, r3, #128
 2555 0046 802B     		cmp	r3, #128
 2556 0048 36D1     		bne	.L193
 2557              	.L196:
 2558 004a 7B68     		ldr	r3, [r7, #4]
 2559 004c 1B68     		ldr	r3, [r3]
 2560 004e 1433     		adds	r3, r3, #20
 2561 0050 FB60     		str	r3, [r7, #12]
 2562 0052 FB68     		ldr	r3, [r7, #12]
 2563              		.syntax unified
 2564              	@ 1072 "Drivers/CMSIS/Include/cmsis_gcc.h" 1
 2565 0054 53E8003F 		ldrex r3, [r3]
 2566              	@ 0 "" 2
 2567              		.thumb
 2568              		.syntax unified
 2569 0058 BB60     		str	r3, [r7, #8]
 2570 005a BB68     		ldr	r3, [r7, #8]
 2571 005c 23F08003 		bic	r3, r3, #128
 2572 0060 3B63     		str	r3, [r7, #48]
 2573 0062 7B68     		ldr	r3, [r7, #4]
 2574 0064 1B68     		ldr	r3, [r3]
 2575 0066 1433     		adds	r3, r3, #20
 2576 0068 3A6B     		ldr	r2, [r7, #48]
 2577 006a BA61     		str	r2, [r7, #24]
 2578 006c 7B61     		str	r3, [r7, #20]
 2579 006e 7969     		ldr	r1, [r7, #20]
 2580 0070 BA69     		ldr	r2, [r7, #24]
 2581              		.syntax unified
 2582              	@ 1123 "Drivers/CMSIS/Include/cmsis_gcc.h" 1
 2583 0072 41E80023 		strex r3, r2, [r1]
 2584              	@ 0 "" 2
 2585              		.thumb
 2586              		.syntax unified
 2587 0076 3B61     		str	r3, [r7, #16]
 2588 0078 3B69     		ldr	r3, [r7, #16]
 2589 007a 002B     		cmp	r3, #0
 2590 007c E5D1     		bne	.L196
 2591 007e 7B68     		ldr	r3, [r7, #4]
 2592 0080 5B6B     		ldr	r3, [r3, #52]
 2593 0082 002B     		cmp	r3, #0
 2594 0084 18D0     		beq	.L193
 2595 0086 7B68     		ldr	r3, [r7, #4]
 2596 0088 5B6B     		ldr	r3, [r3, #52]
 2597 008a 0022     		movs	r2, #0
 2598 008c 1A65     		str	r2, [r3, #80]
 2599 008e 7B68     		ldr	r3, [r7, #4]
 2600 0090 5B6B     		ldr	r3, [r3, #52]
 2601 0092 1846     		mov	r0, r3
 2602 0094 FFF7FEFF 		bl	HAL_DMA_Abort
 2603 0098 0346     		mov	r3, r0
 2604 009a 002B     		cmp	r3, #0
 2605 009c 0CD0     		beq	.L193
 2606 009e 7B68     		ldr	r3, [r7, #4]
ARM GAS  C:\Users\user\AppData\Local\Temp\ccimlsD1.s 			page 46


 2607 00a0 5B6B     		ldr	r3, [r3, #52]
 2608 00a2 1846     		mov	r0, r3
 2609 00a4 FFF7FEFF 		bl	HAL_DMA_GetError
 2610 00a8 0346     		mov	r3, r0
 2611 00aa 202B     		cmp	r3, #32
 2612 00ac 04D1     		bne	.L193
 2613 00ae 7B68     		ldr	r3, [r7, #4]
 2614 00b0 1022     		movs	r2, #16
 2615 00b2 1A64     		str	r2, [r3, #64]
 2616 00b4 0323     		movs	r3, #3
 2617 00b6 07E0     		b	.L197
 2618              	.L193:
 2619 00b8 7B68     		ldr	r3, [r7, #4]
 2620 00ba 0022     		movs	r2, #0
 2621 00bc DA84     		strh	r2, [r3, #38]	@ movhi
 2622 00be 7B68     		ldr	r3, [r7, #4]
 2623 00c0 2022     		movs	r2, #32
 2624 00c2 83F83D20 		strb	r2, [r3, #61]
 2625 00c6 0023     		movs	r3, #0
 2626              	.L197:
 2627 00c8 1846     		mov	r0, r3
 2628 00ca 3837     		adds	r7, r7, #56
 2629 00cc BD46     		mov	sp, r7
 2630              		@ sp needed
 2631 00ce 80BD     		pop	{r7, pc}
 2633              		.section	.text.HAL_UART_AbortReceive,"ax",%progbits
 2634              		.align	1
 2635              		.global	HAL_UART_AbortReceive
 2636              		.syntax unified
 2637              		.thumb
 2638              		.thumb_func
 2640              	HAL_UART_AbortReceive:
 2641              		@ args = 0, pretend = 0, frame = 104
 2642              		@ frame_needed = 1, uses_anonymous_args = 0
 2643 0000 80B5     		push	{r7, lr}
 2644 0002 9AB0     		sub	sp, sp, #104
 2645 0004 00AF     		add	r7, sp, #0
 2646 0006 7860     		str	r0, [r7, #4]
 2647              	.L201:
 2648 0008 7B68     		ldr	r3, [r7, #4]
 2649 000a 1B68     		ldr	r3, [r3]
 2650 000c 0C33     		adds	r3, r3, #12
 2651 000e BB64     		str	r3, [r7, #72]
 2652 0010 BB6C     		ldr	r3, [r7, #72]
 2653              		.syntax unified
 2654              	@ 1072 "Drivers/CMSIS/Include/cmsis_gcc.h" 1
 2655 0012 53E8003F 		ldrex r3, [r3]
 2656              	@ 0 "" 2
 2657              		.thumb
 2658              		.syntax unified
 2659 0016 7B64     		str	r3, [r7, #68]
 2660 0018 7B6C     		ldr	r3, [r7, #68]
 2661 001a 23F49073 		bic	r3, r3, #288
 2662 001e 7B66     		str	r3, [r7, #100]
 2663 0020 7B68     		ldr	r3, [r7, #4]
 2664 0022 1B68     		ldr	r3, [r3]
 2665 0024 0C33     		adds	r3, r3, #12
ARM GAS  C:\Users\user\AppData\Local\Temp\ccimlsD1.s 			page 47


 2666 0026 7A6E     		ldr	r2, [r7, #100]
 2667 0028 7A65     		str	r2, [r7, #84]
 2668 002a 3B65     		str	r3, [r7, #80]
 2669 002c 396D     		ldr	r1, [r7, #80]
 2670 002e 7A6D     		ldr	r2, [r7, #84]
 2671              		.syntax unified
 2672              	@ 1123 "Drivers/CMSIS/Include/cmsis_gcc.h" 1
 2673 0030 41E80023 		strex r3, r2, [r1]
 2674              	@ 0 "" 2
 2675              		.thumb
 2676              		.syntax unified
 2677 0034 FB64     		str	r3, [r7, #76]
 2678 0036 FB6C     		ldr	r3, [r7, #76]
 2679 0038 002B     		cmp	r3, #0
 2680 003a E5D1     		bne	.L201
 2681              	.L204:
 2682 003c 7B68     		ldr	r3, [r7, #4]
 2683 003e 1B68     		ldr	r3, [r3]
 2684 0040 1433     		adds	r3, r3, #20
 2685 0042 7B63     		str	r3, [r7, #52]
 2686 0044 7B6B     		ldr	r3, [r7, #52]
 2687              		.syntax unified
 2688              	@ 1072 "Drivers/CMSIS/Include/cmsis_gcc.h" 1
 2689 0046 53E8003F 		ldrex r3, [r3]
 2690              	@ 0 "" 2
 2691              		.thumb
 2692              		.syntax unified
 2693 004a 3B63     		str	r3, [r7, #48]
 2694 004c 3B6B     		ldr	r3, [r7, #48]
 2695 004e 23F00103 		bic	r3, r3, #1
 2696 0052 3B66     		str	r3, [r7, #96]
 2697 0054 7B68     		ldr	r3, [r7, #4]
 2698 0056 1B68     		ldr	r3, [r3]
 2699 0058 1433     		adds	r3, r3, #20
 2700 005a 3A6E     		ldr	r2, [r7, #96]
 2701 005c 3A64     		str	r2, [r7, #64]
 2702 005e FB63     		str	r3, [r7, #60]
 2703 0060 F96B     		ldr	r1, [r7, #60]
 2704 0062 3A6C     		ldr	r2, [r7, #64]
 2705              		.syntax unified
 2706              	@ 1123 "Drivers/CMSIS/Include/cmsis_gcc.h" 1
 2707 0064 41E80023 		strex r3, r2, [r1]
 2708              	@ 0 "" 2
 2709              		.thumb
 2710              		.syntax unified
 2711 0068 BB63     		str	r3, [r7, #56]
 2712 006a BB6B     		ldr	r3, [r7, #56]
 2713 006c 002B     		cmp	r3, #0
 2714 006e E5D1     		bne	.L204
 2715 0070 7B68     		ldr	r3, [r7, #4]
 2716 0072 1B6B     		ldr	r3, [r3, #48]
 2717 0074 012B     		cmp	r3, #1
 2718 0076 19D1     		bne	.L205
 2719              	.L208:
 2720 0078 7B68     		ldr	r3, [r7, #4]
 2721 007a 1B68     		ldr	r3, [r3]
 2722 007c 0C33     		adds	r3, r3, #12
ARM GAS  C:\Users\user\AppData\Local\Temp\ccimlsD1.s 			page 48


 2723 007e 3B62     		str	r3, [r7, #32]
 2724 0080 3B6A     		ldr	r3, [r7, #32]
 2725              		.syntax unified
 2726              	@ 1072 "Drivers/CMSIS/Include/cmsis_gcc.h" 1
 2727 0082 53E8003F 		ldrex r3, [r3]
 2728              	@ 0 "" 2
 2729              		.thumb
 2730              		.syntax unified
 2731 0086 FB61     		str	r3, [r7, #28]
 2732 0088 FB69     		ldr	r3, [r7, #28]
 2733 008a 23F01003 		bic	r3, r3, #16
 2734 008e FB65     		str	r3, [r7, #92]
 2735 0090 7B68     		ldr	r3, [r7, #4]
 2736 0092 1B68     		ldr	r3, [r3]
 2737 0094 0C33     		adds	r3, r3, #12
 2738 0096 FA6D     		ldr	r2, [r7, #92]
 2739 0098 FA62     		str	r2, [r7, #44]
 2740 009a BB62     		str	r3, [r7, #40]
 2741 009c B96A     		ldr	r1, [r7, #40]
 2742 009e FA6A     		ldr	r2, [r7, #44]
 2743              		.syntax unified
 2744              	@ 1123 "Drivers/CMSIS/Include/cmsis_gcc.h" 1
 2745 00a0 41E80023 		strex r3, r2, [r1]
 2746              	@ 0 "" 2
 2747              		.thumb
 2748              		.syntax unified
 2749 00a4 7B62     		str	r3, [r7, #36]
 2750 00a6 7B6A     		ldr	r3, [r7, #36]
 2751 00a8 002B     		cmp	r3, #0
 2752 00aa E5D1     		bne	.L208
 2753              	.L205:
 2754 00ac 7B68     		ldr	r3, [r7, #4]
 2755 00ae 1B68     		ldr	r3, [r3]
 2756 00b0 5B69     		ldr	r3, [r3, #20]
 2757 00b2 03F04003 		and	r3, r3, #64
 2758 00b6 402B     		cmp	r3, #64
 2759 00b8 36D1     		bne	.L209
 2760              	.L212:
 2761 00ba 7B68     		ldr	r3, [r7, #4]
 2762 00bc 1B68     		ldr	r3, [r3]
 2763 00be 1433     		adds	r3, r3, #20
 2764 00c0 FB60     		str	r3, [r7, #12]
 2765 00c2 FB68     		ldr	r3, [r7, #12]
 2766              		.syntax unified
 2767              	@ 1072 "Drivers/CMSIS/Include/cmsis_gcc.h" 1
 2768 00c4 53E8003F 		ldrex r3, [r3]
 2769              	@ 0 "" 2
 2770              		.thumb
 2771              		.syntax unified
 2772 00c8 BB60     		str	r3, [r7, #8]
 2773 00ca BB68     		ldr	r3, [r7, #8]
 2774 00cc 23F04003 		bic	r3, r3, #64
 2775 00d0 BB65     		str	r3, [r7, #88]
 2776 00d2 7B68     		ldr	r3, [r7, #4]
 2777 00d4 1B68     		ldr	r3, [r3]
 2778 00d6 1433     		adds	r3, r3, #20
 2779 00d8 BA6D     		ldr	r2, [r7, #88]
ARM GAS  C:\Users\user\AppData\Local\Temp\ccimlsD1.s 			page 49


 2780 00da BA61     		str	r2, [r7, #24]
 2781 00dc 7B61     		str	r3, [r7, #20]
 2782 00de 7969     		ldr	r1, [r7, #20]
 2783 00e0 BA69     		ldr	r2, [r7, #24]
 2784              		.syntax unified
 2785              	@ 1123 "Drivers/CMSIS/Include/cmsis_gcc.h" 1
 2786 00e2 41E80023 		strex r3, r2, [r1]
 2787              	@ 0 "" 2
 2788              		.thumb
 2789              		.syntax unified
 2790 00e6 3B61     		str	r3, [r7, #16]
 2791 00e8 3B69     		ldr	r3, [r7, #16]
 2792 00ea 002B     		cmp	r3, #0
 2793 00ec E5D1     		bne	.L212
 2794 00ee 7B68     		ldr	r3, [r7, #4]
 2795 00f0 9B6B     		ldr	r3, [r3, #56]
 2796 00f2 002B     		cmp	r3, #0
 2797 00f4 18D0     		beq	.L209
 2798 00f6 7B68     		ldr	r3, [r7, #4]
 2799 00f8 9B6B     		ldr	r3, [r3, #56]
 2800 00fa 0022     		movs	r2, #0
 2801 00fc 1A65     		str	r2, [r3, #80]
 2802 00fe 7B68     		ldr	r3, [r7, #4]
 2803 0100 9B6B     		ldr	r3, [r3, #56]
 2804 0102 1846     		mov	r0, r3
 2805 0104 FFF7FEFF 		bl	HAL_DMA_Abort
 2806 0108 0346     		mov	r3, r0
 2807 010a 002B     		cmp	r3, #0
 2808 010c 0CD0     		beq	.L209
 2809 010e 7B68     		ldr	r3, [r7, #4]
 2810 0110 9B6B     		ldr	r3, [r3, #56]
 2811 0112 1846     		mov	r0, r3
 2812 0114 FFF7FEFF 		bl	HAL_DMA_GetError
 2813 0118 0346     		mov	r3, r0
 2814 011a 202B     		cmp	r3, #32
 2815 011c 04D1     		bne	.L209
 2816 011e 7B68     		ldr	r3, [r7, #4]
 2817 0120 1022     		movs	r2, #16
 2818 0122 1A64     		str	r2, [r3, #64]
 2819 0124 0323     		movs	r3, #3
 2820 0126 0AE0     		b	.L213
 2821              	.L209:
 2822 0128 7B68     		ldr	r3, [r7, #4]
 2823 012a 0022     		movs	r2, #0
 2824 012c DA85     		strh	r2, [r3, #46]	@ movhi
 2825 012e 7B68     		ldr	r3, [r7, #4]
 2826 0130 2022     		movs	r2, #32
 2827 0132 83F83E20 		strb	r2, [r3, #62]
 2828 0136 7B68     		ldr	r3, [r7, #4]
 2829 0138 0022     		movs	r2, #0
 2830 013a 1A63     		str	r2, [r3, #48]
 2831 013c 0023     		movs	r3, #0
 2832              	.L213:
 2833 013e 1846     		mov	r0, r3
 2834 0140 6837     		adds	r7, r7, #104
 2835 0142 BD46     		mov	sp, r7
 2836              		@ sp needed
ARM GAS  C:\Users\user\AppData\Local\Temp\ccimlsD1.s 			page 50


 2837 0144 80BD     		pop	{r7, pc}
 2839              		.section	.text.HAL_UART_Abort_IT,"ax",%progbits
 2840              		.align	1
 2841              		.global	HAL_UART_Abort_IT
 2842              		.syntax unified
 2843              		.thumb
 2844              		.thumb_func
 2846              	HAL_UART_Abort_IT:
 2847              		@ args = 0, pretend = 0, frame = 136
 2848              		@ frame_needed = 1, uses_anonymous_args = 0
 2849 0000 80B5     		push	{r7, lr}
 2850 0002 A2B0     		sub	sp, sp, #136
 2851 0004 00AF     		add	r7, sp, #0
 2852 0006 7860     		str	r0, [r7, #4]
 2853 0008 0123     		movs	r3, #1
 2854 000a C7F88430 		str	r3, [r7, #132]
 2855              	.L217:
 2856 000e 7B68     		ldr	r3, [r7, #4]
 2857 0010 1B68     		ldr	r3, [r3]
 2858 0012 0C33     		adds	r3, r3, #12
 2859 0014 3B66     		str	r3, [r7, #96]
 2860 0016 3B6E     		ldr	r3, [r7, #96]
 2861              		.syntax unified
 2862              	@ 1072 "Drivers/CMSIS/Include/cmsis_gcc.h" 1
 2863 0018 53E8003F 		ldrex r3, [r3]
 2864              	@ 0 "" 2
 2865              		.thumb
 2866              		.syntax unified
 2867 001c FB65     		str	r3, [r7, #92]
 2868 001e FB6D     		ldr	r3, [r7, #92]
 2869 0020 23F4F073 		bic	r3, r3, #480
 2870 0024 C7F88030 		str	r3, [r7, #128]
 2871 0028 7B68     		ldr	r3, [r7, #4]
 2872 002a 1B68     		ldr	r3, [r3]
 2873 002c 0C33     		adds	r3, r3, #12
 2874 002e D7F88020 		ldr	r2, [r7, #128]
 2875 0032 FA66     		str	r2, [r7, #108]
 2876 0034 BB66     		str	r3, [r7, #104]
 2877 0036 B96E     		ldr	r1, [r7, #104]
 2878 0038 FA6E     		ldr	r2, [r7, #108]
 2879              		.syntax unified
 2880              	@ 1123 "Drivers/CMSIS/Include/cmsis_gcc.h" 1
 2881 003a 41E80023 		strex r3, r2, [r1]
 2882              	@ 0 "" 2
 2883              		.thumb
 2884              		.syntax unified
 2885 003e 7B66     		str	r3, [r7, #100]
 2886 0040 7B6E     		ldr	r3, [r7, #100]
 2887 0042 002B     		cmp	r3, #0
 2888 0044 E3D1     		bne	.L217
 2889              	.L220:
 2890 0046 7B68     		ldr	r3, [r7, #4]
 2891 0048 1B68     		ldr	r3, [r3]
 2892 004a 1433     		adds	r3, r3, #20
 2893 004c FB64     		str	r3, [r7, #76]
 2894 004e FB6C     		ldr	r3, [r7, #76]
 2895              		.syntax unified
ARM GAS  C:\Users\user\AppData\Local\Temp\ccimlsD1.s 			page 51


 2896              	@ 1072 "Drivers/CMSIS/Include/cmsis_gcc.h" 1
 2897 0050 53E8003F 		ldrex r3, [r3]
 2898              	@ 0 "" 2
 2899              		.thumb
 2900              		.syntax unified
 2901 0054 BB64     		str	r3, [r7, #72]
 2902 0056 BB6C     		ldr	r3, [r7, #72]
 2903 0058 23F00103 		bic	r3, r3, #1
 2904 005c FB67     		str	r3, [r7, #124]
 2905 005e 7B68     		ldr	r3, [r7, #4]
 2906 0060 1B68     		ldr	r3, [r3]
 2907 0062 1433     		adds	r3, r3, #20
 2908 0064 FA6F     		ldr	r2, [r7, #124]
 2909 0066 BA65     		str	r2, [r7, #88]
 2910 0068 7B65     		str	r3, [r7, #84]
 2911 006a 796D     		ldr	r1, [r7, #84]
 2912 006c BA6D     		ldr	r2, [r7, #88]
 2913              		.syntax unified
 2914              	@ 1123 "Drivers/CMSIS/Include/cmsis_gcc.h" 1
 2915 006e 41E80023 		strex r3, r2, [r1]
 2916              	@ 0 "" 2
 2917              		.thumb
 2918              		.syntax unified
 2919 0072 3B65     		str	r3, [r7, #80]
 2920 0074 3B6D     		ldr	r3, [r7, #80]
 2921 0076 002B     		cmp	r3, #0
 2922 0078 E5D1     		bne	.L220
 2923 007a 7B68     		ldr	r3, [r7, #4]
 2924 007c 1B6B     		ldr	r3, [r3, #48]
 2925 007e 012B     		cmp	r3, #1
 2926 0080 19D1     		bne	.L221
 2927              	.L224:
 2928 0082 7B68     		ldr	r3, [r7, #4]
 2929 0084 1B68     		ldr	r3, [r3]
 2930 0086 0C33     		adds	r3, r3, #12
 2931 0088 BB63     		str	r3, [r7, #56]
 2932 008a BB6B     		ldr	r3, [r7, #56]
 2933              		.syntax unified
 2934              	@ 1072 "Drivers/CMSIS/Include/cmsis_gcc.h" 1
 2935 008c 53E8003F 		ldrex r3, [r3]
 2936              	@ 0 "" 2
 2937              		.thumb
 2938              		.syntax unified
 2939 0090 7B63     		str	r3, [r7, #52]
 2940 0092 7B6B     		ldr	r3, [r7, #52]
 2941 0094 23F01003 		bic	r3, r3, #16
 2942 0098 BB67     		str	r3, [r7, #120]
 2943 009a 7B68     		ldr	r3, [r7, #4]
 2944 009c 1B68     		ldr	r3, [r3]
 2945 009e 0C33     		adds	r3, r3, #12
 2946 00a0 BA6F     		ldr	r2, [r7, #120]
 2947 00a2 7A64     		str	r2, [r7, #68]
 2948 00a4 3B64     		str	r3, [r7, #64]
 2949 00a6 396C     		ldr	r1, [r7, #64]
 2950 00a8 7A6C     		ldr	r2, [r7, #68]
 2951              		.syntax unified
 2952              	@ 1123 "Drivers/CMSIS/Include/cmsis_gcc.h" 1
ARM GAS  C:\Users\user\AppData\Local\Temp\ccimlsD1.s 			page 52


 2953 00aa 41E80023 		strex r3, r2, [r1]
 2954              	@ 0 "" 2
 2955              		.thumb
 2956              		.syntax unified
 2957 00ae FB63     		str	r3, [r7, #60]
 2958 00b0 FB6B     		ldr	r3, [r7, #60]
 2959 00b2 002B     		cmp	r3, #0
 2960 00b4 E5D1     		bne	.L224
 2961              	.L221:
 2962 00b6 7B68     		ldr	r3, [r7, #4]
 2963 00b8 5B6B     		ldr	r3, [r3, #52]
 2964 00ba 002B     		cmp	r3, #0
 2965 00bc 0FD0     		beq	.L225
 2966 00be 7B68     		ldr	r3, [r7, #4]
 2967 00c0 1B68     		ldr	r3, [r3]
 2968 00c2 5B69     		ldr	r3, [r3, #20]
 2969 00c4 03F08003 		and	r3, r3, #128
 2970 00c8 802B     		cmp	r3, #128
 2971 00ca 04D1     		bne	.L226
 2972 00cc 7B68     		ldr	r3, [r7, #4]
 2973 00ce 5B6B     		ldr	r3, [r3, #52]
 2974 00d0 534A     		ldr	r2, .L241
 2975 00d2 1A65     		str	r2, [r3, #80]
 2976 00d4 03E0     		b	.L225
 2977              	.L226:
 2978 00d6 7B68     		ldr	r3, [r7, #4]
 2979 00d8 5B6B     		ldr	r3, [r3, #52]
 2980 00da 0022     		movs	r2, #0
 2981 00dc 1A65     		str	r2, [r3, #80]
 2982              	.L225:
 2983 00de 7B68     		ldr	r3, [r7, #4]
 2984 00e0 9B6B     		ldr	r3, [r3, #56]
 2985 00e2 002B     		cmp	r3, #0
 2986 00e4 0FD0     		beq	.L227
 2987 00e6 7B68     		ldr	r3, [r7, #4]
 2988 00e8 1B68     		ldr	r3, [r3]
 2989 00ea 5B69     		ldr	r3, [r3, #20]
 2990 00ec 03F04003 		and	r3, r3, #64
 2991 00f0 402B     		cmp	r3, #64
 2992 00f2 04D1     		bne	.L228
 2993 00f4 7B68     		ldr	r3, [r7, #4]
 2994 00f6 9B6B     		ldr	r3, [r3, #56]
 2995 00f8 4A4A     		ldr	r2, .L241+4
 2996 00fa 1A65     		str	r2, [r3, #80]
 2997 00fc 03E0     		b	.L227
 2998              	.L228:
 2999 00fe 7B68     		ldr	r3, [r7, #4]
 3000 0100 9B6B     		ldr	r3, [r3, #56]
 3001 0102 0022     		movs	r2, #0
 3002 0104 1A65     		str	r2, [r3, #80]
 3003              	.L227:
 3004 0106 7B68     		ldr	r3, [r7, #4]
 3005 0108 1B68     		ldr	r3, [r3]
 3006 010a 5B69     		ldr	r3, [r3, #20]
 3007 010c 03F08003 		and	r3, r3, #128
 3008 0110 802B     		cmp	r3, #128
 3009 0112 2DD1     		bne	.L229
ARM GAS  C:\Users\user\AppData\Local\Temp\ccimlsD1.s 			page 53


 3010              	.L232:
 3011 0114 7B68     		ldr	r3, [r7, #4]
 3012 0116 1B68     		ldr	r3, [r3]
 3013 0118 1433     		adds	r3, r3, #20
 3014 011a 7B62     		str	r3, [r7, #36]
 3015 011c 7B6A     		ldr	r3, [r7, #36]
 3016              		.syntax unified
 3017              	@ 1072 "Drivers/CMSIS/Include/cmsis_gcc.h" 1
 3018 011e 53E8003F 		ldrex r3, [r3]
 3019              	@ 0 "" 2
 3020              		.thumb
 3021              		.syntax unified
 3022 0122 3B62     		str	r3, [r7, #32]
 3023 0124 3B6A     		ldr	r3, [r7, #32]
 3024 0126 23F08003 		bic	r3, r3, #128
 3025 012a 7B67     		str	r3, [r7, #116]
 3026 012c 7B68     		ldr	r3, [r7, #4]
 3027 012e 1B68     		ldr	r3, [r3]
 3028 0130 1433     		adds	r3, r3, #20
 3029 0132 7A6F     		ldr	r2, [r7, #116]
 3030 0134 3A63     		str	r2, [r7, #48]
 3031 0136 FB62     		str	r3, [r7, #44]
 3032 0138 F96A     		ldr	r1, [r7, #44]
 3033 013a 3A6B     		ldr	r2, [r7, #48]
 3034              		.syntax unified
 3035              	@ 1123 "Drivers/CMSIS/Include/cmsis_gcc.h" 1
 3036 013c 41E80023 		strex r3, r2, [r1]
 3037              	@ 0 "" 2
 3038              		.thumb
 3039              		.syntax unified
 3040 0140 BB62     		str	r3, [r7, #40]
 3041 0142 BB6A     		ldr	r3, [r7, #40]
 3042 0144 002B     		cmp	r3, #0
 3043 0146 E5D1     		bne	.L232
 3044 0148 7B68     		ldr	r3, [r7, #4]
 3045 014a 5B6B     		ldr	r3, [r3, #52]
 3046 014c 002B     		cmp	r3, #0
 3047 014e 0FD0     		beq	.L229
 3048 0150 7B68     		ldr	r3, [r7, #4]
 3049 0152 5B6B     		ldr	r3, [r3, #52]
 3050 0154 1846     		mov	r0, r3
 3051 0156 FFF7FEFF 		bl	HAL_DMA_Abort_IT
 3052 015a 0346     		mov	r3, r0
 3053 015c 002B     		cmp	r3, #0
 3054 015e 04D0     		beq	.L233
 3055 0160 7B68     		ldr	r3, [r7, #4]
 3056 0162 5B6B     		ldr	r3, [r3, #52]
 3057 0164 0022     		movs	r2, #0
 3058 0166 1A65     		str	r2, [r3, #80]
 3059 0168 02E0     		b	.L229
 3060              	.L233:
 3061 016a 0023     		movs	r3, #0
 3062 016c C7F88430 		str	r3, [r7, #132]
 3063              	.L229:
 3064 0170 7B68     		ldr	r3, [r7, #4]
 3065 0172 1B68     		ldr	r3, [r3]
 3066 0174 5B69     		ldr	r3, [r3, #20]
ARM GAS  C:\Users\user\AppData\Local\Temp\ccimlsD1.s 			page 54


 3067 0176 03F04003 		and	r3, r3, #64
 3068 017a 402B     		cmp	r3, #64
 3069 017c 30D1     		bne	.L234
 3070              	.L237:
 3071 017e 7B68     		ldr	r3, [r7, #4]
 3072 0180 1B68     		ldr	r3, [r3]
 3073 0182 1433     		adds	r3, r3, #20
 3074 0184 3B61     		str	r3, [r7, #16]
 3075 0186 3B69     		ldr	r3, [r7, #16]
 3076              		.syntax unified
 3077              	@ 1072 "Drivers/CMSIS/Include/cmsis_gcc.h" 1
 3078 0188 53E8003F 		ldrex r3, [r3]
 3079              	@ 0 "" 2
 3080              		.thumb
 3081              		.syntax unified
 3082 018c FB60     		str	r3, [r7, #12]
 3083 018e FB68     		ldr	r3, [r7, #12]
 3084 0190 23F04003 		bic	r3, r3, #64
 3085 0194 3B67     		str	r3, [r7, #112]
 3086 0196 7B68     		ldr	r3, [r7, #4]
 3087 0198 1B68     		ldr	r3, [r3]
 3088 019a 1433     		adds	r3, r3, #20
 3089 019c 3A6F     		ldr	r2, [r7, #112]
 3090 019e FA61     		str	r2, [r7, #28]
 3091 01a0 BB61     		str	r3, [r7, #24]
 3092 01a2 B969     		ldr	r1, [r7, #24]
 3093 01a4 FA69     		ldr	r2, [r7, #28]
 3094              		.syntax unified
 3095              	@ 1123 "Drivers/CMSIS/Include/cmsis_gcc.h" 1
 3096 01a6 41E80023 		strex r3, r2, [r1]
 3097              	@ 0 "" 2
 3098              		.thumb
 3099              		.syntax unified
 3100 01aa 7B61     		str	r3, [r7, #20]
 3101 01ac 7B69     		ldr	r3, [r7, #20]
 3102 01ae 002B     		cmp	r3, #0
 3103 01b0 E5D1     		bne	.L237
 3104 01b2 7B68     		ldr	r3, [r7, #4]
 3105 01b4 9B6B     		ldr	r3, [r3, #56]
 3106 01b6 002B     		cmp	r3, #0
 3107 01b8 12D0     		beq	.L234
 3108 01ba 7B68     		ldr	r3, [r7, #4]
 3109 01bc 9B6B     		ldr	r3, [r3, #56]
 3110 01be 1846     		mov	r0, r3
 3111 01c0 FFF7FEFF 		bl	HAL_DMA_Abort_IT
 3112 01c4 0346     		mov	r3, r0
 3113 01c6 002B     		cmp	r3, #0
 3114 01c8 07D0     		beq	.L238
 3115 01ca 7B68     		ldr	r3, [r7, #4]
 3116 01cc 9B6B     		ldr	r3, [r3, #56]
 3117 01ce 0022     		movs	r2, #0
 3118 01d0 1A65     		str	r2, [r3, #80]
 3119 01d2 0123     		movs	r3, #1
 3120 01d4 C7F88430 		str	r3, [r7, #132]
 3121 01d8 02E0     		b	.L234
 3122              	.L238:
 3123 01da 0023     		movs	r3, #0
ARM GAS  C:\Users\user\AppData\Local\Temp\ccimlsD1.s 			page 55


 3124 01dc C7F88430 		str	r3, [r7, #132]
 3125              	.L234:
 3126 01e0 D7F88430 		ldr	r3, [r7, #132]
 3127 01e4 012B     		cmp	r3, #1
 3128 01e6 16D1     		bne	.L239
 3129 01e8 7B68     		ldr	r3, [r7, #4]
 3130 01ea 0022     		movs	r2, #0
 3131 01ec DA84     		strh	r2, [r3, #38]	@ movhi
 3132 01ee 7B68     		ldr	r3, [r7, #4]
 3133 01f0 0022     		movs	r2, #0
 3134 01f2 DA85     		strh	r2, [r3, #46]	@ movhi
 3135 01f4 7B68     		ldr	r3, [r7, #4]
 3136 01f6 0022     		movs	r2, #0
 3137 01f8 1A64     		str	r2, [r3, #64]
 3138 01fa 7B68     		ldr	r3, [r7, #4]
 3139 01fc 2022     		movs	r2, #32
 3140 01fe 83F83D20 		strb	r2, [r3, #61]
 3141 0202 7B68     		ldr	r3, [r7, #4]
 3142 0204 2022     		movs	r2, #32
 3143 0206 83F83E20 		strb	r2, [r3, #62]
 3144 020a 7B68     		ldr	r3, [r7, #4]
 3145 020c 0022     		movs	r2, #0
 3146 020e 1A63     		str	r2, [r3, #48]
 3147 0210 7868     		ldr	r0, [r7, #4]
 3148 0212 FFF7FEFF 		bl	HAL_UART_AbortCpltCallback
 3149              	.L239:
 3150 0216 0023     		movs	r3, #0
 3151 0218 1846     		mov	r0, r3
 3152 021a 8837     		adds	r7, r7, #136
 3153 021c BD46     		mov	sp, r7
 3154              		@ sp needed
 3155 021e 80BD     		pop	{r7, pc}
 3156              	.L242:
 3157              		.align	2
 3158              	.L241:
 3159 0220 00000000 		.word	UART_DMATxAbortCallback
 3160 0224 00000000 		.word	UART_DMARxAbortCallback
 3162              		.section	.text.HAL_UART_AbortTransmit_IT,"ax",%progbits
 3163              		.align	1
 3164              		.global	HAL_UART_AbortTransmit_IT
 3165              		.syntax unified
 3166              		.thumb
 3167              		.thumb_func
 3169              	HAL_UART_AbortTransmit_IT:
 3170              		@ args = 0, pretend = 0, frame = 56
 3171              		@ frame_needed = 1, uses_anonymous_args = 0
 3172 0000 80B5     		push	{r7, lr}
 3173 0002 8EB0     		sub	sp, sp, #56
 3174 0004 00AF     		add	r7, sp, #0
 3175 0006 7860     		str	r0, [r7, #4]
 3176              	.L246:
 3177 0008 7B68     		ldr	r3, [r7, #4]
 3178 000a 1B68     		ldr	r3, [r3]
 3179 000c 0C33     		adds	r3, r3, #12
 3180 000e 3B62     		str	r3, [r7, #32]
 3181 0010 3B6A     		ldr	r3, [r7, #32]
 3182              		.syntax unified
ARM GAS  C:\Users\user\AppData\Local\Temp\ccimlsD1.s 			page 56


 3183              	@ 1072 "Drivers/CMSIS/Include/cmsis_gcc.h" 1
 3184 0012 53E8003F 		ldrex r3, [r3]
 3185              	@ 0 "" 2
 3186              		.thumb
 3187              		.syntax unified
 3188 0016 FB61     		str	r3, [r7, #28]
 3189 0018 FB69     		ldr	r3, [r7, #28]
 3190 001a 23F0C003 		bic	r3, r3, #192
 3191 001e 7B63     		str	r3, [r7, #52]
 3192 0020 7B68     		ldr	r3, [r7, #4]
 3193 0022 1B68     		ldr	r3, [r3]
 3194 0024 0C33     		adds	r3, r3, #12
 3195 0026 7A6B     		ldr	r2, [r7, #52]
 3196 0028 FA62     		str	r2, [r7, #44]
 3197 002a BB62     		str	r3, [r7, #40]
 3198 002c B96A     		ldr	r1, [r7, #40]
 3199 002e FA6A     		ldr	r2, [r7, #44]
 3200              		.syntax unified
 3201              	@ 1123 "Drivers/CMSIS/Include/cmsis_gcc.h" 1
 3202 0030 41E80023 		strex r3, r2, [r1]
 3203              	@ 0 "" 2
 3204              		.thumb
 3205              		.syntax unified
 3206 0034 7B62     		str	r3, [r7, #36]
 3207 0036 7B6A     		ldr	r3, [r7, #36]
 3208 0038 002B     		cmp	r3, #0
 3209 003a E5D1     		bne	.L246
 3210 003c 7B68     		ldr	r3, [r7, #4]
 3211 003e 1B68     		ldr	r3, [r3]
 3212 0040 5B69     		ldr	r3, [r3, #20]
 3213 0042 03F08003 		and	r3, r3, #128
 3214 0046 802B     		cmp	r3, #128
 3215 0048 3CD1     		bne	.L247
 3216              	.L250:
 3217 004a 7B68     		ldr	r3, [r7, #4]
 3218 004c 1B68     		ldr	r3, [r3]
 3219 004e 1433     		adds	r3, r3, #20
 3220 0050 FB60     		str	r3, [r7, #12]
 3221 0052 FB68     		ldr	r3, [r7, #12]
 3222              		.syntax unified
 3223              	@ 1072 "Drivers/CMSIS/Include/cmsis_gcc.h" 1
 3224 0054 53E8003F 		ldrex r3, [r3]
 3225              	@ 0 "" 2
 3226              		.thumb
 3227              		.syntax unified
 3228 0058 BB60     		str	r3, [r7, #8]
 3229 005a BB68     		ldr	r3, [r7, #8]
 3230 005c 23F08003 		bic	r3, r3, #128
 3231 0060 3B63     		str	r3, [r7, #48]
 3232 0062 7B68     		ldr	r3, [r7, #4]
 3233 0064 1B68     		ldr	r3, [r3]
 3234 0066 1433     		adds	r3, r3, #20
 3235 0068 3A6B     		ldr	r2, [r7, #48]
 3236 006a BA61     		str	r2, [r7, #24]
 3237 006c 7B61     		str	r3, [r7, #20]
 3238 006e 7969     		ldr	r1, [r7, #20]
 3239 0070 BA69     		ldr	r2, [r7, #24]
ARM GAS  C:\Users\user\AppData\Local\Temp\ccimlsD1.s 			page 57


 3240              		.syntax unified
 3241              	@ 1123 "Drivers/CMSIS/Include/cmsis_gcc.h" 1
 3242 0072 41E80023 		strex r3, r2, [r1]
 3243              	@ 0 "" 2
 3244              		.thumb
 3245              		.syntax unified
 3246 0076 3B61     		str	r3, [r7, #16]
 3247 0078 3B69     		ldr	r3, [r7, #16]
 3248 007a 002B     		cmp	r3, #0
 3249 007c E5D1     		bne	.L250
 3250 007e 7B68     		ldr	r3, [r7, #4]
 3251 0080 5B6B     		ldr	r3, [r3, #52]
 3252 0082 002B     		cmp	r3, #0
 3253 0084 13D0     		beq	.L251
 3254 0086 7B68     		ldr	r3, [r7, #4]
 3255 0088 5B6B     		ldr	r3, [r3, #52]
 3256 008a 164A     		ldr	r2, .L254
 3257 008c 1A65     		str	r2, [r3, #80]
 3258 008e 7B68     		ldr	r3, [r7, #4]
 3259 0090 5B6B     		ldr	r3, [r3, #52]
 3260 0092 1846     		mov	r0, r3
 3261 0094 FFF7FEFF 		bl	HAL_DMA_Abort_IT
 3262 0098 0346     		mov	r3, r0
 3263 009a 002B     		cmp	r3, #0
 3264 009c 1CD0     		beq	.L252
 3265 009e 7B68     		ldr	r3, [r7, #4]
 3266 00a0 5B6B     		ldr	r3, [r3, #52]
 3267 00a2 1B6D     		ldr	r3, [r3, #80]
 3268 00a4 7A68     		ldr	r2, [r7, #4]
 3269 00a6 526B     		ldr	r2, [r2, #52]
 3270 00a8 1046     		mov	r0, r2
 3271 00aa 9847     		blx	r3
 3272 00ac 14E0     		b	.L252
 3273              	.L251:
 3274 00ae 7B68     		ldr	r3, [r7, #4]
 3275 00b0 0022     		movs	r2, #0
 3276 00b2 DA84     		strh	r2, [r3, #38]	@ movhi
 3277 00b4 7B68     		ldr	r3, [r7, #4]
 3278 00b6 2022     		movs	r2, #32
 3279 00b8 83F83D20 		strb	r2, [r3, #61]
 3280 00bc 7868     		ldr	r0, [r7, #4]
 3281 00be FFF7FEFF 		bl	HAL_UART_AbortTransmitCpltCallback
 3282 00c2 09E0     		b	.L252
 3283              	.L247:
 3284 00c4 7B68     		ldr	r3, [r7, #4]
 3285 00c6 0022     		movs	r2, #0
 3286 00c8 DA84     		strh	r2, [r3, #38]	@ movhi
 3287 00ca 7B68     		ldr	r3, [r7, #4]
 3288 00cc 2022     		movs	r2, #32
 3289 00ce 83F83D20 		strb	r2, [r3, #61]
 3290 00d2 7868     		ldr	r0, [r7, #4]
 3291 00d4 FFF7FEFF 		bl	HAL_UART_AbortTransmitCpltCallback
 3292              	.L252:
 3293 00d8 0023     		movs	r3, #0
 3294 00da 1846     		mov	r0, r3
 3295 00dc 3837     		adds	r7, r7, #56
 3296 00de BD46     		mov	sp, r7
ARM GAS  C:\Users\user\AppData\Local\Temp\ccimlsD1.s 			page 58


 3297              		@ sp needed
 3298 00e0 80BD     		pop	{r7, pc}
 3299              	.L255:
 3300 00e2 00BF     		.align	2
 3301              	.L254:
 3302 00e4 00000000 		.word	UART_DMATxOnlyAbortCallback
 3304              		.section	.text.HAL_UART_AbortReceive_IT,"ax",%progbits
 3305              		.align	1
 3306              		.global	HAL_UART_AbortReceive_IT
 3307              		.syntax unified
 3308              		.thumb
 3309              		.thumb_func
 3311              	HAL_UART_AbortReceive_IT:
 3312              		@ args = 0, pretend = 0, frame = 104
 3313              		@ frame_needed = 1, uses_anonymous_args = 0
 3314 0000 80B5     		push	{r7, lr}
 3315 0002 9AB0     		sub	sp, sp, #104
 3316 0004 00AF     		add	r7, sp, #0
 3317 0006 7860     		str	r0, [r7, #4]
 3318              	.L259:
 3319 0008 7B68     		ldr	r3, [r7, #4]
 3320 000a 1B68     		ldr	r3, [r3]
 3321 000c 0C33     		adds	r3, r3, #12
 3322 000e BB64     		str	r3, [r7, #72]
 3323 0010 BB6C     		ldr	r3, [r7, #72]
 3324              		.syntax unified
 3325              	@ 1072 "Drivers/CMSIS/Include/cmsis_gcc.h" 1
 3326 0012 53E8003F 		ldrex r3, [r3]
 3327              	@ 0 "" 2
 3328              		.thumb
 3329              		.syntax unified
 3330 0016 7B64     		str	r3, [r7, #68]
 3331 0018 7B6C     		ldr	r3, [r7, #68]
 3332 001a 23F49073 		bic	r3, r3, #288
 3333 001e 7B66     		str	r3, [r7, #100]
 3334 0020 7B68     		ldr	r3, [r7, #4]
 3335 0022 1B68     		ldr	r3, [r3]
 3336 0024 0C33     		adds	r3, r3, #12
 3337 0026 7A6E     		ldr	r2, [r7, #100]
 3338 0028 7A65     		str	r2, [r7, #84]
 3339 002a 3B65     		str	r3, [r7, #80]
 3340 002c 396D     		ldr	r1, [r7, #80]
 3341 002e 7A6D     		ldr	r2, [r7, #84]
 3342              		.syntax unified
 3343              	@ 1123 "Drivers/CMSIS/Include/cmsis_gcc.h" 1
 3344 0030 41E80023 		strex r3, r2, [r1]
 3345              	@ 0 "" 2
 3346              		.thumb
 3347              		.syntax unified
 3348 0034 FB64     		str	r3, [r7, #76]
 3349 0036 FB6C     		ldr	r3, [r7, #76]
 3350 0038 002B     		cmp	r3, #0
 3351 003a E5D1     		bne	.L259
 3352              	.L262:
 3353 003c 7B68     		ldr	r3, [r7, #4]
 3354 003e 1B68     		ldr	r3, [r3]
 3355 0040 1433     		adds	r3, r3, #20
ARM GAS  C:\Users\user\AppData\Local\Temp\ccimlsD1.s 			page 59


 3356 0042 7B63     		str	r3, [r7, #52]
 3357 0044 7B6B     		ldr	r3, [r7, #52]
 3358              		.syntax unified
 3359              	@ 1072 "Drivers/CMSIS/Include/cmsis_gcc.h" 1
 3360 0046 53E8003F 		ldrex r3, [r3]
 3361              	@ 0 "" 2
 3362              		.thumb
 3363              		.syntax unified
 3364 004a 3B63     		str	r3, [r7, #48]
 3365 004c 3B6B     		ldr	r3, [r7, #48]
 3366 004e 23F00103 		bic	r3, r3, #1
 3367 0052 3B66     		str	r3, [r7, #96]
 3368 0054 7B68     		ldr	r3, [r7, #4]
 3369 0056 1B68     		ldr	r3, [r3]
 3370 0058 1433     		adds	r3, r3, #20
 3371 005a 3A6E     		ldr	r2, [r7, #96]
 3372 005c 3A64     		str	r2, [r7, #64]
 3373 005e FB63     		str	r3, [r7, #60]
 3374 0060 F96B     		ldr	r1, [r7, #60]
 3375 0062 3A6C     		ldr	r2, [r7, #64]
 3376              		.syntax unified
 3377              	@ 1123 "Drivers/CMSIS/Include/cmsis_gcc.h" 1
 3378 0064 41E80023 		strex r3, r2, [r1]
 3379              	@ 0 "" 2
 3380              		.thumb
 3381              		.syntax unified
 3382 0068 BB63     		str	r3, [r7, #56]
 3383 006a BB6B     		ldr	r3, [r7, #56]
 3384 006c 002B     		cmp	r3, #0
 3385 006e E5D1     		bne	.L262
 3386 0070 7B68     		ldr	r3, [r7, #4]
 3387 0072 1B6B     		ldr	r3, [r3, #48]
 3388 0074 012B     		cmp	r3, #1
 3389 0076 19D1     		bne	.L263
 3390              	.L266:
 3391 0078 7B68     		ldr	r3, [r7, #4]
 3392 007a 1B68     		ldr	r3, [r3]
 3393 007c 0C33     		adds	r3, r3, #12
 3394 007e 3B62     		str	r3, [r7, #32]
 3395 0080 3B6A     		ldr	r3, [r7, #32]
 3396              		.syntax unified
 3397              	@ 1072 "Drivers/CMSIS/Include/cmsis_gcc.h" 1
 3398 0082 53E8003F 		ldrex r3, [r3]
 3399              	@ 0 "" 2
 3400              		.thumb
 3401              		.syntax unified
 3402 0086 FB61     		str	r3, [r7, #28]
 3403 0088 FB69     		ldr	r3, [r7, #28]
 3404 008a 23F01003 		bic	r3, r3, #16
 3405 008e FB65     		str	r3, [r7, #92]
 3406 0090 7B68     		ldr	r3, [r7, #4]
 3407 0092 1B68     		ldr	r3, [r3]
 3408 0094 0C33     		adds	r3, r3, #12
 3409 0096 FA6D     		ldr	r2, [r7, #92]
 3410 0098 FA62     		str	r2, [r7, #44]
 3411 009a BB62     		str	r3, [r7, #40]
 3412 009c B96A     		ldr	r1, [r7, #40]
ARM GAS  C:\Users\user\AppData\Local\Temp\ccimlsD1.s 			page 60


 3413 009e FA6A     		ldr	r2, [r7, #44]
 3414              		.syntax unified
 3415              	@ 1123 "Drivers/CMSIS/Include/cmsis_gcc.h" 1
 3416 00a0 41E80023 		strex r3, r2, [r1]
 3417              	@ 0 "" 2
 3418              		.thumb
 3419              		.syntax unified
 3420 00a4 7B62     		str	r3, [r7, #36]
 3421 00a6 7B6A     		ldr	r3, [r7, #36]
 3422 00a8 002B     		cmp	r3, #0
 3423 00aa E5D1     		bne	.L266
 3424              	.L263:
 3425 00ac 7B68     		ldr	r3, [r7, #4]
 3426 00ae 1B68     		ldr	r3, [r3]
 3427 00b0 5B69     		ldr	r3, [r3, #20]
 3428 00b2 03F04003 		and	r3, r3, #64
 3429 00b6 402B     		cmp	r3, #64
 3430 00b8 3FD1     		bne	.L267
 3431              	.L270:
 3432 00ba 7B68     		ldr	r3, [r7, #4]
 3433 00bc 1B68     		ldr	r3, [r3]
 3434 00be 1433     		adds	r3, r3, #20
 3435 00c0 FB60     		str	r3, [r7, #12]
 3436 00c2 FB68     		ldr	r3, [r7, #12]
 3437              		.syntax unified
 3438              	@ 1072 "Drivers/CMSIS/Include/cmsis_gcc.h" 1
 3439 00c4 53E8003F 		ldrex r3, [r3]
 3440              	@ 0 "" 2
 3441              		.thumb
 3442              		.syntax unified
 3443 00c8 BB60     		str	r3, [r7, #8]
 3444 00ca BB68     		ldr	r3, [r7, #8]
 3445 00cc 23F04003 		bic	r3, r3, #64
 3446 00d0 BB65     		str	r3, [r7, #88]
 3447 00d2 7B68     		ldr	r3, [r7, #4]
 3448 00d4 1B68     		ldr	r3, [r3]
 3449 00d6 1433     		adds	r3, r3, #20
 3450 00d8 BA6D     		ldr	r2, [r7, #88]
 3451 00da BA61     		str	r2, [r7, #24]
 3452 00dc 7B61     		str	r3, [r7, #20]
 3453 00de 7969     		ldr	r1, [r7, #20]
 3454 00e0 BA69     		ldr	r2, [r7, #24]
 3455              		.syntax unified
 3456              	@ 1123 "Drivers/CMSIS/Include/cmsis_gcc.h" 1
 3457 00e2 41E80023 		strex r3, r2, [r1]
 3458              	@ 0 "" 2
 3459              		.thumb
 3460              		.syntax unified
 3461 00e6 3B61     		str	r3, [r7, #16]
 3462 00e8 3B69     		ldr	r3, [r7, #16]
 3463 00ea 002B     		cmp	r3, #0
 3464 00ec E5D1     		bne	.L270
 3465 00ee 7B68     		ldr	r3, [r7, #4]
 3466 00f0 9B6B     		ldr	r3, [r3, #56]
 3467 00f2 002B     		cmp	r3, #0
 3468 00f4 13D0     		beq	.L271
 3469 00f6 7B68     		ldr	r3, [r7, #4]
ARM GAS  C:\Users\user\AppData\Local\Temp\ccimlsD1.s 			page 61


 3470 00f8 9B6B     		ldr	r3, [r3, #56]
 3471 00fa 194A     		ldr	r2, .L274
 3472 00fc 1A65     		str	r2, [r3, #80]
 3473 00fe 7B68     		ldr	r3, [r7, #4]
 3474 0100 9B6B     		ldr	r3, [r3, #56]
 3475 0102 1846     		mov	r0, r3
 3476 0104 FFF7FEFF 		bl	HAL_DMA_Abort_IT
 3477 0108 0346     		mov	r3, r0
 3478 010a 002B     		cmp	r3, #0
 3479 010c 22D0     		beq	.L272
 3480 010e 7B68     		ldr	r3, [r7, #4]
 3481 0110 9B6B     		ldr	r3, [r3, #56]
 3482 0112 1B6D     		ldr	r3, [r3, #80]
 3483 0114 7A68     		ldr	r2, [r7, #4]
 3484 0116 926B     		ldr	r2, [r2, #56]
 3485 0118 1046     		mov	r0, r2
 3486 011a 9847     		blx	r3
 3487 011c 1AE0     		b	.L272
 3488              	.L271:
 3489 011e 7B68     		ldr	r3, [r7, #4]
 3490 0120 0022     		movs	r2, #0
 3491 0122 DA85     		strh	r2, [r3, #46]	@ movhi
 3492 0124 7B68     		ldr	r3, [r7, #4]
 3493 0126 2022     		movs	r2, #32
 3494 0128 83F83E20 		strb	r2, [r3, #62]
 3495 012c 7B68     		ldr	r3, [r7, #4]
 3496 012e 0022     		movs	r2, #0
 3497 0130 1A63     		str	r2, [r3, #48]
 3498 0132 7868     		ldr	r0, [r7, #4]
 3499 0134 FFF7FEFF 		bl	HAL_UART_AbortReceiveCpltCallback
 3500 0138 0CE0     		b	.L272
 3501              	.L267:
 3502 013a 7B68     		ldr	r3, [r7, #4]
 3503 013c 0022     		movs	r2, #0
 3504 013e DA85     		strh	r2, [r3, #46]	@ movhi
 3505 0140 7B68     		ldr	r3, [r7, #4]
 3506 0142 2022     		movs	r2, #32
 3507 0144 83F83E20 		strb	r2, [r3, #62]
 3508 0148 7B68     		ldr	r3, [r7, #4]
 3509 014a 0022     		movs	r2, #0
 3510 014c 1A63     		str	r2, [r3, #48]
 3511 014e 7868     		ldr	r0, [r7, #4]
 3512 0150 FFF7FEFF 		bl	HAL_UART_AbortReceiveCpltCallback
 3513              	.L272:
 3514 0154 0023     		movs	r3, #0
 3515 0156 1846     		mov	r0, r3
 3516 0158 6837     		adds	r7, r7, #104
 3517 015a BD46     		mov	sp, r7
 3518              		@ sp needed
 3519 015c 80BD     		pop	{r7, pc}
 3520              	.L275:
 3521 015e 00BF     		.align	2
 3522              	.L274:
 3523 0160 00000000 		.word	UART_DMARxOnlyAbortCallback
 3525              		.section	.text.HAL_UART_IRQHandler,"ax",%progbits
 3526              		.align	1
 3527              		.global	HAL_UART_IRQHandler
ARM GAS  C:\Users\user\AppData\Local\Temp\ccimlsD1.s 			page 62


 3528              		.syntax unified
 3529              		.thumb
 3530              		.thumb_func
 3532              	HAL_UART_IRQHandler:
 3533              		@ args = 0, pretend = 0, frame = 232
 3534              		@ frame_needed = 1, uses_anonymous_args = 0
 3535 0000 80B5     		push	{r7, lr}
 3536 0002 BAB0     		sub	sp, sp, #232
 3537 0004 00AF     		add	r7, sp, #0
 3538 0006 7860     		str	r0, [r7, #4]
 3539 0008 7B68     		ldr	r3, [r7, #4]
 3540 000a 1B68     		ldr	r3, [r3]
 3541 000c 1B68     		ldr	r3, [r3]
 3542 000e C7F8E430 		str	r3, [r7, #228]
 3543 0012 7B68     		ldr	r3, [r7, #4]
 3544 0014 1B68     		ldr	r3, [r3]
 3545 0016 DB68     		ldr	r3, [r3, #12]
 3546 0018 C7F8E030 		str	r3, [r7, #224]
 3547 001c 7B68     		ldr	r3, [r7, #4]
 3548 001e 1B68     		ldr	r3, [r3]
 3549 0020 5B69     		ldr	r3, [r3, #20]
 3550 0022 C7F8DC30 		str	r3, [r7, #220]
 3551 0026 0023     		movs	r3, #0
 3552 0028 C7F8D830 		str	r3, [r7, #216]
 3553 002c 0023     		movs	r3, #0
 3554 002e C7F8D430 		str	r3, [r7, #212]
 3555 0032 D7F8E430 		ldr	r3, [r7, #228]
 3556 0036 03F00F03 		and	r3, r3, #15
 3557 003a C7F8D830 		str	r3, [r7, #216]
 3558 003e D7F8D830 		ldr	r3, [r7, #216]
 3559 0042 002B     		cmp	r3, #0
 3560 0044 0FD1     		bne	.L277
 3561 0046 D7F8E430 		ldr	r3, [r7, #228]
 3562 004a 03F02003 		and	r3, r3, #32
 3563 004e 002B     		cmp	r3, #0
 3564 0050 09D0     		beq	.L277
 3565 0052 D7F8E030 		ldr	r3, [r7, #224]
 3566 0056 03F02003 		and	r3, r3, #32
 3567 005a 002B     		cmp	r3, #0
 3568 005c 03D0     		beq	.L277
 3569 005e 7868     		ldr	r0, [r7, #4]
 3570 0060 FFF7FEFF 		bl	UART_Receive_IT
 3571 0064 56E2     		b	.L276
 3572              	.L277:
 3573 0066 D7F8D830 		ldr	r3, [r7, #216]
 3574 006a 002B     		cmp	r3, #0
 3575 006c 00F0DE80 		beq	.L279
 3576 0070 D7F8DC30 		ldr	r3, [r7, #220]
 3577 0074 03F00103 		and	r3, r3, #1
 3578 0078 002B     		cmp	r3, #0
 3579 007a 06D1     		bne	.L280
 3580 007c D7F8E030 		ldr	r3, [r7, #224]
 3581 0080 03F49073 		and	r3, r3, #288
 3582 0084 002B     		cmp	r3, #0
 3583 0086 00F0D180 		beq	.L279
 3584              	.L280:
 3585 008a D7F8E430 		ldr	r3, [r7, #228]
ARM GAS  C:\Users\user\AppData\Local\Temp\ccimlsD1.s 			page 63


 3586 008e 03F00103 		and	r3, r3, #1
 3587 0092 002B     		cmp	r3, #0
 3588 0094 0BD0     		beq	.L281
 3589 0096 D7F8E030 		ldr	r3, [r7, #224]
 3590 009a 03F48073 		and	r3, r3, #256
 3591 009e 002B     		cmp	r3, #0
 3592 00a0 05D0     		beq	.L281
 3593 00a2 7B68     		ldr	r3, [r7, #4]
 3594 00a4 1B6C     		ldr	r3, [r3, #64]
 3595 00a6 43F00102 		orr	r2, r3, #1
 3596 00aa 7B68     		ldr	r3, [r7, #4]
 3597 00ac 1A64     		str	r2, [r3, #64]
 3598              	.L281:
 3599 00ae D7F8E430 		ldr	r3, [r7, #228]
 3600 00b2 03F00403 		and	r3, r3, #4
 3601 00b6 002B     		cmp	r3, #0
 3602 00b8 0BD0     		beq	.L282
 3603 00ba D7F8DC30 		ldr	r3, [r7, #220]
 3604 00be 03F00103 		and	r3, r3, #1
 3605 00c2 002B     		cmp	r3, #0
 3606 00c4 05D0     		beq	.L282
 3607 00c6 7B68     		ldr	r3, [r7, #4]
 3608 00c8 1B6C     		ldr	r3, [r3, #64]
 3609 00ca 43F00202 		orr	r2, r3, #2
 3610 00ce 7B68     		ldr	r3, [r7, #4]
 3611 00d0 1A64     		str	r2, [r3, #64]
 3612              	.L282:
 3613 00d2 D7F8E430 		ldr	r3, [r7, #228]
 3614 00d6 03F00203 		and	r3, r3, #2
 3615 00da 002B     		cmp	r3, #0
 3616 00dc 0BD0     		beq	.L283
 3617 00de D7F8DC30 		ldr	r3, [r7, #220]
 3618 00e2 03F00103 		and	r3, r3, #1
 3619 00e6 002B     		cmp	r3, #0
 3620 00e8 05D0     		beq	.L283
 3621 00ea 7B68     		ldr	r3, [r7, #4]
 3622 00ec 1B6C     		ldr	r3, [r3, #64]
 3623 00ee 43F00402 		orr	r2, r3, #4
 3624 00f2 7B68     		ldr	r3, [r7, #4]
 3625 00f4 1A64     		str	r2, [r3, #64]
 3626              	.L283:
 3627 00f6 D7F8E430 		ldr	r3, [r7, #228]
 3628 00fa 03F00803 		and	r3, r3, #8
 3629 00fe 002B     		cmp	r3, #0
 3630 0100 11D0     		beq	.L284
 3631 0102 D7F8E030 		ldr	r3, [r7, #224]
 3632 0106 03F02003 		and	r3, r3, #32
 3633 010a 002B     		cmp	r3, #0
 3634 010c 05D1     		bne	.L285
 3635 010e D7F8DC30 		ldr	r3, [r7, #220]
 3636 0112 03F00103 		and	r3, r3, #1
 3637 0116 002B     		cmp	r3, #0
 3638 0118 05D0     		beq	.L284
 3639              	.L285:
 3640 011a 7B68     		ldr	r3, [r7, #4]
 3641 011c 1B6C     		ldr	r3, [r3, #64]
 3642 011e 43F00802 		orr	r2, r3, #8
ARM GAS  C:\Users\user\AppData\Local\Temp\ccimlsD1.s 			page 64


 3643 0122 7B68     		ldr	r3, [r7, #4]
 3644 0124 1A64     		str	r2, [r3, #64]
 3645              	.L284:
 3646 0126 7B68     		ldr	r3, [r7, #4]
 3647 0128 1B6C     		ldr	r3, [r3, #64]
 3648 012a 002B     		cmp	r3, #0
 3649 012c 00F0ED81 		beq	.L323
 3650 0130 D7F8E430 		ldr	r3, [r7, #228]
 3651 0134 03F02003 		and	r3, r3, #32
 3652 0138 002B     		cmp	r3, #0
 3653 013a 08D0     		beq	.L287
 3654 013c D7F8E030 		ldr	r3, [r7, #224]
 3655 0140 03F02003 		and	r3, r3, #32
 3656 0144 002B     		cmp	r3, #0
 3657 0146 02D0     		beq	.L287
 3658 0148 7868     		ldr	r0, [r7, #4]
 3659 014a FFF7FEFF 		bl	UART_Receive_IT
 3660              	.L287:
 3661 014e 7B68     		ldr	r3, [r7, #4]
 3662 0150 1B68     		ldr	r3, [r3]
 3663 0152 5B69     		ldr	r3, [r3, #20]
 3664 0154 03F04003 		and	r3, r3, #64
 3665 0158 402B     		cmp	r3, #64
 3666 015a 0CBF     		ite	eq
 3667 015c 0123     		moveq	r3, #1
 3668 015e 0023     		movne	r3, #0
 3669 0160 DBB2     		uxtb	r3, r3
 3670 0162 C7F8D430 		str	r3, [r7, #212]
 3671 0166 7B68     		ldr	r3, [r7, #4]
 3672 0168 1B6C     		ldr	r3, [r3, #64]
 3673 016a 03F00803 		and	r3, r3, #8
 3674 016e 002B     		cmp	r3, #0
 3675 0170 03D1     		bne	.L288
 3676 0172 D7F8D430 		ldr	r3, [r7, #212]
 3677 0176 002B     		cmp	r3, #0
 3678 0178 4FD0     		beq	.L289
 3679              	.L288:
 3680 017a 7868     		ldr	r0, [r7, #4]
 3681 017c FFF7FEFF 		bl	UART_EndRxTransfer
 3682 0180 7B68     		ldr	r3, [r7, #4]
 3683 0182 1B68     		ldr	r3, [r3]
 3684 0184 5B69     		ldr	r3, [r3, #20]
 3685 0186 03F04003 		and	r3, r3, #64
 3686 018a 402B     		cmp	r3, #64
 3687 018c 41D1     		bne	.L290
 3688              	.L293:
 3689 018e 7B68     		ldr	r3, [r7, #4]
 3690 0190 1B68     		ldr	r3, [r3]
 3691 0192 1433     		adds	r3, r3, #20
 3692 0194 C7F89C30 		str	r3, [r7, #156]
 3693 0198 D7F89C30 		ldr	r3, [r7, #156]
 3694              		.syntax unified
 3695              	@ 1072 "Drivers/CMSIS/Include/cmsis_gcc.h" 1
 3696 019c 53E8003F 		ldrex r3, [r3]
 3697              	@ 0 "" 2
 3698              		.thumb
 3699              		.syntax unified
ARM GAS  C:\Users\user\AppData\Local\Temp\ccimlsD1.s 			page 65


 3700 01a0 C7F89830 		str	r3, [r7, #152]
 3701 01a4 D7F89830 		ldr	r3, [r7, #152]
 3702 01a8 23F04003 		bic	r3, r3, #64
 3703 01ac C7F8D030 		str	r3, [r7, #208]
 3704 01b0 7B68     		ldr	r3, [r7, #4]
 3705 01b2 1B68     		ldr	r3, [r3]
 3706 01b4 1433     		adds	r3, r3, #20
 3707 01b6 D7F8D020 		ldr	r2, [r7, #208]
 3708 01ba C7F8A820 		str	r2, [r7, #168]
 3709 01be C7F8A430 		str	r3, [r7, #164]
 3710 01c2 D7F8A410 		ldr	r1, [r7, #164]
 3711 01c6 D7F8A820 		ldr	r2, [r7, #168]
 3712              		.syntax unified
 3713              	@ 1123 "Drivers/CMSIS/Include/cmsis_gcc.h" 1
 3714 01ca 41E80023 		strex r3, r2, [r1]
 3715              	@ 0 "" 2
 3716              		.thumb
 3717              		.syntax unified
 3718 01ce C7F8A030 		str	r3, [r7, #160]
 3719 01d2 D7F8A030 		ldr	r3, [r7, #160]
 3720 01d6 002B     		cmp	r3, #0
 3721 01d8 D9D1     		bne	.L293
 3722 01da 7B68     		ldr	r3, [r7, #4]
 3723 01dc 9B6B     		ldr	r3, [r3, #56]
 3724 01de 002B     		cmp	r3, #0
 3725 01e0 13D0     		beq	.L294
 3726 01e2 7B68     		ldr	r3, [r7, #4]
 3727 01e4 9B6B     		ldr	r3, [r3, #56]
 3728 01e6 7D4A     		ldr	r2, .L327
 3729 01e8 1A65     		str	r2, [r3, #80]
 3730 01ea 7B68     		ldr	r3, [r7, #4]
 3731 01ec 9B6B     		ldr	r3, [r3, #56]
 3732 01ee 1846     		mov	r0, r3
 3733 01f0 FFF7FEFF 		bl	HAL_DMA_Abort_IT
 3734 01f4 0346     		mov	r3, r0
 3735 01f6 002B     		cmp	r3, #0
 3736 01f8 16D0     		beq	.L324
 3737 01fa 7B68     		ldr	r3, [r7, #4]
 3738 01fc 9B6B     		ldr	r3, [r3, #56]
 3739 01fe 1B6D     		ldr	r3, [r3, #80]
 3740 0200 7A68     		ldr	r2, [r7, #4]
 3741 0202 926B     		ldr	r2, [r2, #56]
 3742 0204 1046     		mov	r0, r2
 3743 0206 9847     		blx	r3
 3744 0208 0EE0     		b	.L324
 3745              	.L294:
 3746 020a 7868     		ldr	r0, [r7, #4]
 3747 020c FFF7FEFF 		bl	HAL_UART_ErrorCallback
 3748 0210 0AE0     		b	.L324
 3749              	.L290:
 3750 0212 7868     		ldr	r0, [r7, #4]
 3751 0214 FFF7FEFF 		bl	HAL_UART_ErrorCallback
 3752 0218 06E0     		b	.L324
 3753              	.L289:
 3754 021a 7868     		ldr	r0, [r7, #4]
 3755 021c FFF7FEFF 		bl	HAL_UART_ErrorCallback
 3756 0220 7B68     		ldr	r3, [r7, #4]
ARM GAS  C:\Users\user\AppData\Local\Temp\ccimlsD1.s 			page 66


 3757 0222 0022     		movs	r2, #0
 3758 0224 1A64     		str	r2, [r3, #64]
 3759 0226 70E1     		b	.L323
 3760              	.L324:
 3761 0228 00BF     		nop
 3762 022a 6EE1     		b	.L323
 3763              	.L279:
 3764 022c 7B68     		ldr	r3, [r7, #4]
 3765 022e 1B6B     		ldr	r3, [r3, #48]
 3766 0230 012B     		cmp	r3, #1
 3767 0232 40F04A81 		bne	.L296
 3768 0236 D7F8E430 		ldr	r3, [r7, #228]
 3769 023a 03F01003 		and	r3, r3, #16
 3770 023e 002B     		cmp	r3, #0
 3771 0240 00F04381 		beq	.L296
 3772 0244 D7F8E030 		ldr	r3, [r7, #224]
 3773 0248 03F01003 		and	r3, r3, #16
 3774 024c 002B     		cmp	r3, #0
 3775 024e 00F03C81 		beq	.L296
 3776 0252 0023     		movs	r3, #0
 3777 0254 BB60     		str	r3, [r7, #8]
 3778 0256 7B68     		ldr	r3, [r7, #4]
 3779 0258 1B68     		ldr	r3, [r3]
 3780 025a 1B68     		ldr	r3, [r3]
 3781 025c BB60     		str	r3, [r7, #8]
 3782 025e 7B68     		ldr	r3, [r7, #4]
 3783 0260 1B68     		ldr	r3, [r3]
 3784 0262 5B68     		ldr	r3, [r3, #4]
 3785 0264 BB60     		str	r3, [r7, #8]
 3786 0266 BB68     		ldr	r3, [r7, #8]
 3787 0268 7B68     		ldr	r3, [r7, #4]
 3788 026a 1B68     		ldr	r3, [r3]
 3789 026c 5B69     		ldr	r3, [r3, #20]
 3790 026e 03F04003 		and	r3, r3, #64
 3791 0272 402B     		cmp	r3, #64
 3792 0274 40F0B480 		bne	.L297
 3793 0278 7B68     		ldr	r3, [r7, #4]
 3794 027a 9B6B     		ldr	r3, [r3, #56]
 3795 027c 1B68     		ldr	r3, [r3]
 3796 027e 5B68     		ldr	r3, [r3, #4]
 3797 0280 A7F8BE30 		strh	r3, [r7, #190]	@ movhi
 3798 0284 B7F8BE30 		ldrh	r3, [r7, #190]
 3799 0288 002B     		cmp	r3, #0
 3800 028a 00F04081 		beq	.L325
 3801 028e 7B68     		ldr	r3, [r7, #4]
 3802 0290 9B8D     		ldrh	r3, [r3, #44]
 3803 0292 B7F8BE20 		ldrh	r2, [r7, #190]
 3804 0296 9A42     		cmp	r2, r3
 3805 0298 80F03981 		bcs	.L325
 3806 029c 7B68     		ldr	r3, [r7, #4]
 3807 029e B7F8BE20 		ldrh	r2, [r7, #190]	@ movhi
 3808 02a2 DA85     		strh	r2, [r3, #46]	@ movhi
 3809 02a4 7B68     		ldr	r3, [r7, #4]
 3810 02a6 9B6B     		ldr	r3, [r3, #56]
 3811 02a8 DB69     		ldr	r3, [r3, #28]
 3812 02aa B3F5807F 		cmp	r3, #256
 3813 02ae 00F08880 		beq	.L299
ARM GAS  C:\Users\user\AppData\Local\Temp\ccimlsD1.s 			page 67


 3814              	.L302:
 3815 02b2 7B68     		ldr	r3, [r7, #4]
 3816 02b4 1B68     		ldr	r3, [r3]
 3817 02b6 0C33     		adds	r3, r3, #12
 3818 02b8 C7F88830 		str	r3, [r7, #136]
 3819 02bc D7F88830 		ldr	r3, [r7, #136]
 3820              		.syntax unified
 3821              	@ 1072 "Drivers/CMSIS/Include/cmsis_gcc.h" 1
 3822 02c0 53E8003F 		ldrex r3, [r3]
 3823              	@ 0 "" 2
 3824              		.thumb
 3825              		.syntax unified
 3826 02c4 C7F88430 		str	r3, [r7, #132]
 3827 02c8 D7F88430 		ldr	r3, [r7, #132]
 3828 02cc 23F48073 		bic	r3, r3, #256
 3829 02d0 C7F8B830 		str	r3, [r7, #184]
 3830 02d4 7B68     		ldr	r3, [r7, #4]
 3831 02d6 1B68     		ldr	r3, [r3]
 3832 02d8 0C33     		adds	r3, r3, #12
 3833 02da D7F8B820 		ldr	r2, [r7, #184]
 3834 02de C7F89420 		str	r2, [r7, #148]
 3835 02e2 C7F89030 		str	r3, [r7, #144]
 3836 02e6 D7F89010 		ldr	r1, [r7, #144]
 3837 02ea D7F89420 		ldr	r2, [r7, #148]
 3838              		.syntax unified
 3839              	@ 1123 "Drivers/CMSIS/Include/cmsis_gcc.h" 1
 3840 02ee 41E80023 		strex r3, r2, [r1]
 3841              	@ 0 "" 2
 3842              		.thumb
 3843              		.syntax unified
 3844 02f2 C7F88C30 		str	r3, [r7, #140]
 3845 02f6 D7F88C30 		ldr	r3, [r7, #140]
 3846 02fa 002B     		cmp	r3, #0
 3847 02fc D9D1     		bne	.L302
 3848              	.L305:
 3849 02fe 7B68     		ldr	r3, [r7, #4]
 3850 0300 1B68     		ldr	r3, [r3]
 3851 0302 1433     		adds	r3, r3, #20
 3852 0304 7B67     		str	r3, [r7, #116]
 3853 0306 7B6F     		ldr	r3, [r7, #116]
 3854              		.syntax unified
 3855              	@ 1072 "Drivers/CMSIS/Include/cmsis_gcc.h" 1
 3856 0308 53E8003F 		ldrex r3, [r3]
 3857              	@ 0 "" 2
 3858              		.thumb
 3859              		.syntax unified
 3860 030c 3B67     		str	r3, [r7, #112]
 3861 030e 3B6F     		ldr	r3, [r7, #112]
 3862 0310 23F00103 		bic	r3, r3, #1
 3863 0314 C7F8B430 		str	r3, [r7, #180]
 3864 0318 7B68     		ldr	r3, [r7, #4]
 3865 031a 1B68     		ldr	r3, [r3]
 3866 031c 1433     		adds	r3, r3, #20
 3867 031e D7F8B420 		ldr	r2, [r7, #180]
 3868 0322 C7F88020 		str	r2, [r7, #128]
 3869 0326 FB67     		str	r3, [r7, #124]
 3870 0328 F96F     		ldr	r1, [r7, #124]
ARM GAS  C:\Users\user\AppData\Local\Temp\ccimlsD1.s 			page 68


 3871 032a D7F88020 		ldr	r2, [r7, #128]
 3872              		.syntax unified
 3873              	@ 1123 "Drivers/CMSIS/Include/cmsis_gcc.h" 1
 3874 032e 41E80023 		strex r3, r2, [r1]
 3875              	@ 0 "" 2
 3876              		.thumb
 3877              		.syntax unified
 3878 0332 BB67     		str	r3, [r7, #120]
 3879 0334 BB6F     		ldr	r3, [r7, #120]
 3880 0336 002B     		cmp	r3, #0
 3881 0338 E1D1     		bne	.L305
 3882              	.L308:
 3883 033a 7B68     		ldr	r3, [r7, #4]
 3884 033c 1B68     		ldr	r3, [r3]
 3885 033e 1433     		adds	r3, r3, #20
 3886 0340 3B66     		str	r3, [r7, #96]
 3887 0342 3B6E     		ldr	r3, [r7, #96]
 3888              		.syntax unified
 3889              	@ 1072 "Drivers/CMSIS/Include/cmsis_gcc.h" 1
 3890 0344 53E8003F 		ldrex r3, [r3]
 3891              	@ 0 "" 2
 3892              		.thumb
 3893              		.syntax unified
 3894 0348 FB65     		str	r3, [r7, #92]
 3895 034a FB6D     		ldr	r3, [r7, #92]
 3896 034c 23F04003 		bic	r3, r3, #64
 3897 0350 C7F8B030 		str	r3, [r7, #176]
 3898 0354 7B68     		ldr	r3, [r7, #4]
 3899 0356 1B68     		ldr	r3, [r3]
 3900 0358 1433     		adds	r3, r3, #20
 3901 035a D7F8B020 		ldr	r2, [r7, #176]
 3902 035e FA66     		str	r2, [r7, #108]
 3903 0360 BB66     		str	r3, [r7, #104]
 3904 0362 B96E     		ldr	r1, [r7, #104]
 3905 0364 FA6E     		ldr	r2, [r7, #108]
 3906              		.syntax unified
 3907              	@ 1123 "Drivers/CMSIS/Include/cmsis_gcc.h" 1
 3908 0366 41E80023 		strex r3, r2, [r1]
 3909              	@ 0 "" 2
 3910              		.thumb
 3911              		.syntax unified
 3912 036a 7B66     		str	r3, [r7, #100]
 3913 036c 7B6E     		ldr	r3, [r7, #100]
 3914 036e 002B     		cmp	r3, #0
 3915 0370 E3D1     		bne	.L308
 3916 0372 7B68     		ldr	r3, [r7, #4]
 3917 0374 2022     		movs	r2, #32
 3918 0376 83F83E20 		strb	r2, [r3, #62]
 3919 037a 7B68     		ldr	r3, [r7, #4]
 3920 037c 0022     		movs	r2, #0
 3921 037e 1A63     		str	r2, [r3, #48]
 3922              	.L311:
 3923 0380 7B68     		ldr	r3, [r7, #4]
 3924 0382 1B68     		ldr	r3, [r3]
 3925 0384 0C33     		adds	r3, r3, #12
 3926 0386 FB64     		str	r3, [r7, #76]
 3927 0388 FB6C     		ldr	r3, [r7, #76]
ARM GAS  C:\Users\user\AppData\Local\Temp\ccimlsD1.s 			page 69


 3928              		.syntax unified
 3929              	@ 1072 "Drivers/CMSIS/Include/cmsis_gcc.h" 1
 3930 038a 53E8003F 		ldrex r3, [r3]
 3931              	@ 0 "" 2
 3932              		.thumb
 3933              		.syntax unified
 3934 038e BB64     		str	r3, [r7, #72]
 3935 0390 BB6C     		ldr	r3, [r7, #72]
 3936 0392 23F01003 		bic	r3, r3, #16
 3937 0396 C7F8AC30 		str	r3, [r7, #172]
 3938 039a 7B68     		ldr	r3, [r7, #4]
 3939 039c 1B68     		ldr	r3, [r3]
 3940 039e 0C33     		adds	r3, r3, #12
 3941 03a0 D7F8AC20 		ldr	r2, [r7, #172]
 3942 03a4 BA65     		str	r2, [r7, #88]
 3943 03a6 7B65     		str	r3, [r7, #84]
 3944 03a8 796D     		ldr	r1, [r7, #84]
 3945 03aa BA6D     		ldr	r2, [r7, #88]
 3946              		.syntax unified
 3947              	@ 1123 "Drivers/CMSIS/Include/cmsis_gcc.h" 1
 3948 03ac 41E80023 		strex r3, r2, [r1]
 3949              	@ 0 "" 2
 3950              		.thumb
 3951              		.syntax unified
 3952 03b0 3B65     		str	r3, [r7, #80]
 3953 03b2 3B6D     		ldr	r3, [r7, #80]
 3954 03b4 002B     		cmp	r3, #0
 3955 03b6 E3D1     		bne	.L311
 3956 03b8 7B68     		ldr	r3, [r7, #4]
 3957 03ba 9B6B     		ldr	r3, [r3, #56]
 3958 03bc 1846     		mov	r0, r3
 3959 03be FFF7FEFF 		bl	HAL_DMA_Abort
 3960              	.L299:
 3961 03c2 7B68     		ldr	r3, [r7, #4]
 3962 03c4 9A8D     		ldrh	r2, [r3, #44]
 3963 03c6 7B68     		ldr	r3, [r7, #4]
 3964 03c8 DB8D     		ldrh	r3, [r3, #46]	@ movhi
 3965 03ca 9BB2     		uxth	r3, r3
 3966 03cc D31A     		subs	r3, r2, r3
 3967 03ce 9BB2     		uxth	r3, r3
 3968 03d0 1946     		mov	r1, r3
 3969 03d2 7868     		ldr	r0, [r7, #4]
 3970 03d4 FFF7FEFF 		bl	HAL_UARTEx_RxEventCallback
 3971 03d8 99E0     		b	.L325
 3972              	.L328:
 3973 03da 00BF     		.align	2
 3974              	.L327:
 3975 03dc 00000000 		.word	UART_DMAAbortOnError
 3976              	.L297:
 3977 03e0 7B68     		ldr	r3, [r7, #4]
 3978 03e2 9A8D     		ldrh	r2, [r3, #44]
 3979 03e4 7B68     		ldr	r3, [r7, #4]
 3980 03e6 DB8D     		ldrh	r3, [r3, #46]	@ movhi
 3981 03e8 9BB2     		uxth	r3, r3
 3982 03ea D31A     		subs	r3, r2, r3
 3983 03ec A7F8CE30 		strh	r3, [r7, #206]	@ movhi
 3984 03f0 7B68     		ldr	r3, [r7, #4]
ARM GAS  C:\Users\user\AppData\Local\Temp\ccimlsD1.s 			page 70


 3985 03f2 DB8D     		ldrh	r3, [r3, #46]	@ movhi
 3986 03f4 9BB2     		uxth	r3, r3
 3987 03f6 002B     		cmp	r3, #0
 3988 03f8 00F08B80 		beq	.L326
 3989 03fc B7F8CE30 		ldrh	r3, [r7, #206]
 3990 0400 002B     		cmp	r3, #0
 3991 0402 00F08680 		beq	.L326
 3992              	.L315:
 3993 0406 7B68     		ldr	r3, [r7, #4]
 3994 0408 1B68     		ldr	r3, [r3]
 3995 040a 0C33     		adds	r3, r3, #12
 3996 040c BB63     		str	r3, [r7, #56]
 3997 040e BB6B     		ldr	r3, [r7, #56]
 3998              		.syntax unified
 3999              	@ 1072 "Drivers/CMSIS/Include/cmsis_gcc.h" 1
 4000 0410 53E8003F 		ldrex r3, [r3]
 4001              	@ 0 "" 2
 4002              		.thumb
 4003              		.syntax unified
 4004 0414 7B63     		str	r3, [r7, #52]
 4005 0416 7B6B     		ldr	r3, [r7, #52]
 4006 0418 23F49073 		bic	r3, r3, #288
 4007 041c C7F8C830 		str	r3, [r7, #200]
 4008 0420 7B68     		ldr	r3, [r7, #4]
 4009 0422 1B68     		ldr	r3, [r3]
 4010 0424 0C33     		adds	r3, r3, #12
 4011 0426 D7F8C820 		ldr	r2, [r7, #200]
 4012 042a 7A64     		str	r2, [r7, #68]
 4013 042c 3B64     		str	r3, [r7, #64]
 4014 042e 396C     		ldr	r1, [r7, #64]
 4015 0430 7A6C     		ldr	r2, [r7, #68]
 4016              		.syntax unified
 4017              	@ 1123 "Drivers/CMSIS/Include/cmsis_gcc.h" 1
 4018 0432 41E80023 		strex r3, r2, [r1]
 4019              	@ 0 "" 2
 4020              		.thumb
 4021              		.syntax unified
 4022 0436 FB63     		str	r3, [r7, #60]
 4023 0438 FB6B     		ldr	r3, [r7, #60]
 4024 043a 002B     		cmp	r3, #0
 4025 043c E3D1     		bne	.L315
 4026              	.L318:
 4027 043e 7B68     		ldr	r3, [r7, #4]
 4028 0440 1B68     		ldr	r3, [r3]
 4029 0442 1433     		adds	r3, r3, #20
 4030 0444 7B62     		str	r3, [r7, #36]
 4031 0446 7B6A     		ldr	r3, [r7, #36]
 4032              		.syntax unified
 4033              	@ 1072 "Drivers/CMSIS/Include/cmsis_gcc.h" 1
 4034 0448 53E8003F 		ldrex r3, [r3]
 4035              	@ 0 "" 2
 4036              		.thumb
 4037              		.syntax unified
 4038 044c 3B62     		str	r3, [r7, #32]
 4039 044e 3B6A     		ldr	r3, [r7, #32]
 4040 0450 23F00103 		bic	r3, r3, #1
 4041 0454 C7F8C430 		str	r3, [r7, #196]
ARM GAS  C:\Users\user\AppData\Local\Temp\ccimlsD1.s 			page 71


 4042 0458 7B68     		ldr	r3, [r7, #4]
 4043 045a 1B68     		ldr	r3, [r3]
 4044 045c 1433     		adds	r3, r3, #20
 4045 045e D7F8C420 		ldr	r2, [r7, #196]
 4046 0462 3A63     		str	r2, [r7, #48]
 4047 0464 FB62     		str	r3, [r7, #44]
 4048 0466 F96A     		ldr	r1, [r7, #44]
 4049 0468 3A6B     		ldr	r2, [r7, #48]
 4050              		.syntax unified
 4051              	@ 1123 "Drivers/CMSIS/Include/cmsis_gcc.h" 1
 4052 046a 41E80023 		strex r3, r2, [r1]
 4053              	@ 0 "" 2
 4054              		.thumb
 4055              		.syntax unified
 4056 046e BB62     		str	r3, [r7, #40]
 4057 0470 BB6A     		ldr	r3, [r7, #40]
 4058 0472 002B     		cmp	r3, #0
 4059 0474 E3D1     		bne	.L318
 4060 0476 7B68     		ldr	r3, [r7, #4]
 4061 0478 2022     		movs	r2, #32
 4062 047a 83F83E20 		strb	r2, [r3, #62]
 4063 047e 7B68     		ldr	r3, [r7, #4]
 4064 0480 0022     		movs	r2, #0
 4065 0482 1A63     		str	r2, [r3, #48]
 4066              	.L321:
 4067 0484 7B68     		ldr	r3, [r7, #4]
 4068 0486 1B68     		ldr	r3, [r3]
 4069 0488 0C33     		adds	r3, r3, #12
 4070 048a 3B61     		str	r3, [r7, #16]
 4071 048c 3B69     		ldr	r3, [r7, #16]
 4072              		.syntax unified
 4073              	@ 1072 "Drivers/CMSIS/Include/cmsis_gcc.h" 1
 4074 048e 53E8003F 		ldrex r3, [r3]
 4075              	@ 0 "" 2
 4076              		.thumb
 4077              		.syntax unified
 4078 0492 FB60     		str	r3, [r7, #12]
 4079 0494 FB68     		ldr	r3, [r7, #12]
 4080 0496 23F01003 		bic	r3, r3, #16
 4081 049a C7F8C030 		str	r3, [r7, #192]
 4082 049e 7B68     		ldr	r3, [r7, #4]
 4083 04a0 1B68     		ldr	r3, [r3]
 4084 04a2 0C33     		adds	r3, r3, #12
 4085 04a4 D7F8C020 		ldr	r2, [r7, #192]
 4086 04a8 FA61     		str	r2, [r7, #28]
 4087 04aa BB61     		str	r3, [r7, #24]
 4088 04ac B969     		ldr	r1, [r7, #24]
 4089 04ae FA69     		ldr	r2, [r7, #28]
 4090              		.syntax unified
 4091              	@ 1123 "Drivers/CMSIS/Include/cmsis_gcc.h" 1
 4092 04b0 41E80023 		strex r3, r2, [r1]
 4093              	@ 0 "" 2
 4094              		.thumb
 4095              		.syntax unified
 4096 04b4 7B61     		str	r3, [r7, #20]
 4097 04b6 7B69     		ldr	r3, [r7, #20]
 4098 04b8 002B     		cmp	r3, #0
ARM GAS  C:\Users\user\AppData\Local\Temp\ccimlsD1.s 			page 72


 4099 04ba E3D1     		bne	.L321
 4100 04bc B7F8CE30 		ldrh	r3, [r7, #206]
 4101 04c0 1946     		mov	r1, r3
 4102 04c2 7868     		ldr	r0, [r7, #4]
 4103 04c4 FFF7FEFF 		bl	HAL_UARTEx_RxEventCallback
 4104 04c8 23E0     		b	.L326
 4105              	.L296:
 4106 04ca D7F8E430 		ldr	r3, [r7, #228]
 4107 04ce 03F08003 		and	r3, r3, #128
 4108 04d2 002B     		cmp	r3, #0
 4109 04d4 09D0     		beq	.L322
 4110 04d6 D7F8E030 		ldr	r3, [r7, #224]
 4111 04da 03F08003 		and	r3, r3, #128
 4112 04de 002B     		cmp	r3, #0
 4113 04e0 03D0     		beq	.L322
 4114 04e2 7868     		ldr	r0, [r7, #4]
 4115 04e4 FFF7FEFF 		bl	UART_Transmit_IT
 4116 04e8 14E0     		b	.L276
 4117              	.L322:
 4118 04ea D7F8E430 		ldr	r3, [r7, #228]
 4119 04ee 03F04003 		and	r3, r3, #64
 4120 04f2 002B     		cmp	r3, #0
 4121 04f4 0ED0     		beq	.L276
 4122 04f6 D7F8E030 		ldr	r3, [r7, #224]
 4123 04fa 03F04003 		and	r3, r3, #64
 4124 04fe 002B     		cmp	r3, #0
 4125 0500 08D0     		beq	.L276
 4126 0502 7868     		ldr	r0, [r7, #4]
 4127 0504 FFF7FEFF 		bl	UART_EndTransmit_IT
 4128 0508 04E0     		b	.L276
 4129              	.L323:
 4130 050a 00BF     		nop
 4131 050c 02E0     		b	.L276
 4132              	.L325:
 4133 050e 00BF     		nop
 4134 0510 00E0     		b	.L276
 4135              	.L326:
 4136 0512 00BF     		nop
 4137              	.L276:
 4138 0514 E837     		adds	r7, r7, #232
 4139 0516 BD46     		mov	sp, r7
 4140              		@ sp needed
 4141 0518 80BD     		pop	{r7, pc}
 4143 051a 00BF     		.section	.text.HAL_UART_TxCpltCallback,"ax",%progbits
 4144              		.align	1
 4145              		.weak	HAL_UART_TxCpltCallback
 4146              		.syntax unified
 4147              		.thumb
 4148              		.thumb_func
 4150              	HAL_UART_TxCpltCallback:
 4151              		@ args = 0, pretend = 0, frame = 8
 4152              		@ frame_needed = 1, uses_anonymous_args = 0
 4153              		@ link register save eliminated.
 4154 0000 80B4     		push	{r7}
 4155 0002 83B0     		sub	sp, sp, #12
 4156 0004 00AF     		add	r7, sp, #0
 4157 0006 7860     		str	r0, [r7, #4]
ARM GAS  C:\Users\user\AppData\Local\Temp\ccimlsD1.s 			page 73


 4158 0008 00BF     		nop
 4159 000a 0C37     		adds	r7, r7, #12
 4160 000c BD46     		mov	sp, r7
 4161              		@ sp needed
 4162 000e 5DF8047B 		ldr	r7, [sp], #4
 4163 0012 7047     		bx	lr
 4165              		.section	.text.HAL_UART_TxHalfCpltCallback,"ax",%progbits
 4166              		.align	1
 4167              		.weak	HAL_UART_TxHalfCpltCallback
 4168              		.syntax unified
 4169              		.thumb
 4170              		.thumb_func
 4172              	HAL_UART_TxHalfCpltCallback:
 4173              		@ args = 0, pretend = 0, frame = 8
 4174              		@ frame_needed = 1, uses_anonymous_args = 0
 4175              		@ link register save eliminated.
 4176 0000 80B4     		push	{r7}
 4177 0002 83B0     		sub	sp, sp, #12
 4178 0004 00AF     		add	r7, sp, #0
 4179 0006 7860     		str	r0, [r7, #4]
 4180 0008 00BF     		nop
 4181 000a 0C37     		adds	r7, r7, #12
 4182 000c BD46     		mov	sp, r7
 4183              		@ sp needed
 4184 000e 5DF8047B 		ldr	r7, [sp], #4
 4185 0012 7047     		bx	lr
 4187              		.section	.text.HAL_UART_RxCpltCallback,"ax",%progbits
 4188              		.align	1
 4189              		.weak	HAL_UART_RxCpltCallback
 4190              		.syntax unified
 4191              		.thumb
 4192              		.thumb_func
 4194              	HAL_UART_RxCpltCallback:
 4195              		@ args = 0, pretend = 0, frame = 8
 4196              		@ frame_needed = 1, uses_anonymous_args = 0
 4197              		@ link register save eliminated.
 4198 0000 80B4     		push	{r7}
 4199 0002 83B0     		sub	sp, sp, #12
 4200 0004 00AF     		add	r7, sp, #0
 4201 0006 7860     		str	r0, [r7, #4]
 4202 0008 00BF     		nop
 4203 000a 0C37     		adds	r7, r7, #12
 4204 000c BD46     		mov	sp, r7
 4205              		@ sp needed
 4206 000e 5DF8047B 		ldr	r7, [sp], #4
 4207 0012 7047     		bx	lr
 4209              		.section	.text.HAL_UART_RxHalfCpltCallback,"ax",%progbits
 4210              		.align	1
 4211              		.weak	HAL_UART_RxHalfCpltCallback
 4212              		.syntax unified
 4213              		.thumb
 4214              		.thumb_func
 4216              	HAL_UART_RxHalfCpltCallback:
 4217              		@ args = 0, pretend = 0, frame = 8
 4218              		@ frame_needed = 1, uses_anonymous_args = 0
 4219              		@ link register save eliminated.
 4220 0000 80B4     		push	{r7}
ARM GAS  C:\Users\user\AppData\Local\Temp\ccimlsD1.s 			page 74


 4221 0002 83B0     		sub	sp, sp, #12
 4222 0004 00AF     		add	r7, sp, #0
 4223 0006 7860     		str	r0, [r7, #4]
 4224 0008 00BF     		nop
 4225 000a 0C37     		adds	r7, r7, #12
 4226 000c BD46     		mov	sp, r7
 4227              		@ sp needed
 4228 000e 5DF8047B 		ldr	r7, [sp], #4
 4229 0012 7047     		bx	lr
 4231              		.section	.text.HAL_UART_ErrorCallback,"ax",%progbits
 4232              		.align	1
 4233              		.weak	HAL_UART_ErrorCallback
 4234              		.syntax unified
 4235              		.thumb
 4236              		.thumb_func
 4238              	HAL_UART_ErrorCallback:
 4239              		@ args = 0, pretend = 0, frame = 8
 4240              		@ frame_needed = 1, uses_anonymous_args = 0
 4241              		@ link register save eliminated.
 4242 0000 80B4     		push	{r7}
 4243 0002 83B0     		sub	sp, sp, #12
 4244 0004 00AF     		add	r7, sp, #0
 4245 0006 7860     		str	r0, [r7, #4]
 4246 0008 00BF     		nop
 4247 000a 0C37     		adds	r7, r7, #12
 4248 000c BD46     		mov	sp, r7
 4249              		@ sp needed
 4250 000e 5DF8047B 		ldr	r7, [sp], #4
 4251 0012 7047     		bx	lr
 4253              		.section	.text.HAL_UART_AbortCpltCallback,"ax",%progbits
 4254              		.align	1
 4255              		.weak	HAL_UART_AbortCpltCallback
 4256              		.syntax unified
 4257              		.thumb
 4258              		.thumb_func
 4260              	HAL_UART_AbortCpltCallback:
 4261              		@ args = 0, pretend = 0, frame = 8
 4262              		@ frame_needed = 1, uses_anonymous_args = 0
 4263              		@ link register save eliminated.
 4264 0000 80B4     		push	{r7}
 4265 0002 83B0     		sub	sp, sp, #12
 4266 0004 00AF     		add	r7, sp, #0
 4267 0006 7860     		str	r0, [r7, #4]
 4268 0008 00BF     		nop
 4269 000a 0C37     		adds	r7, r7, #12
 4270 000c BD46     		mov	sp, r7
 4271              		@ sp needed
 4272 000e 5DF8047B 		ldr	r7, [sp], #4
 4273 0012 7047     		bx	lr
 4275              		.section	.text.HAL_UART_AbortTransmitCpltCallback,"ax",%progbits
 4276              		.align	1
 4277              		.weak	HAL_UART_AbortTransmitCpltCallback
 4278              		.syntax unified
 4279              		.thumb
 4280              		.thumb_func
 4282              	HAL_UART_AbortTransmitCpltCallback:
 4283              		@ args = 0, pretend = 0, frame = 8
ARM GAS  C:\Users\user\AppData\Local\Temp\ccimlsD1.s 			page 75


 4284              		@ frame_needed = 1, uses_anonymous_args = 0
 4285              		@ link register save eliminated.
 4286 0000 80B4     		push	{r7}
 4287 0002 83B0     		sub	sp, sp, #12
 4288 0004 00AF     		add	r7, sp, #0
 4289 0006 7860     		str	r0, [r7, #4]
 4290 0008 00BF     		nop
 4291 000a 0C37     		adds	r7, r7, #12
 4292 000c BD46     		mov	sp, r7
 4293              		@ sp needed
 4294 000e 5DF8047B 		ldr	r7, [sp], #4
 4295 0012 7047     		bx	lr
 4297              		.section	.text.HAL_UART_AbortReceiveCpltCallback,"ax",%progbits
 4298              		.align	1
 4299              		.weak	HAL_UART_AbortReceiveCpltCallback
 4300              		.syntax unified
 4301              		.thumb
 4302              		.thumb_func
 4304              	HAL_UART_AbortReceiveCpltCallback:
 4305              		@ args = 0, pretend = 0, frame = 8
 4306              		@ frame_needed = 1, uses_anonymous_args = 0
 4307              		@ link register save eliminated.
 4308 0000 80B4     		push	{r7}
 4309 0002 83B0     		sub	sp, sp, #12
 4310 0004 00AF     		add	r7, sp, #0
 4311 0006 7860     		str	r0, [r7, #4]
 4312 0008 00BF     		nop
 4313 000a 0C37     		adds	r7, r7, #12
 4314 000c BD46     		mov	sp, r7
 4315              		@ sp needed
 4316 000e 5DF8047B 		ldr	r7, [sp], #4
 4317 0012 7047     		bx	lr
 4319              		.section	.text.HAL_UARTEx_RxEventCallback,"ax",%progbits
 4320              		.align	1
 4321              		.weak	HAL_UARTEx_RxEventCallback
 4322              		.syntax unified
 4323              		.thumb
 4324              		.thumb_func
 4326              	HAL_UARTEx_RxEventCallback:
 4327              		@ args = 0, pretend = 0, frame = 8
 4328              		@ frame_needed = 1, uses_anonymous_args = 0
 4329              		@ link register save eliminated.
 4330 0000 80B4     		push	{r7}
 4331 0002 83B0     		sub	sp, sp, #12
 4332 0004 00AF     		add	r7, sp, #0
 4333 0006 7860     		str	r0, [r7, #4]
 4334 0008 0B46     		mov	r3, r1
 4335 000a 7B80     		strh	r3, [r7, #2]	@ movhi
 4336 000c 00BF     		nop
 4337 000e 0C37     		adds	r7, r7, #12
 4338 0010 BD46     		mov	sp, r7
 4339              		@ sp needed
 4340 0012 5DF8047B 		ldr	r7, [sp], #4
 4341 0016 7047     		bx	lr
 4343              		.section	.text.HAL_LIN_SendBreak,"ax",%progbits
 4344              		.align	1
 4345              		.global	HAL_LIN_SendBreak
ARM GAS  C:\Users\user\AppData\Local\Temp\ccimlsD1.s 			page 76


 4346              		.syntax unified
 4347              		.thumb
 4348              		.thumb_func
 4350              	HAL_LIN_SendBreak:
 4351              		@ args = 0, pretend = 0, frame = 32
 4352              		@ frame_needed = 1, uses_anonymous_args = 0
 4353              		@ link register save eliminated.
 4354 0000 80B4     		push	{r7}
 4355 0002 89B0     		sub	sp, sp, #36
 4356 0004 00AF     		add	r7, sp, #0
 4357 0006 7860     		str	r0, [r7, #4]
 4358 0008 7B68     		ldr	r3, [r7, #4]
 4359 000a 93F83C30 		ldrb	r3, [r3, #60]	@ zero_extendqisi2
 4360 000e 012B     		cmp	r3, #1
 4361 0010 01D1     		bne	.L339
 4362 0012 0223     		movs	r3, #2
 4363 0014 2AE0     		b	.L340
 4364              	.L339:
 4365 0016 7B68     		ldr	r3, [r7, #4]
 4366 0018 0122     		movs	r2, #1
 4367 001a 83F83C20 		strb	r2, [r3, #60]
 4368 001e 7B68     		ldr	r3, [r7, #4]
 4369 0020 2422     		movs	r2, #36
 4370 0022 83F83D20 		strb	r2, [r3, #61]
 4371              	.L343:
 4372 0026 7B68     		ldr	r3, [r7, #4]
 4373 0028 1B68     		ldr	r3, [r3]
 4374 002a 0C33     		adds	r3, r3, #12
 4375 002c FB60     		str	r3, [r7, #12]
 4376 002e FB68     		ldr	r3, [r7, #12]
 4377              		.syntax unified
 4378              	@ 1072 "Drivers/CMSIS/Include/cmsis_gcc.h" 1
 4379 0030 53E8003F 		ldrex r3, [r3]
 4380              	@ 0 "" 2
 4381              		.thumb
 4382              		.syntax unified
 4383 0034 BB60     		str	r3, [r7, #8]
 4384 0036 BB68     		ldr	r3, [r7, #8]
 4385 0038 43F00103 		orr	r3, r3, #1
 4386 003c FB61     		str	r3, [r7, #28]
 4387 003e 7B68     		ldr	r3, [r7, #4]
 4388 0040 1B68     		ldr	r3, [r3]
 4389 0042 0C33     		adds	r3, r3, #12
 4390 0044 FA69     		ldr	r2, [r7, #28]
 4391 0046 BA61     		str	r2, [r7, #24]
 4392 0048 7B61     		str	r3, [r7, #20]
 4393 004a 7969     		ldr	r1, [r7, #20]
 4394 004c BA69     		ldr	r2, [r7, #24]
 4395              		.syntax unified
 4396              	@ 1123 "Drivers/CMSIS/Include/cmsis_gcc.h" 1
 4397 004e 41E80023 		strex r3, r2, [r1]
 4398              	@ 0 "" 2
 4399              		.thumb
 4400              		.syntax unified
 4401 0052 3B61     		str	r3, [r7, #16]
 4402 0054 3B69     		ldr	r3, [r7, #16]
 4403 0056 002B     		cmp	r3, #0
ARM GAS  C:\Users\user\AppData\Local\Temp\ccimlsD1.s 			page 77


 4404 0058 E5D1     		bne	.L343
 4405 005a 7B68     		ldr	r3, [r7, #4]
 4406 005c 2022     		movs	r2, #32
 4407 005e 83F83D20 		strb	r2, [r3, #61]
 4408 0062 7B68     		ldr	r3, [r7, #4]
 4409 0064 0022     		movs	r2, #0
 4410 0066 83F83C20 		strb	r2, [r3, #60]
 4411 006a 0023     		movs	r3, #0
 4412              	.L340:
 4413 006c 1846     		mov	r0, r3
 4414 006e 2437     		adds	r7, r7, #36
 4415 0070 BD46     		mov	sp, r7
 4416              		@ sp needed
 4417 0072 5DF8047B 		ldr	r7, [sp], #4
 4418 0076 7047     		bx	lr
 4420              		.section	.text.HAL_MultiProcessor_EnterMuteMode,"ax",%progbits
 4421              		.align	1
 4422              		.global	HAL_MultiProcessor_EnterMuteMode
 4423              		.syntax unified
 4424              		.thumb
 4425              		.thumb_func
 4427              	HAL_MultiProcessor_EnterMuteMode:
 4428              		@ args = 0, pretend = 0, frame = 32
 4429              		@ frame_needed = 1, uses_anonymous_args = 0
 4430              		@ link register save eliminated.
 4431 0000 80B4     		push	{r7}
 4432 0002 89B0     		sub	sp, sp, #36
 4433 0004 00AF     		add	r7, sp, #0
 4434 0006 7860     		str	r0, [r7, #4]
 4435 0008 7B68     		ldr	r3, [r7, #4]
 4436 000a 93F83C30 		ldrb	r3, [r3, #60]	@ zero_extendqisi2
 4437 000e 012B     		cmp	r3, #1
 4438 0010 01D1     		bne	.L345
 4439 0012 0223     		movs	r3, #2
 4440 0014 2AE0     		b	.L346
 4441              	.L345:
 4442 0016 7B68     		ldr	r3, [r7, #4]
 4443 0018 0122     		movs	r2, #1
 4444 001a 83F83C20 		strb	r2, [r3, #60]
 4445 001e 7B68     		ldr	r3, [r7, #4]
 4446 0020 2422     		movs	r2, #36
 4447 0022 83F83D20 		strb	r2, [r3, #61]
 4448              	.L349:
 4449 0026 7B68     		ldr	r3, [r7, #4]
 4450 0028 1B68     		ldr	r3, [r3]
 4451 002a 0C33     		adds	r3, r3, #12
 4452 002c FB60     		str	r3, [r7, #12]
 4453 002e FB68     		ldr	r3, [r7, #12]
 4454              		.syntax unified
 4455              	@ 1072 "Drivers/CMSIS/Include/cmsis_gcc.h" 1
 4456 0030 53E8003F 		ldrex r3, [r3]
 4457              	@ 0 "" 2
 4458              		.thumb
 4459              		.syntax unified
 4460 0034 BB60     		str	r3, [r7, #8]
 4461 0036 BB68     		ldr	r3, [r7, #8]
 4462 0038 43F00203 		orr	r3, r3, #2
ARM GAS  C:\Users\user\AppData\Local\Temp\ccimlsD1.s 			page 78


 4463 003c FB61     		str	r3, [r7, #28]
 4464 003e 7B68     		ldr	r3, [r7, #4]
 4465 0040 1B68     		ldr	r3, [r3]
 4466 0042 0C33     		adds	r3, r3, #12
 4467 0044 FA69     		ldr	r2, [r7, #28]
 4468 0046 BA61     		str	r2, [r7, #24]
 4469 0048 7B61     		str	r3, [r7, #20]
 4470 004a 7969     		ldr	r1, [r7, #20]
 4471 004c BA69     		ldr	r2, [r7, #24]
 4472              		.syntax unified
 4473              	@ 1123 "Drivers/CMSIS/Include/cmsis_gcc.h" 1
 4474 004e 41E80023 		strex r3, r2, [r1]
 4475              	@ 0 "" 2
 4476              		.thumb
 4477              		.syntax unified
 4478 0052 3B61     		str	r3, [r7, #16]
 4479 0054 3B69     		ldr	r3, [r7, #16]
 4480 0056 002B     		cmp	r3, #0
 4481 0058 E5D1     		bne	.L349
 4482 005a 7B68     		ldr	r3, [r7, #4]
 4483 005c 2022     		movs	r2, #32
 4484 005e 83F83D20 		strb	r2, [r3, #61]
 4485 0062 7B68     		ldr	r3, [r7, #4]
 4486 0064 0022     		movs	r2, #0
 4487 0066 83F83C20 		strb	r2, [r3, #60]
 4488 006a 0023     		movs	r3, #0
 4489              	.L346:
 4490 006c 1846     		mov	r0, r3
 4491 006e 2437     		adds	r7, r7, #36
 4492 0070 BD46     		mov	sp, r7
 4493              		@ sp needed
 4494 0072 5DF8047B 		ldr	r7, [sp], #4
 4495 0076 7047     		bx	lr
 4497              		.section	.text.HAL_MultiProcessor_ExitMuteMode,"ax",%progbits
 4498              		.align	1
 4499              		.global	HAL_MultiProcessor_ExitMuteMode
 4500              		.syntax unified
 4501              		.thumb
 4502              		.thumb_func
 4504              	HAL_MultiProcessor_ExitMuteMode:
 4505              		@ args = 0, pretend = 0, frame = 32
 4506              		@ frame_needed = 1, uses_anonymous_args = 0
 4507              		@ link register save eliminated.
 4508 0000 80B4     		push	{r7}
 4509 0002 89B0     		sub	sp, sp, #36
 4510 0004 00AF     		add	r7, sp, #0
 4511 0006 7860     		str	r0, [r7, #4]
 4512 0008 7B68     		ldr	r3, [r7, #4]
 4513 000a 93F83C30 		ldrb	r3, [r3, #60]	@ zero_extendqisi2
 4514 000e 012B     		cmp	r3, #1
 4515 0010 01D1     		bne	.L351
 4516 0012 0223     		movs	r3, #2
 4517 0014 2AE0     		b	.L352
 4518              	.L351:
 4519 0016 7B68     		ldr	r3, [r7, #4]
 4520 0018 0122     		movs	r2, #1
 4521 001a 83F83C20 		strb	r2, [r3, #60]
ARM GAS  C:\Users\user\AppData\Local\Temp\ccimlsD1.s 			page 79


 4522 001e 7B68     		ldr	r3, [r7, #4]
 4523 0020 2422     		movs	r2, #36
 4524 0022 83F83D20 		strb	r2, [r3, #61]
 4525              	.L355:
 4526 0026 7B68     		ldr	r3, [r7, #4]
 4527 0028 1B68     		ldr	r3, [r3]
 4528 002a 0C33     		adds	r3, r3, #12
 4529 002c FB60     		str	r3, [r7, #12]
 4530 002e FB68     		ldr	r3, [r7, #12]
 4531              		.syntax unified
 4532              	@ 1072 "Drivers/CMSIS/Include/cmsis_gcc.h" 1
 4533 0030 53E8003F 		ldrex r3, [r3]
 4534              	@ 0 "" 2
 4535              		.thumb
 4536              		.syntax unified
 4537 0034 BB60     		str	r3, [r7, #8]
 4538 0036 BB68     		ldr	r3, [r7, #8]
 4539 0038 23F00203 		bic	r3, r3, #2
 4540 003c FB61     		str	r3, [r7, #28]
 4541 003e 7B68     		ldr	r3, [r7, #4]
 4542 0040 1B68     		ldr	r3, [r3]
 4543 0042 0C33     		adds	r3, r3, #12
 4544 0044 FA69     		ldr	r2, [r7, #28]
 4545 0046 BA61     		str	r2, [r7, #24]
 4546 0048 7B61     		str	r3, [r7, #20]
 4547 004a 7969     		ldr	r1, [r7, #20]
 4548 004c BA69     		ldr	r2, [r7, #24]
 4549              		.syntax unified
 4550              	@ 1123 "Drivers/CMSIS/Include/cmsis_gcc.h" 1
 4551 004e 41E80023 		strex r3, r2, [r1]
 4552              	@ 0 "" 2
 4553              		.thumb
 4554              		.syntax unified
 4555 0052 3B61     		str	r3, [r7, #16]
 4556 0054 3B69     		ldr	r3, [r7, #16]
 4557 0056 002B     		cmp	r3, #0
 4558 0058 E5D1     		bne	.L355
 4559 005a 7B68     		ldr	r3, [r7, #4]
 4560 005c 2022     		movs	r2, #32
 4561 005e 83F83D20 		strb	r2, [r3, #61]
 4562 0062 7B68     		ldr	r3, [r7, #4]
 4563 0064 0022     		movs	r2, #0
 4564 0066 83F83C20 		strb	r2, [r3, #60]
 4565 006a 0023     		movs	r3, #0
 4566              	.L352:
 4567 006c 1846     		mov	r0, r3
 4568 006e 2437     		adds	r7, r7, #36
 4569 0070 BD46     		mov	sp, r7
 4570              		@ sp needed
 4571 0072 5DF8047B 		ldr	r7, [sp], #4
 4572 0076 7047     		bx	lr
 4574              		.section	.text.HAL_HalfDuplex_EnableTransmitter,"ax",%progbits
 4575              		.align	1
 4576              		.global	HAL_HalfDuplex_EnableTransmitter
 4577              		.syntax unified
 4578              		.thumb
 4579              		.thumb_func
ARM GAS  C:\Users\user\AppData\Local\Temp\ccimlsD1.s 			page 80


 4581              	HAL_HalfDuplex_EnableTransmitter:
 4582              		@ args = 0, pretend = 0, frame = 16
 4583              		@ frame_needed = 1, uses_anonymous_args = 0
 4584              		@ link register save eliminated.
 4585 0000 80B4     		push	{r7}
 4586 0002 85B0     		sub	sp, sp, #20
 4587 0004 00AF     		add	r7, sp, #0
 4588 0006 7860     		str	r0, [r7, #4]
 4589 0008 0023     		movs	r3, #0
 4590 000a FB60     		str	r3, [r7, #12]
 4591 000c 7B68     		ldr	r3, [r7, #4]
 4592 000e 93F83C30 		ldrb	r3, [r3, #60]	@ zero_extendqisi2
 4593 0012 012B     		cmp	r3, #1
 4594 0014 01D1     		bne	.L357
 4595 0016 0223     		movs	r3, #2
 4596 0018 20E0     		b	.L358
 4597              	.L357:
 4598 001a 7B68     		ldr	r3, [r7, #4]
 4599 001c 0122     		movs	r2, #1
 4600 001e 83F83C20 		strb	r2, [r3, #60]
 4601 0022 7B68     		ldr	r3, [r7, #4]
 4602 0024 2422     		movs	r2, #36
 4603 0026 83F83D20 		strb	r2, [r3, #61]
 4604 002a 7B68     		ldr	r3, [r7, #4]
 4605 002c 1B68     		ldr	r3, [r3]
 4606 002e DB68     		ldr	r3, [r3, #12]
 4607 0030 FB60     		str	r3, [r7, #12]
 4608 0032 FB68     		ldr	r3, [r7, #12]
 4609 0034 23F00C03 		bic	r3, r3, #12
 4610 0038 FB60     		str	r3, [r7, #12]
 4611 003a FB68     		ldr	r3, [r7, #12]
 4612 003c 43F00803 		orr	r3, r3, #8
 4613 0040 FB60     		str	r3, [r7, #12]
 4614 0042 7B68     		ldr	r3, [r7, #4]
 4615 0044 1B68     		ldr	r3, [r3]
 4616 0046 FA68     		ldr	r2, [r7, #12]
 4617 0048 DA60     		str	r2, [r3, #12]
 4618 004a 7B68     		ldr	r3, [r7, #4]
 4619 004c 2022     		movs	r2, #32
 4620 004e 83F83D20 		strb	r2, [r3, #61]
 4621 0052 7B68     		ldr	r3, [r7, #4]
 4622 0054 0022     		movs	r2, #0
 4623 0056 83F83C20 		strb	r2, [r3, #60]
 4624 005a 0023     		movs	r3, #0
 4625              	.L358:
 4626 005c 1846     		mov	r0, r3
 4627 005e 1437     		adds	r7, r7, #20
 4628 0060 BD46     		mov	sp, r7
 4629              		@ sp needed
 4630 0062 5DF8047B 		ldr	r7, [sp], #4
 4631 0066 7047     		bx	lr
 4633              		.section	.text.HAL_HalfDuplex_EnableReceiver,"ax",%progbits
 4634              		.align	1
 4635              		.global	HAL_HalfDuplex_EnableReceiver
 4636              		.syntax unified
 4637              		.thumb
 4638              		.thumb_func
ARM GAS  C:\Users\user\AppData\Local\Temp\ccimlsD1.s 			page 81


 4640              	HAL_HalfDuplex_EnableReceiver:
 4641              		@ args = 0, pretend = 0, frame = 16
 4642              		@ frame_needed = 1, uses_anonymous_args = 0
 4643              		@ link register save eliminated.
 4644 0000 80B4     		push	{r7}
 4645 0002 85B0     		sub	sp, sp, #20
 4646 0004 00AF     		add	r7, sp, #0
 4647 0006 7860     		str	r0, [r7, #4]
 4648 0008 0023     		movs	r3, #0
 4649 000a FB60     		str	r3, [r7, #12]
 4650 000c 7B68     		ldr	r3, [r7, #4]
 4651 000e 93F83C30 		ldrb	r3, [r3, #60]	@ zero_extendqisi2
 4652 0012 012B     		cmp	r3, #1
 4653 0014 01D1     		bne	.L360
 4654 0016 0223     		movs	r3, #2
 4655 0018 20E0     		b	.L361
 4656              	.L360:
 4657 001a 7B68     		ldr	r3, [r7, #4]
 4658 001c 0122     		movs	r2, #1
 4659 001e 83F83C20 		strb	r2, [r3, #60]
 4660 0022 7B68     		ldr	r3, [r7, #4]
 4661 0024 2422     		movs	r2, #36
 4662 0026 83F83D20 		strb	r2, [r3, #61]
 4663 002a 7B68     		ldr	r3, [r7, #4]
 4664 002c 1B68     		ldr	r3, [r3]
 4665 002e DB68     		ldr	r3, [r3, #12]
 4666 0030 FB60     		str	r3, [r7, #12]
 4667 0032 FB68     		ldr	r3, [r7, #12]
 4668 0034 23F00C03 		bic	r3, r3, #12
 4669 0038 FB60     		str	r3, [r7, #12]
 4670 003a FB68     		ldr	r3, [r7, #12]
 4671 003c 43F00403 		orr	r3, r3, #4
 4672 0040 FB60     		str	r3, [r7, #12]
 4673 0042 7B68     		ldr	r3, [r7, #4]
 4674 0044 1B68     		ldr	r3, [r3]
 4675 0046 FA68     		ldr	r2, [r7, #12]
 4676 0048 DA60     		str	r2, [r3, #12]
 4677 004a 7B68     		ldr	r3, [r7, #4]
 4678 004c 2022     		movs	r2, #32
 4679 004e 83F83D20 		strb	r2, [r3, #61]
 4680 0052 7B68     		ldr	r3, [r7, #4]
 4681 0054 0022     		movs	r2, #0
 4682 0056 83F83C20 		strb	r2, [r3, #60]
 4683 005a 0023     		movs	r3, #0
 4684              	.L361:
 4685 005c 1846     		mov	r0, r3
 4686 005e 1437     		adds	r7, r7, #20
 4687 0060 BD46     		mov	sp, r7
 4688              		@ sp needed
 4689 0062 5DF8047B 		ldr	r7, [sp], #4
 4690 0066 7047     		bx	lr
 4692              		.section	.text.HAL_UART_GetState,"ax",%progbits
 4693              		.align	1
 4694              		.global	HAL_UART_GetState
 4695              		.syntax unified
 4696              		.thumb
 4697              		.thumb_func
ARM GAS  C:\Users\user\AppData\Local\Temp\ccimlsD1.s 			page 82


 4699              	HAL_UART_GetState:
 4700              		@ args = 0, pretend = 0, frame = 16
 4701              		@ frame_needed = 1, uses_anonymous_args = 0
 4702              		@ link register save eliminated.
 4703 0000 80B4     		push	{r7}
 4704 0002 85B0     		sub	sp, sp, #20
 4705 0004 00AF     		add	r7, sp, #0
 4706 0006 7860     		str	r0, [r7, #4]
 4707 0008 0023     		movs	r3, #0
 4708 000a FB60     		str	r3, [r7, #12]
 4709 000c 0023     		movs	r3, #0
 4710 000e BB60     		str	r3, [r7, #8]
 4711 0010 7B68     		ldr	r3, [r7, #4]
 4712 0012 93F83D30 		ldrb	r3, [r3, #61]
 4713 0016 DBB2     		uxtb	r3, r3
 4714 0018 FB60     		str	r3, [r7, #12]
 4715 001a 7B68     		ldr	r3, [r7, #4]
 4716 001c 93F83E30 		ldrb	r3, [r3, #62]
 4717 0020 DBB2     		uxtb	r3, r3
 4718 0022 BB60     		str	r3, [r7, #8]
 4719 0024 FB68     		ldr	r3, [r7, #12]
 4720 0026 DAB2     		uxtb	r2, r3
 4721 0028 BB68     		ldr	r3, [r7, #8]
 4722 002a DBB2     		uxtb	r3, r3
 4723 002c 1343     		orrs	r3, r3, r2
 4724 002e DBB2     		uxtb	r3, r3
 4725 0030 1846     		mov	r0, r3
 4726 0032 1437     		adds	r7, r7, #20
 4727 0034 BD46     		mov	sp, r7
 4728              		@ sp needed
 4729 0036 5DF8047B 		ldr	r7, [sp], #4
 4730 003a 7047     		bx	lr
 4732              		.section	.text.HAL_UART_GetError,"ax",%progbits
 4733              		.align	1
 4734              		.global	HAL_UART_GetError
 4735              		.syntax unified
 4736              		.thumb
 4737              		.thumb_func
 4739              	HAL_UART_GetError:
 4740              		@ args = 0, pretend = 0, frame = 8
 4741              		@ frame_needed = 1, uses_anonymous_args = 0
 4742              		@ link register save eliminated.
 4743 0000 80B4     		push	{r7}
 4744 0002 83B0     		sub	sp, sp, #12
 4745 0004 00AF     		add	r7, sp, #0
 4746 0006 7860     		str	r0, [r7, #4]
 4747 0008 7B68     		ldr	r3, [r7, #4]
 4748 000a 1B6C     		ldr	r3, [r3, #64]
 4749 000c 1846     		mov	r0, r3
 4750 000e 0C37     		adds	r7, r7, #12
 4751 0010 BD46     		mov	sp, r7
 4752              		@ sp needed
 4753 0012 5DF8047B 		ldr	r7, [sp], #4
 4754 0016 7047     		bx	lr
 4756              		.section	.text.UART_DMATransmitCplt,"ax",%progbits
 4757              		.align	1
 4758              		.syntax unified
ARM GAS  C:\Users\user\AppData\Local\Temp\ccimlsD1.s 			page 83


 4759              		.thumb
 4760              		.thumb_func
 4762              	UART_DMATransmitCplt:
 4763              		@ args = 0, pretend = 0, frame = 64
 4764              		@ frame_needed = 1, uses_anonymous_args = 0
 4765 0000 80B5     		push	{r7, lr}
 4766 0002 90B0     		sub	sp, sp, #64
 4767 0004 00AF     		add	r7, sp, #0
 4768 0006 7860     		str	r0, [r7, #4]
 4769 0008 7B68     		ldr	r3, [r7, #4]
 4770 000a 9B6B     		ldr	r3, [r3, #56]
 4771 000c FB63     		str	r3, [r7, #60]
 4772 000e 7B68     		ldr	r3, [r7, #4]
 4773 0010 1B68     		ldr	r3, [r3]
 4774 0012 1B68     		ldr	r3, [r3]
 4775 0014 03F48073 		and	r3, r3, #256
 4776 0018 002B     		cmp	r3, #0
 4777 001a 37D1     		bne	.L367
 4778 001c FB6B     		ldr	r3, [r7, #60]
 4779 001e 0022     		movs	r2, #0
 4780 0020 DA84     		strh	r2, [r3, #38]	@ movhi
 4781              	.L370:
 4782 0022 FB6B     		ldr	r3, [r7, #60]
 4783 0024 1B68     		ldr	r3, [r3]
 4784 0026 1433     		adds	r3, r3, #20
 4785 0028 7B62     		str	r3, [r7, #36]
 4786 002a 7B6A     		ldr	r3, [r7, #36]
 4787              		.syntax unified
 4788              	@ 1072 "Drivers/CMSIS/Include/cmsis_gcc.h" 1
 4789 002c 53E8003F 		ldrex r3, [r3]
 4790              	@ 0 "" 2
 4791              		.thumb
 4792              		.syntax unified
 4793 0030 3B62     		str	r3, [r7, #32]
 4794 0032 3B6A     		ldr	r3, [r7, #32]
 4795 0034 23F08003 		bic	r3, r3, #128
 4796 0038 BB63     		str	r3, [r7, #56]
 4797 003a FB6B     		ldr	r3, [r7, #60]
 4798 003c 1B68     		ldr	r3, [r3]
 4799 003e 1433     		adds	r3, r3, #20
 4800 0040 BA6B     		ldr	r2, [r7, #56]
 4801 0042 3A63     		str	r2, [r7, #48]
 4802 0044 FB62     		str	r3, [r7, #44]
 4803 0046 F96A     		ldr	r1, [r7, #44]
 4804 0048 3A6B     		ldr	r2, [r7, #48]
 4805              		.syntax unified
 4806              	@ 1123 "Drivers/CMSIS/Include/cmsis_gcc.h" 1
 4807 004a 41E80023 		strex r3, r2, [r1]
 4808              	@ 0 "" 2
 4809              		.thumb
 4810              		.syntax unified
 4811 004e BB62     		str	r3, [r7, #40]
 4812 0050 BB6A     		ldr	r3, [r7, #40]
 4813 0052 002B     		cmp	r3, #0
 4814 0054 E5D1     		bne	.L370
 4815              	.L373:
 4816 0056 FB6B     		ldr	r3, [r7, #60]
ARM GAS  C:\Users\user\AppData\Local\Temp\ccimlsD1.s 			page 84


 4817 0058 1B68     		ldr	r3, [r3]
 4818 005a 0C33     		adds	r3, r3, #12
 4819 005c 3B61     		str	r3, [r7, #16]
 4820 005e 3B69     		ldr	r3, [r7, #16]
 4821              		.syntax unified
 4822              	@ 1072 "Drivers/CMSIS/Include/cmsis_gcc.h" 1
 4823 0060 53E8003F 		ldrex r3, [r3]
 4824              	@ 0 "" 2
 4825              		.thumb
 4826              		.syntax unified
 4827 0064 FB60     		str	r3, [r7, #12]
 4828 0066 FB68     		ldr	r3, [r7, #12]
 4829 0068 43F04003 		orr	r3, r3, #64
 4830 006c 7B63     		str	r3, [r7, #52]
 4831 006e FB6B     		ldr	r3, [r7, #60]
 4832 0070 1B68     		ldr	r3, [r3]
 4833 0072 0C33     		adds	r3, r3, #12
 4834 0074 7A6B     		ldr	r2, [r7, #52]
 4835 0076 FA61     		str	r2, [r7, #28]
 4836 0078 BB61     		str	r3, [r7, #24]
 4837 007a B969     		ldr	r1, [r7, #24]
 4838 007c FA69     		ldr	r2, [r7, #28]
 4839              		.syntax unified
 4840              	@ 1123 "Drivers/CMSIS/Include/cmsis_gcc.h" 1
 4841 007e 41E80023 		strex r3, r2, [r1]
 4842              	@ 0 "" 2
 4843              		.thumb
 4844              		.syntax unified
 4845 0082 7B61     		str	r3, [r7, #20]
 4846 0084 7B69     		ldr	r3, [r7, #20]
 4847 0086 002B     		cmp	r3, #0
 4848 0088 E5D1     		bne	.L373
 4849 008a 02E0     		b	.L375
 4850              	.L367:
 4851 008c F86B     		ldr	r0, [r7, #60]
 4852 008e FFF7FEFF 		bl	HAL_UART_TxCpltCallback
 4853              	.L375:
 4854 0092 00BF     		nop
 4855 0094 4037     		adds	r7, r7, #64
 4856 0096 BD46     		mov	sp, r7
 4857              		@ sp needed
 4858 0098 80BD     		pop	{r7, pc}
 4860              		.section	.text.UART_DMATxHalfCplt,"ax",%progbits
 4861              		.align	1
 4862              		.syntax unified
 4863              		.thumb
 4864              		.thumb_func
 4866              	UART_DMATxHalfCplt:
 4867              		@ args = 0, pretend = 0, frame = 16
 4868              		@ frame_needed = 1, uses_anonymous_args = 0
 4869 0000 80B5     		push	{r7, lr}
 4870 0002 84B0     		sub	sp, sp, #16
 4871 0004 00AF     		add	r7, sp, #0
 4872 0006 7860     		str	r0, [r7, #4]
 4873 0008 7B68     		ldr	r3, [r7, #4]
 4874 000a 9B6B     		ldr	r3, [r3, #56]
 4875 000c FB60     		str	r3, [r7, #12]
ARM GAS  C:\Users\user\AppData\Local\Temp\ccimlsD1.s 			page 85


 4876 000e F868     		ldr	r0, [r7, #12]
 4877 0010 FFF7FEFF 		bl	HAL_UART_TxHalfCpltCallback
 4878 0014 00BF     		nop
 4879 0016 1037     		adds	r7, r7, #16
 4880 0018 BD46     		mov	sp, r7
 4881              		@ sp needed
 4882 001a 80BD     		pop	{r7, pc}
 4884              		.section	.text.UART_DMAReceiveCplt,"ax",%progbits
 4885              		.align	1
 4886              		.syntax unified
 4887              		.thumb
 4888              		.thumb_func
 4890              	UART_DMAReceiveCplt:
 4891              		@ args = 0, pretend = 0, frame = 112
 4892              		@ frame_needed = 1, uses_anonymous_args = 0
 4893 0000 80B5     		push	{r7, lr}
 4894 0002 9CB0     		sub	sp, sp, #112
 4895 0004 00AF     		add	r7, sp, #0
 4896 0006 7860     		str	r0, [r7, #4]
 4897 0008 7B68     		ldr	r3, [r7, #4]
 4898 000a 9B6B     		ldr	r3, [r3, #56]
 4899 000c FB66     		str	r3, [r7, #108]
 4900 000e 7B68     		ldr	r3, [r7, #4]
 4901 0010 1B68     		ldr	r3, [r3]
 4902 0012 1B68     		ldr	r3, [r3]
 4903 0014 03F48073 		and	r3, r3, #256
 4904 0018 002B     		cmp	r3, #0
 4905 001a 72D1     		bne	.L378
 4906 001c FB6E     		ldr	r3, [r7, #108]
 4907 001e 0022     		movs	r2, #0
 4908 0020 DA85     		strh	r2, [r3, #46]	@ movhi
 4909              	.L381:
 4910 0022 FB6E     		ldr	r3, [r7, #108]
 4911 0024 1B68     		ldr	r3, [r3]
 4912 0026 0C33     		adds	r3, r3, #12
 4913 0028 FB64     		str	r3, [r7, #76]
 4914 002a FB6C     		ldr	r3, [r7, #76]
 4915              		.syntax unified
 4916              	@ 1072 "Drivers/CMSIS/Include/cmsis_gcc.h" 1
 4917 002c 53E8003F 		ldrex r3, [r3]
 4918              	@ 0 "" 2
 4919              		.thumb
 4920              		.syntax unified
 4921 0030 BB64     		str	r3, [r7, #72]
 4922 0032 BB6C     		ldr	r3, [r7, #72]
 4923 0034 23F48073 		bic	r3, r3, #256
 4924 0038 BB66     		str	r3, [r7, #104]
 4925 003a FB6E     		ldr	r3, [r7, #108]
 4926 003c 1B68     		ldr	r3, [r3]
 4927 003e 0C33     		adds	r3, r3, #12
 4928 0040 BA6E     		ldr	r2, [r7, #104]
 4929 0042 BA65     		str	r2, [r7, #88]
 4930 0044 7B65     		str	r3, [r7, #84]
 4931 0046 796D     		ldr	r1, [r7, #84]
 4932 0048 BA6D     		ldr	r2, [r7, #88]
 4933              		.syntax unified
 4934              	@ 1123 "Drivers/CMSIS/Include/cmsis_gcc.h" 1
ARM GAS  C:\Users\user\AppData\Local\Temp\ccimlsD1.s 			page 86


 4935 004a 41E80023 		strex r3, r2, [r1]
 4936              	@ 0 "" 2
 4937              		.thumb
 4938              		.syntax unified
 4939 004e 3B65     		str	r3, [r7, #80]
 4940 0050 3B6D     		ldr	r3, [r7, #80]
 4941 0052 002B     		cmp	r3, #0
 4942 0054 E5D1     		bne	.L381
 4943              	.L384:
 4944 0056 FB6E     		ldr	r3, [r7, #108]
 4945 0058 1B68     		ldr	r3, [r3]
 4946 005a 1433     		adds	r3, r3, #20
 4947 005c BB63     		str	r3, [r7, #56]
 4948 005e BB6B     		ldr	r3, [r7, #56]
 4949              		.syntax unified
 4950              	@ 1072 "Drivers/CMSIS/Include/cmsis_gcc.h" 1
 4951 0060 53E8003F 		ldrex r3, [r3]
 4952              	@ 0 "" 2
 4953              		.thumb
 4954              		.syntax unified
 4955 0064 7B63     		str	r3, [r7, #52]
 4956 0066 7B6B     		ldr	r3, [r7, #52]
 4957 0068 23F00103 		bic	r3, r3, #1
 4958 006c 7B66     		str	r3, [r7, #100]
 4959 006e FB6E     		ldr	r3, [r7, #108]
 4960 0070 1B68     		ldr	r3, [r3]
 4961 0072 1433     		adds	r3, r3, #20
 4962 0074 7A6E     		ldr	r2, [r7, #100]
 4963 0076 7A64     		str	r2, [r7, #68]
 4964 0078 3B64     		str	r3, [r7, #64]
 4965 007a 396C     		ldr	r1, [r7, #64]
 4966 007c 7A6C     		ldr	r2, [r7, #68]
 4967              		.syntax unified
 4968              	@ 1123 "Drivers/CMSIS/Include/cmsis_gcc.h" 1
 4969 007e 41E80023 		strex r3, r2, [r1]
 4970              	@ 0 "" 2
 4971              		.thumb
 4972              		.syntax unified
 4973 0082 FB63     		str	r3, [r7, #60]
 4974 0084 FB6B     		ldr	r3, [r7, #60]
 4975 0086 002B     		cmp	r3, #0
 4976 0088 E5D1     		bne	.L384
 4977              	.L387:
 4978 008a FB6E     		ldr	r3, [r7, #108]
 4979 008c 1B68     		ldr	r3, [r3]
 4980 008e 1433     		adds	r3, r3, #20
 4981 0090 7B62     		str	r3, [r7, #36]
 4982 0092 7B6A     		ldr	r3, [r7, #36]
 4983              		.syntax unified
 4984              	@ 1072 "Drivers/CMSIS/Include/cmsis_gcc.h" 1
 4985 0094 53E8003F 		ldrex r3, [r3]
 4986              	@ 0 "" 2
 4987              		.thumb
 4988              		.syntax unified
 4989 0098 3B62     		str	r3, [r7, #32]
 4990 009a 3B6A     		ldr	r3, [r7, #32]
 4991 009c 23F04003 		bic	r3, r3, #64
ARM GAS  C:\Users\user\AppData\Local\Temp\ccimlsD1.s 			page 87


 4992 00a0 3B66     		str	r3, [r7, #96]
 4993 00a2 FB6E     		ldr	r3, [r7, #108]
 4994 00a4 1B68     		ldr	r3, [r3]
 4995 00a6 1433     		adds	r3, r3, #20
 4996 00a8 3A6E     		ldr	r2, [r7, #96]
 4997 00aa 3A63     		str	r2, [r7, #48]
 4998 00ac FB62     		str	r3, [r7, #44]
 4999 00ae F96A     		ldr	r1, [r7, #44]
 5000 00b0 3A6B     		ldr	r2, [r7, #48]
 5001              		.syntax unified
 5002              	@ 1123 "Drivers/CMSIS/Include/cmsis_gcc.h" 1
 5003 00b2 41E80023 		strex r3, r2, [r1]
 5004              	@ 0 "" 2
 5005              		.thumb
 5006              		.syntax unified
 5007 00b6 BB62     		str	r3, [r7, #40]
 5008 00b8 BB6A     		ldr	r3, [r7, #40]
 5009 00ba 002B     		cmp	r3, #0
 5010 00bc E5D1     		bne	.L387
 5011 00be FB6E     		ldr	r3, [r7, #108]
 5012 00c0 2022     		movs	r2, #32
 5013 00c2 83F83E20 		strb	r2, [r3, #62]
 5014 00c6 FB6E     		ldr	r3, [r7, #108]
 5015 00c8 1B6B     		ldr	r3, [r3, #48]
 5016 00ca 012B     		cmp	r3, #1
 5017 00cc 19D1     		bne	.L378
 5018              	.L390:
 5019 00ce FB6E     		ldr	r3, [r7, #108]
 5020 00d0 1B68     		ldr	r3, [r3]
 5021 00d2 0C33     		adds	r3, r3, #12
 5022 00d4 3B61     		str	r3, [r7, #16]
 5023 00d6 3B69     		ldr	r3, [r7, #16]
 5024              		.syntax unified
 5025              	@ 1072 "Drivers/CMSIS/Include/cmsis_gcc.h" 1
 5026 00d8 53E8003F 		ldrex r3, [r3]
 5027              	@ 0 "" 2
 5028              		.thumb
 5029              		.syntax unified
 5030 00dc FB60     		str	r3, [r7, #12]
 5031 00de FB68     		ldr	r3, [r7, #12]
 5032 00e0 23F01003 		bic	r3, r3, #16
 5033 00e4 FB65     		str	r3, [r7, #92]
 5034 00e6 FB6E     		ldr	r3, [r7, #108]
 5035 00e8 1B68     		ldr	r3, [r3]
 5036 00ea 0C33     		adds	r3, r3, #12
 5037 00ec FA6D     		ldr	r2, [r7, #92]
 5038 00ee FA61     		str	r2, [r7, #28]
 5039 00f0 BB61     		str	r3, [r7, #24]
 5040 00f2 B969     		ldr	r1, [r7, #24]
 5041 00f4 FA69     		ldr	r2, [r7, #28]
 5042              		.syntax unified
 5043              	@ 1123 "Drivers/CMSIS/Include/cmsis_gcc.h" 1
 5044 00f6 41E80023 		strex r3, r2, [r1]
 5045              	@ 0 "" 2
 5046              		.thumb
 5047              		.syntax unified
 5048 00fa 7B61     		str	r3, [r7, #20]
ARM GAS  C:\Users\user\AppData\Local\Temp\ccimlsD1.s 			page 88


 5049 00fc 7B69     		ldr	r3, [r7, #20]
 5050 00fe 002B     		cmp	r3, #0
 5051 0100 E5D1     		bne	.L390
 5052              	.L378:
 5053 0102 FB6E     		ldr	r3, [r7, #108]
 5054 0104 1B6B     		ldr	r3, [r3, #48]
 5055 0106 012B     		cmp	r3, #1
 5056 0108 06D1     		bne	.L391
 5057 010a FB6E     		ldr	r3, [r7, #108]
 5058 010c 9B8D     		ldrh	r3, [r3, #44]
 5059 010e 1946     		mov	r1, r3
 5060 0110 F86E     		ldr	r0, [r7, #108]
 5061 0112 FFF7FEFF 		bl	HAL_UARTEx_RxEventCallback
 5062 0116 02E0     		b	.L393
 5063              	.L391:
 5064 0118 F86E     		ldr	r0, [r7, #108]
 5065 011a FFF7FEFF 		bl	HAL_UART_RxCpltCallback
 5066              	.L393:
 5067 011e 00BF     		nop
 5068 0120 7037     		adds	r7, r7, #112
 5069 0122 BD46     		mov	sp, r7
 5070              		@ sp needed
 5071 0124 80BD     		pop	{r7, pc}
 5073              		.section	.text.UART_DMARxHalfCplt,"ax",%progbits
 5074              		.align	1
 5075              		.syntax unified
 5076              		.thumb
 5077              		.thumb_func
 5079              	UART_DMARxHalfCplt:
 5080              		@ args = 0, pretend = 0, frame = 16
 5081              		@ frame_needed = 1, uses_anonymous_args = 0
 5082 0000 80B5     		push	{r7, lr}
 5083 0002 84B0     		sub	sp, sp, #16
 5084 0004 00AF     		add	r7, sp, #0
 5085 0006 7860     		str	r0, [r7, #4]
 5086 0008 7B68     		ldr	r3, [r7, #4]
 5087 000a 9B6B     		ldr	r3, [r3, #56]
 5088 000c FB60     		str	r3, [r7, #12]
 5089 000e FB68     		ldr	r3, [r7, #12]
 5090 0010 1B6B     		ldr	r3, [r3, #48]
 5091 0012 012B     		cmp	r3, #1
 5092 0014 08D1     		bne	.L395
 5093 0016 FB68     		ldr	r3, [r7, #12]
 5094 0018 9B8D     		ldrh	r3, [r3, #44]
 5095 001a 5B08     		lsrs	r3, r3, #1
 5096 001c 9BB2     		uxth	r3, r3
 5097 001e 1946     		mov	r1, r3
 5098 0020 F868     		ldr	r0, [r7, #12]
 5099 0022 FFF7FEFF 		bl	HAL_UARTEx_RxEventCallback
 5100 0026 02E0     		b	.L397
 5101              	.L395:
 5102 0028 F868     		ldr	r0, [r7, #12]
 5103 002a FFF7FEFF 		bl	HAL_UART_RxHalfCpltCallback
 5104              	.L397:
 5105 002e 00BF     		nop
 5106 0030 1037     		adds	r7, r7, #16
 5107 0032 BD46     		mov	sp, r7
ARM GAS  C:\Users\user\AppData\Local\Temp\ccimlsD1.s 			page 89


 5108              		@ sp needed
 5109 0034 80BD     		pop	{r7, pc}
 5111              		.section	.text.UART_DMAError,"ax",%progbits
 5112              		.align	1
 5113              		.syntax unified
 5114              		.thumb
 5115              		.thumb_func
 5117              	UART_DMAError:
 5118              		@ args = 0, pretend = 0, frame = 16
 5119              		@ frame_needed = 1, uses_anonymous_args = 0
 5120 0000 80B5     		push	{r7, lr}
 5121 0002 84B0     		sub	sp, sp, #16
 5122 0004 00AF     		add	r7, sp, #0
 5123 0006 7860     		str	r0, [r7, #4]
 5124 0008 0023     		movs	r3, #0
 5125 000a FB60     		str	r3, [r7, #12]
 5126 000c 7B68     		ldr	r3, [r7, #4]
 5127 000e 9B6B     		ldr	r3, [r3, #56]
 5128 0010 BB60     		str	r3, [r7, #8]
 5129 0012 BB68     		ldr	r3, [r7, #8]
 5130 0014 1B68     		ldr	r3, [r3]
 5131 0016 5B69     		ldr	r3, [r3, #20]
 5132 0018 03F08003 		and	r3, r3, #128
 5133 001c 802B     		cmp	r3, #128
 5134 001e 0CBF     		ite	eq
 5135 0020 0123     		moveq	r3, #1
 5136 0022 0023     		movne	r3, #0
 5137 0024 DBB2     		uxtb	r3, r3
 5138 0026 FB60     		str	r3, [r7, #12]
 5139 0028 BB68     		ldr	r3, [r7, #8]
 5140 002a 93F83D30 		ldrb	r3, [r3, #61]
 5141 002e DBB2     		uxtb	r3, r3
 5142 0030 212B     		cmp	r3, #33
 5143 0032 08D1     		bne	.L399
 5144 0034 FB68     		ldr	r3, [r7, #12]
 5145 0036 002B     		cmp	r3, #0
 5146 0038 05D0     		beq	.L399
 5147 003a BB68     		ldr	r3, [r7, #8]
 5148 003c 0022     		movs	r2, #0
 5149 003e DA84     		strh	r2, [r3, #38]	@ movhi
 5150 0040 B868     		ldr	r0, [r7, #8]
 5151 0042 FFF7FEFF 		bl	UART_EndTxTransfer
 5152              	.L399:
 5153 0046 BB68     		ldr	r3, [r7, #8]
 5154 0048 1B68     		ldr	r3, [r3]
 5155 004a 5B69     		ldr	r3, [r3, #20]
 5156 004c 03F04003 		and	r3, r3, #64
 5157 0050 402B     		cmp	r3, #64
 5158 0052 0CBF     		ite	eq
 5159 0054 0123     		moveq	r3, #1
 5160 0056 0023     		movne	r3, #0
 5161 0058 DBB2     		uxtb	r3, r3
 5162 005a FB60     		str	r3, [r7, #12]
 5163 005c BB68     		ldr	r3, [r7, #8]
 5164 005e 93F83E30 		ldrb	r3, [r3, #62]
 5165 0062 DBB2     		uxtb	r3, r3
 5166 0064 222B     		cmp	r3, #34
ARM GAS  C:\Users\user\AppData\Local\Temp\ccimlsD1.s 			page 90


 5167 0066 08D1     		bne	.L400
 5168 0068 FB68     		ldr	r3, [r7, #12]
 5169 006a 002B     		cmp	r3, #0
 5170 006c 05D0     		beq	.L400
 5171 006e BB68     		ldr	r3, [r7, #8]
 5172 0070 0022     		movs	r2, #0
 5173 0072 DA85     		strh	r2, [r3, #46]	@ movhi
 5174 0074 B868     		ldr	r0, [r7, #8]
 5175 0076 FFF7FEFF 		bl	UART_EndRxTransfer
 5176              	.L400:
 5177 007a BB68     		ldr	r3, [r7, #8]
 5178 007c 1B6C     		ldr	r3, [r3, #64]
 5179 007e 43F01002 		orr	r2, r3, #16
 5180 0082 BB68     		ldr	r3, [r7, #8]
 5181 0084 1A64     		str	r2, [r3, #64]
 5182 0086 B868     		ldr	r0, [r7, #8]
 5183 0088 FFF7FEFF 		bl	HAL_UART_ErrorCallback
 5184 008c 00BF     		nop
 5185 008e 1037     		adds	r7, r7, #16
 5186 0090 BD46     		mov	sp, r7
 5187              		@ sp needed
 5188 0092 80BD     		pop	{r7, pc}
 5190              		.section	.text.UART_WaitOnFlagUntilTimeout,"ax",%progbits
 5191              		.align	1
 5192              		.syntax unified
 5193              		.thumb
 5194              		.thumb_func
 5196              	UART_WaitOnFlagUntilTimeout:
 5197              		@ args = 4, pretend = 0, frame = 64
 5198              		@ frame_needed = 1, uses_anonymous_args = 0
 5199 0000 80B5     		push	{r7, lr}
 5200 0002 90B0     		sub	sp, sp, #64
 5201 0004 00AF     		add	r7, sp, #0
 5202 0006 F860     		str	r0, [r7, #12]
 5203 0008 B960     		str	r1, [r7, #8]
 5204 000a 3B60     		str	r3, [r7]
 5205 000c 1346     		mov	r3, r2
 5206 000e FB71     		strb	r3, [r7, #7]
 5207 0010 50E0     		b	.L403
 5208              	.L412:
 5209 0012 BB6C     		ldr	r3, [r7, #72]
 5210 0014 B3F1FF3F 		cmp	r3, #-1
 5211 0018 4CD0     		beq	.L403
 5212 001a BB6C     		ldr	r3, [r7, #72]
 5213 001c 002B     		cmp	r3, #0
 5214 001e 07D0     		beq	.L407
 5215 0020 FFF7FEFF 		bl	HAL_GetTick
 5216 0024 0246     		mov	r2, r0
 5217 0026 3B68     		ldr	r3, [r7]
 5218 0028 D31A     		subs	r3, r2, r3
 5219 002a BA6C     		ldr	r2, [r7, #72]
 5220 002c 9A42     		cmp	r2, r3
 5221 002e 41D2     		bcs	.L403
 5222              	.L407:
 5223 0030 FB68     		ldr	r3, [r7, #12]
 5224 0032 1B68     		ldr	r3, [r3]
 5225 0034 0C33     		adds	r3, r3, #12
ARM GAS  C:\Users\user\AppData\Local\Temp\ccimlsD1.s 			page 91


 5226 0036 BB62     		str	r3, [r7, #40]
 5227 0038 BB6A     		ldr	r3, [r7, #40]
 5228              		.syntax unified
 5229              	@ 1072 "Drivers/CMSIS/Include/cmsis_gcc.h" 1
 5230 003a 53E8003F 		ldrex r3, [r3]
 5231              	@ 0 "" 2
 5232              		.thumb
 5233              		.syntax unified
 5234 003e 7B62     		str	r3, [r7, #36]
 5235 0040 7B6A     		ldr	r3, [r7, #36]
 5236 0042 23F4D073 		bic	r3, r3, #416
 5237 0046 FB63     		str	r3, [r7, #60]
 5238 0048 FB68     		ldr	r3, [r7, #12]
 5239 004a 1B68     		ldr	r3, [r3]
 5240 004c 0C33     		adds	r3, r3, #12
 5241 004e FA6B     		ldr	r2, [r7, #60]
 5242 0050 7A63     		str	r2, [r7, #52]
 5243 0052 3B63     		str	r3, [r7, #48]
 5244 0054 396B     		ldr	r1, [r7, #48]
 5245 0056 7A6B     		ldr	r2, [r7, #52]
 5246              		.syntax unified
 5247              	@ 1123 "Drivers/CMSIS/Include/cmsis_gcc.h" 1
 5248 0058 41E80023 		strex r3, r2, [r1]
 5249              	@ 0 "" 2
 5250              		.thumb
 5251              		.syntax unified
 5252 005c FB62     		str	r3, [r7, #44]
 5253 005e FB6A     		ldr	r3, [r7, #44]
 5254 0060 002B     		cmp	r3, #0
 5255 0062 E5D1     		bne	.L407
 5256              	.L410:
 5257 0064 FB68     		ldr	r3, [r7, #12]
 5258 0066 1B68     		ldr	r3, [r3]
 5259 0068 1433     		adds	r3, r3, #20
 5260 006a 7B61     		str	r3, [r7, #20]
 5261 006c 7B69     		ldr	r3, [r7, #20]
 5262              		.syntax unified
 5263              	@ 1072 "Drivers/CMSIS/Include/cmsis_gcc.h" 1
 5264 006e 53E8003F 		ldrex r3, [r3]
 5265              	@ 0 "" 2
 5266              		.thumb
 5267              		.syntax unified
 5268 0072 3B61     		str	r3, [r7, #16]
 5269 0074 3B69     		ldr	r3, [r7, #16]
 5270 0076 23F00103 		bic	r3, r3, #1
 5271 007a BB63     		str	r3, [r7, #56]
 5272 007c FB68     		ldr	r3, [r7, #12]
 5273 007e 1B68     		ldr	r3, [r3]
 5274 0080 1433     		adds	r3, r3, #20
 5275 0082 BA6B     		ldr	r2, [r7, #56]
 5276 0084 3A62     		str	r2, [r7, #32]
 5277 0086 FB61     		str	r3, [r7, #28]
 5278 0088 F969     		ldr	r1, [r7, #28]
 5279 008a 3A6A     		ldr	r2, [r7, #32]
 5280              		.syntax unified
 5281              	@ 1123 "Drivers/CMSIS/Include/cmsis_gcc.h" 1
 5282 008c 41E80023 		strex r3, r2, [r1]
ARM GAS  C:\Users\user\AppData\Local\Temp\ccimlsD1.s 			page 92


 5283              	@ 0 "" 2
 5284              		.thumb
 5285              		.syntax unified
 5286 0090 BB61     		str	r3, [r7, #24]
 5287 0092 BB69     		ldr	r3, [r7, #24]
 5288 0094 002B     		cmp	r3, #0
 5289 0096 E5D1     		bne	.L410
 5290 0098 FB68     		ldr	r3, [r7, #12]
 5291 009a 2022     		movs	r2, #32
 5292 009c 83F83D20 		strb	r2, [r3, #61]
 5293 00a0 FB68     		ldr	r3, [r7, #12]
 5294 00a2 2022     		movs	r2, #32
 5295 00a4 83F83E20 		strb	r2, [r3, #62]
 5296 00a8 FB68     		ldr	r3, [r7, #12]
 5297 00aa 0022     		movs	r2, #0
 5298 00ac 83F83C20 		strb	r2, [r3, #60]
 5299 00b0 0323     		movs	r3, #3
 5300 00b2 0FE0     		b	.L411
 5301              	.L403:
 5302 00b4 FB68     		ldr	r3, [r7, #12]
 5303 00b6 1B68     		ldr	r3, [r3]
 5304 00b8 1A68     		ldr	r2, [r3]
 5305 00ba BB68     		ldr	r3, [r7, #8]
 5306 00bc 1340     		ands	r3, r3, r2
 5307 00be BA68     		ldr	r2, [r7, #8]
 5308 00c0 9A42     		cmp	r2, r3
 5309 00c2 0CBF     		ite	eq
 5310 00c4 0123     		moveq	r3, #1
 5311 00c6 0023     		movne	r3, #0
 5312 00c8 DBB2     		uxtb	r3, r3
 5313 00ca 1A46     		mov	r2, r3
 5314 00cc FB79     		ldrb	r3, [r7, #7]	@ zero_extendqisi2
 5315 00ce 9A42     		cmp	r2, r3
 5316 00d0 9FD0     		beq	.L412
 5317 00d2 0023     		movs	r3, #0
 5318              	.L411:
 5319 00d4 1846     		mov	r0, r3
 5320 00d6 4037     		adds	r7, r7, #64
 5321 00d8 BD46     		mov	sp, r7
 5322              		@ sp needed
 5323 00da 80BD     		pop	{r7, pc}
 5325              		.section	.text.UART_Start_Receive_IT,"ax",%progbits
 5326              		.align	1
 5327              		.global	UART_Start_Receive_IT
 5328              		.syntax unified
 5329              		.thumb
 5330              		.thumb_func
 5332              	UART_Start_Receive_IT:
 5333              		@ args = 0, pretend = 0, frame = 16
 5334              		@ frame_needed = 1, uses_anonymous_args = 0
 5335              		@ link register save eliminated.
 5336 0000 80B4     		push	{r7}
 5337 0002 85B0     		sub	sp, sp, #20
 5338 0004 00AF     		add	r7, sp, #0
 5339 0006 F860     		str	r0, [r7, #12]
 5340 0008 B960     		str	r1, [r7, #8]
 5341 000a 1346     		mov	r3, r2
ARM GAS  C:\Users\user\AppData\Local\Temp\ccimlsD1.s 			page 93


 5342 000c FB80     		strh	r3, [r7, #6]	@ movhi
 5343 000e FB68     		ldr	r3, [r7, #12]
 5344 0010 BA68     		ldr	r2, [r7, #8]
 5345 0012 9A62     		str	r2, [r3, #40]
 5346 0014 FB68     		ldr	r3, [r7, #12]
 5347 0016 FA88     		ldrh	r2, [r7, #6]	@ movhi
 5348 0018 9A85     		strh	r2, [r3, #44]	@ movhi
 5349 001a FB68     		ldr	r3, [r7, #12]
 5350 001c FA88     		ldrh	r2, [r7, #6]	@ movhi
 5351 001e DA85     		strh	r2, [r3, #46]	@ movhi
 5352 0020 FB68     		ldr	r3, [r7, #12]
 5353 0022 0022     		movs	r2, #0
 5354 0024 1A64     		str	r2, [r3, #64]
 5355 0026 FB68     		ldr	r3, [r7, #12]
 5356 0028 2222     		movs	r2, #34
 5357 002a 83F83E20 		strb	r2, [r3, #62]
 5358 002e FB68     		ldr	r3, [r7, #12]
 5359 0030 0022     		movs	r2, #0
 5360 0032 83F83C20 		strb	r2, [r3, #60]
 5361 0036 FB68     		ldr	r3, [r7, #12]
 5362 0038 1B69     		ldr	r3, [r3, #16]
 5363 003a 002B     		cmp	r3, #0
 5364 003c 07D0     		beq	.L414
 5365 003e FB68     		ldr	r3, [r7, #12]
 5366 0040 1B68     		ldr	r3, [r3]
 5367 0042 DA68     		ldr	r2, [r3, #12]
 5368 0044 FB68     		ldr	r3, [r7, #12]
 5369 0046 1B68     		ldr	r3, [r3]
 5370 0048 42F48072 		orr	r2, r2, #256
 5371 004c DA60     		str	r2, [r3, #12]
 5372              	.L414:
 5373 004e FB68     		ldr	r3, [r7, #12]
 5374 0050 1B68     		ldr	r3, [r3]
 5375 0052 5A69     		ldr	r2, [r3, #20]
 5376 0054 FB68     		ldr	r3, [r7, #12]
 5377 0056 1B68     		ldr	r3, [r3]
 5378 0058 42F00102 		orr	r2, r2, #1
 5379 005c 5A61     		str	r2, [r3, #20]
 5380 005e FB68     		ldr	r3, [r7, #12]
 5381 0060 1B68     		ldr	r3, [r3]
 5382 0062 DA68     		ldr	r2, [r3, #12]
 5383 0064 FB68     		ldr	r3, [r7, #12]
 5384 0066 1B68     		ldr	r3, [r3]
 5385 0068 42F02002 		orr	r2, r2, #32
 5386 006c DA60     		str	r2, [r3, #12]
 5387 006e 0023     		movs	r3, #0
 5388 0070 1846     		mov	r0, r3
 5389 0072 1437     		adds	r7, r7, #20
 5390 0074 BD46     		mov	sp, r7
 5391              		@ sp needed
 5392 0076 5DF8047B 		ldr	r7, [sp], #4
 5393 007a 7047     		bx	lr
 5395              		.section	.text.UART_Start_Receive_DMA,"ax",%progbits
 5396              		.align	1
 5397              		.global	UART_Start_Receive_DMA
 5398              		.syntax unified
 5399              		.thumb
ARM GAS  C:\Users\user\AppData\Local\Temp\ccimlsD1.s 			page 94


 5400              		.thumb_func
 5402              	UART_Start_Receive_DMA:
 5403              		@ args = 0, pretend = 0, frame = 96
 5404              		@ frame_needed = 1, uses_anonymous_args = 0
 5405 0000 80B5     		push	{r7, lr}
 5406 0002 98B0     		sub	sp, sp, #96
 5407 0004 00AF     		add	r7, sp, #0
 5408 0006 F860     		str	r0, [r7, #12]
 5409 0008 B960     		str	r1, [r7, #8]
 5410 000a 1346     		mov	r3, r2
 5411 000c FB80     		strh	r3, [r7, #6]	@ movhi
 5412 000e BA68     		ldr	r2, [r7, #8]
 5413 0010 FB68     		ldr	r3, [r7, #12]
 5414 0012 9A62     		str	r2, [r3, #40]
 5415 0014 FB68     		ldr	r3, [r7, #12]
 5416 0016 FA88     		ldrh	r2, [r7, #6]	@ movhi
 5417 0018 9A85     		strh	r2, [r3, #44]	@ movhi
 5418 001a FB68     		ldr	r3, [r7, #12]
 5419 001c 0022     		movs	r2, #0
 5420 001e 1A64     		str	r2, [r3, #64]
 5421 0020 FB68     		ldr	r3, [r7, #12]
 5422 0022 2222     		movs	r2, #34
 5423 0024 83F83E20 		strb	r2, [r3, #62]
 5424 0028 FB68     		ldr	r3, [r7, #12]
 5425 002a 9B6B     		ldr	r3, [r3, #56]
 5426 002c 404A     		ldr	r2, .L428
 5427 002e DA63     		str	r2, [r3, #60]
 5428 0030 FB68     		ldr	r3, [r7, #12]
 5429 0032 9B6B     		ldr	r3, [r3, #56]
 5430 0034 3F4A     		ldr	r2, .L428+4
 5431 0036 1A64     		str	r2, [r3, #64]
 5432 0038 FB68     		ldr	r3, [r7, #12]
 5433 003a 9B6B     		ldr	r3, [r3, #56]
 5434 003c 3E4A     		ldr	r2, .L428+8
 5435 003e DA64     		str	r2, [r3, #76]
 5436 0040 FB68     		ldr	r3, [r7, #12]
 5437 0042 9B6B     		ldr	r3, [r3, #56]
 5438 0044 0022     		movs	r2, #0
 5439 0046 1A65     		str	r2, [r3, #80]
 5440 0048 07F10803 		add	r3, r7, #8
 5441 004c FB65     		str	r3, [r7, #92]
 5442 004e FB68     		ldr	r3, [r7, #12]
 5443 0050 986B     		ldr	r0, [r3, #56]
 5444 0052 FB68     		ldr	r3, [r7, #12]
 5445 0054 1B68     		ldr	r3, [r3]
 5446 0056 0433     		adds	r3, r3, #4
 5447 0058 1946     		mov	r1, r3
 5448 005a FB6D     		ldr	r3, [r7, #92]
 5449 005c 1A68     		ldr	r2, [r3]
 5450 005e FB88     		ldrh	r3, [r7, #6]
 5451 0060 FFF7FEFF 		bl	HAL_DMA_Start_IT
 5452 0064 0023     		movs	r3, #0
 5453 0066 3B61     		str	r3, [r7, #16]
 5454 0068 FB68     		ldr	r3, [r7, #12]
 5455 006a 1B68     		ldr	r3, [r3]
 5456 006c 1B68     		ldr	r3, [r3]
 5457 006e 3B61     		str	r3, [r7, #16]
ARM GAS  C:\Users\user\AppData\Local\Temp\ccimlsD1.s 			page 95


 5458 0070 FB68     		ldr	r3, [r7, #12]
 5459 0072 1B68     		ldr	r3, [r3]
 5460 0074 5B68     		ldr	r3, [r3, #4]
 5461 0076 3B61     		str	r3, [r7, #16]
 5462 0078 3B69     		ldr	r3, [r7, #16]
 5463 007a FB68     		ldr	r3, [r7, #12]
 5464 007c 0022     		movs	r2, #0
 5465 007e 83F83C20 		strb	r2, [r3, #60]
 5466 0082 FB68     		ldr	r3, [r7, #12]
 5467 0084 1B69     		ldr	r3, [r3, #16]
 5468 0086 002B     		cmp	r3, #0
 5469 0088 19D0     		beq	.L423
 5470              	.L420:
 5471 008a FB68     		ldr	r3, [r7, #12]
 5472 008c 1B68     		ldr	r3, [r3]
 5473 008e 0C33     		adds	r3, r3, #12
 5474 0090 3B64     		str	r3, [r7, #64]
 5475 0092 3B6C     		ldr	r3, [r7, #64]
 5476              		.syntax unified
 5477              	@ 1072 "Drivers/CMSIS/Include/cmsis_gcc.h" 1
 5478 0094 53E8003F 		ldrex r3, [r3]
 5479              	@ 0 "" 2
 5480              		.thumb
 5481              		.syntax unified
 5482 0098 FB63     		str	r3, [r7, #60]
 5483 009a FB6B     		ldr	r3, [r7, #60]
 5484 009c 43F48073 		orr	r3, r3, #256
 5485 00a0 BB65     		str	r3, [r7, #88]
 5486 00a2 FB68     		ldr	r3, [r7, #12]
 5487 00a4 1B68     		ldr	r3, [r3]
 5488 00a6 0C33     		adds	r3, r3, #12
 5489 00a8 BA6D     		ldr	r2, [r7, #88]
 5490 00aa FA64     		str	r2, [r7, #76]
 5491 00ac BB64     		str	r3, [r7, #72]
 5492 00ae B96C     		ldr	r1, [r7, #72]
 5493 00b0 FA6C     		ldr	r2, [r7, #76]
 5494              		.syntax unified
 5495              	@ 1123 "Drivers/CMSIS/Include/cmsis_gcc.h" 1
 5496 00b2 41E80023 		strex r3, r2, [r1]
 5497              	@ 0 "" 2
 5498              		.thumb
 5499              		.syntax unified
 5500 00b6 7B64     		str	r3, [r7, #68]
 5501 00b8 7B6C     		ldr	r3, [r7, #68]
 5502 00ba 002B     		cmp	r3, #0
 5503 00bc E5D1     		bne	.L420
 5504              	.L423:
 5505 00be FB68     		ldr	r3, [r7, #12]
 5506 00c0 1B68     		ldr	r3, [r3]
 5507 00c2 1433     		adds	r3, r3, #20
 5508 00c4 FB62     		str	r3, [r7, #44]
 5509 00c6 FB6A     		ldr	r3, [r7, #44]
 5510              		.syntax unified
 5511              	@ 1072 "Drivers/CMSIS/Include/cmsis_gcc.h" 1
 5512 00c8 53E8003F 		ldrex r3, [r3]
 5513              	@ 0 "" 2
 5514              		.thumb
ARM GAS  C:\Users\user\AppData\Local\Temp\ccimlsD1.s 			page 96


 5515              		.syntax unified
 5516 00cc BB62     		str	r3, [r7, #40]
 5517 00ce BB6A     		ldr	r3, [r7, #40]
 5518 00d0 43F00103 		orr	r3, r3, #1
 5519 00d4 7B65     		str	r3, [r7, #84]
 5520 00d6 FB68     		ldr	r3, [r7, #12]
 5521 00d8 1B68     		ldr	r3, [r3]
 5522 00da 1433     		adds	r3, r3, #20
 5523 00dc 7A6D     		ldr	r2, [r7, #84]
 5524 00de BA63     		str	r2, [r7, #56]
 5525 00e0 7B63     		str	r3, [r7, #52]
 5526 00e2 796B     		ldr	r1, [r7, #52]
 5527 00e4 BA6B     		ldr	r2, [r7, #56]
 5528              		.syntax unified
 5529              	@ 1123 "Drivers/CMSIS/Include/cmsis_gcc.h" 1
 5530 00e6 41E80023 		strex r3, r2, [r1]
 5531              	@ 0 "" 2
 5532              		.thumb
 5533              		.syntax unified
 5534 00ea 3B63     		str	r3, [r7, #48]
 5535 00ec 3B6B     		ldr	r3, [r7, #48]
 5536 00ee 002B     		cmp	r3, #0
 5537 00f0 E5D1     		bne	.L423
 5538              	.L426:
 5539 00f2 FB68     		ldr	r3, [r7, #12]
 5540 00f4 1B68     		ldr	r3, [r3]
 5541 00f6 1433     		adds	r3, r3, #20
 5542 00f8 BB61     		str	r3, [r7, #24]
 5543 00fa BB69     		ldr	r3, [r7, #24]
 5544              		.syntax unified
 5545              	@ 1072 "Drivers/CMSIS/Include/cmsis_gcc.h" 1
 5546 00fc 53E8003F 		ldrex r3, [r3]
 5547              	@ 0 "" 2
 5548              		.thumb
 5549              		.syntax unified
 5550 0100 7B61     		str	r3, [r7, #20]
 5551 0102 7B69     		ldr	r3, [r7, #20]
 5552 0104 43F04003 		orr	r3, r3, #64
 5553 0108 3B65     		str	r3, [r7, #80]
 5554 010a FB68     		ldr	r3, [r7, #12]
 5555 010c 1B68     		ldr	r3, [r3]
 5556 010e 1433     		adds	r3, r3, #20
 5557 0110 3A6D     		ldr	r2, [r7, #80]
 5558 0112 7A62     		str	r2, [r7, #36]
 5559 0114 3B62     		str	r3, [r7, #32]
 5560 0116 396A     		ldr	r1, [r7, #32]
 5561 0118 7A6A     		ldr	r2, [r7, #36]
 5562              		.syntax unified
 5563              	@ 1123 "Drivers/CMSIS/Include/cmsis_gcc.h" 1
 5564 011a 41E80023 		strex r3, r2, [r1]
 5565              	@ 0 "" 2
 5566              		.thumb
 5567              		.syntax unified
 5568 011e FB61     		str	r3, [r7, #28]
 5569 0120 FB69     		ldr	r3, [r7, #28]
 5570 0122 002B     		cmp	r3, #0
 5571 0124 E5D1     		bne	.L426
ARM GAS  C:\Users\user\AppData\Local\Temp\ccimlsD1.s 			page 97


 5572 0126 0023     		movs	r3, #0
 5573 0128 1846     		mov	r0, r3
 5574 012a 6037     		adds	r7, r7, #96
 5575 012c BD46     		mov	sp, r7
 5576              		@ sp needed
 5577 012e 80BD     		pop	{r7, pc}
 5578              	.L429:
 5579              		.align	2
 5580              	.L428:
 5581 0130 00000000 		.word	UART_DMAReceiveCplt
 5582 0134 00000000 		.word	UART_DMARxHalfCplt
 5583 0138 00000000 		.word	UART_DMAError
 5585              		.section	.text.UART_EndTxTransfer,"ax",%progbits
 5586              		.align	1
 5587              		.syntax unified
 5588              		.thumb
 5589              		.thumb_func
 5591              	UART_EndTxTransfer:
 5592              		@ args = 0, pretend = 0, frame = 32
 5593              		@ frame_needed = 1, uses_anonymous_args = 0
 5594              		@ link register save eliminated.
 5595 0000 80B4     		push	{r7}
 5596 0002 89B0     		sub	sp, sp, #36
 5597 0004 00AF     		add	r7, sp, #0
 5598 0006 7860     		str	r0, [r7, #4]
 5599              	.L433:
 5600 0008 7B68     		ldr	r3, [r7, #4]
 5601 000a 1B68     		ldr	r3, [r3]
 5602 000c 0C33     		adds	r3, r3, #12
 5603 000e FB60     		str	r3, [r7, #12]
 5604 0010 FB68     		ldr	r3, [r7, #12]
 5605              		.syntax unified
 5606              	@ 1072 "Drivers/CMSIS/Include/cmsis_gcc.h" 1
 5607 0012 53E8003F 		ldrex r3, [r3]
 5608              	@ 0 "" 2
 5609              		.thumb
 5610              		.syntax unified
 5611 0016 BB60     		str	r3, [r7, #8]
 5612 0018 BB68     		ldr	r3, [r7, #8]
 5613 001a 23F0C003 		bic	r3, r3, #192
 5614 001e FB61     		str	r3, [r7, #28]
 5615 0020 7B68     		ldr	r3, [r7, #4]
 5616 0022 1B68     		ldr	r3, [r3]
 5617 0024 0C33     		adds	r3, r3, #12
 5618 0026 FA69     		ldr	r2, [r7, #28]
 5619 0028 BA61     		str	r2, [r7, #24]
 5620 002a 7B61     		str	r3, [r7, #20]
 5621 002c 7969     		ldr	r1, [r7, #20]
 5622 002e BA69     		ldr	r2, [r7, #24]
 5623              		.syntax unified
 5624              	@ 1123 "Drivers/CMSIS/Include/cmsis_gcc.h" 1
 5625 0030 41E80023 		strex r3, r2, [r1]
 5626              	@ 0 "" 2
 5627              		.thumb
 5628              		.syntax unified
 5629 0034 3B61     		str	r3, [r7, #16]
 5630 0036 3B69     		ldr	r3, [r7, #16]
ARM GAS  C:\Users\user\AppData\Local\Temp\ccimlsD1.s 			page 98


 5631 0038 002B     		cmp	r3, #0
 5632 003a E5D1     		bne	.L433
 5633 003c 7B68     		ldr	r3, [r7, #4]
 5634 003e 2022     		movs	r2, #32
 5635 0040 83F83D20 		strb	r2, [r3, #61]
 5636 0044 00BF     		nop
 5637 0046 2437     		adds	r7, r7, #36
 5638 0048 BD46     		mov	sp, r7
 5639              		@ sp needed
 5640 004a 5DF8047B 		ldr	r7, [sp], #4
 5641 004e 7047     		bx	lr
 5643              		.section	.text.UART_EndRxTransfer,"ax",%progbits
 5644              		.align	1
 5645              		.syntax unified
 5646              		.thumb
 5647              		.thumb_func
 5649              	UART_EndRxTransfer:
 5650              		@ args = 0, pretend = 0, frame = 80
 5651              		@ frame_needed = 1, uses_anonymous_args = 0
 5652              		@ link register save eliminated.
 5653 0000 80B4     		push	{r7}
 5654 0002 95B0     		sub	sp, sp, #84
 5655 0004 00AF     		add	r7, sp, #0
 5656 0006 7860     		str	r0, [r7, #4]
 5657              	.L437:
 5658 0008 7B68     		ldr	r3, [r7, #4]
 5659 000a 1B68     		ldr	r3, [r3]
 5660 000c 0C33     		adds	r3, r3, #12
 5661 000e 7B63     		str	r3, [r7, #52]
 5662 0010 7B6B     		ldr	r3, [r7, #52]
 5663              		.syntax unified
 5664              	@ 1072 "Drivers/CMSIS/Include/cmsis_gcc.h" 1
 5665 0012 53E8003F 		ldrex r3, [r3]
 5666              	@ 0 "" 2
 5667              		.thumb
 5668              		.syntax unified
 5669 0016 3B63     		str	r3, [r7, #48]
 5670 0018 3B6B     		ldr	r3, [r7, #48]
 5671 001a 23F49073 		bic	r3, r3, #288
 5672 001e FB64     		str	r3, [r7, #76]
 5673 0020 7B68     		ldr	r3, [r7, #4]
 5674 0022 1B68     		ldr	r3, [r3]
 5675 0024 0C33     		adds	r3, r3, #12
 5676 0026 FA6C     		ldr	r2, [r7, #76]
 5677 0028 3A64     		str	r2, [r7, #64]
 5678 002a FB63     		str	r3, [r7, #60]
 5679 002c F96B     		ldr	r1, [r7, #60]
 5680 002e 3A6C     		ldr	r2, [r7, #64]
 5681              		.syntax unified
 5682              	@ 1123 "Drivers/CMSIS/Include/cmsis_gcc.h" 1
 5683 0030 41E80023 		strex r3, r2, [r1]
 5684              	@ 0 "" 2
 5685              		.thumb
 5686              		.syntax unified
 5687 0034 BB63     		str	r3, [r7, #56]
 5688 0036 BB6B     		ldr	r3, [r7, #56]
 5689 0038 002B     		cmp	r3, #0
ARM GAS  C:\Users\user\AppData\Local\Temp\ccimlsD1.s 			page 99


 5690 003a E5D1     		bne	.L437
 5691              	.L440:
 5692 003c 7B68     		ldr	r3, [r7, #4]
 5693 003e 1B68     		ldr	r3, [r3]
 5694 0040 1433     		adds	r3, r3, #20
 5695 0042 3B62     		str	r3, [r7, #32]
 5696 0044 3B6A     		ldr	r3, [r7, #32]
 5697              		.syntax unified
 5698              	@ 1072 "Drivers/CMSIS/Include/cmsis_gcc.h" 1
 5699 0046 53E8003F 		ldrex r3, [r3]
 5700              	@ 0 "" 2
 5701              		.thumb
 5702              		.syntax unified
 5703 004a FB61     		str	r3, [r7, #28]
 5704 004c FB69     		ldr	r3, [r7, #28]
 5705 004e 23F00103 		bic	r3, r3, #1
 5706 0052 BB64     		str	r3, [r7, #72]
 5707 0054 7B68     		ldr	r3, [r7, #4]
 5708 0056 1B68     		ldr	r3, [r3]
 5709 0058 1433     		adds	r3, r3, #20
 5710 005a BA6C     		ldr	r2, [r7, #72]
 5711 005c FA62     		str	r2, [r7, #44]
 5712 005e BB62     		str	r3, [r7, #40]
 5713 0060 B96A     		ldr	r1, [r7, #40]
 5714 0062 FA6A     		ldr	r2, [r7, #44]
 5715              		.syntax unified
 5716              	@ 1123 "Drivers/CMSIS/Include/cmsis_gcc.h" 1
 5717 0064 41E80023 		strex r3, r2, [r1]
 5718              	@ 0 "" 2
 5719              		.thumb
 5720              		.syntax unified
 5721 0068 7B62     		str	r3, [r7, #36]
 5722 006a 7B6A     		ldr	r3, [r7, #36]
 5723 006c 002B     		cmp	r3, #0
 5724 006e E5D1     		bne	.L440
 5725 0070 7B68     		ldr	r3, [r7, #4]
 5726 0072 1B6B     		ldr	r3, [r3, #48]
 5727 0074 012B     		cmp	r3, #1
 5728 0076 19D1     		bne	.L441
 5729              	.L444:
 5730 0078 7B68     		ldr	r3, [r7, #4]
 5731 007a 1B68     		ldr	r3, [r3]
 5732 007c 0C33     		adds	r3, r3, #12
 5733 007e FB60     		str	r3, [r7, #12]
 5734 0080 FB68     		ldr	r3, [r7, #12]
 5735              		.syntax unified
 5736              	@ 1072 "Drivers/CMSIS/Include/cmsis_gcc.h" 1
 5737 0082 53E8003F 		ldrex r3, [r3]
 5738              	@ 0 "" 2
 5739              		.thumb
 5740              		.syntax unified
 5741 0086 BB60     		str	r3, [r7, #8]
 5742 0088 BB68     		ldr	r3, [r7, #8]
 5743 008a 23F01003 		bic	r3, r3, #16
 5744 008e 7B64     		str	r3, [r7, #68]
 5745 0090 7B68     		ldr	r3, [r7, #4]
 5746 0092 1B68     		ldr	r3, [r3]
ARM GAS  C:\Users\user\AppData\Local\Temp\ccimlsD1.s 			page 100


 5747 0094 0C33     		adds	r3, r3, #12
 5748 0096 7A6C     		ldr	r2, [r7, #68]
 5749 0098 BA61     		str	r2, [r7, #24]
 5750 009a 7B61     		str	r3, [r7, #20]
 5751 009c 7969     		ldr	r1, [r7, #20]
 5752 009e BA69     		ldr	r2, [r7, #24]
 5753              		.syntax unified
 5754              	@ 1123 "Drivers/CMSIS/Include/cmsis_gcc.h" 1
 5755 00a0 41E80023 		strex r3, r2, [r1]
 5756              	@ 0 "" 2
 5757              		.thumb
 5758              		.syntax unified
 5759 00a4 3B61     		str	r3, [r7, #16]
 5760 00a6 3B69     		ldr	r3, [r7, #16]
 5761 00a8 002B     		cmp	r3, #0
 5762 00aa E5D1     		bne	.L444
 5763              	.L441:
 5764 00ac 7B68     		ldr	r3, [r7, #4]
 5765 00ae 2022     		movs	r2, #32
 5766 00b0 83F83E20 		strb	r2, [r3, #62]
 5767 00b4 7B68     		ldr	r3, [r7, #4]
 5768 00b6 0022     		movs	r2, #0
 5769 00b8 1A63     		str	r2, [r3, #48]
 5770 00ba 00BF     		nop
 5771 00bc 5437     		adds	r7, r7, #84
 5772 00be BD46     		mov	sp, r7
 5773              		@ sp needed
 5774 00c0 5DF8047B 		ldr	r7, [sp], #4
 5775 00c4 7047     		bx	lr
 5777              		.section	.text.UART_DMAAbortOnError,"ax",%progbits
 5778              		.align	1
 5779              		.syntax unified
 5780              		.thumb
 5781              		.thumb_func
 5783              	UART_DMAAbortOnError:
 5784              		@ args = 0, pretend = 0, frame = 16
 5785              		@ frame_needed = 1, uses_anonymous_args = 0
 5786 0000 80B5     		push	{r7, lr}
 5787 0002 84B0     		sub	sp, sp, #16
 5788 0004 00AF     		add	r7, sp, #0
 5789 0006 7860     		str	r0, [r7, #4]
 5790 0008 7B68     		ldr	r3, [r7, #4]
 5791 000a 9B6B     		ldr	r3, [r3, #56]
 5792 000c FB60     		str	r3, [r7, #12]
 5793 000e FB68     		ldr	r3, [r7, #12]
 5794 0010 0022     		movs	r2, #0
 5795 0012 DA85     		strh	r2, [r3, #46]	@ movhi
 5796 0014 FB68     		ldr	r3, [r7, #12]
 5797 0016 0022     		movs	r2, #0
 5798 0018 DA84     		strh	r2, [r3, #38]	@ movhi
 5799 001a F868     		ldr	r0, [r7, #12]
 5800 001c FFF7FEFF 		bl	HAL_UART_ErrorCallback
 5801 0020 00BF     		nop
 5802 0022 1037     		adds	r7, r7, #16
 5803 0024 BD46     		mov	sp, r7
 5804              		@ sp needed
 5805 0026 80BD     		pop	{r7, pc}
ARM GAS  C:\Users\user\AppData\Local\Temp\ccimlsD1.s 			page 101


 5807              		.section	.text.UART_DMATxAbortCallback,"ax",%progbits
 5808              		.align	1
 5809              		.syntax unified
 5810              		.thumb
 5811              		.thumb_func
 5813              	UART_DMATxAbortCallback:
 5814              		@ args = 0, pretend = 0, frame = 16
 5815              		@ frame_needed = 1, uses_anonymous_args = 0
 5816 0000 80B5     		push	{r7, lr}
 5817 0002 84B0     		sub	sp, sp, #16
 5818 0004 00AF     		add	r7, sp, #0
 5819 0006 7860     		str	r0, [r7, #4]
 5820 0008 7B68     		ldr	r3, [r7, #4]
 5821 000a 9B6B     		ldr	r3, [r3, #56]
 5822 000c FB60     		str	r3, [r7, #12]
 5823 000e FB68     		ldr	r3, [r7, #12]
 5824 0010 5B6B     		ldr	r3, [r3, #52]
 5825 0012 0022     		movs	r2, #0
 5826 0014 1A65     		str	r2, [r3, #80]
 5827 0016 FB68     		ldr	r3, [r7, #12]
 5828 0018 9B6B     		ldr	r3, [r3, #56]
 5829 001a 002B     		cmp	r3, #0
 5830 001c 04D0     		beq	.L447
 5831 001e FB68     		ldr	r3, [r7, #12]
 5832 0020 9B6B     		ldr	r3, [r3, #56]
 5833 0022 1B6D     		ldr	r3, [r3, #80]
 5834 0024 002B     		cmp	r3, #0
 5835 0026 17D1     		bne	.L449
 5836              	.L447:
 5837 0028 FB68     		ldr	r3, [r7, #12]
 5838 002a 0022     		movs	r2, #0
 5839 002c DA84     		strh	r2, [r3, #38]	@ movhi
 5840 002e FB68     		ldr	r3, [r7, #12]
 5841 0030 0022     		movs	r2, #0
 5842 0032 DA85     		strh	r2, [r3, #46]	@ movhi
 5843 0034 FB68     		ldr	r3, [r7, #12]
 5844 0036 0022     		movs	r2, #0
 5845 0038 1A64     		str	r2, [r3, #64]
 5846 003a FB68     		ldr	r3, [r7, #12]
 5847 003c 2022     		movs	r2, #32
 5848 003e 83F83D20 		strb	r2, [r3, #61]
 5849 0042 FB68     		ldr	r3, [r7, #12]
 5850 0044 2022     		movs	r2, #32
 5851 0046 83F83E20 		strb	r2, [r3, #62]
 5852 004a FB68     		ldr	r3, [r7, #12]
 5853 004c 0022     		movs	r2, #0
 5854 004e 1A63     		str	r2, [r3, #48]
 5855 0050 F868     		ldr	r0, [r7, #12]
 5856 0052 FFF7FEFF 		bl	HAL_UART_AbortCpltCallback
 5857 0056 00E0     		b	.L446
 5858              	.L449:
 5859 0058 00BF     		nop
 5860              	.L446:
 5861 005a 1037     		adds	r7, r7, #16
 5862 005c BD46     		mov	sp, r7
 5863              		@ sp needed
 5864 005e 80BD     		pop	{r7, pc}
ARM GAS  C:\Users\user\AppData\Local\Temp\ccimlsD1.s 			page 102


 5866              		.section	.text.UART_DMARxAbortCallback,"ax",%progbits
 5867              		.align	1
 5868              		.syntax unified
 5869              		.thumb
 5870              		.thumb_func
 5872              	UART_DMARxAbortCallback:
 5873              		@ args = 0, pretend = 0, frame = 16
 5874              		@ frame_needed = 1, uses_anonymous_args = 0
 5875 0000 80B5     		push	{r7, lr}
 5876 0002 84B0     		sub	sp, sp, #16
 5877 0004 00AF     		add	r7, sp, #0
 5878 0006 7860     		str	r0, [r7, #4]
 5879 0008 7B68     		ldr	r3, [r7, #4]
 5880 000a 9B6B     		ldr	r3, [r3, #56]
 5881 000c FB60     		str	r3, [r7, #12]
 5882 000e FB68     		ldr	r3, [r7, #12]
 5883 0010 9B6B     		ldr	r3, [r3, #56]
 5884 0012 0022     		movs	r2, #0
 5885 0014 1A65     		str	r2, [r3, #80]
 5886 0016 FB68     		ldr	r3, [r7, #12]
 5887 0018 5B6B     		ldr	r3, [r3, #52]
 5888 001a 002B     		cmp	r3, #0
 5889 001c 04D0     		beq	.L451
 5890 001e FB68     		ldr	r3, [r7, #12]
 5891 0020 5B6B     		ldr	r3, [r3, #52]
 5892 0022 1B6D     		ldr	r3, [r3, #80]
 5893 0024 002B     		cmp	r3, #0
 5894 0026 17D1     		bne	.L453
 5895              	.L451:
 5896 0028 FB68     		ldr	r3, [r7, #12]
 5897 002a 0022     		movs	r2, #0
 5898 002c DA84     		strh	r2, [r3, #38]	@ movhi
 5899 002e FB68     		ldr	r3, [r7, #12]
 5900 0030 0022     		movs	r2, #0
 5901 0032 DA85     		strh	r2, [r3, #46]	@ movhi
 5902 0034 FB68     		ldr	r3, [r7, #12]
 5903 0036 0022     		movs	r2, #0
 5904 0038 1A64     		str	r2, [r3, #64]
 5905 003a FB68     		ldr	r3, [r7, #12]
 5906 003c 2022     		movs	r2, #32
 5907 003e 83F83D20 		strb	r2, [r3, #61]
 5908 0042 FB68     		ldr	r3, [r7, #12]
 5909 0044 2022     		movs	r2, #32
 5910 0046 83F83E20 		strb	r2, [r3, #62]
 5911 004a FB68     		ldr	r3, [r7, #12]
 5912 004c 0022     		movs	r2, #0
 5913 004e 1A63     		str	r2, [r3, #48]
 5914 0050 F868     		ldr	r0, [r7, #12]
 5915 0052 FFF7FEFF 		bl	HAL_UART_AbortCpltCallback
 5916 0056 00E0     		b	.L450
 5917              	.L453:
 5918 0058 00BF     		nop
 5919              	.L450:
 5920 005a 1037     		adds	r7, r7, #16
 5921 005c BD46     		mov	sp, r7
 5922              		@ sp needed
 5923 005e 80BD     		pop	{r7, pc}
ARM GAS  C:\Users\user\AppData\Local\Temp\ccimlsD1.s 			page 103


 5925              		.section	.text.UART_DMATxOnlyAbortCallback,"ax",%progbits
 5926              		.align	1
 5927              		.syntax unified
 5928              		.thumb
 5929              		.thumb_func
 5931              	UART_DMATxOnlyAbortCallback:
 5932              		@ args = 0, pretend = 0, frame = 16
 5933              		@ frame_needed = 1, uses_anonymous_args = 0
 5934 0000 80B5     		push	{r7, lr}
 5935 0002 84B0     		sub	sp, sp, #16
 5936 0004 00AF     		add	r7, sp, #0
 5937 0006 7860     		str	r0, [r7, #4]
 5938 0008 7B68     		ldr	r3, [r7, #4]
 5939 000a 9B6B     		ldr	r3, [r3, #56]
 5940 000c FB60     		str	r3, [r7, #12]
 5941 000e FB68     		ldr	r3, [r7, #12]
 5942 0010 0022     		movs	r2, #0
 5943 0012 DA84     		strh	r2, [r3, #38]	@ movhi
 5944 0014 FB68     		ldr	r3, [r7, #12]
 5945 0016 2022     		movs	r2, #32
 5946 0018 83F83D20 		strb	r2, [r3, #61]
 5947 001c F868     		ldr	r0, [r7, #12]
 5948 001e FFF7FEFF 		bl	HAL_UART_AbortTransmitCpltCallback
 5949 0022 00BF     		nop
 5950 0024 1037     		adds	r7, r7, #16
 5951 0026 BD46     		mov	sp, r7
 5952              		@ sp needed
 5953 0028 80BD     		pop	{r7, pc}
 5955              		.section	.text.UART_DMARxOnlyAbortCallback,"ax",%progbits
 5956              		.align	1
 5957              		.syntax unified
 5958              		.thumb
 5959              		.thumb_func
 5961              	UART_DMARxOnlyAbortCallback:
 5962              		@ args = 0, pretend = 0, frame = 16
 5963              		@ frame_needed = 1, uses_anonymous_args = 0
 5964 0000 80B5     		push	{r7, lr}
 5965 0002 84B0     		sub	sp, sp, #16
 5966 0004 00AF     		add	r7, sp, #0
 5967 0006 7860     		str	r0, [r7, #4]
 5968 0008 7B68     		ldr	r3, [r7, #4]
 5969 000a 9B6B     		ldr	r3, [r3, #56]
 5970 000c FB60     		str	r3, [r7, #12]
 5971 000e FB68     		ldr	r3, [r7, #12]
 5972 0010 0022     		movs	r2, #0
 5973 0012 DA85     		strh	r2, [r3, #46]	@ movhi
 5974 0014 FB68     		ldr	r3, [r7, #12]
 5975 0016 2022     		movs	r2, #32
 5976 0018 83F83E20 		strb	r2, [r3, #62]
 5977 001c FB68     		ldr	r3, [r7, #12]
 5978 001e 0022     		movs	r2, #0
 5979 0020 1A63     		str	r2, [r3, #48]
 5980 0022 F868     		ldr	r0, [r7, #12]
 5981 0024 FFF7FEFF 		bl	HAL_UART_AbortReceiveCpltCallback
 5982 0028 00BF     		nop
 5983 002a 1037     		adds	r7, r7, #16
 5984 002c BD46     		mov	sp, r7
ARM GAS  C:\Users\user\AppData\Local\Temp\ccimlsD1.s 			page 104


 5985              		@ sp needed
 5986 002e 80BD     		pop	{r7, pc}
 5988              		.section	.text.UART_Transmit_IT,"ax",%progbits
 5989              		.align	1
 5990              		.syntax unified
 5991              		.thumb
 5992              		.thumb_func
 5994              	UART_Transmit_IT:
 5995              		@ args = 0, pretend = 0, frame = 16
 5996              		@ frame_needed = 1, uses_anonymous_args = 0
 5997              		@ link register save eliminated.
 5998 0000 80B4     		push	{r7}
 5999 0002 85B0     		sub	sp, sp, #20
 6000 0004 00AF     		add	r7, sp, #0
 6001 0006 7860     		str	r0, [r7, #4]
 6002 0008 7B68     		ldr	r3, [r7, #4]
 6003 000a 93F83D30 		ldrb	r3, [r3, #61]
 6004 000e DBB2     		uxtb	r3, r3
 6005 0010 212B     		cmp	r3, #33
 6006 0012 3ED1     		bne	.L457
 6007 0014 7B68     		ldr	r3, [r7, #4]
 6008 0016 9B68     		ldr	r3, [r3, #8]
 6009 0018 B3F5805F 		cmp	r3, #4096
 6010 001c 14D1     		bne	.L458
 6011 001e 7B68     		ldr	r3, [r7, #4]
 6012 0020 1B69     		ldr	r3, [r3, #16]
 6013 0022 002B     		cmp	r3, #0
 6014 0024 10D1     		bne	.L458
 6015 0026 7B68     		ldr	r3, [r7, #4]
 6016 0028 1B6A     		ldr	r3, [r3, #32]
 6017 002a FB60     		str	r3, [r7, #12]
 6018 002c FB68     		ldr	r3, [r7, #12]
 6019 002e 1B88     		ldrh	r3, [r3]
 6020 0030 1A46     		mov	r2, r3
 6021 0032 7B68     		ldr	r3, [r7, #4]
 6022 0034 1B68     		ldr	r3, [r3]
 6023 0036 C2F30802 		ubfx	r2, r2, #0, #9
 6024 003a 5A60     		str	r2, [r3, #4]
 6025 003c 7B68     		ldr	r3, [r7, #4]
 6026 003e 1B6A     		ldr	r3, [r3, #32]
 6027 0040 9A1C     		adds	r2, r3, #2
 6028 0042 7B68     		ldr	r3, [r7, #4]
 6029 0044 1A62     		str	r2, [r3, #32]
 6030 0046 08E0     		b	.L459
 6031              	.L458:
 6032 0048 7B68     		ldr	r3, [r7, #4]
 6033 004a 1B6A     		ldr	r3, [r3, #32]
 6034 004c 591C     		adds	r1, r3, #1
 6035 004e 7A68     		ldr	r2, [r7, #4]
 6036 0050 1162     		str	r1, [r2, #32]
 6037 0052 1A78     		ldrb	r2, [r3]	@ zero_extendqisi2
 6038 0054 7B68     		ldr	r3, [r7, #4]
 6039 0056 1B68     		ldr	r3, [r3]
 6040 0058 5A60     		str	r2, [r3, #4]
 6041              	.L459:
 6042 005a 7B68     		ldr	r3, [r7, #4]
 6043 005c DB8C     		ldrh	r3, [r3, #38]	@ movhi
ARM GAS  C:\Users\user\AppData\Local\Temp\ccimlsD1.s 			page 105


 6044 005e 9BB2     		uxth	r3, r3
 6045 0060 013B     		subs	r3, r3, #1
 6046 0062 9BB2     		uxth	r3, r3
 6047 0064 7A68     		ldr	r2, [r7, #4]
 6048 0066 1946     		mov	r1, r3	@ movhi
 6049 0068 D184     		strh	r1, [r2, #38]	@ movhi
 6050 006a 002B     		cmp	r3, #0
 6051 006c 0FD1     		bne	.L460
 6052 006e 7B68     		ldr	r3, [r7, #4]
 6053 0070 1B68     		ldr	r3, [r3]
 6054 0072 DA68     		ldr	r2, [r3, #12]
 6055 0074 7B68     		ldr	r3, [r7, #4]
 6056 0076 1B68     		ldr	r3, [r3]
 6057 0078 22F08002 		bic	r2, r2, #128
 6058 007c DA60     		str	r2, [r3, #12]
 6059 007e 7B68     		ldr	r3, [r7, #4]
 6060 0080 1B68     		ldr	r3, [r3]
 6061 0082 DA68     		ldr	r2, [r3, #12]
 6062 0084 7B68     		ldr	r3, [r7, #4]
 6063 0086 1B68     		ldr	r3, [r3]
 6064 0088 42F04002 		orr	r2, r2, #64
 6065 008c DA60     		str	r2, [r3, #12]
 6066              	.L460:
 6067 008e 0023     		movs	r3, #0
 6068 0090 00E0     		b	.L461
 6069              	.L457:
 6070 0092 0223     		movs	r3, #2
 6071              	.L461:
 6072 0094 1846     		mov	r0, r3
 6073 0096 1437     		adds	r7, r7, #20
 6074 0098 BD46     		mov	sp, r7
 6075              		@ sp needed
 6076 009a 5DF8047B 		ldr	r7, [sp], #4
 6077 009e 7047     		bx	lr
 6079              		.section	.text.UART_EndTransmit_IT,"ax",%progbits
 6080              		.align	1
 6081              		.syntax unified
 6082              		.thumb
 6083              		.thumb_func
 6085              	UART_EndTransmit_IT:
 6086              		@ args = 0, pretend = 0, frame = 8
 6087              		@ frame_needed = 1, uses_anonymous_args = 0
 6088 0000 80B5     		push	{r7, lr}
 6089 0002 82B0     		sub	sp, sp, #8
 6090 0004 00AF     		add	r7, sp, #0
 6091 0006 7860     		str	r0, [r7, #4]
 6092 0008 7B68     		ldr	r3, [r7, #4]
 6093 000a 1B68     		ldr	r3, [r3]
 6094 000c DA68     		ldr	r2, [r3, #12]
 6095 000e 7B68     		ldr	r3, [r7, #4]
 6096 0010 1B68     		ldr	r3, [r3]
 6097 0012 22F04002 		bic	r2, r2, #64
 6098 0016 DA60     		str	r2, [r3, #12]
 6099 0018 7B68     		ldr	r3, [r7, #4]
 6100 001a 2022     		movs	r2, #32
 6101 001c 83F83D20 		strb	r2, [r3, #61]
 6102 0020 7868     		ldr	r0, [r7, #4]
ARM GAS  C:\Users\user\AppData\Local\Temp\ccimlsD1.s 			page 106


 6103 0022 FFF7FEFF 		bl	HAL_UART_TxCpltCallback
 6104 0026 0023     		movs	r3, #0
 6105 0028 1846     		mov	r0, r3
 6106 002a 0837     		adds	r7, r7, #8
 6107 002c BD46     		mov	sp, r7
 6108              		@ sp needed
 6109 002e 80BD     		pop	{r7, pc}
 6111              		.section	.text.UART_Receive_IT,"ax",%progbits
 6112              		.align	1
 6113              		.syntax unified
 6114              		.thumb
 6115              		.thumb_func
 6117              	UART_Receive_IT:
 6118              		@ args = 0, pretend = 0, frame = 48
 6119              		@ frame_needed = 1, uses_anonymous_args = 0
 6120 0000 80B5     		push	{r7, lr}
 6121 0002 8CB0     		sub	sp, sp, #48
 6122 0004 00AF     		add	r7, sp, #0
 6123 0006 7860     		str	r0, [r7, #4]
 6124 0008 7B68     		ldr	r3, [r7, #4]
 6125 000a 93F83E30 		ldrb	r3, [r3, #62]
 6126 000e DBB2     		uxtb	r3, r3
 6127 0010 222B     		cmp	r3, #34
 6128 0012 40F0AB80 		bne	.L465
 6129 0016 7B68     		ldr	r3, [r7, #4]
 6130 0018 9B68     		ldr	r3, [r3, #8]
 6131 001a B3F5805F 		cmp	r3, #4096
 6132 001e 17D1     		bne	.L466
 6133 0020 7B68     		ldr	r3, [r7, #4]
 6134 0022 1B69     		ldr	r3, [r3, #16]
 6135 0024 002B     		cmp	r3, #0
 6136 0026 13D1     		bne	.L466
 6137 0028 0023     		movs	r3, #0
 6138 002a FB62     		str	r3, [r7, #44]
 6139 002c 7B68     		ldr	r3, [r7, #4]
 6140 002e 9B6A     		ldr	r3, [r3, #40]
 6141 0030 BB62     		str	r3, [r7, #40]
 6142 0032 7B68     		ldr	r3, [r7, #4]
 6143 0034 1B68     		ldr	r3, [r3]
 6144 0036 5B68     		ldr	r3, [r3, #4]
 6145 0038 9BB2     		uxth	r3, r3
 6146 003a C3F30803 		ubfx	r3, r3, #0, #9
 6147 003e 9AB2     		uxth	r2, r3
 6148 0040 BB6A     		ldr	r3, [r7, #40]
 6149 0042 1A80     		strh	r2, [r3]	@ movhi
 6150 0044 7B68     		ldr	r3, [r7, #4]
 6151 0046 9B6A     		ldr	r3, [r3, #40]
 6152 0048 9A1C     		adds	r2, r3, #2
 6153 004a 7B68     		ldr	r3, [r7, #4]
 6154 004c 9A62     		str	r2, [r3, #40]
 6155 004e 26E0     		b	.L467
 6156              	.L466:
 6157 0050 7B68     		ldr	r3, [r7, #4]
 6158 0052 9B6A     		ldr	r3, [r3, #40]
 6159 0054 FB62     		str	r3, [r7, #44]
 6160 0056 0023     		movs	r3, #0
 6161 0058 BB62     		str	r3, [r7, #40]
ARM GAS  C:\Users\user\AppData\Local\Temp\ccimlsD1.s 			page 107


 6162 005a 7B68     		ldr	r3, [r7, #4]
 6163 005c 9B68     		ldr	r3, [r3, #8]
 6164 005e B3F5805F 		cmp	r3, #4096
 6165 0062 07D0     		beq	.L468
 6166 0064 7B68     		ldr	r3, [r7, #4]
 6167 0066 9B68     		ldr	r3, [r3, #8]
 6168 0068 002B     		cmp	r3, #0
 6169 006a 0AD1     		bne	.L469
 6170 006c 7B68     		ldr	r3, [r7, #4]
 6171 006e 1B69     		ldr	r3, [r3, #16]
 6172 0070 002B     		cmp	r3, #0
 6173 0072 06D1     		bne	.L469
 6174              	.L468:
 6175 0074 7B68     		ldr	r3, [r7, #4]
 6176 0076 1B68     		ldr	r3, [r3]
 6177 0078 5B68     		ldr	r3, [r3, #4]
 6178 007a DAB2     		uxtb	r2, r3
 6179 007c FB6A     		ldr	r3, [r7, #44]
 6180 007e 1A70     		strb	r2, [r3]
 6181 0080 08E0     		b	.L470
 6182              	.L469:
 6183 0082 7B68     		ldr	r3, [r7, #4]
 6184 0084 1B68     		ldr	r3, [r3]
 6185 0086 5B68     		ldr	r3, [r3, #4]
 6186 0088 DBB2     		uxtb	r3, r3
 6187 008a 03F07F03 		and	r3, r3, #127
 6188 008e DAB2     		uxtb	r2, r3
 6189 0090 FB6A     		ldr	r3, [r7, #44]
 6190 0092 1A70     		strb	r2, [r3]
 6191              	.L470:
 6192 0094 7B68     		ldr	r3, [r7, #4]
 6193 0096 9B6A     		ldr	r3, [r3, #40]
 6194 0098 5A1C     		adds	r2, r3, #1
 6195 009a 7B68     		ldr	r3, [r7, #4]
 6196 009c 9A62     		str	r2, [r3, #40]
 6197              	.L467:
 6198 009e 7B68     		ldr	r3, [r7, #4]
 6199 00a0 DB8D     		ldrh	r3, [r3, #46]	@ movhi
 6200 00a2 9BB2     		uxth	r3, r3
 6201 00a4 013B     		subs	r3, r3, #1
 6202 00a6 9BB2     		uxth	r3, r3
 6203 00a8 7A68     		ldr	r2, [r7, #4]
 6204 00aa 1946     		mov	r1, r3	@ movhi
 6205 00ac D185     		strh	r1, [r2, #46]	@ movhi
 6206 00ae 002B     		cmp	r3, #0
 6207 00b0 5AD1     		bne	.L471
 6208 00b2 7B68     		ldr	r3, [r7, #4]
 6209 00b4 1B68     		ldr	r3, [r3]
 6210 00b6 DA68     		ldr	r2, [r3, #12]
 6211 00b8 7B68     		ldr	r3, [r7, #4]
 6212 00ba 1B68     		ldr	r3, [r3]
 6213 00bc 22F02002 		bic	r2, r2, #32
 6214 00c0 DA60     		str	r2, [r3, #12]
 6215 00c2 7B68     		ldr	r3, [r7, #4]
 6216 00c4 1B68     		ldr	r3, [r3]
 6217 00c6 DA68     		ldr	r2, [r3, #12]
 6218 00c8 7B68     		ldr	r3, [r7, #4]
ARM GAS  C:\Users\user\AppData\Local\Temp\ccimlsD1.s 			page 108


 6219 00ca 1B68     		ldr	r3, [r3]
 6220 00cc 22F48072 		bic	r2, r2, #256
 6221 00d0 DA60     		str	r2, [r3, #12]
 6222 00d2 7B68     		ldr	r3, [r7, #4]
 6223 00d4 1B68     		ldr	r3, [r3]
 6224 00d6 5A69     		ldr	r2, [r3, #20]
 6225 00d8 7B68     		ldr	r3, [r7, #4]
 6226 00da 1B68     		ldr	r3, [r3]
 6227 00dc 22F00102 		bic	r2, r2, #1
 6228 00e0 5A61     		str	r2, [r3, #20]
 6229 00e2 7B68     		ldr	r3, [r7, #4]
 6230 00e4 2022     		movs	r2, #32
 6231 00e6 83F83E20 		strb	r2, [r3, #62]
 6232 00ea 7B68     		ldr	r3, [r7, #4]
 6233 00ec 1B6B     		ldr	r3, [r3, #48]
 6234 00ee 012B     		cmp	r3, #1
 6235 00f0 35D1     		bne	.L472
 6236 00f2 7B68     		ldr	r3, [r7, #4]
 6237 00f4 0022     		movs	r2, #0
 6238 00f6 1A63     		str	r2, [r3, #48]
 6239              	.L475:
 6240 00f8 7B68     		ldr	r3, [r7, #4]
 6241 00fa 1B68     		ldr	r3, [r3]
 6242 00fc 0C33     		adds	r3, r3, #12
 6243 00fe 7B61     		str	r3, [r7, #20]
 6244 0100 7B69     		ldr	r3, [r7, #20]
 6245              		.syntax unified
 6246              	@ 1072 "Drivers/CMSIS/Include/cmsis_gcc.h" 1
 6247 0102 53E8003F 		ldrex r3, [r3]
 6248              	@ 0 "" 2
 6249              		.thumb
 6250              		.syntax unified
 6251 0106 3B61     		str	r3, [r7, #16]
 6252 0108 3B69     		ldr	r3, [r7, #16]
 6253 010a 23F01003 		bic	r3, r3, #16
 6254 010e 7B62     		str	r3, [r7, #36]
 6255 0110 7B68     		ldr	r3, [r7, #4]
 6256 0112 1B68     		ldr	r3, [r3]
 6257 0114 0C33     		adds	r3, r3, #12
 6258 0116 7A6A     		ldr	r2, [r7, #36]
 6259 0118 3A62     		str	r2, [r7, #32]
 6260 011a FB61     		str	r3, [r7, #28]
 6261 011c F969     		ldr	r1, [r7, #28]
 6262 011e 3A6A     		ldr	r2, [r7, #32]
 6263              		.syntax unified
 6264              	@ 1123 "Drivers/CMSIS/Include/cmsis_gcc.h" 1
 6265 0120 41E80023 		strex r3, r2, [r1]
 6266              	@ 0 "" 2
 6267              		.thumb
 6268              		.syntax unified
 6269 0124 BB61     		str	r3, [r7, #24]
 6270 0126 BB69     		ldr	r3, [r7, #24]
 6271 0128 002B     		cmp	r3, #0
 6272 012a E5D1     		bne	.L475
 6273 012c 7B68     		ldr	r3, [r7, #4]
 6274 012e 1B68     		ldr	r3, [r3]
 6275 0130 1B68     		ldr	r3, [r3]
ARM GAS  C:\Users\user\AppData\Local\Temp\ccimlsD1.s 			page 109


 6276 0132 03F01003 		and	r3, r3, #16
 6277 0136 102B     		cmp	r3, #16
 6278 0138 0AD1     		bne	.L476
 6279 013a 0023     		movs	r3, #0
 6280 013c FB60     		str	r3, [r7, #12]
 6281 013e 7B68     		ldr	r3, [r7, #4]
 6282 0140 1B68     		ldr	r3, [r3]
 6283 0142 1B68     		ldr	r3, [r3]
 6284 0144 FB60     		str	r3, [r7, #12]
 6285 0146 7B68     		ldr	r3, [r7, #4]
 6286 0148 1B68     		ldr	r3, [r3]
 6287 014a 5B68     		ldr	r3, [r3, #4]
 6288 014c FB60     		str	r3, [r7, #12]
 6289 014e FB68     		ldr	r3, [r7, #12]
 6290              	.L476:
 6291 0150 7B68     		ldr	r3, [r7, #4]
 6292 0152 9B8D     		ldrh	r3, [r3, #44]
 6293 0154 1946     		mov	r1, r3
 6294 0156 7868     		ldr	r0, [r7, #4]
 6295 0158 FFF7FEFF 		bl	HAL_UARTEx_RxEventCallback
 6296 015c 02E0     		b	.L477
 6297              	.L472:
 6298 015e 7868     		ldr	r0, [r7, #4]
 6299 0160 FFF7FEFF 		bl	HAL_UART_RxCpltCallback
 6300              	.L477:
 6301 0164 0023     		movs	r3, #0
 6302 0166 02E0     		b	.L478
 6303              	.L471:
 6304 0168 0023     		movs	r3, #0
 6305 016a 00E0     		b	.L478
 6306              	.L465:
 6307 016c 0223     		movs	r3, #2
 6308              	.L478:
 6309 016e 1846     		mov	r0, r3
 6310 0170 3037     		adds	r7, r7, #48
 6311 0172 BD46     		mov	sp, r7
 6312              		@ sp needed
 6313 0174 80BD     		pop	{r7, pc}
 6315              		.global	__aeabi_uldivmod
 6316              		.section	.text.UART_SetConfig,"ax",%progbits
 6317              		.align	1
 6318              		.syntax unified
 6319              		.thumb
 6320              		.thumb_func
 6322              	UART_SetConfig:
 6323              		@ args = 0, pretend = 0, frame = 256
 6324              		@ frame_needed = 1, uses_anonymous_args = 0
 6325 0000 2DE9B04F 		push	{r4, r5, r7, r8, r9, r10, fp, lr}
 6326 0004 C0B0     		sub	sp, sp, #256
 6327 0006 00AF     		add	r7, sp, #0
 6328 0008 C7F8F400 		str	r0, [r7, #244]
 6329 000c D7F8F430 		ldr	r3, [r7, #244]
 6330 0010 1B68     		ldr	r3, [r3]
 6331 0012 1B69     		ldr	r3, [r3, #16]
 6332 0014 23F44050 		bic	r0, r3, #12288
 6333 0018 D7F8F430 		ldr	r3, [r7, #244]
 6334 001c D968     		ldr	r1, [r3, #12]
ARM GAS  C:\Users\user\AppData\Local\Temp\ccimlsD1.s 			page 110


 6335 001e D7F8F430 		ldr	r3, [r7, #244]
 6336 0022 1A68     		ldr	r2, [r3]
 6337 0024 40EA0103 		orr	r3, r0, r1
 6338 0028 1361     		str	r3, [r2, #16]
 6339 002a D7F8F430 		ldr	r3, [r7, #244]
 6340 002e 9A68     		ldr	r2, [r3, #8]
 6341 0030 D7F8F430 		ldr	r3, [r7, #244]
 6342 0034 1B69     		ldr	r3, [r3, #16]
 6343 0036 1A43     		orrs	r2, r2, r3
 6344 0038 D7F8F430 		ldr	r3, [r7, #244]
 6345 003c 5B69     		ldr	r3, [r3, #20]
 6346 003e 1A43     		orrs	r2, r2, r3
 6347 0040 D7F8F430 		ldr	r3, [r7, #244]
 6348 0044 DB69     		ldr	r3, [r3, #28]
 6349 0046 1343     		orrs	r3, r3, r2
 6350 0048 C7F8F830 		str	r3, [r7, #248]
 6351 004c D7F8F430 		ldr	r3, [r7, #244]
 6352 0050 1B68     		ldr	r3, [r3]
 6353 0052 DB68     		ldr	r3, [r3, #12]
 6354 0054 23F41641 		bic	r1, r3, #38400
 6355 0058 21F00C01 		bic	r1, r1, #12
 6356 005c D7F8F430 		ldr	r3, [r7, #244]
 6357 0060 1A68     		ldr	r2, [r3]
 6358 0062 D7F8F830 		ldr	r3, [r7, #248]
 6359 0066 0B43     		orrs	r3, r3, r1
 6360 0068 D360     		str	r3, [r2, #12]
 6361 006a D7F8F430 		ldr	r3, [r7, #244]
 6362 006e 1B68     		ldr	r3, [r3]
 6363 0070 5B69     		ldr	r3, [r3, #20]
 6364 0072 23F44070 		bic	r0, r3, #768
 6365 0076 D7F8F430 		ldr	r3, [r7, #244]
 6366 007a 9969     		ldr	r1, [r3, #24]
 6367 007c D7F8F430 		ldr	r3, [r7, #244]
 6368 0080 1A68     		ldr	r2, [r3]
 6369 0082 40EA0103 		orr	r3, r0, r1
 6370 0086 5361     		str	r3, [r2, #20]
 6371 0088 D7F8F430 		ldr	r3, [r7, #244]
 6372 008c 1A68     		ldr	r2, [r3]
 6373 008e 8F4B     		ldr	r3, .L486
 6374 0090 9A42     		cmp	r2, r3
 6375 0092 05D0     		beq	.L480
 6376 0094 D7F8F430 		ldr	r3, [r7, #244]
 6377 0098 1A68     		ldr	r2, [r3]
 6378 009a 8D4B     		ldr	r3, .L486+4
 6379 009c 9A42     		cmp	r2, r3
 6380 009e 04D1     		bne	.L481
 6381              	.L480:
 6382 00a0 FFF7FEFF 		bl	HAL_RCC_GetPCLK2Freq
 6383 00a4 C7F8FC00 		str	r0, [r7, #252]
 6384 00a8 03E0     		b	.L482
 6385              	.L481:
 6386 00aa FFF7FEFF 		bl	HAL_RCC_GetPCLK1Freq
 6387 00ae C7F8FC00 		str	r0, [r7, #252]
 6388              	.L482:
 6389 00b2 D7F8F430 		ldr	r3, [r7, #244]
 6390 00b6 DB69     		ldr	r3, [r3, #28]
 6391 00b8 B3F5004F 		cmp	r3, #32768
ARM GAS  C:\Users\user\AppData\Local\Temp\ccimlsD1.s 			page 111


 6392 00bc 40F00C81 		bne	.L483
 6393 00c0 D7F8FC30 		ldr	r3, [r7, #252]
 6394 00c4 0022     		movs	r2, #0
 6395 00c6 C7F8E830 		str	r3, [r7, #232]
 6396 00ca C7F8EC20 		str	r2, [r7, #236]
 6397 00ce D7E93A45 		ldrd	r4, [r7, #232]
 6398 00d2 2246     		mov	r2, r4
 6399 00d4 2B46     		mov	r3, r5
 6400 00d6 9118     		adds	r1, r2, r2
 6401 00d8 B965     		str	r1, [r7, #88]
 6402 00da 5B41     		adcs	r3, r3, r3
 6403 00dc FB65     		str	r3, [r7, #92]
 6404 00de D7E91623 		ldrd	r2, [r7, #88]
 6405 00e2 2146     		mov	r1, r4
 6406 00e4 12EB0108 		adds	r8, r2, r1
 6407 00e8 2946     		mov	r1, r5
 6408 00ea 43EB0109 		adc	r9, r3, r1
 6409 00ee 4FF00002 		mov	r2, #0
 6410 00f2 4FF00003 		mov	r3, #0
 6411 00f6 4FEAC903 		lsl	r3, r9, #3
 6412 00fa 43EA5873 		orr	r3, r3, r8, lsr #29
 6413 00fe 4FEAC802 		lsl	r2, r8, #3
 6414 0102 9046     		mov	r8, r2
 6415 0104 9946     		mov	r9, r3
 6416 0106 2346     		mov	r3, r4
 6417 0108 18EB0303 		adds	r3, r8, r3
 6418 010c C7F8E030 		str	r3, [r7, #224]
 6419 0110 2B46     		mov	r3, r5
 6420 0112 49EB0303 		adc	r3, r9, r3
 6421 0116 C7F8E430 		str	r3, [r7, #228]
 6422 011a D7F8F430 		ldr	r3, [r7, #244]
 6423 011e 5B68     		ldr	r3, [r3, #4]
 6424 0120 0022     		movs	r2, #0
 6425 0122 C7F8D830 		str	r3, [r7, #216]
 6426 0126 C7F8DC20 		str	r2, [r7, #220]
 6427 012a D7E93612 		ldrd	r1, [r7, #216]
 6428 012e 0B46     		mov	r3, r1
 6429 0130 DB18     		adds	r3, r3, r3
 6430 0132 3B65     		str	r3, [r7, #80]
 6431 0134 1346     		mov	r3, r2
 6432 0136 42EB0303 		adc	r3, r2, r3
 6433 013a 7B65     		str	r3, [r7, #84]
 6434 013c D7E91423 		ldrd	r2, [r7, #80]
 6435 0140 D7E93801 		ldrd	r0, [r7, #224]
 6436 0144 FFF7FEFF 		bl	__aeabi_uldivmod
 6437 0148 0246     		mov	r2, r0
 6438 014a 0B46     		mov	r3, r1
 6439 014c 614B     		ldr	r3, .L486+8
 6440 014e A3FB0223 		umull	r2, r3, r3, r2
 6441 0152 5B09     		lsrs	r3, r3, #5
 6442 0154 1C01     		lsls	r4, r3, #4
 6443 0156 D7F8FC30 		ldr	r3, [r7, #252]
 6444 015a 0022     		movs	r2, #0
 6445 015c C7F8D030 		str	r3, [r7, #208]
 6446 0160 C7F8D420 		str	r2, [r7, #212]
 6447 0164 D7E93489 		ldrd	r8, [r7, #208]
 6448 0168 4246     		mov	r2, r8
ARM GAS  C:\Users\user\AppData\Local\Temp\ccimlsD1.s 			page 112


 6449 016a 4B46     		mov	r3, r9
 6450 016c 9118     		adds	r1, r2, r2
 6451 016e B964     		str	r1, [r7, #72]
 6452 0170 5B41     		adcs	r3, r3, r3
 6453 0172 FB64     		str	r3, [r7, #76]
 6454 0174 D7E91223 		ldrd	r2, [r7, #72]
 6455 0178 4146     		mov	r1, r8
 6456 017a 12EB010A 		adds	r10, r2, r1
 6457 017e 4946     		mov	r1, r9
 6458 0180 43EB010B 		adc	fp, r3, r1
 6459 0184 4FF00002 		mov	r2, #0
 6460 0188 4FF00003 		mov	r3, #0
 6461 018c 4FEACB03 		lsl	r3, fp, #3
 6462 0190 43EA5A73 		orr	r3, r3, r10, lsr #29
 6463 0194 4FEACA02 		lsl	r2, r10, #3
 6464 0198 9246     		mov	r10, r2
 6465 019a 9B46     		mov	fp, r3
 6466 019c 4346     		mov	r3, r8
 6467 019e 1AEB0303 		adds	r3, r10, r3
 6468 01a2 C7F8C830 		str	r3, [r7, #200]
 6469 01a6 4B46     		mov	r3, r9
 6470 01a8 4BEB0303 		adc	r3, fp, r3
 6471 01ac C7F8CC30 		str	r3, [r7, #204]
 6472 01b0 D7F8F430 		ldr	r3, [r7, #244]
 6473 01b4 5B68     		ldr	r3, [r3, #4]
 6474 01b6 0022     		movs	r2, #0
 6475 01b8 C7F8C030 		str	r3, [r7, #192]
 6476 01bc C7F8C420 		str	r2, [r7, #196]
 6477 01c0 D7E93012 		ldrd	r1, [r7, #192]
 6478 01c4 0B46     		mov	r3, r1
 6479 01c6 DB18     		adds	r3, r3, r3
 6480 01c8 3B64     		str	r3, [r7, #64]
 6481 01ca 1346     		mov	r3, r2
 6482 01cc 42EB0303 		adc	r3, r2, r3
 6483 01d0 7B64     		str	r3, [r7, #68]
 6484 01d2 D7E91023 		ldrd	r2, [r7, #64]
 6485 01d6 D7E93201 		ldrd	r0, [r7, #200]
 6486 01da FFF7FEFF 		bl	__aeabi_uldivmod
 6487 01de 0246     		mov	r2, r0
 6488 01e0 0B46     		mov	r3, r1
 6489 01e2 1146     		mov	r1, r2
 6490 01e4 3B4B     		ldr	r3, .L486+8
 6491 01e6 A3FB0123 		umull	r2, r3, r3, r1
 6492 01ea 5B09     		lsrs	r3, r3, #5
 6493 01ec 6422     		movs	r2, #100
 6494 01ee 02FB03F3 		mul	r3, r2, r3
 6495 01f2 CB1A     		subs	r3, r1, r3
 6496 01f4 DB00     		lsls	r3, r3, #3
 6497 01f6 03F13202 		add	r2, r3, #50
 6498 01fa 364B     		ldr	r3, .L486+8
 6499 01fc A3FB0223 		umull	r2, r3, r3, r2
 6500 0200 5B09     		lsrs	r3, r3, #5
 6501 0202 5B00     		lsls	r3, r3, #1
 6502 0204 03F4F873 		and	r3, r3, #496
 6503 0208 1C44     		add	r4, r4, r3
 6504 020a D7F8FC30 		ldr	r3, [r7, #252]
 6505 020e 0022     		movs	r2, #0
