ARM GAS  C:\Users\user\AppData\Local\Temp\ccjLWxV2.s 			page 1


   1              		.cpu cortex-m4
   2              		.arch armv7e-m
   3              		.fpu fpv4-sp-d16
   4              		.eabi_attribute 27, 1
   5              		.eabi_attribute 28, 1
   6              		.eabi_attribute 20, 1
   7              		.eabi_attribute 21, 1
   8              		.eabi_attribute 23, 3
   9              		.eabi_attribute 24, 1
  10              		.eabi_attribute 25, 1
  11              		.eabi_attribute 26, 1
  12              		.eabi_attribute 30, 6
  13              		.eabi_attribute 34, 1
  14              		.eabi_attribute 18, 4
  15              		.file	"stm32f4xx_it.c"
  16              		.text
  17              		.section	.text.NMI_Handler,"ax",%progbits
  18              		.align	1
  19              		.global	NMI_Handler
  20              		.syntax unified
  21              		.thumb
  22              		.thumb_func
  24              	NMI_Handler:
  25              		@ args = 0, pretend = 0, frame = 0
  26              		@ frame_needed = 1, uses_anonymous_args = 0
  27 0000 80B5     		push	{r7, lr}
  28 0002 00AF     		add	r7, sp, #0
  29 0004 FFF7FEFF 		bl	HAL_RCC_NMI_IRQHandler
  30              	.L2:
  31 0008 00BF     		nop
  32 000a FDE7     		b	.L2
  34              		.section	.text.HardFault_Handler,"ax",%progbits
  35              		.align	1
  36              		.global	HardFault_Handler
  37              		.syntax unified
  38              		.thumb
  39              		.thumb_func
  41              	HardFault_Handler:
  42              		@ args = 0, pretend = 0, frame = 0
  43              		@ frame_needed = 1, uses_anonymous_args = 0
  44              		@ link register save eliminated.
  45 0000 80B4     		push	{r7}
  46 0002 00AF     		add	r7, sp, #0
  47              	.L4:
  48 0004 00BF     		nop
  49 0006 FDE7     		b	.L4
  51              		.section	.text.MemManage_Handler,"ax",%progbits
  52              		.align	1
  53              		.global	MemManage_Handler
  54              		.syntax unified
  55              		.thumb
  56              		.thumb_func
  58              	MemManage_Handler:
  59              		@ args = 0, pretend = 0, frame = 0
  60              		@ frame_needed = 1, uses_anonymous_args = 0
  61              		@ link register save eliminated.
  62 0000 80B4     		push	{r7}
ARM GAS  C:\Users\user\AppData\Local\Temp\ccjLWxV2.s 			page 2


  63 0002 00AF     		add	r7, sp, #0
  64              	.L6:
  65 0004 00BF     		nop
  66 0006 FDE7     		b	.L6
  68              		.section	.text.BusFault_Handler,"ax",%progbits
  69              		.align	1
  70              		.global	BusFault_Handler
  71              		.syntax unified
  72              		.thumb
  73              		.thumb_func
  75              	BusFault_Handler:
  76              		@ args = 0, pretend = 0, frame = 0
  77              		@ frame_needed = 1, uses_anonymous_args = 0
  78              		@ link register save eliminated.
  79 0000 80B4     		push	{r7}
  80 0002 00AF     		add	r7, sp, #0
  81              	.L8:
  82 0004 00BF     		nop
  83 0006 FDE7     		b	.L8
  85              		.section	.text.UsageFault_Handler,"ax",%progbits
  86              		.align	1
  87              		.global	UsageFault_Handler
  88              		.syntax unified
  89              		.thumb
  90              		.thumb_func
  92              	UsageFault_Handler:
  93              		@ args = 0, pretend = 0, frame = 0
  94              		@ frame_needed = 1, uses_anonymous_args = 0
  95              		@ link register save eliminated.
  96 0000 80B4     		push	{r7}
  97 0002 00AF     		add	r7, sp, #0
  98              	.L10:
  99 0004 00BF     		nop
 100 0006 FDE7     		b	.L10
 102              		.section	.text.SVC_Handler,"ax",%progbits
 103              		.align	1
 104              		.global	SVC_Handler
 105              		.syntax unified
 106              		.thumb
 107              		.thumb_func
 109              	SVC_Handler:
 110              		@ args = 0, pretend = 0, frame = 0
 111              		@ frame_needed = 1, uses_anonymous_args = 0
 112              		@ link register save eliminated.
 113 0000 80B4     		push	{r7}
 114 0002 00AF     		add	r7, sp, #0
 115 0004 00BF     		nop
 116 0006 BD46     		mov	sp, r7
 117              		@ sp needed
 118 0008 5DF8047B 		ldr	r7, [sp], #4
 119 000c 7047     		bx	lr
 121              		.section	.text.DebugMon_Handler,"ax",%progbits
 122              		.align	1
 123              		.global	DebugMon_Handler
 124              		.syntax unified
 125              		.thumb
 126              		.thumb_func
ARM GAS  C:\Users\user\AppData\Local\Temp\ccjLWxV2.s 			page 3


 128              	DebugMon_Handler:
 129              		@ args = 0, pretend = 0, frame = 0
 130              		@ frame_needed = 1, uses_anonymous_args = 0
 131              		@ link register save eliminated.
 132 0000 80B4     		push	{r7}
 133 0002 00AF     		add	r7, sp, #0
 134 0004 00BF     		nop
 135 0006 BD46     		mov	sp, r7
 136              		@ sp needed
 137 0008 5DF8047B 		ldr	r7, [sp], #4
 138 000c 7047     		bx	lr
 140              		.section	.text.PendSV_Handler,"ax",%progbits
 141              		.align	1
 142              		.global	PendSV_Handler
 143              		.syntax unified
 144              		.thumb
 145              		.thumb_func
 147              	PendSV_Handler:
 148              		@ args = 0, pretend = 0, frame = 0
 149              		@ frame_needed = 1, uses_anonymous_args = 0
 150              		@ link register save eliminated.
 151 0000 80B4     		push	{r7}
 152 0002 00AF     		add	r7, sp, #0
 153 0004 00BF     		nop
 154 0006 BD46     		mov	sp, r7
 155              		@ sp needed
 156 0008 5DF8047B 		ldr	r7, [sp], #4
 157 000c 7047     		bx	lr
 159              		.section	.text.SysTick_Handler,"ax",%progbits
 160              		.align	1
 161              		.global	SysTick_Handler
 162              		.syntax unified
 163              		.thumb
 164              		.thumb_func
 166              	SysTick_Handler:
 167              		@ args = 0, pretend = 0, frame = 0
 168              		@ frame_needed = 1, uses_anonymous_args = 0
 169 0000 80B5     		push	{r7, lr}
 170 0002 00AF     		add	r7, sp, #0
 171 0004 FFF7FEFF 		bl	HAL_IncTick
 172 0008 00BF     		nop
 173 000a 80BD     		pop	{r7, pc}
 175              		.section	.text.DMA1_Stream0_IRQHandler,"ax",%progbits
 176              		.align	1
 177              		.global	DMA1_Stream0_IRQHandler
 178              		.syntax unified
 179              		.thumb
 180              		.thumb_func
 182              	DMA1_Stream0_IRQHandler:
 183              		@ args = 0, pretend = 0, frame = 0
 184              		@ frame_needed = 1, uses_anonymous_args = 0
 185 0000 80B5     		push	{r7, lr}
 186 0002 00AF     		add	r7, sp, #0
 187 0004 0248     		ldr	r0, .L16
 188 0006 FFF7FEFF 		bl	HAL_DMA_IRQHandler
 189 000a 00BF     		nop
 190 000c 80BD     		pop	{r7, pc}
ARM GAS  C:\Users\user\AppData\Local\Temp\ccjLWxV2.s 			page 4


 191              	.L17:
 192 000e 00BF     		.align	2
 193              	.L16:
 194 0010 00000000 		.word	hdma_tim5_ch3_up
 196              		.section	.text.DMA1_Stream1_IRQHandler,"ax",%progbits
 197              		.align	1
 198              		.global	DMA1_Stream1_IRQHandler
 199              		.syntax unified
 200              		.thumb
 201              		.thumb_func
 203              	DMA1_Stream1_IRQHandler:
 204              		@ args = 0, pretend = 0, frame = 0
 205              		@ frame_needed = 1, uses_anonymous_args = 0
 206 0000 80B5     		push	{r7, lr}
 207 0002 00AF     		add	r7, sp, #0
 208 0004 0248     		ldr	r0, .L19
 209 0006 FFF7FEFF 		bl	HAL_DMA_IRQHandler
 210 000a 00BF     		nop
 211 000c 80BD     		pop	{r7, pc}
 212              	.L20:
 213 000e 00BF     		.align	2
 214              	.L19:
 215 0010 00000000 		.word	hdma_usart3_rx
 217              		.section	.text.DMA1_Stream2_IRQHandler,"ax",%progbits
 218              		.align	1
 219              		.global	DMA1_Stream2_IRQHandler
 220              		.syntax unified
 221              		.thumb
 222              		.thumb_func
 224              	DMA1_Stream2_IRQHandler:
 225              		@ args = 0, pretend = 0, frame = 0
 226              		@ frame_needed = 1, uses_anonymous_args = 0
 227 0000 80B5     		push	{r7, lr}
 228 0002 00AF     		add	r7, sp, #0
 229 0004 0248     		ldr	r0, .L22
 230 0006 FFF7FEFF 		bl	HAL_DMA_IRQHandler
 231 000a 00BF     		nop
 232 000c 80BD     		pop	{r7, pc}
 233              	.L23:
 234 000e 00BF     		.align	2
 235              	.L22:
 236 0010 00000000 		.word	hdma_tim5_ch1
 238              		.section	.text.DMA1_Stream3_IRQHandler,"ax",%progbits
 239              		.align	1
 240              		.global	DMA1_Stream3_IRQHandler
 241              		.syntax unified
 242              		.thumb
 243              		.thumb_func
 245              	DMA1_Stream3_IRQHandler:
 246              		@ args = 0, pretend = 0, frame = 0
 247              		@ frame_needed = 1, uses_anonymous_args = 0
 248 0000 80B5     		push	{r7, lr}
 249 0002 00AF     		add	r7, sp, #0
 250 0004 0248     		ldr	r0, .L25
 251 0006 FFF7FEFF 		bl	HAL_DMA_IRQHandler
 252 000a 00BF     		nop
 253 000c 80BD     		pop	{r7, pc}
ARM GAS  C:\Users\user\AppData\Local\Temp\ccjLWxV2.s 			page 5


 254              	.L26:
 255 000e 00BF     		.align	2
 256              	.L25:
 257 0010 00000000 		.word	hdma_tim5_ch4_trig
 259              		.section	.text.DMA1_Stream4_IRQHandler,"ax",%progbits
 260              		.align	1
 261              		.global	DMA1_Stream4_IRQHandler
 262              		.syntax unified
 263              		.thumb
 264              		.thumb_func
 266              	DMA1_Stream4_IRQHandler:
 267              		@ args = 0, pretend = 0, frame = 0
 268              		@ frame_needed = 1, uses_anonymous_args = 0
 269 0000 80B5     		push	{r7, lr}
 270 0002 00AF     		add	r7, sp, #0
 271 0004 0248     		ldr	r0, .L28
 272 0006 FFF7FEFF 		bl	HAL_DMA_IRQHandler
 273 000a 00BF     		nop
 274 000c 80BD     		pop	{r7, pc}
 275              	.L29:
 276 000e 00BF     		.align	2
 277              	.L28:
 278 0010 00000000 		.word	hdma_tim5_ch2
 280              		.section	.text.ADC_IRQHandler,"ax",%progbits
 281              		.align	1
 282              		.global	ADC_IRQHandler
 283              		.syntax unified
 284              		.thumb
 285              		.thumb_func
 287              	ADC_IRQHandler:
 288              		@ args = 0, pretend = 0, frame = 0
 289              		@ frame_needed = 1, uses_anonymous_args = 0
 290 0000 80B5     		push	{r7, lr}
 291 0002 00AF     		add	r7, sp, #0
 292 0004 0348     		ldr	r0, .L31
 293 0006 FFF7FEFF 		bl	HAL_ADC_IRQHandler
 294 000a 0348     		ldr	r0, .L31+4
 295 000c FFF7FEFF 		bl	HAL_ADC_IRQHandler
 296 0010 00BF     		nop
 297 0012 80BD     		pop	{r7, pc}
 298              	.L32:
 299              		.align	2
 300              	.L31:
 301 0014 00000000 		.word	hadc1
 302 0018 00000000 		.word	hadc2
 304              		.section	.text.CAN1_TX_IRQHandler,"ax",%progbits
 305              		.align	1
 306              		.global	CAN1_TX_IRQHandler
 307              		.syntax unified
 308              		.thumb
 309              		.thumb_func
 311              	CAN1_TX_IRQHandler:
 312              		@ args = 0, pretend = 0, frame = 0
 313              		@ frame_needed = 1, uses_anonymous_args = 0
 314 0000 80B5     		push	{r7, lr}
 315 0002 00AF     		add	r7, sp, #0
 316 0004 0248     		ldr	r0, .L34
ARM GAS  C:\Users\user\AppData\Local\Temp\ccjLWxV2.s 			page 6


 317 0006 FFF7FEFF 		bl	HAL_CAN_IRQHandler
 318 000a 00BF     		nop
 319 000c 80BD     		pop	{r7, pc}
 320              	.L35:
 321 000e 00BF     		.align	2
 322              	.L34:
 323 0010 00000000 		.word	hcan1
 325              		.section	.text.CAN1_RX0_IRQHandler,"ax",%progbits
 326              		.align	1
 327              		.global	CAN1_RX0_IRQHandler
 328              		.syntax unified
 329              		.thumb
 330              		.thumb_func
 332              	CAN1_RX0_IRQHandler:
 333              		@ args = 0, pretend = 0, frame = 0
 334              		@ frame_needed = 1, uses_anonymous_args = 0
 335 0000 80B5     		push	{r7, lr}
 336 0002 00AF     		add	r7, sp, #0
 337 0004 0248     		ldr	r0, .L37
 338 0006 FFF7FEFF 		bl	HAL_CAN_IRQHandler
 339 000a 00BF     		nop
 340 000c 80BD     		pop	{r7, pc}
 341              	.L38:
 342 000e 00BF     		.align	2
 343              	.L37:
 344 0010 00000000 		.word	hcan1
 346              		.section	.text.CAN1_RX1_IRQHandler,"ax",%progbits
 347              		.align	1
 348              		.global	CAN1_RX1_IRQHandler
 349              		.syntax unified
 350              		.thumb
 351              		.thumb_func
 353              	CAN1_RX1_IRQHandler:
 354              		@ args = 0, pretend = 0, frame = 0
 355              		@ frame_needed = 1, uses_anonymous_args = 0
 356 0000 80B5     		push	{r7, lr}
 357 0002 00AF     		add	r7, sp, #0
 358 0004 0248     		ldr	r0, .L40
 359 0006 FFF7FEFF 		bl	HAL_CAN_IRQHandler
 360 000a 00BF     		nop
 361 000c 80BD     		pop	{r7, pc}
 362              	.L41:
 363 000e 00BF     		.align	2
 364              	.L40:
 365 0010 00000000 		.word	hcan1
 367              		.section	.text.CAN1_SCE_IRQHandler,"ax",%progbits
 368              		.align	1
 369              		.global	CAN1_SCE_IRQHandler
 370              		.syntax unified
 371              		.thumb
 372              		.thumb_func
 374              	CAN1_SCE_IRQHandler:
 375              		@ args = 0, pretend = 0, frame = 0
 376              		@ frame_needed = 1, uses_anonymous_args = 0
 377 0000 80B5     		push	{r7, lr}
 378 0002 00AF     		add	r7, sp, #0
 379 0004 0248     		ldr	r0, .L43
ARM GAS  C:\Users\user\AppData\Local\Temp\ccjLWxV2.s 			page 7


 380 0006 FFF7FEFF 		bl	HAL_CAN_IRQHandler
 381 000a 00BF     		nop
 382 000c 80BD     		pop	{r7, pc}
 383              	.L44:
 384 000e 00BF     		.align	2
 385              	.L43:
 386 0010 00000000 		.word	hcan1
 388              		.section	.text.EXTI9_5_IRQHandler,"ax",%progbits
 389              		.align	1
 390              		.global	EXTI9_5_IRQHandler
 391              		.syntax unified
 392              		.thumb
 393              		.thumb_func
 395              	EXTI9_5_IRQHandler:
 396              		@ args = 0, pretend = 0, frame = 0
 397              		@ frame_needed = 1, uses_anonymous_args = 0
 398 0000 80B5     		push	{r7, lr}
 399 0002 00AF     		add	r7, sp, #0
 400 0004 4FF48070 		mov	r0, #256
 401 0008 FFF7FEFF 		bl	HAL_GPIO_EXTI_IRQHandler
 402 000c 00BF     		nop
 403 000e 80BD     		pop	{r7, pc}
 405              		.section	.text.TIM1_UP_TIM10_IRQHandler,"ax",%progbits
 406              		.align	1
 407              		.global	TIM1_UP_TIM10_IRQHandler
 408              		.syntax unified
 409              		.thumb
 410              		.thumb_func
 412              	TIM1_UP_TIM10_IRQHandler:
 413              		@ args = 0, pretend = 0, frame = 0
 414              		@ frame_needed = 1, uses_anonymous_args = 0
 415 0000 80B5     		push	{r7, lr}
 416 0002 00AF     		add	r7, sp, #0
 417 0004 0248     		ldr	r0, .L47
 418 0006 FFF7FEFF 		bl	HAL_TIM_IRQHandler
 419 000a 00BF     		nop
 420 000c 80BD     		pop	{r7, pc}
 421              	.L48:
 422 000e 00BF     		.align	2
 423              	.L47:
 424 0010 00000000 		.word	htim1
 426              		.section	.text.I2C1_EV_IRQHandler,"ax",%progbits
 427              		.align	1
 428              		.global	I2C1_EV_IRQHandler
 429              		.syntax unified
 430              		.thumb
 431              		.thumb_func
 433              	I2C1_EV_IRQHandler:
 434              		@ args = 0, pretend = 0, frame = 0
 435              		@ frame_needed = 1, uses_anonymous_args = 0
 436 0000 80B5     		push	{r7, lr}
 437 0002 00AF     		add	r7, sp, #0
 438 0004 0248     		ldr	r0, .L50
 439 0006 FFF7FEFF 		bl	HAL_I2C_EV_IRQHandler
 440 000a 00BF     		nop
 441 000c 80BD     		pop	{r7, pc}
 442              	.L51:
ARM GAS  C:\Users\user\AppData\Local\Temp\ccjLWxV2.s 			page 8


 443 000e 00BF     		.align	2
 444              	.L50:
 445 0010 00000000 		.word	hi2c1
 447              		.section	.text.USART1_IRQHandler,"ax",%progbits
 448              		.align	1
 449              		.global	USART1_IRQHandler
 450              		.syntax unified
 451              		.thumb
 452              		.thumb_func
 454              	USART1_IRQHandler:
 455              		@ args = 0, pretend = 0, frame = 0
 456              		@ frame_needed = 1, uses_anonymous_args = 0
 457 0000 80B5     		push	{r7, lr}
 458 0002 00AF     		add	r7, sp, #0
 459 0004 0248     		ldr	r0, .L53
 460 0006 FFF7FEFF 		bl	HAL_UART_IRQHandler
 461 000a 00BF     		nop
 462 000c 80BD     		pop	{r7, pc}
 463              	.L54:
 464 000e 00BF     		.align	2
 465              	.L53:
 466 0010 00000000 		.word	huart1
 468              		.section	.text.USART3_IRQHandler,"ax",%progbits
 469              		.align	1
 470              		.global	USART3_IRQHandler
 471              		.syntax unified
 472              		.thumb
 473              		.thumb_func
 475              	USART3_IRQHandler:
 476              		@ args = 0, pretend = 0, frame = 0
 477              		@ frame_needed = 1, uses_anonymous_args = 0
 478 0000 80B5     		push	{r7, lr}
 479 0002 00AF     		add	r7, sp, #0
 480 0004 0248     		ldr	r0, .L56
 481 0006 FFF7FEFF 		bl	HAL_UART_IRQHandler
 482 000a 00BF     		nop
 483 000c 80BD     		pop	{r7, pc}
 484              	.L57:
 485 000e 00BF     		.align	2
 486              	.L56:
 487 0010 00000000 		.word	huart3
 489              		.section	.text.SDIO_IRQHandler,"ax",%progbits
 490              		.align	1
 491              		.global	SDIO_IRQHandler
 492              		.syntax unified
 493              		.thumb
 494              		.thumb_func
 496              	SDIO_IRQHandler:
 497              		@ args = 0, pretend = 0, frame = 0
 498              		@ frame_needed = 1, uses_anonymous_args = 0
 499 0000 80B5     		push	{r7, lr}
 500 0002 00AF     		add	r7, sp, #0
 501 0004 0248     		ldr	r0, .L59
 502 0006 FFF7FEFF 		bl	HAL_SD_IRQHandler
 503 000a 00BF     		nop
 504 000c 80BD     		pop	{r7, pc}
 505              	.L60:
ARM GAS  C:\Users\user\AppData\Local\Temp\ccjLWxV2.s 			page 9


 506 000e 00BF     		.align	2
 507              	.L59:
 508 0010 00000000 		.word	hsd
 510              		.section	.text.TIM5_IRQHandler,"ax",%progbits
 511              		.align	1
 512              		.global	TIM5_IRQHandler
 513              		.syntax unified
 514              		.thumb
 515              		.thumb_func
 517              	TIM5_IRQHandler:
 518              		@ args = 0, pretend = 0, frame = 0
 519              		@ frame_needed = 1, uses_anonymous_args = 0
 520 0000 80B5     		push	{r7, lr}
 521 0002 00AF     		add	r7, sp, #0
 522 0004 0248     		ldr	r0, .L62
 523 0006 FFF7FEFF 		bl	HAL_TIM_IRQHandler
 524 000a 00BF     		nop
 525 000c 80BD     		pop	{r7, pc}
 526              	.L63:
 527 000e 00BF     		.align	2
 528              	.L62:
 529 0010 00000000 		.word	htim5
 531              		.section	.text.DMA2_Stream0_IRQHandler,"ax",%progbits
 532              		.align	1
 533              		.global	DMA2_Stream0_IRQHandler
 534              		.syntax unified
 535              		.thumb
 536              		.thumb_func
 538              	DMA2_Stream0_IRQHandler:
 539              		@ args = 0, pretend = 0, frame = 0
 540              		@ frame_needed = 1, uses_anonymous_args = 0
 541 0000 80B5     		push	{r7, lr}
 542 0002 00AF     		add	r7, sp, #0
 543 0004 0248     		ldr	r0, .L65
 544 0006 FFF7FEFF 		bl	HAL_DMA_IRQHandler
 545 000a 00BF     		nop
 546 000c 80BD     		pop	{r7, pc}
 547              	.L66:
 548 000e 00BF     		.align	2
 549              	.L65:
 550 0010 00000000 		.word	hdma_adc1
 552              		.section	.text.DMA2_Stream2_IRQHandler,"ax",%progbits
 553              		.align	1
 554              		.global	DMA2_Stream2_IRQHandler
 555              		.syntax unified
 556              		.thumb
 557              		.thumb_func
 559              	DMA2_Stream2_IRQHandler:
 560              		@ args = 0, pretend = 0, frame = 0
 561              		@ frame_needed = 1, uses_anonymous_args = 0
 562 0000 80B5     		push	{r7, lr}
 563 0002 00AF     		add	r7, sp, #0
 564 0004 0248     		ldr	r0, .L68
 565 0006 FFF7FEFF 		bl	HAL_DMA_IRQHandler
 566 000a 00BF     		nop
 567 000c 80BD     		pop	{r7, pc}
 568              	.L69:
ARM GAS  C:\Users\user\AppData\Local\Temp\ccjLWxV2.s 			page 10


 569 000e 00BF     		.align	2
 570              	.L68:
 571 0010 00000000 		.word	hdma_adc2
 573              		.section	.text.DMA2_Stream3_IRQHandler,"ax",%progbits
 574              		.align	1
 575              		.global	DMA2_Stream3_IRQHandler
 576              		.syntax unified
 577              		.thumb
 578              		.thumb_func
 580              	DMA2_Stream3_IRQHandler:
 581              		@ args = 0, pretend = 0, frame = 0
 582              		@ frame_needed = 1, uses_anonymous_args = 0
 583 0000 80B5     		push	{r7, lr}
 584 0002 00AF     		add	r7, sp, #0
 585 0004 0248     		ldr	r0, .L71
 586 0006 FFF7FEFF 		bl	HAL_DMA_IRQHandler
 587 000a 00BF     		nop
 588 000c 80BD     		pop	{r7, pc}
 589              	.L72:
 590 000e 00BF     		.align	2
 591              	.L71:
 592 0010 00000000 		.word	hdma_sdio_tx
 594              		.section	.text.DMA2_Stream6_IRQHandler,"ax",%progbits
 595              		.align	1
 596              		.global	DMA2_Stream6_IRQHandler
 597              		.syntax unified
 598              		.thumb
 599              		.thumb_func
 601              	DMA2_Stream6_IRQHandler:
 602              		@ args = 0, pretend = 0, frame = 0
 603              		@ frame_needed = 1, uses_anonymous_args = 0
 604 0000 80B5     		push	{r7, lr}
 605 0002 00AF     		add	r7, sp, #0
 606 0004 0248     		ldr	r0, .L74
 607 0006 FFF7FEFF 		bl	HAL_DMA_IRQHandler
 608 000a 00BF     		nop
 609 000c 80BD     		pop	{r7, pc}
 610              	.L75:
 611 000e 00BF     		.align	2
 612              	.L74:
 613 0010 00000000 		.word	hdma_sdio_rx
 615              		.section	.text.USART6_IRQHandler,"ax",%progbits
 616              		.align	1
 617              		.global	USART6_IRQHandler
 618              		.syntax unified
 619              		.thumb
 620              		.thumb_func
 622              	USART6_IRQHandler:
 623              		@ args = 0, pretend = 0, frame = 0
 624              		@ frame_needed = 1, uses_anonymous_args = 0
 625 0000 80B5     		push	{r7, lr}
 626 0002 00AF     		add	r7, sp, #0
 627 0004 0248     		ldr	r0, .L77
 628 0006 FFF7FEFF 		bl	HAL_UART_IRQHandler
 629 000a 00BF     		nop
 630 000c 80BD     		pop	{r7, pc}
 631              	.L78:
ARM GAS  C:\Users\user\AppData\Local\Temp\ccjLWxV2.s 			page 11


 632 000e 00BF     		.align	2
 633              	.L77:
 634 0010 00000000 		.word	huart6
 636              		.section	.text.I2C3_EV_IRQHandler,"ax",%progbits
 637              		.align	1
 638              		.global	I2C3_EV_IRQHandler
 639              		.syntax unified
 640              		.thumb
 641              		.thumb_func
 643              	I2C3_EV_IRQHandler:
 644              		@ args = 0, pretend = 0, frame = 0
 645              		@ frame_needed = 1, uses_anonymous_args = 0
 646 0000 80B5     		push	{r7, lr}
 647 0002 00AF     		add	r7, sp, #0
 648 0004 0248     		ldr	r0, .L80
 649 0006 FFF7FEFF 		bl	HAL_I2C_EV_IRQHandler
 650 000a 00BF     		nop
 651 000c 80BD     		pop	{r7, pc}
 652              	.L81:
 653 000e 00BF     		.align	2
 654              	.L80:
 655 0010 00000000 		.word	hi2c3
 657              		.ident	"GCC: (GNU Tools for STM32 12.3.rel1.20240306-1730) 12.3.1 20230626"
ARM GAS  C:\Users\user\AppData\Local\Temp\ccjLWxV2.s 			page 12

