ARM GAS  C:\Users\user\AppData\Local\Temp\cct89UYC.s 			page 1


   1              		.cpu cortex-m4
   2              		.arch armv7e-m
   3              		.fpu fpv4-sp-d16
   4              		.eabi_attribute 27, 1
   5              		.eabi_attribute 28, 1
   6              		.eabi_attribute 20, 1
   7              		.eabi_attribute 21, 1
   8              		.eabi_attribute 23, 3
   9              		.eabi_attribute 24, 1
  10              		.eabi_attribute 25, 1
  11              		.eabi_attribute 26, 1
  12              		.eabi_attribute 30, 6
  13              		.eabi_attribute 34, 1
  14              		.eabi_attribute 18, 4
  15              		.file	"stm32f4xx_hal_rcc.c"
  16              		.text
  17              		.section	.text.HAL_RCC_DeInit,"ax",%progbits
  18              		.align	1
  19              		.weak	HAL_RCC_DeInit
  20              		.syntax unified
  21              		.thumb
  22              		.thumb_func
  24              	HAL_RCC_DeInit:
  25              		@ args = 0, pretend = 0, frame = 0
  26              		@ frame_needed = 1, uses_anonymous_args = 0
  27              		@ link register save eliminated.
  28 0000 80B4     		push	{r7}
  29 0002 00AF     		add	r7, sp, #0
  30 0004 0023     		movs	r3, #0
  31 0006 1846     		mov	r0, r3
  32 0008 BD46     		mov	sp, r7
  33              		@ sp needed
  34 000a 5DF8047B 		ldr	r7, [sp], #4
  35 000e 7047     		bx	lr
  37              		.section	.text.HAL_RCC_OscConfig,"ax",%progbits
  38              		.align	1
  39              		.weak	HAL_RCC_OscConfig
  40              		.syntax unified
  41              		.thumb
  42              		.thumb_func
  44              	HAL_RCC_OscConfig:
  45              		@ args = 0, pretend = 0, frame = 24
  46              		@ frame_needed = 1, uses_anonymous_args = 0
  47 0000 80B5     		push	{r7, lr}
  48 0002 86B0     		sub	sp, sp, #24
  49 0004 00AF     		add	r7, sp, #0
  50 0006 7860     		str	r0, [r7, #4]
  51 0008 7B68     		ldr	r3, [r7, #4]
  52 000a 002B     		cmp	r3, #0
  53 000c 01D1     		bne	.L4
  54 000e 0123     		movs	r3, #1
  55 0010 67E2     		b	.L5
  56              	.L4:
  57 0012 7B68     		ldr	r3, [r7, #4]
  58 0014 1B68     		ldr	r3, [r3]
  59 0016 03F00103 		and	r3, r3, #1
  60 001a 002B     		cmp	r3, #0
ARM GAS  C:\Users\user\AppData\Local\Temp\cct89UYC.s 			page 2


  61 001c 75D0     		beq	.L6
  62 001e 884B     		ldr	r3, .L59
  63 0020 9B68     		ldr	r3, [r3, #8]
  64 0022 03F00C03 		and	r3, r3, #12
  65 0026 042B     		cmp	r3, #4
  66 0028 0CD0     		beq	.L7
  67 002a 854B     		ldr	r3, .L59
  68 002c 9B68     		ldr	r3, [r3, #8]
  69 002e 03F00C03 		and	r3, r3, #12
  70 0032 082B     		cmp	r3, #8
  71 0034 12D1     		bne	.L8
  72 0036 824B     		ldr	r3, .L59
  73 0038 5B68     		ldr	r3, [r3, #4]
  74 003a 03F48003 		and	r3, r3, #4194304
  75 003e B3F5800F 		cmp	r3, #4194304
  76 0042 0BD1     		bne	.L8
  77              	.L7:
  78 0044 7E4B     		ldr	r3, .L59
  79 0046 1B68     		ldr	r3, [r3]
  80 0048 03F40033 		and	r3, r3, #131072
  81 004c 002B     		cmp	r3, #0
  82 004e 5BD0     		beq	.L58
  83 0050 7B68     		ldr	r3, [r7, #4]
  84 0052 5B68     		ldr	r3, [r3, #4]
  85 0054 002B     		cmp	r3, #0
  86 0056 57D1     		bne	.L58
  87 0058 0123     		movs	r3, #1
  88 005a 42E2     		b	.L5
  89              	.L8:
  90 005c 7B68     		ldr	r3, [r7, #4]
  91 005e 5B68     		ldr	r3, [r3, #4]
  92 0060 B3F5803F 		cmp	r3, #65536
  93 0064 06D1     		bne	.L10
  94 0066 764B     		ldr	r3, .L59
  95 0068 1B68     		ldr	r3, [r3]
  96 006a 754A     		ldr	r2, .L59
  97 006c 43F48033 		orr	r3, r3, #65536
  98 0070 1360     		str	r3, [r2]
  99 0072 1DE0     		b	.L11
 100              	.L10:
 101 0074 7B68     		ldr	r3, [r7, #4]
 102 0076 5B68     		ldr	r3, [r3, #4]
 103 0078 B3F5A02F 		cmp	r3, #327680
 104 007c 0CD1     		bne	.L12
 105 007e 704B     		ldr	r3, .L59
 106 0080 1B68     		ldr	r3, [r3]
 107 0082 6F4A     		ldr	r2, .L59
 108 0084 43F48023 		orr	r3, r3, #262144
 109 0088 1360     		str	r3, [r2]
 110 008a 6D4B     		ldr	r3, .L59
 111 008c 1B68     		ldr	r3, [r3]
 112 008e 6C4A     		ldr	r2, .L59
 113 0090 43F48033 		orr	r3, r3, #65536
 114 0094 1360     		str	r3, [r2]
 115 0096 0BE0     		b	.L11
 116              	.L12:
 117 0098 694B     		ldr	r3, .L59
ARM GAS  C:\Users\user\AppData\Local\Temp\cct89UYC.s 			page 3


 118 009a 1B68     		ldr	r3, [r3]
 119 009c 684A     		ldr	r2, .L59
 120 009e 23F48033 		bic	r3, r3, #65536
 121 00a2 1360     		str	r3, [r2]
 122 00a4 664B     		ldr	r3, .L59
 123 00a6 1B68     		ldr	r3, [r3]
 124 00a8 654A     		ldr	r2, .L59
 125 00aa 23F48023 		bic	r3, r3, #262144
 126 00ae 1360     		str	r3, [r2]
 127              	.L11:
 128 00b0 7B68     		ldr	r3, [r7, #4]
 129 00b2 5B68     		ldr	r3, [r3, #4]
 130 00b4 002B     		cmp	r3, #0
 131 00b6 13D0     		beq	.L13
 132 00b8 FFF7FEFF 		bl	HAL_GetTick
 133 00bc 3861     		str	r0, [r7, #16]
 134 00be 08E0     		b	.L14
 135              	.L15:
 136 00c0 FFF7FEFF 		bl	HAL_GetTick
 137 00c4 0246     		mov	r2, r0
 138 00c6 3B69     		ldr	r3, [r7, #16]
 139 00c8 D31A     		subs	r3, r2, r3
 140 00ca 642B     		cmp	r3, #100
 141 00cc 01D9     		bls	.L14
 142 00ce 0323     		movs	r3, #3
 143 00d0 07E2     		b	.L5
 144              	.L14:
 145 00d2 5B4B     		ldr	r3, .L59
 146 00d4 1B68     		ldr	r3, [r3]
 147 00d6 03F40033 		and	r3, r3, #131072
 148 00da 002B     		cmp	r3, #0
 149 00dc F0D0     		beq	.L15
 150 00de 14E0     		b	.L6
 151              	.L13:
 152 00e0 FFF7FEFF 		bl	HAL_GetTick
 153 00e4 3861     		str	r0, [r7, #16]
 154 00e6 08E0     		b	.L16
 155              	.L17:
 156 00e8 FFF7FEFF 		bl	HAL_GetTick
 157 00ec 0246     		mov	r2, r0
 158 00ee 3B69     		ldr	r3, [r7, #16]
 159 00f0 D31A     		subs	r3, r2, r3
 160 00f2 642B     		cmp	r3, #100
 161 00f4 01D9     		bls	.L16
 162 00f6 0323     		movs	r3, #3
 163 00f8 F3E1     		b	.L5
 164              	.L16:
 165 00fa 514B     		ldr	r3, .L59
 166 00fc 1B68     		ldr	r3, [r3]
 167 00fe 03F40033 		and	r3, r3, #131072
 168 0102 002B     		cmp	r3, #0
 169 0104 F0D1     		bne	.L17
 170 0106 00E0     		b	.L6
 171              	.L58:
 172 0108 00BF     		nop
 173              	.L6:
 174 010a 7B68     		ldr	r3, [r7, #4]
ARM GAS  C:\Users\user\AppData\Local\Temp\cct89UYC.s 			page 4


 175 010c 1B68     		ldr	r3, [r3]
 176 010e 03F00203 		and	r3, r3, #2
 177 0112 002B     		cmp	r3, #0
 178 0114 63D0     		beq	.L18
 179 0116 4A4B     		ldr	r3, .L59
 180 0118 9B68     		ldr	r3, [r3, #8]
 181 011a 03F00C03 		and	r3, r3, #12
 182 011e 002B     		cmp	r3, #0
 183 0120 0BD0     		beq	.L19
 184 0122 474B     		ldr	r3, .L59
 185 0124 9B68     		ldr	r3, [r3, #8]
 186 0126 03F00C03 		and	r3, r3, #12
 187 012a 082B     		cmp	r3, #8
 188 012c 1CD1     		bne	.L20
 189 012e 444B     		ldr	r3, .L59
 190 0130 5B68     		ldr	r3, [r3, #4]
 191 0132 03F48003 		and	r3, r3, #4194304
 192 0136 002B     		cmp	r3, #0
 193 0138 16D1     		bne	.L20
 194              	.L19:
 195 013a 414B     		ldr	r3, .L59
 196 013c 1B68     		ldr	r3, [r3]
 197 013e 03F00203 		and	r3, r3, #2
 198 0142 002B     		cmp	r3, #0
 199 0144 05D0     		beq	.L21
 200 0146 7B68     		ldr	r3, [r7, #4]
 201 0148 DB68     		ldr	r3, [r3, #12]
 202 014a 012B     		cmp	r3, #1
 203 014c 01D0     		beq	.L21
 204 014e 0123     		movs	r3, #1
 205 0150 C7E1     		b	.L5
 206              	.L21:
 207 0152 3B4B     		ldr	r3, .L59
 208 0154 1B68     		ldr	r3, [r3]
 209 0156 23F0F802 		bic	r2, r3, #248
 210 015a 7B68     		ldr	r3, [r7, #4]
 211 015c 1B69     		ldr	r3, [r3, #16]
 212 015e DB00     		lsls	r3, r3, #3
 213 0160 3749     		ldr	r1, .L59
 214 0162 1343     		orrs	r3, r3, r2
 215 0164 0B60     		str	r3, [r1]
 216 0166 3AE0     		b	.L18
 217              	.L20:
 218 0168 7B68     		ldr	r3, [r7, #4]
 219 016a DB68     		ldr	r3, [r3, #12]
 220 016c 002B     		cmp	r3, #0
 221 016e 20D0     		beq	.L22
 222 0170 344B     		ldr	r3, .L59+4
 223 0172 0122     		movs	r2, #1
 224 0174 1A60     		str	r2, [r3]
 225 0176 FFF7FEFF 		bl	HAL_GetTick
 226 017a 3861     		str	r0, [r7, #16]
 227 017c 08E0     		b	.L23
 228              	.L24:
 229 017e FFF7FEFF 		bl	HAL_GetTick
 230 0182 0246     		mov	r2, r0
 231 0184 3B69     		ldr	r3, [r7, #16]
ARM GAS  C:\Users\user\AppData\Local\Temp\cct89UYC.s 			page 5


 232 0186 D31A     		subs	r3, r2, r3
 233 0188 022B     		cmp	r3, #2
 234 018a 01D9     		bls	.L23
 235 018c 0323     		movs	r3, #3
 236 018e A8E1     		b	.L5
 237              	.L23:
 238 0190 2B4B     		ldr	r3, .L59
 239 0192 1B68     		ldr	r3, [r3]
 240 0194 03F00203 		and	r3, r3, #2
 241 0198 002B     		cmp	r3, #0
 242 019a F0D0     		beq	.L24
 243 019c 284B     		ldr	r3, .L59
 244 019e 1B68     		ldr	r3, [r3]
 245 01a0 23F0F802 		bic	r2, r3, #248
 246 01a4 7B68     		ldr	r3, [r7, #4]
 247 01a6 1B69     		ldr	r3, [r3, #16]
 248 01a8 DB00     		lsls	r3, r3, #3
 249 01aa 2549     		ldr	r1, .L59
 250 01ac 1343     		orrs	r3, r3, r2
 251 01ae 0B60     		str	r3, [r1]
 252 01b0 15E0     		b	.L18
 253              	.L22:
 254 01b2 244B     		ldr	r3, .L59+4
 255 01b4 0022     		movs	r2, #0
 256 01b6 1A60     		str	r2, [r3]
 257 01b8 FFF7FEFF 		bl	HAL_GetTick
 258 01bc 3861     		str	r0, [r7, #16]
 259 01be 08E0     		b	.L25
 260              	.L26:
 261 01c0 FFF7FEFF 		bl	HAL_GetTick
 262 01c4 0246     		mov	r2, r0
 263 01c6 3B69     		ldr	r3, [r7, #16]
 264 01c8 D31A     		subs	r3, r2, r3
 265 01ca 022B     		cmp	r3, #2
 266 01cc 01D9     		bls	.L25
 267 01ce 0323     		movs	r3, #3
 268 01d0 87E1     		b	.L5
 269              	.L25:
 270 01d2 1B4B     		ldr	r3, .L59
 271 01d4 1B68     		ldr	r3, [r3]
 272 01d6 03F00203 		and	r3, r3, #2
 273 01da 002B     		cmp	r3, #0
 274 01dc F0D1     		bne	.L26
 275              	.L18:
 276 01de 7B68     		ldr	r3, [r7, #4]
 277 01e0 1B68     		ldr	r3, [r3]
 278 01e2 03F00803 		and	r3, r3, #8
 279 01e6 002B     		cmp	r3, #0
 280 01e8 36D0     		beq	.L27
 281 01ea 7B68     		ldr	r3, [r7, #4]
 282 01ec 5B69     		ldr	r3, [r3, #20]
 283 01ee 002B     		cmp	r3, #0
 284 01f0 16D0     		beq	.L28
 285 01f2 154B     		ldr	r3, .L59+8
 286 01f4 0122     		movs	r2, #1
 287 01f6 1A60     		str	r2, [r3]
 288 01f8 FFF7FEFF 		bl	HAL_GetTick
ARM GAS  C:\Users\user\AppData\Local\Temp\cct89UYC.s 			page 6


 289 01fc 3861     		str	r0, [r7, #16]
 290 01fe 08E0     		b	.L29
 291              	.L30:
 292 0200 FFF7FEFF 		bl	HAL_GetTick
 293 0204 0246     		mov	r2, r0
 294 0206 3B69     		ldr	r3, [r7, #16]
 295 0208 D31A     		subs	r3, r2, r3
 296 020a 022B     		cmp	r3, #2
 297 020c 01D9     		bls	.L29
 298 020e 0323     		movs	r3, #3
 299 0210 67E1     		b	.L5
 300              	.L29:
 301 0212 0B4B     		ldr	r3, .L59
 302 0214 5B6F     		ldr	r3, [r3, #116]
 303 0216 03F00203 		and	r3, r3, #2
 304 021a 002B     		cmp	r3, #0
 305 021c F0D0     		beq	.L30
 306 021e 1BE0     		b	.L27
 307              	.L28:
 308 0220 094B     		ldr	r3, .L59+8
 309 0222 0022     		movs	r2, #0
 310 0224 1A60     		str	r2, [r3]
 311 0226 FFF7FEFF 		bl	HAL_GetTick
 312 022a 3861     		str	r0, [r7, #16]
 313 022c 0EE0     		b	.L31
 314              	.L32:
 315 022e FFF7FEFF 		bl	HAL_GetTick
 316 0232 0246     		mov	r2, r0
 317 0234 3B69     		ldr	r3, [r7, #16]
 318 0236 D31A     		subs	r3, r2, r3
 319 0238 022B     		cmp	r3, #2
 320 023a 07D9     		bls	.L31
 321 023c 0323     		movs	r3, #3
 322 023e 50E1     		b	.L5
 323              	.L60:
 324              		.align	2
 325              	.L59:
 326 0240 00380240 		.word	1073887232
 327 0244 00004742 		.word	1111949312
 328 0248 800E4742 		.word	1111953024
 329              	.L31:
 330 024c 884B     		ldr	r3, .L61
 331 024e 5B6F     		ldr	r3, [r3, #116]
 332 0250 03F00203 		and	r3, r3, #2
 333 0254 002B     		cmp	r3, #0
 334 0256 EAD1     		bne	.L32
 335              	.L27:
 336 0258 7B68     		ldr	r3, [r7, #4]
 337 025a 1B68     		ldr	r3, [r3]
 338 025c 03F00403 		and	r3, r3, #4
 339 0260 002B     		cmp	r3, #0
 340 0262 00F09780 		beq	.L33
 341 0266 0023     		movs	r3, #0
 342 0268 FB75     		strb	r3, [r7, #23]
 343 026a 814B     		ldr	r3, .L61
 344 026c 1B6C     		ldr	r3, [r3, #64]
 345 026e 03F08053 		and	r3, r3, #268435456
ARM GAS  C:\Users\user\AppData\Local\Temp\cct89UYC.s 			page 7


 346 0272 002B     		cmp	r3, #0
 347 0274 0FD1     		bne	.L34
 348 0276 0023     		movs	r3, #0
 349 0278 BB60     		str	r3, [r7, #8]
 350 027a 7D4B     		ldr	r3, .L61
 351 027c 1B6C     		ldr	r3, [r3, #64]
 352 027e 7C4A     		ldr	r2, .L61
 353 0280 43F08053 		orr	r3, r3, #268435456
 354 0284 1364     		str	r3, [r2, #64]
 355 0286 7A4B     		ldr	r3, .L61
 356 0288 1B6C     		ldr	r3, [r3, #64]
 357 028a 03F08053 		and	r3, r3, #268435456
 358 028e BB60     		str	r3, [r7, #8]
 359 0290 BB68     		ldr	r3, [r7, #8]
 360 0292 0123     		movs	r3, #1
 361 0294 FB75     		strb	r3, [r7, #23]
 362              	.L34:
 363 0296 774B     		ldr	r3, .L61+4
 364 0298 1B68     		ldr	r3, [r3]
 365 029a 03F48073 		and	r3, r3, #256
 366 029e 002B     		cmp	r3, #0
 367 02a0 18D1     		bne	.L35
 368 02a2 744B     		ldr	r3, .L61+4
 369 02a4 1B68     		ldr	r3, [r3]
 370 02a6 734A     		ldr	r2, .L61+4
 371 02a8 43F48073 		orr	r3, r3, #256
 372 02ac 1360     		str	r3, [r2]
 373 02ae FFF7FEFF 		bl	HAL_GetTick
 374 02b2 3861     		str	r0, [r7, #16]
 375 02b4 08E0     		b	.L36
 376              	.L37:
 377 02b6 FFF7FEFF 		bl	HAL_GetTick
 378 02ba 0246     		mov	r2, r0
 379 02bc 3B69     		ldr	r3, [r7, #16]
 380 02be D31A     		subs	r3, r2, r3
 381 02c0 022B     		cmp	r3, #2
 382 02c2 01D9     		bls	.L36
 383 02c4 0323     		movs	r3, #3
 384 02c6 0CE1     		b	.L5
 385              	.L36:
 386 02c8 6A4B     		ldr	r3, .L61+4
 387 02ca 1B68     		ldr	r3, [r3]
 388 02cc 03F48073 		and	r3, r3, #256
 389 02d0 002B     		cmp	r3, #0
 390 02d2 F0D0     		beq	.L37
 391              	.L35:
 392 02d4 7B68     		ldr	r3, [r7, #4]
 393 02d6 9B68     		ldr	r3, [r3, #8]
 394 02d8 012B     		cmp	r3, #1
 395 02da 06D1     		bne	.L38
 396 02dc 644B     		ldr	r3, .L61
 397 02de 1B6F     		ldr	r3, [r3, #112]
 398 02e0 634A     		ldr	r2, .L61
 399 02e2 43F00103 		orr	r3, r3, #1
 400 02e6 1367     		str	r3, [r2, #112]
 401 02e8 1CE0     		b	.L39
 402              	.L38:
ARM GAS  C:\Users\user\AppData\Local\Temp\cct89UYC.s 			page 8


 403 02ea 7B68     		ldr	r3, [r7, #4]
 404 02ec 9B68     		ldr	r3, [r3, #8]
 405 02ee 052B     		cmp	r3, #5
 406 02f0 0CD1     		bne	.L40
 407 02f2 5F4B     		ldr	r3, .L61
 408 02f4 1B6F     		ldr	r3, [r3, #112]
 409 02f6 5E4A     		ldr	r2, .L61
 410 02f8 43F00403 		orr	r3, r3, #4
 411 02fc 1367     		str	r3, [r2, #112]
 412 02fe 5C4B     		ldr	r3, .L61
 413 0300 1B6F     		ldr	r3, [r3, #112]
 414 0302 5B4A     		ldr	r2, .L61
 415 0304 43F00103 		orr	r3, r3, #1
 416 0308 1367     		str	r3, [r2, #112]
 417 030a 0BE0     		b	.L39
 418              	.L40:
 419 030c 584B     		ldr	r3, .L61
 420 030e 1B6F     		ldr	r3, [r3, #112]
 421 0310 574A     		ldr	r2, .L61
 422 0312 23F00103 		bic	r3, r3, #1
 423 0316 1367     		str	r3, [r2, #112]
 424 0318 554B     		ldr	r3, .L61
 425 031a 1B6F     		ldr	r3, [r3, #112]
 426 031c 544A     		ldr	r2, .L61
 427 031e 23F00403 		bic	r3, r3, #4
 428 0322 1367     		str	r3, [r2, #112]
 429              	.L39:
 430 0324 7B68     		ldr	r3, [r7, #4]
 431 0326 9B68     		ldr	r3, [r3, #8]
 432 0328 002B     		cmp	r3, #0
 433 032a 15D0     		beq	.L41
 434 032c FFF7FEFF 		bl	HAL_GetTick
 435 0330 3861     		str	r0, [r7, #16]
 436 0332 0AE0     		b	.L42
 437              	.L43:
 438 0334 FFF7FEFF 		bl	HAL_GetTick
 439 0338 0246     		mov	r2, r0
 440 033a 3B69     		ldr	r3, [r7, #16]
 441 033c D31A     		subs	r3, r2, r3
 442 033e 41F28832 		movw	r2, #5000
 443 0342 9342     		cmp	r3, r2
 444 0344 01D9     		bls	.L42
 445 0346 0323     		movs	r3, #3
 446 0348 CBE0     		b	.L5
 447              	.L42:
 448 034a 494B     		ldr	r3, .L61
 449 034c 1B6F     		ldr	r3, [r3, #112]
 450 034e 03F00203 		and	r3, r3, #2
 451 0352 002B     		cmp	r3, #0
 452 0354 EED0     		beq	.L43
 453 0356 14E0     		b	.L44
 454              	.L41:
 455 0358 FFF7FEFF 		bl	HAL_GetTick
 456 035c 3861     		str	r0, [r7, #16]
 457 035e 0AE0     		b	.L45
 458              	.L46:
 459 0360 FFF7FEFF 		bl	HAL_GetTick
ARM GAS  C:\Users\user\AppData\Local\Temp\cct89UYC.s 			page 9


 460 0364 0246     		mov	r2, r0
 461 0366 3B69     		ldr	r3, [r7, #16]
 462 0368 D31A     		subs	r3, r2, r3
 463 036a 41F28832 		movw	r2, #5000
 464 036e 9342     		cmp	r3, r2
 465 0370 01D9     		bls	.L45
 466 0372 0323     		movs	r3, #3
 467 0374 B5E0     		b	.L5
 468              	.L45:
 469 0376 3E4B     		ldr	r3, .L61
 470 0378 1B6F     		ldr	r3, [r3, #112]
 471 037a 03F00203 		and	r3, r3, #2
 472 037e 002B     		cmp	r3, #0
 473 0380 EED1     		bne	.L46
 474              	.L44:
 475 0382 FB7D     		ldrb	r3, [r7, #23]	@ zero_extendqisi2
 476 0384 012B     		cmp	r3, #1
 477 0386 05D1     		bne	.L33
 478 0388 394B     		ldr	r3, .L61
 479 038a 1B6C     		ldr	r3, [r3, #64]
 480 038c 384A     		ldr	r2, .L61
 481 038e 23F08053 		bic	r3, r3, #268435456
 482 0392 1364     		str	r3, [r2, #64]
 483              	.L33:
 484 0394 7B68     		ldr	r3, [r7, #4]
 485 0396 9B69     		ldr	r3, [r3, #24]
 486 0398 002B     		cmp	r3, #0
 487 039a 00F0A180 		beq	.L47
 488 039e 344B     		ldr	r3, .L61
 489 03a0 9B68     		ldr	r3, [r3, #8]
 490 03a2 03F00C03 		and	r3, r3, #12
 491 03a6 082B     		cmp	r3, #8
 492 03a8 5CD0     		beq	.L48
 493 03aa 7B68     		ldr	r3, [r7, #4]
 494 03ac 9B69     		ldr	r3, [r3, #24]
 495 03ae 022B     		cmp	r3, #2
 496 03b0 41D1     		bne	.L49
 497 03b2 314B     		ldr	r3, .L61+8
 498 03b4 0022     		movs	r2, #0
 499 03b6 1A60     		str	r2, [r3]
 500 03b8 FFF7FEFF 		bl	HAL_GetTick
 501 03bc 3861     		str	r0, [r7, #16]
 502 03be 08E0     		b	.L50
 503              	.L51:
 504 03c0 FFF7FEFF 		bl	HAL_GetTick
 505 03c4 0246     		mov	r2, r0
 506 03c6 3B69     		ldr	r3, [r7, #16]
 507 03c8 D31A     		subs	r3, r2, r3
 508 03ca 022B     		cmp	r3, #2
 509 03cc 01D9     		bls	.L50
 510 03ce 0323     		movs	r3, #3
 511 03d0 87E0     		b	.L5
 512              	.L50:
 513 03d2 274B     		ldr	r3, .L61
 514 03d4 1B68     		ldr	r3, [r3]
 515 03d6 03F00073 		and	r3, r3, #33554432
 516 03da 002B     		cmp	r3, #0
ARM GAS  C:\Users\user\AppData\Local\Temp\cct89UYC.s 			page 10


 517 03dc F0D1     		bne	.L51
 518 03de 7B68     		ldr	r3, [r7, #4]
 519 03e0 DA69     		ldr	r2, [r3, #28]
 520 03e2 7B68     		ldr	r3, [r7, #4]
 521 03e4 1B6A     		ldr	r3, [r3, #32]
 522 03e6 1A43     		orrs	r2, r2, r3
 523 03e8 7B68     		ldr	r3, [r7, #4]
 524 03ea 5B6A     		ldr	r3, [r3, #36]
 525 03ec 9B01     		lsls	r3, r3, #6
 526 03ee 1A43     		orrs	r2, r2, r3
 527 03f0 7B68     		ldr	r3, [r7, #4]
 528 03f2 9B6A     		ldr	r3, [r3, #40]
 529 03f4 5B08     		lsrs	r3, r3, #1
 530 03f6 013B     		subs	r3, r3, #1
 531 03f8 1B04     		lsls	r3, r3, #16
 532 03fa 1A43     		orrs	r2, r2, r3
 533 03fc 7B68     		ldr	r3, [r7, #4]
 534 03fe DB6A     		ldr	r3, [r3, #44]
 535 0400 1B06     		lsls	r3, r3, #24
 536 0402 1B49     		ldr	r1, .L61
 537 0404 1343     		orrs	r3, r3, r2
 538 0406 4B60     		str	r3, [r1, #4]
 539 0408 1B4B     		ldr	r3, .L61+8
 540 040a 0122     		movs	r2, #1
 541 040c 1A60     		str	r2, [r3]
 542 040e FFF7FEFF 		bl	HAL_GetTick
 543 0412 3861     		str	r0, [r7, #16]
 544 0414 08E0     		b	.L52
 545              	.L53:
 546 0416 FFF7FEFF 		bl	HAL_GetTick
 547 041a 0246     		mov	r2, r0
 548 041c 3B69     		ldr	r3, [r7, #16]
 549 041e D31A     		subs	r3, r2, r3
 550 0420 022B     		cmp	r3, #2
 551 0422 01D9     		bls	.L52
 552 0424 0323     		movs	r3, #3
 553 0426 5CE0     		b	.L5
 554              	.L52:
 555 0428 114B     		ldr	r3, .L61
 556 042a 1B68     		ldr	r3, [r3]
 557 042c 03F00073 		and	r3, r3, #33554432
 558 0430 002B     		cmp	r3, #0
 559 0432 F0D0     		beq	.L53
 560 0434 54E0     		b	.L47
 561              	.L49:
 562 0436 104B     		ldr	r3, .L61+8
 563 0438 0022     		movs	r2, #0
 564 043a 1A60     		str	r2, [r3]
 565 043c FFF7FEFF 		bl	HAL_GetTick
 566 0440 3861     		str	r0, [r7, #16]
 567 0442 08E0     		b	.L54
 568              	.L55:
 569 0444 FFF7FEFF 		bl	HAL_GetTick
 570 0448 0246     		mov	r2, r0
 571 044a 3B69     		ldr	r3, [r7, #16]
 572 044c D31A     		subs	r3, r2, r3
 573 044e 022B     		cmp	r3, #2
ARM GAS  C:\Users\user\AppData\Local\Temp\cct89UYC.s 			page 11


 574 0450 01D9     		bls	.L54
 575 0452 0323     		movs	r3, #3
 576 0454 45E0     		b	.L5
 577              	.L54:
 578 0456 064B     		ldr	r3, .L61
 579 0458 1B68     		ldr	r3, [r3]
 580 045a 03F00073 		and	r3, r3, #33554432
 581 045e 002B     		cmp	r3, #0
 582 0460 F0D1     		bne	.L55
 583 0462 3DE0     		b	.L47
 584              	.L48:
 585 0464 7B68     		ldr	r3, [r7, #4]
 586 0466 9B69     		ldr	r3, [r3, #24]
 587 0468 012B     		cmp	r3, #1
 588 046a 07D1     		bne	.L56
 589 046c 0123     		movs	r3, #1
 590 046e 38E0     		b	.L5
 591              	.L62:
 592              		.align	2
 593              	.L61:
 594 0470 00380240 		.word	1073887232
 595 0474 00700040 		.word	1073770496
 596 0478 60004742 		.word	1111949408
 597              	.L56:
 598 047c 1B4B     		ldr	r3, .L63
 599 047e 5B68     		ldr	r3, [r3, #4]
 600 0480 FB60     		str	r3, [r7, #12]
 601 0482 7B68     		ldr	r3, [r7, #4]
 602 0484 9B69     		ldr	r3, [r3, #24]
 603 0486 012B     		cmp	r3, #1
 604 0488 28D0     		beq	.L57
 605 048a FB68     		ldr	r3, [r7, #12]
 606 048c 03F48002 		and	r2, r3, #4194304
 607 0490 7B68     		ldr	r3, [r7, #4]
 608 0492 DB69     		ldr	r3, [r3, #28]
 609 0494 9A42     		cmp	r2, r3
 610 0496 21D1     		bne	.L57
 611 0498 FB68     		ldr	r3, [r7, #12]
 612 049a 03F03F02 		and	r2, r3, #63
 613 049e 7B68     		ldr	r3, [r7, #4]
 614 04a0 1B6A     		ldr	r3, [r3, #32]
 615 04a2 9A42     		cmp	r2, r3
 616 04a4 1AD1     		bne	.L57
 617 04a6 FA68     		ldr	r2, [r7, #12]
 618 04a8 47F6C073 		movw	r3, #32704
 619 04ac 1340     		ands	r3, r3, r2
 620 04ae 7A68     		ldr	r2, [r7, #4]
 621 04b0 526A     		ldr	r2, [r2, #36]
 622 04b2 9201     		lsls	r2, r2, #6
 623 04b4 9342     		cmp	r3, r2
 624 04b6 11D1     		bne	.L57
 625 04b8 FB68     		ldr	r3, [r7, #12]
 626 04ba 03F44032 		and	r2, r3, #196608
 627 04be 7B68     		ldr	r3, [r7, #4]
 628 04c0 9B6A     		ldr	r3, [r3, #40]
 629 04c2 5B08     		lsrs	r3, r3, #1
 630 04c4 013B     		subs	r3, r3, #1
ARM GAS  C:\Users\user\AppData\Local\Temp\cct89UYC.s 			page 12


 631 04c6 1B04     		lsls	r3, r3, #16
 632 04c8 9A42     		cmp	r2, r3
 633 04ca 07D1     		bne	.L57
 634 04cc FB68     		ldr	r3, [r7, #12]
 635 04ce 03F07062 		and	r2, r3, #251658240
 636 04d2 7B68     		ldr	r3, [r7, #4]
 637 04d4 DB6A     		ldr	r3, [r3, #44]
 638 04d6 1B06     		lsls	r3, r3, #24
 639 04d8 9A42     		cmp	r2, r3
 640 04da 01D0     		beq	.L47
 641              	.L57:
 642 04dc 0123     		movs	r3, #1
 643 04de 00E0     		b	.L5
 644              	.L47:
 645 04e0 0023     		movs	r3, #0
 646              	.L5:
 647 04e2 1846     		mov	r0, r3
 648 04e4 1837     		adds	r7, r7, #24
 649 04e6 BD46     		mov	sp, r7
 650              		@ sp needed
 651 04e8 80BD     		pop	{r7, pc}
 652              	.L64:
 653 04ea 00BF     		.align	2
 654              	.L63:
 655 04ec 00380240 		.word	1073887232
 657              		.section	.text.HAL_RCC_ClockConfig,"ax",%progbits
 658              		.align	1
 659              		.global	HAL_RCC_ClockConfig
 660              		.syntax unified
 661              		.thumb
 662              		.thumb_func
 664              	HAL_RCC_ClockConfig:
 665              		@ args = 0, pretend = 0, frame = 16
 666              		@ frame_needed = 1, uses_anonymous_args = 0
 667 0000 80B5     		push	{r7, lr}
 668 0002 84B0     		sub	sp, sp, #16
 669 0004 00AF     		add	r7, sp, #0
 670 0006 7860     		str	r0, [r7, #4]
 671 0008 3960     		str	r1, [r7]
 672 000a 7B68     		ldr	r3, [r7, #4]
 673 000c 002B     		cmp	r3, #0
 674 000e 01D1     		bne	.L66
 675 0010 0123     		movs	r3, #1
 676 0012 CCE0     		b	.L67
 677              	.L66:
 678 0014 684B     		ldr	r3, .L83
 679 0016 1B68     		ldr	r3, [r3]
 680 0018 03F00703 		and	r3, r3, #7
 681 001c 3A68     		ldr	r2, [r7]
 682 001e 9A42     		cmp	r2, r3
 683 0020 0CD9     		bls	.L68
 684 0022 654B     		ldr	r3, .L83
 685 0024 3A68     		ldr	r2, [r7]
 686 0026 D2B2     		uxtb	r2, r2
 687 0028 1A70     		strb	r2, [r3]
 688 002a 634B     		ldr	r3, .L83
 689 002c 1B68     		ldr	r3, [r3]
ARM GAS  C:\Users\user\AppData\Local\Temp\cct89UYC.s 			page 13


 690 002e 03F00703 		and	r3, r3, #7
 691 0032 3A68     		ldr	r2, [r7]
 692 0034 9A42     		cmp	r2, r3
 693 0036 01D0     		beq	.L68
 694 0038 0123     		movs	r3, #1
 695 003a B8E0     		b	.L67
 696              	.L68:
 697 003c 7B68     		ldr	r3, [r7, #4]
 698 003e 1B68     		ldr	r3, [r3]
 699 0040 03F00203 		and	r3, r3, #2
 700 0044 002B     		cmp	r3, #0
 701 0046 20D0     		beq	.L69
 702 0048 7B68     		ldr	r3, [r7, #4]
 703 004a 1B68     		ldr	r3, [r3]
 704 004c 03F00403 		and	r3, r3, #4
 705 0050 002B     		cmp	r3, #0
 706 0052 05D0     		beq	.L70
 707 0054 594B     		ldr	r3, .L83+4
 708 0056 9B68     		ldr	r3, [r3, #8]
 709 0058 584A     		ldr	r2, .L83+4
 710 005a 43F4E053 		orr	r3, r3, #7168
 711 005e 9360     		str	r3, [r2, #8]
 712              	.L70:
 713 0060 7B68     		ldr	r3, [r7, #4]
 714 0062 1B68     		ldr	r3, [r3]
 715 0064 03F00803 		and	r3, r3, #8
 716 0068 002B     		cmp	r3, #0
 717 006a 05D0     		beq	.L71
 718 006c 534B     		ldr	r3, .L83+4
 719 006e 9B68     		ldr	r3, [r3, #8]
 720 0070 524A     		ldr	r2, .L83+4
 721 0072 43F46043 		orr	r3, r3, #57344
 722 0076 9360     		str	r3, [r2, #8]
 723              	.L71:
 724 0078 504B     		ldr	r3, .L83+4
 725 007a 9B68     		ldr	r3, [r3, #8]
 726 007c 23F0F002 		bic	r2, r3, #240
 727 0080 7B68     		ldr	r3, [r7, #4]
 728 0082 9B68     		ldr	r3, [r3, #8]
 729 0084 4D49     		ldr	r1, .L83+4
 730 0086 1343     		orrs	r3, r3, r2
 731 0088 8B60     		str	r3, [r1, #8]
 732              	.L69:
 733 008a 7B68     		ldr	r3, [r7, #4]
 734 008c 1B68     		ldr	r3, [r3]
 735 008e 03F00103 		and	r3, r3, #1
 736 0092 002B     		cmp	r3, #0
 737 0094 44D0     		beq	.L72
 738 0096 7B68     		ldr	r3, [r7, #4]
 739 0098 5B68     		ldr	r3, [r3, #4]
 740 009a 012B     		cmp	r3, #1
 741 009c 07D1     		bne	.L73
 742 009e 474B     		ldr	r3, .L83+4
 743 00a0 1B68     		ldr	r3, [r3]
 744 00a2 03F40033 		and	r3, r3, #131072
 745 00a6 002B     		cmp	r3, #0
 746 00a8 19D1     		bne	.L74
ARM GAS  C:\Users\user\AppData\Local\Temp\cct89UYC.s 			page 14


 747 00aa 0123     		movs	r3, #1
 748 00ac 7FE0     		b	.L67
 749              	.L73:
 750 00ae 7B68     		ldr	r3, [r7, #4]
 751 00b0 5B68     		ldr	r3, [r3, #4]
 752 00b2 022B     		cmp	r3, #2
 753 00b4 03D0     		beq	.L75
 754 00b6 7B68     		ldr	r3, [r7, #4]
 755 00b8 5B68     		ldr	r3, [r3, #4]
 756 00ba 032B     		cmp	r3, #3
 757 00bc 07D1     		bne	.L76
 758              	.L75:
 759 00be 3F4B     		ldr	r3, .L83+4
 760 00c0 1B68     		ldr	r3, [r3]
 761 00c2 03F00073 		and	r3, r3, #33554432
 762 00c6 002B     		cmp	r3, #0
 763 00c8 09D1     		bne	.L74
 764 00ca 0123     		movs	r3, #1
 765 00cc 6FE0     		b	.L67
 766              	.L76:
 767 00ce 3B4B     		ldr	r3, .L83+4
 768 00d0 1B68     		ldr	r3, [r3]
 769 00d2 03F00203 		and	r3, r3, #2
 770 00d6 002B     		cmp	r3, #0
 771 00d8 01D1     		bne	.L74
 772 00da 0123     		movs	r3, #1
 773 00dc 67E0     		b	.L67
 774              	.L74:
 775 00de 374B     		ldr	r3, .L83+4
 776 00e0 9B68     		ldr	r3, [r3, #8]
 777 00e2 23F00302 		bic	r2, r3, #3
 778 00e6 7B68     		ldr	r3, [r7, #4]
 779 00e8 5B68     		ldr	r3, [r3, #4]
 780 00ea 3449     		ldr	r1, .L83+4
 781 00ec 1343     		orrs	r3, r3, r2
 782 00ee 8B60     		str	r3, [r1, #8]
 783 00f0 FFF7FEFF 		bl	HAL_GetTick
 784 00f4 F860     		str	r0, [r7, #12]
 785 00f6 0AE0     		b	.L78
 786              	.L79:
 787 00f8 FFF7FEFF 		bl	HAL_GetTick
 788 00fc 0246     		mov	r2, r0
 789 00fe FB68     		ldr	r3, [r7, #12]
 790 0100 D31A     		subs	r3, r2, r3
 791 0102 41F28832 		movw	r2, #5000
 792 0106 9342     		cmp	r3, r2
 793 0108 01D9     		bls	.L78
 794 010a 0323     		movs	r3, #3
 795 010c 4FE0     		b	.L67
 796              	.L78:
 797 010e 2B4B     		ldr	r3, .L83+4
 798 0110 9B68     		ldr	r3, [r3, #8]
 799 0112 03F00C02 		and	r2, r3, #12
 800 0116 7B68     		ldr	r3, [r7, #4]
 801 0118 5B68     		ldr	r3, [r3, #4]
 802 011a 9B00     		lsls	r3, r3, #2
 803 011c 9A42     		cmp	r2, r3
ARM GAS  C:\Users\user\AppData\Local\Temp\cct89UYC.s 			page 15


 804 011e EBD1     		bne	.L79
 805              	.L72:
 806 0120 254B     		ldr	r3, .L83
 807 0122 1B68     		ldr	r3, [r3]
 808 0124 03F00703 		and	r3, r3, #7
 809 0128 3A68     		ldr	r2, [r7]
 810 012a 9A42     		cmp	r2, r3
 811 012c 0CD2     		bcs	.L80
 812 012e 224B     		ldr	r3, .L83
 813 0130 3A68     		ldr	r2, [r7]
 814 0132 D2B2     		uxtb	r2, r2
 815 0134 1A70     		strb	r2, [r3]
 816 0136 204B     		ldr	r3, .L83
 817 0138 1B68     		ldr	r3, [r3]
 818 013a 03F00703 		and	r3, r3, #7
 819 013e 3A68     		ldr	r2, [r7]
 820 0140 9A42     		cmp	r2, r3
 821 0142 01D0     		beq	.L80
 822 0144 0123     		movs	r3, #1
 823 0146 32E0     		b	.L67
 824              	.L80:
 825 0148 7B68     		ldr	r3, [r7, #4]
 826 014a 1B68     		ldr	r3, [r3]
 827 014c 03F00403 		and	r3, r3, #4
 828 0150 002B     		cmp	r3, #0
 829 0152 08D0     		beq	.L81
 830 0154 194B     		ldr	r3, .L83+4
 831 0156 9B68     		ldr	r3, [r3, #8]
 832 0158 23F4E052 		bic	r2, r3, #7168
 833 015c 7B68     		ldr	r3, [r7, #4]
 834 015e DB68     		ldr	r3, [r3, #12]
 835 0160 1649     		ldr	r1, .L83+4
 836 0162 1343     		orrs	r3, r3, r2
 837 0164 8B60     		str	r3, [r1, #8]
 838              	.L81:
 839 0166 7B68     		ldr	r3, [r7, #4]
 840 0168 1B68     		ldr	r3, [r3]
 841 016a 03F00803 		and	r3, r3, #8
 842 016e 002B     		cmp	r3, #0
 843 0170 09D0     		beq	.L82
 844 0172 124B     		ldr	r3, .L83+4
 845 0174 9B68     		ldr	r3, [r3, #8]
 846 0176 23F46042 		bic	r2, r3, #57344
 847 017a 7B68     		ldr	r3, [r7, #4]
 848 017c 1B69     		ldr	r3, [r3, #16]
 849 017e DB00     		lsls	r3, r3, #3
 850 0180 0E49     		ldr	r1, .L83+4
 851 0182 1343     		orrs	r3, r3, r2
 852 0184 8B60     		str	r3, [r1, #8]
 853              	.L82:
 854 0186 FFF7FEFF 		bl	HAL_RCC_GetSysClockFreq
 855 018a 0246     		mov	r2, r0
 856 018c 0B4B     		ldr	r3, .L83+4
 857 018e 9B68     		ldr	r3, [r3, #8]
 858 0190 1B09     		lsrs	r3, r3, #4
 859 0192 03F00F03 		and	r3, r3, #15
 860 0196 0A49     		ldr	r1, .L83+8
ARM GAS  C:\Users\user\AppData\Local\Temp\cct89UYC.s 			page 16


 861 0198 CB5C     		ldrb	r3, [r1, r3]	@ zero_extendqisi2
 862 019a 22FA03F3 		lsr	r3, r2, r3
 863 019e 094A     		ldr	r2, .L83+12
 864 01a0 1360     		str	r3, [r2]
 865 01a2 094B     		ldr	r3, .L83+16
 866 01a4 1B68     		ldr	r3, [r3]
 867 01a6 1846     		mov	r0, r3
 868 01a8 FFF7FEFF 		bl	HAL_InitTick
 869 01ac 0023     		movs	r3, #0
 870              	.L67:
 871 01ae 1846     		mov	r0, r3
 872 01b0 1037     		adds	r7, r7, #16
 873 01b2 BD46     		mov	sp, r7
 874              		@ sp needed
 875 01b4 80BD     		pop	{r7, pc}
 876              	.L84:
 877 01b6 00BF     		.align	2
 878              	.L83:
 879 01b8 003C0240 		.word	1073888256
 880 01bc 00380240 		.word	1073887232
 881 01c0 00000000 		.word	AHBPrescTable
 882 01c4 00000000 		.word	SystemCoreClock
 883 01c8 00000000 		.word	uwTickPrio
 885              		.section	.text.HAL_RCC_MCOConfig,"ax",%progbits
 886              		.align	1
 887              		.global	HAL_RCC_MCOConfig
 888              		.syntax unified
 889              		.thumb
 890              		.thumb_func
 892              	HAL_RCC_MCOConfig:
 893              		@ args = 0, pretend = 0, frame = 48
 894              		@ frame_needed = 1, uses_anonymous_args = 0
 895 0000 80B5     		push	{r7, lr}
 896 0002 8CB0     		sub	sp, sp, #48
 897 0004 00AF     		add	r7, sp, #0
 898 0006 F860     		str	r0, [r7, #12]
 899 0008 B960     		str	r1, [r7, #8]
 900 000a 7A60     		str	r2, [r7, #4]
 901 000c FB68     		ldr	r3, [r7, #12]
 902 000e 002B     		cmp	r3, #0
 903 0010 29D1     		bne	.L86
 904 0012 0023     		movs	r3, #0
 905 0014 BB61     		str	r3, [r7, #24]
 906 0016 2B4B     		ldr	r3, .L89
 907 0018 1B6B     		ldr	r3, [r3, #48]
 908 001a 2A4A     		ldr	r2, .L89
 909 001c 43F00103 		orr	r3, r3, #1
 910 0020 1363     		str	r3, [r2, #48]
 911 0022 284B     		ldr	r3, .L89
 912 0024 1B6B     		ldr	r3, [r3, #48]
 913 0026 03F00103 		and	r3, r3, #1
 914 002a BB61     		str	r3, [r7, #24]
 915 002c BB69     		ldr	r3, [r7, #24]
 916 002e 4FF48073 		mov	r3, #256
 917 0032 FB61     		str	r3, [r7, #28]
 918 0034 0223     		movs	r3, #2
 919 0036 3B62     		str	r3, [r7, #32]
ARM GAS  C:\Users\user\AppData\Local\Temp\cct89UYC.s 			page 17


 920 0038 0323     		movs	r3, #3
 921 003a BB62     		str	r3, [r7, #40]
 922 003c 0023     		movs	r3, #0
 923 003e 7B62     		str	r3, [r7, #36]
 924 0040 0023     		movs	r3, #0
 925 0042 FB62     		str	r3, [r7, #44]
 926 0044 07F11C03 		add	r3, r7, #28
 927 0048 1946     		mov	r1, r3
 928 004a 1F48     		ldr	r0, .L89+4
 929 004c FFF7FEFF 		bl	HAL_GPIO_Init
 930 0050 1C4B     		ldr	r3, .L89
 931 0052 9B68     		ldr	r3, [r3, #8]
 932 0054 23F0EC62 		bic	r2, r3, #123731968
 933 0058 B968     		ldr	r1, [r7, #8]
 934 005a 7B68     		ldr	r3, [r7, #4]
 935 005c 0B43     		orrs	r3, r3, r1
 936 005e 1949     		ldr	r1, .L89
 937 0060 1343     		orrs	r3, r3, r2
 938 0062 8B60     		str	r3, [r1, #8]
 939 0064 29E0     		b	.L88
 940              	.L86:
 941 0066 0023     		movs	r3, #0
 942 0068 7B61     		str	r3, [r7, #20]
 943 006a 164B     		ldr	r3, .L89
 944 006c 1B6B     		ldr	r3, [r3, #48]
 945 006e 154A     		ldr	r2, .L89
 946 0070 43F00403 		orr	r3, r3, #4
 947 0074 1363     		str	r3, [r2, #48]
 948 0076 134B     		ldr	r3, .L89
 949 0078 1B6B     		ldr	r3, [r3, #48]
 950 007a 03F00403 		and	r3, r3, #4
 951 007e 7B61     		str	r3, [r7, #20]
 952 0080 7B69     		ldr	r3, [r7, #20]
 953 0082 4FF40073 		mov	r3, #512
 954 0086 FB61     		str	r3, [r7, #28]
 955 0088 0223     		movs	r3, #2
 956 008a 3B62     		str	r3, [r7, #32]
 957 008c 0323     		movs	r3, #3
 958 008e BB62     		str	r3, [r7, #40]
 959 0090 0023     		movs	r3, #0
 960 0092 7B62     		str	r3, [r7, #36]
 961 0094 0023     		movs	r3, #0
 962 0096 FB62     		str	r3, [r7, #44]
 963 0098 07F11C03 		add	r3, r7, #28
 964 009c 1946     		mov	r1, r3
 965 009e 0B48     		ldr	r0, .L89+8
 966 00a0 FFF7FEFF 		bl	HAL_GPIO_Init
 967 00a4 074B     		ldr	r3, .L89
 968 00a6 9B68     		ldr	r3, [r3, #8]
 969 00a8 23F07842 		bic	r2, r3, #-134217728
 970 00ac 7B68     		ldr	r3, [r7, #4]
 971 00ae D900     		lsls	r1, r3, #3
 972 00b0 BB68     		ldr	r3, [r7, #8]
 973 00b2 0B43     		orrs	r3, r3, r1
 974 00b4 0349     		ldr	r1, .L89
 975 00b6 1343     		orrs	r3, r3, r2
 976 00b8 8B60     		str	r3, [r1, #8]
ARM GAS  C:\Users\user\AppData\Local\Temp\cct89UYC.s 			page 18


 977              	.L88:
 978 00ba 00BF     		nop
 979 00bc 3037     		adds	r7, r7, #48
 980 00be BD46     		mov	sp, r7
 981              		@ sp needed
 982 00c0 80BD     		pop	{r7, pc}
 983              	.L90:
 984 00c2 00BF     		.align	2
 985              	.L89:
 986 00c4 00380240 		.word	1073887232
 987 00c8 00000240 		.word	1073872896
 988 00cc 00080240 		.word	1073874944
 990              		.section	.text.HAL_RCC_EnableCSS,"ax",%progbits
 991              		.align	1
 992              		.global	HAL_RCC_EnableCSS
 993              		.syntax unified
 994              		.thumb
 995              		.thumb_func
 997              	HAL_RCC_EnableCSS:
 998              		@ args = 0, pretend = 0, frame = 0
 999              		@ frame_needed = 1, uses_anonymous_args = 0
 1000              		@ link register save eliminated.
 1001 0000 80B4     		push	{r7}
 1002 0002 00AF     		add	r7, sp, #0
 1003 0004 034B     		ldr	r3, .L92
 1004 0006 0122     		movs	r2, #1
 1005 0008 1A60     		str	r2, [r3]
 1006 000a 00BF     		nop
 1007 000c BD46     		mov	sp, r7
 1008              		@ sp needed
 1009 000e 5DF8047B 		ldr	r7, [sp], #4
 1010 0012 7047     		bx	lr
 1011              	.L93:
 1012              		.align	2
 1013              	.L92:
 1014 0014 4C004742 		.word	1111949388
 1016              		.section	.text.HAL_RCC_DisableCSS,"ax",%progbits
 1017              		.align	1
 1018              		.global	HAL_RCC_DisableCSS
 1019              		.syntax unified
 1020              		.thumb
 1021              		.thumb_func
 1023              	HAL_RCC_DisableCSS:
 1024              		@ args = 0, pretend = 0, frame = 0
 1025              		@ frame_needed = 1, uses_anonymous_args = 0
 1026              		@ link register save eliminated.
 1027 0000 80B4     		push	{r7}
 1028 0002 00AF     		add	r7, sp, #0
 1029 0004 034B     		ldr	r3, .L95
 1030 0006 0022     		movs	r2, #0
 1031 0008 1A60     		str	r2, [r3]
 1032 000a 00BF     		nop
 1033 000c BD46     		mov	sp, r7
 1034              		@ sp needed
 1035 000e 5DF8047B 		ldr	r7, [sp], #4
 1036 0012 7047     		bx	lr
 1037              	.L96:
ARM GAS  C:\Users\user\AppData\Local\Temp\cct89UYC.s 			page 19


 1038              		.align	2
 1039              	.L95:
 1040 0014 4C004742 		.word	1111949388
 1042              		.global	__aeabi_uldivmod
 1043              		.section	.text.HAL_RCC_GetSysClockFreq,"ax",%progbits
 1044              		.align	1
 1045              		.weak	HAL_RCC_GetSysClockFreq
 1046              		.syntax unified
 1047              		.thumb
 1048              		.thumb_func
 1050              	HAL_RCC_GetSysClockFreq:
 1051              		@ args = 0, pretend = 0, frame = 80
 1052              		@ frame_needed = 1, uses_anonymous_args = 0
 1053 0000 2DE9B04F 		push	{r4, r5, r7, r8, r9, r10, fp, lr}
 1054 0004 94B0     		sub	sp, sp, #80
 1055 0006 00AF     		add	r7, sp, #0
 1056 0008 0023     		movs	r3, #0
 1057 000a 7B64     		str	r3, [r7, #68]
 1058 000c 0023     		movs	r3, #0
 1059 000e FB64     		str	r3, [r7, #76]
 1060 0010 0023     		movs	r3, #0
 1061 0012 3B64     		str	r3, [r7, #64]
 1062 0014 0023     		movs	r3, #0
 1063 0016 BB64     		str	r3, [r7, #72]
 1064 0018 794B     		ldr	r3, .L106
 1065 001a 9B68     		ldr	r3, [r3, #8]
 1066 001c 03F00C03 		and	r3, r3, #12
 1067 0020 082B     		cmp	r3, #8
 1068 0022 0DD0     		beq	.L98
 1069 0024 082B     		cmp	r3, #8
 1070 0026 00F2E180 		bhi	.L99
 1071 002a 002B     		cmp	r3, #0
 1072 002c 02D0     		beq	.L100
 1073 002e 042B     		cmp	r3, #4
 1074 0030 03D0     		beq	.L101
 1075 0032 DBE0     		b	.L99
 1076              	.L100:
 1077 0034 734B     		ldr	r3, .L106+4
 1078 0036 BB64     		str	r3, [r7, #72]
 1079 0038 DBE0     		b	.L102
 1080              	.L101:
 1081 003a 734B     		ldr	r3, .L106+8
 1082 003c BB64     		str	r3, [r7, #72]
 1083 003e D8E0     		b	.L102
 1084              	.L98:
 1085 0040 6F4B     		ldr	r3, .L106
 1086 0042 5B68     		ldr	r3, [r3, #4]
 1087 0044 03F03F03 		and	r3, r3, #63
 1088 0048 7B64     		str	r3, [r7, #68]
 1089 004a 6D4B     		ldr	r3, .L106
 1090 004c 5B68     		ldr	r3, [r3, #4]
 1091 004e 03F48003 		and	r3, r3, #4194304
 1092 0052 002B     		cmp	r3, #0
 1093 0054 63D0     		beq	.L103
 1094 0056 6A4B     		ldr	r3, .L106
 1095 0058 5B68     		ldr	r3, [r3, #4]
 1096 005a 9B09     		lsrs	r3, r3, #6
ARM GAS  C:\Users\user\AppData\Local\Temp\cct89UYC.s 			page 20


 1097 005c 0022     		movs	r2, #0
 1098 005e BB63     		str	r3, [r7, #56]
 1099 0060 FA63     		str	r2, [r7, #60]
 1100 0062 BB6B     		ldr	r3, [r7, #56]
 1101 0064 C3F30803 		ubfx	r3, r3, #0, #9
 1102 0068 3B63     		str	r3, [r7, #48]
 1103 006a 0023     		movs	r3, #0
 1104 006c 7B63     		str	r3, [r7, #52]
 1105 006e D7E90C45 		ldrd	r4, [r7, #48]
 1106 0072 2246     		mov	r2, r4
 1107 0074 2B46     		mov	r3, r5
 1108 0076 4FF00000 		mov	r0, #0
 1109 007a 4FF00001 		mov	r1, #0
 1110 007e 5901     		lsls	r1, r3, #5
 1111 0080 41EAD261 		orr	r1, r1, r2, lsr #27
 1112 0084 5001     		lsls	r0, r2, #5
 1113 0086 0246     		mov	r2, r0
 1114 0088 0B46     		mov	r3, r1
 1115 008a 2146     		mov	r1, r4
 1116 008c 511A     		subs	r1, r2, r1
 1117 008e 3961     		str	r1, [r7, #16]
 1118 0090 2946     		mov	r1, r5
 1119 0092 63EB0103 		sbc	r3, r3, r1
 1120 0096 7B61     		str	r3, [r7, #20]
 1121 0098 4FF00002 		mov	r2, #0
 1122 009c 4FF00003 		mov	r3, #0
 1123 00a0 D7E904AB 		ldrd	r10, [r7, #16]
 1124 00a4 5946     		mov	r1, fp
 1125 00a6 8B01     		lsls	r3, r1, #6
 1126 00a8 5146     		mov	r1, r10
 1127 00aa 43EA9163 		orr	r3, r3, r1, lsr #26
 1128 00ae 5146     		mov	r1, r10
 1129 00b0 8A01     		lsls	r2, r1, #6
 1130 00b2 5146     		mov	r1, r10
 1131 00b4 B2EB0108 		subs	r8, r2, r1
 1132 00b8 5946     		mov	r1, fp
 1133 00ba 63EB0109 		sbc	r9, r3, r1
 1134 00be 4FF00002 		mov	r2, #0
 1135 00c2 4FF00003 		mov	r3, #0
 1136 00c6 4FEAC903 		lsl	r3, r9, #3
 1137 00ca 43EA5873 		orr	r3, r3, r8, lsr #29
 1138 00ce 4FEAC802 		lsl	r2, r8, #3
 1139 00d2 9046     		mov	r8, r2
 1140 00d4 9946     		mov	r9, r3
 1141 00d6 2346     		mov	r3, r4
 1142 00d8 18EB0303 		adds	r3, r8, r3
 1143 00dc BB60     		str	r3, [r7, #8]
 1144 00de 2B46     		mov	r3, r5
 1145 00e0 49EB0303 		adc	r3, r9, r3
 1146 00e4 FB60     		str	r3, [r7, #12]
 1147 00e6 4FF00002 		mov	r2, #0
 1148 00ea 4FF00003 		mov	r3, #0
 1149 00ee D7E90245 		ldrd	r4, [r7, #8]
 1150 00f2 2946     		mov	r1, r5
 1151 00f4 4B02     		lsls	r3, r1, #9
 1152 00f6 2146     		mov	r1, r4
 1153 00f8 43EAD153 		orr	r3, r3, r1, lsr #23
ARM GAS  C:\Users\user\AppData\Local\Temp\cct89UYC.s 			page 21


 1154 00fc 2146     		mov	r1, r4
 1155 00fe 4A02     		lsls	r2, r1, #9
 1156 0100 1046     		mov	r0, r2
 1157 0102 1946     		mov	r1, r3
 1158 0104 7B6C     		ldr	r3, [r7, #68]
 1159 0106 0022     		movs	r2, #0
 1160 0108 BB62     		str	r3, [r7, #40]
 1161 010a FA62     		str	r2, [r7, #44]
 1162 010c D7E90A23 		ldrd	r2, [r7, #40]
 1163 0110 FFF7FEFF 		bl	__aeabi_uldivmod
 1164 0114 0246     		mov	r2, r0
 1165 0116 0B46     		mov	r3, r1
 1166 0118 1346     		mov	r3, r2
 1167 011a FB64     		str	r3, [r7, #76]
 1168 011c 58E0     		b	.L104
 1169              	.L103:
 1170 011e 384B     		ldr	r3, .L106
 1171 0120 5B68     		ldr	r3, [r3, #4]
 1172 0122 9B09     		lsrs	r3, r3, #6
 1173 0124 0022     		movs	r2, #0
 1174 0126 1846     		mov	r0, r3
 1175 0128 1146     		mov	r1, r2
 1176 012a C0F30803 		ubfx	r3, r0, #0, #9
 1177 012e 3B62     		str	r3, [r7, #32]
 1178 0130 0023     		movs	r3, #0
 1179 0132 7B62     		str	r3, [r7, #36]
 1180 0134 D7E90889 		ldrd	r8, [r7, #32]
 1181 0138 4246     		mov	r2, r8
 1182 013a 4B46     		mov	r3, r9
 1183 013c 4FF00000 		mov	r0, #0
 1184 0140 4FF00001 		mov	r1, #0
 1185 0144 5901     		lsls	r1, r3, #5
 1186 0146 41EAD261 		orr	r1, r1, r2, lsr #27
 1187 014a 5001     		lsls	r0, r2, #5
 1188 014c 0246     		mov	r2, r0
 1189 014e 0B46     		mov	r3, r1
 1190 0150 4146     		mov	r1, r8
 1191 0152 B2EB010A 		subs	r10, r2, r1
 1192 0156 4946     		mov	r1, r9
 1193 0158 63EB010B 		sbc	fp, r3, r1
 1194 015c 4FF00002 		mov	r2, #0
 1195 0160 4FF00003 		mov	r3, #0
 1196 0164 4FEA8B13 		lsl	r3, fp, #6
 1197 0168 43EA9A63 		orr	r3, r3, r10, lsr #26
 1198 016c 4FEA8A12 		lsl	r2, r10, #6
 1199 0170 B2EB0A04 		subs	r4, r2, r10
 1200 0174 63EB0B05 		sbc	r5, r3, fp
 1201 0178 4FF00002 		mov	r2, #0
 1202 017c 4FF00003 		mov	r3, #0
 1203 0180 EB00     		lsls	r3, r5, #3
 1204 0182 43EA5473 		orr	r3, r3, r4, lsr #29
 1205 0186 E200     		lsls	r2, r4, #3
 1206 0188 1446     		mov	r4, r2
 1207 018a 1D46     		mov	r5, r3
 1208 018c 4346     		mov	r3, r8
 1209 018e E318     		adds	r3, r4, r3
 1210 0190 3B60     		str	r3, [r7]
ARM GAS  C:\Users\user\AppData\Local\Temp\cct89UYC.s 			page 22


 1211 0192 4B46     		mov	r3, r9
 1212 0194 45EB0303 		adc	r3, r5, r3
 1213 0198 7B60     		str	r3, [r7, #4]
 1214 019a 4FF00002 		mov	r2, #0
 1215 019e 4FF00003 		mov	r3, #0
 1216 01a2 D7E90045 		ldrd	r4, [r7]
 1217 01a6 2946     		mov	r1, r5
 1218 01a8 8B02     		lsls	r3, r1, #10
 1219 01aa 2146     		mov	r1, r4
 1220 01ac 43EA9153 		orr	r3, r3, r1, lsr #22
 1221 01b0 2146     		mov	r1, r4
 1222 01b2 8A02     		lsls	r2, r1, #10
 1223 01b4 1046     		mov	r0, r2
 1224 01b6 1946     		mov	r1, r3
 1225 01b8 7B6C     		ldr	r3, [r7, #68]
 1226 01ba 0022     		movs	r2, #0
 1227 01bc BB61     		str	r3, [r7, #24]
 1228 01be FA61     		str	r2, [r7, #28]
 1229 01c0 D7E90623 		ldrd	r2, [r7, #24]
 1230 01c4 FFF7FEFF 		bl	__aeabi_uldivmod
 1231 01c8 0246     		mov	r2, r0
 1232 01ca 0B46     		mov	r3, r1
 1233 01cc 1346     		mov	r3, r2
 1234 01ce FB64     		str	r3, [r7, #76]
 1235              	.L104:
 1236 01d0 0B4B     		ldr	r3, .L106
 1237 01d2 5B68     		ldr	r3, [r3, #4]
 1238 01d4 1B0C     		lsrs	r3, r3, #16
 1239 01d6 03F00303 		and	r3, r3, #3
 1240 01da 0133     		adds	r3, r3, #1
 1241 01dc 5B00     		lsls	r3, r3, #1
 1242 01de 3B64     		str	r3, [r7, #64]
 1243 01e0 FA6C     		ldr	r2, [r7, #76]
 1244 01e2 3B6C     		ldr	r3, [r7, #64]
 1245 01e4 B2FBF3F3 		udiv	r3, r2, r3
 1246 01e8 BB64     		str	r3, [r7, #72]
 1247 01ea 02E0     		b	.L102
 1248              	.L99:
 1249 01ec 054B     		ldr	r3, .L106+4
 1250 01ee BB64     		str	r3, [r7, #72]
 1251 01f0 00BF     		nop
 1252              	.L102:
 1253 01f2 BB6C     		ldr	r3, [r7, #72]
 1254 01f4 1846     		mov	r0, r3
 1255 01f6 5037     		adds	r7, r7, #80
 1256 01f8 BD46     		mov	sp, r7
 1257              		@ sp needed
 1258 01fa BDE8B08F 		pop	{r4, r5, r7, r8, r9, r10, fp, pc}
 1259              	.L107:
 1260 01fe 00BF     		.align	2
 1261              	.L106:
 1262 0200 00380240 		.word	1073887232
 1263 0204 0024F400 		.word	16000000
 1264 0208 00127A00 		.word	8000000
 1266              		.section	.text.HAL_RCC_GetHCLKFreq,"ax",%progbits
 1267              		.align	1
 1268              		.global	HAL_RCC_GetHCLKFreq
ARM GAS  C:\Users\user\AppData\Local\Temp\cct89UYC.s 			page 23


 1269              		.syntax unified
 1270              		.thumb
 1271              		.thumb_func
 1273              	HAL_RCC_GetHCLKFreq:
 1274              		@ args = 0, pretend = 0, frame = 0
 1275              		@ frame_needed = 1, uses_anonymous_args = 0
 1276              		@ link register save eliminated.
 1277 0000 80B4     		push	{r7}
 1278 0002 00AF     		add	r7, sp, #0
 1279 0004 034B     		ldr	r3, .L110
 1280 0006 1B68     		ldr	r3, [r3]
 1281 0008 1846     		mov	r0, r3
 1282 000a BD46     		mov	sp, r7
 1283              		@ sp needed
 1284 000c 5DF8047B 		ldr	r7, [sp], #4
 1285 0010 7047     		bx	lr
 1286              	.L111:
 1287 0012 00BF     		.align	2
 1288              	.L110:
 1289 0014 00000000 		.word	SystemCoreClock
 1291              		.section	.text.HAL_RCC_GetPCLK1Freq,"ax",%progbits
 1292              		.align	1
 1293              		.global	HAL_RCC_GetPCLK1Freq
 1294              		.syntax unified
 1295              		.thumb
 1296              		.thumb_func
 1298              	HAL_RCC_GetPCLK1Freq:
 1299              		@ args = 0, pretend = 0, frame = 0
 1300              		@ frame_needed = 1, uses_anonymous_args = 0
 1301 0000 80B5     		push	{r7, lr}
 1302 0002 00AF     		add	r7, sp, #0
 1303 0004 FFF7FEFF 		bl	HAL_RCC_GetHCLKFreq
 1304 0008 0246     		mov	r2, r0
 1305 000a 054B     		ldr	r3, .L114
 1306 000c 9B68     		ldr	r3, [r3, #8]
 1307 000e 9B0A     		lsrs	r3, r3, #10
 1308 0010 03F00703 		and	r3, r3, #7
 1309 0014 0349     		ldr	r1, .L114+4
 1310 0016 CB5C     		ldrb	r3, [r1, r3]	@ zero_extendqisi2
 1311 0018 22FA03F3 		lsr	r3, r2, r3
 1312 001c 1846     		mov	r0, r3
 1313 001e 80BD     		pop	{r7, pc}
 1314              	.L115:
 1315              		.align	2
 1316              	.L114:
 1317 0020 00380240 		.word	1073887232
 1318 0024 00000000 		.word	APBPrescTable
 1320              		.section	.text.HAL_RCC_GetPCLK2Freq,"ax",%progbits
 1321              		.align	1
 1322              		.global	HAL_RCC_GetPCLK2Freq
 1323              		.syntax unified
 1324              		.thumb
 1325              		.thumb_func
 1327              	HAL_RCC_GetPCLK2Freq:
 1328              		@ args = 0, pretend = 0, frame = 0
 1329              		@ frame_needed = 1, uses_anonymous_args = 0
 1330 0000 80B5     		push	{r7, lr}
ARM GAS  C:\Users\user\AppData\Local\Temp\cct89UYC.s 			page 24


 1331 0002 00AF     		add	r7, sp, #0
 1332 0004 FFF7FEFF 		bl	HAL_RCC_GetHCLKFreq
 1333 0008 0246     		mov	r2, r0
 1334 000a 054B     		ldr	r3, .L118
 1335 000c 9B68     		ldr	r3, [r3, #8]
 1336 000e 5B0B     		lsrs	r3, r3, #13
 1337 0010 03F00703 		and	r3, r3, #7
 1338 0014 0349     		ldr	r1, .L118+4
 1339 0016 CB5C     		ldrb	r3, [r1, r3]	@ zero_extendqisi2
 1340 0018 22FA03F3 		lsr	r3, r2, r3
 1341 001c 1846     		mov	r0, r3
 1342 001e 80BD     		pop	{r7, pc}
 1343              	.L119:
 1344              		.align	2
 1345              	.L118:
 1346 0020 00380240 		.word	1073887232
 1347 0024 00000000 		.word	APBPrescTable
 1349              		.section	.text.HAL_RCC_GetOscConfig,"ax",%progbits
 1350              		.align	1
 1351              		.weak	HAL_RCC_GetOscConfig
 1352              		.syntax unified
 1353              		.thumb
 1354              		.thumb_func
 1356              	HAL_RCC_GetOscConfig:
 1357              		@ args = 0, pretend = 0, frame = 8
 1358              		@ frame_needed = 1, uses_anonymous_args = 0
 1359              		@ link register save eliminated.
 1360 0000 80B4     		push	{r7}
 1361 0002 83B0     		sub	sp, sp, #12
 1362 0004 00AF     		add	r7, sp, #0
 1363 0006 7860     		str	r0, [r7, #4]
 1364 0008 7B68     		ldr	r3, [r7, #4]
 1365 000a 0F22     		movs	r2, #15
 1366 000c 1A60     		str	r2, [r3]
 1367 000e 454B     		ldr	r3, .L133
 1368 0010 1B68     		ldr	r3, [r3]
 1369 0012 03F48023 		and	r3, r3, #262144
 1370 0016 B3F5802F 		cmp	r3, #262144
 1371 001a 04D1     		bne	.L121
 1372 001c 7B68     		ldr	r3, [r7, #4]
 1373 001e 4FF4A022 		mov	r2, #327680
 1374 0022 5A60     		str	r2, [r3, #4]
 1375 0024 0EE0     		b	.L122
 1376              	.L121:
 1377 0026 3F4B     		ldr	r3, .L133
 1378 0028 1B68     		ldr	r3, [r3]
 1379 002a 03F48033 		and	r3, r3, #65536
 1380 002e B3F5803F 		cmp	r3, #65536
 1381 0032 04D1     		bne	.L123
 1382 0034 7B68     		ldr	r3, [r7, #4]
 1383 0036 4FF48032 		mov	r2, #65536
 1384 003a 5A60     		str	r2, [r3, #4]
 1385 003c 02E0     		b	.L122
 1386              	.L123:
 1387 003e 7B68     		ldr	r3, [r7, #4]
 1388 0040 0022     		movs	r2, #0
 1389 0042 5A60     		str	r2, [r3, #4]
ARM GAS  C:\Users\user\AppData\Local\Temp\cct89UYC.s 			page 25


 1390              	.L122:
 1391 0044 374B     		ldr	r3, .L133
 1392 0046 1B68     		ldr	r3, [r3]
 1393 0048 03F00103 		and	r3, r3, #1
 1394 004c 012B     		cmp	r3, #1
 1395 004e 03D1     		bne	.L124
 1396 0050 7B68     		ldr	r3, [r7, #4]
 1397 0052 0122     		movs	r2, #1
 1398 0054 DA60     		str	r2, [r3, #12]
 1399 0056 02E0     		b	.L125
 1400              	.L124:
 1401 0058 7B68     		ldr	r3, [r7, #4]
 1402 005a 0022     		movs	r2, #0
 1403 005c DA60     		str	r2, [r3, #12]
 1404              	.L125:
 1405 005e 314B     		ldr	r3, .L133
 1406 0060 1B68     		ldr	r3, [r3]
 1407 0062 DB08     		lsrs	r3, r3, #3
 1408 0064 03F01F02 		and	r2, r3, #31
 1409 0068 7B68     		ldr	r3, [r7, #4]
 1410 006a 1A61     		str	r2, [r3, #16]
 1411 006c 2D4B     		ldr	r3, .L133
 1412 006e 1B6F     		ldr	r3, [r3, #112]
 1413 0070 03F00403 		and	r3, r3, #4
 1414 0074 042B     		cmp	r3, #4
 1415 0076 03D1     		bne	.L126
 1416 0078 7B68     		ldr	r3, [r7, #4]
 1417 007a 0522     		movs	r2, #5
 1418 007c 9A60     		str	r2, [r3, #8]
 1419 007e 0CE0     		b	.L127
 1420              	.L126:
 1421 0080 284B     		ldr	r3, .L133
 1422 0082 1B6F     		ldr	r3, [r3, #112]
 1423 0084 03F00103 		and	r3, r3, #1
 1424 0088 012B     		cmp	r3, #1
 1425 008a 03D1     		bne	.L128
 1426 008c 7B68     		ldr	r3, [r7, #4]
 1427 008e 0122     		movs	r2, #1
 1428 0090 9A60     		str	r2, [r3, #8]
 1429 0092 02E0     		b	.L127
 1430              	.L128:
 1431 0094 7B68     		ldr	r3, [r7, #4]
 1432 0096 0022     		movs	r2, #0
 1433 0098 9A60     		str	r2, [r3, #8]
 1434              	.L127:
 1435 009a 224B     		ldr	r3, .L133
 1436 009c 5B6F     		ldr	r3, [r3, #116]
 1437 009e 03F00103 		and	r3, r3, #1
 1438 00a2 012B     		cmp	r3, #1
 1439 00a4 03D1     		bne	.L129
 1440 00a6 7B68     		ldr	r3, [r7, #4]
 1441 00a8 0122     		movs	r2, #1
 1442 00aa 5A61     		str	r2, [r3, #20]
 1443 00ac 02E0     		b	.L130
 1444              	.L129:
 1445 00ae 7B68     		ldr	r3, [r7, #4]
 1446 00b0 0022     		movs	r2, #0
ARM GAS  C:\Users\user\AppData\Local\Temp\cct89UYC.s 			page 26


 1447 00b2 5A61     		str	r2, [r3, #20]
 1448              	.L130:
 1449 00b4 1B4B     		ldr	r3, .L133
 1450 00b6 1B68     		ldr	r3, [r3]
 1451 00b8 03F08073 		and	r3, r3, #16777216
 1452 00bc B3F1807F 		cmp	r3, #16777216
 1453 00c0 03D1     		bne	.L131
 1454 00c2 7B68     		ldr	r3, [r7, #4]
 1455 00c4 0222     		movs	r2, #2
 1456 00c6 9A61     		str	r2, [r3, #24]
 1457 00c8 02E0     		b	.L132
 1458              	.L131:
 1459 00ca 7B68     		ldr	r3, [r7, #4]
 1460 00cc 0122     		movs	r2, #1
 1461 00ce 9A61     		str	r2, [r3, #24]
 1462              	.L132:
 1463 00d0 144B     		ldr	r3, .L133
 1464 00d2 5B68     		ldr	r3, [r3, #4]
 1465 00d4 03F48002 		and	r2, r3, #4194304
 1466 00d8 7B68     		ldr	r3, [r7, #4]
 1467 00da DA61     		str	r2, [r3, #28]
 1468 00dc 114B     		ldr	r3, .L133
 1469 00de 5B68     		ldr	r3, [r3, #4]
 1470 00e0 03F03F02 		and	r2, r3, #63
 1471 00e4 7B68     		ldr	r3, [r7, #4]
 1472 00e6 1A62     		str	r2, [r3, #32]
 1473 00e8 0E4B     		ldr	r3, .L133
 1474 00ea 5B68     		ldr	r3, [r3, #4]
 1475 00ec 9B09     		lsrs	r3, r3, #6
 1476 00ee C3F30802 		ubfx	r2, r3, #0, #9
 1477 00f2 7B68     		ldr	r3, [r7, #4]
 1478 00f4 5A62     		str	r2, [r3, #36]
 1479 00f6 0B4B     		ldr	r3, .L133
 1480 00f8 5B68     		ldr	r3, [r3, #4]
 1481 00fa 03F44033 		and	r3, r3, #196608
 1482 00fe 03F58033 		add	r3, r3, #65536
 1483 0102 5B00     		lsls	r3, r3, #1
 1484 0104 1A0C     		lsrs	r2, r3, #16
 1485 0106 7B68     		ldr	r3, [r7, #4]
 1486 0108 9A62     		str	r2, [r3, #40]
 1487 010a 064B     		ldr	r3, .L133
 1488 010c 5B68     		ldr	r3, [r3, #4]
 1489 010e 1B0E     		lsrs	r3, r3, #24
 1490 0110 03F00F02 		and	r2, r3, #15
 1491 0114 7B68     		ldr	r3, [r7, #4]
 1492 0116 DA62     		str	r2, [r3, #44]
 1493 0118 00BF     		nop
 1494 011a 0C37     		adds	r7, r7, #12
 1495 011c BD46     		mov	sp, r7
 1496              		@ sp needed
 1497 011e 5DF8047B 		ldr	r7, [sp], #4
 1498 0122 7047     		bx	lr
 1499              	.L134:
 1500              		.align	2
 1501              	.L133:
 1502 0124 00380240 		.word	1073887232
 1504              		.section	.text.HAL_RCC_GetClockConfig,"ax",%progbits
ARM GAS  C:\Users\user\AppData\Local\Temp\cct89UYC.s 			page 27


 1505              		.align	1
 1506              		.global	HAL_RCC_GetClockConfig
 1507              		.syntax unified
 1508              		.thumb
 1509              		.thumb_func
 1511              	HAL_RCC_GetClockConfig:
 1512              		@ args = 0, pretend = 0, frame = 8
 1513              		@ frame_needed = 1, uses_anonymous_args = 0
 1514              		@ link register save eliminated.
 1515 0000 80B4     		push	{r7}
 1516 0002 83B0     		sub	sp, sp, #12
 1517 0004 00AF     		add	r7, sp, #0
 1518 0006 7860     		str	r0, [r7, #4]
 1519 0008 3960     		str	r1, [r7]
 1520 000a 7B68     		ldr	r3, [r7, #4]
 1521 000c 0F22     		movs	r2, #15
 1522 000e 1A60     		str	r2, [r3]
 1523 0010 124B     		ldr	r3, .L136
 1524 0012 9B68     		ldr	r3, [r3, #8]
 1525 0014 03F00302 		and	r2, r3, #3
 1526 0018 7B68     		ldr	r3, [r7, #4]
 1527 001a 5A60     		str	r2, [r3, #4]
 1528 001c 0F4B     		ldr	r3, .L136
 1529 001e 9B68     		ldr	r3, [r3, #8]
 1530 0020 03F0F002 		and	r2, r3, #240
 1531 0024 7B68     		ldr	r3, [r7, #4]
 1532 0026 9A60     		str	r2, [r3, #8]
 1533 0028 0C4B     		ldr	r3, .L136
 1534 002a 9B68     		ldr	r3, [r3, #8]
 1535 002c 03F4E052 		and	r2, r3, #7168
 1536 0030 7B68     		ldr	r3, [r7, #4]
 1537 0032 DA60     		str	r2, [r3, #12]
 1538 0034 094B     		ldr	r3, .L136
 1539 0036 9B68     		ldr	r3, [r3, #8]
 1540 0038 DB08     		lsrs	r3, r3, #3
 1541 003a 03F4E052 		and	r2, r3, #7168
 1542 003e 7B68     		ldr	r3, [r7, #4]
 1543 0040 1A61     		str	r2, [r3, #16]
 1544 0042 074B     		ldr	r3, .L136+4
 1545 0044 1B68     		ldr	r3, [r3]
 1546 0046 03F00702 		and	r2, r3, #7
 1547 004a 3B68     		ldr	r3, [r7]
 1548 004c 1A60     		str	r2, [r3]
 1549 004e 00BF     		nop
 1550 0050 0C37     		adds	r7, r7, #12
 1551 0052 BD46     		mov	sp, r7
 1552              		@ sp needed
 1553 0054 5DF8047B 		ldr	r7, [sp], #4
 1554 0058 7047     		bx	lr
 1555              	.L137:
 1556 005a 00BF     		.align	2
 1557              	.L136:
 1558 005c 00380240 		.word	1073887232
 1559 0060 003C0240 		.word	1073888256
 1561              		.section	.text.HAL_RCC_NMI_IRQHandler,"ax",%progbits
 1562              		.align	1
 1563              		.global	HAL_RCC_NMI_IRQHandler
ARM GAS  C:\Users\user\AppData\Local\Temp\cct89UYC.s 			page 28


 1564              		.syntax unified
 1565              		.thumb
 1566              		.thumb_func
 1568              	HAL_RCC_NMI_IRQHandler:
 1569              		@ args = 0, pretend = 0, frame = 0
 1570              		@ frame_needed = 1, uses_anonymous_args = 0
 1571 0000 80B5     		push	{r7, lr}
 1572 0002 00AF     		add	r7, sp, #0
 1573 0004 064B     		ldr	r3, .L141
 1574 0006 DB68     		ldr	r3, [r3, #12]
 1575 0008 03F08003 		and	r3, r3, #128
 1576 000c 802B     		cmp	r3, #128
 1577 000e 04D1     		bne	.L140
 1578 0010 FFF7FEFF 		bl	HAL_RCC_CSSCallback
 1579 0014 034B     		ldr	r3, .L141+4
 1580 0016 8022     		movs	r2, #128
 1581 0018 1A70     		strb	r2, [r3]
 1582              	.L140:
 1583 001a 00BF     		nop
 1584 001c 80BD     		pop	{r7, pc}
 1585              	.L142:
 1586 001e 00BF     		.align	2
 1587              	.L141:
 1588 0020 00380240 		.word	1073887232
 1589 0024 0E380240 		.word	1073887246
 1591              		.section	.text.HAL_RCC_CSSCallback,"ax",%progbits
 1592              		.align	1
 1593              		.weak	HAL_RCC_CSSCallback
 1594              		.syntax unified
 1595              		.thumb
 1596              		.thumb_func
 1598              	HAL_RCC_CSSCallback:
 1599              		@ args = 0, pretend = 0, frame = 0
 1600              		@ frame_needed = 1, uses_anonymous_args = 0
 1601              		@ link register save eliminated.
 1602 0000 80B4     		push	{r7}
 1603 0002 00AF     		add	r7, sp, #0
 1604 0004 00BF     		nop
 1605 0006 BD46     		mov	sp, r7
 1606              		@ sp needed
 1607 0008 5DF8047B 		ldr	r7, [sp], #4
 1608 000c 7047     		bx	lr
 1610              		.ident	"GCC: (GNU Tools for STM32 12.3.rel1.20240306-1730) 12.3.1 20230626"
ARM GAS  C:\Users\user\AppData\Local\Temp\cct89UYC.s 			page 29

