ARM GAS  C:\Users\user\AppData\Local\Temp\ccrDHgJ5.s 			page 1


   1              		.cpu cortex-m4
   2              		.arch armv7e-m
   3              		.fpu fpv4-sp-d16
   4              		.eabi_attribute 27, 1
   5              		.eabi_attribute 28, 1
   6              		.eabi_attribute 20, 1
   7              		.eabi_attribute 21, 1
   8              		.eabi_attribute 23, 3
   9              		.eabi_attribute 24, 1
  10              		.eabi_attribute 25, 1
  11              		.eabi_attribute 26, 1
  12              		.eabi_attribute 30, 6
  13              		.eabi_attribute 34, 1
  14              		.eabi_attribute 18, 4
  15              		.file	"stm32f4xx_hal_tim.c"
  16              		.text
  17              		.section	.text.HAL_TIM_Base_Init,"ax",%progbits
  18              		.align	1
  19              		.global	HAL_TIM_Base_Init
  20              		.syntax unified
  21              		.thumb
  22              		.thumb_func
  24              	HAL_TIM_Base_Init:
  25              		@ args = 0, pretend = 0, frame = 8
  26              		@ frame_needed = 1, uses_anonymous_args = 0
  27 0000 80B5     		push	{r7, lr}
  28 0002 82B0     		sub	sp, sp, #8
  29 0004 00AF     		add	r7, sp, #0
  30 0006 7860     		str	r0, [r7, #4]
  31 0008 7B68     		ldr	r3, [r7, #4]
  32 000a 002B     		cmp	r3, #0
  33 000c 01D1     		bne	.L2
  34 000e 0123     		movs	r3, #1
  35 0010 41E0     		b	.L3
  36              	.L2:
  37 0012 7B68     		ldr	r3, [r7, #4]
  38 0014 93F83D30 		ldrb	r3, [r3, #61]
  39 0018 DBB2     		uxtb	r3, r3
  40 001a 002B     		cmp	r3, #0
  41 001c 06D1     		bne	.L4
  42 001e 7B68     		ldr	r3, [r7, #4]
  43 0020 0022     		movs	r2, #0
  44 0022 83F83C20 		strb	r2, [r3, #60]
  45 0026 7868     		ldr	r0, [r7, #4]
  46 0028 FFF7FEFF 		bl	HAL_TIM_Base_MspInit
  47              	.L4:
  48 002c 7B68     		ldr	r3, [r7, #4]
  49 002e 0222     		movs	r2, #2
  50 0030 83F83D20 		strb	r2, [r3, #61]
  51 0034 7B68     		ldr	r3, [r7, #4]
  52 0036 1A68     		ldr	r2, [r3]
  53 0038 7B68     		ldr	r3, [r7, #4]
  54 003a 0433     		adds	r3, r3, #4
  55 003c 1946     		mov	r1, r3
  56 003e 1046     		mov	r0, r2
  57 0040 FFF7FEFF 		bl	TIM_Base_SetConfig
  58 0044 7B68     		ldr	r3, [r7, #4]
ARM GAS  C:\Users\user\AppData\Local\Temp\ccrDHgJ5.s 			page 2


  59 0046 0122     		movs	r2, #1
  60 0048 83F84620 		strb	r2, [r3, #70]
  61 004c 7B68     		ldr	r3, [r7, #4]
  62 004e 0122     		movs	r2, #1
  63 0050 83F83E20 		strb	r2, [r3, #62]
  64 0054 7B68     		ldr	r3, [r7, #4]
  65 0056 0122     		movs	r2, #1
  66 0058 83F83F20 		strb	r2, [r3, #63]
  67 005c 7B68     		ldr	r3, [r7, #4]
  68 005e 0122     		movs	r2, #1
  69 0060 83F84020 		strb	r2, [r3, #64]
  70 0064 7B68     		ldr	r3, [r7, #4]
  71 0066 0122     		movs	r2, #1
  72 0068 83F84120 		strb	r2, [r3, #65]
  73 006c 7B68     		ldr	r3, [r7, #4]
  74 006e 0122     		movs	r2, #1
  75 0070 83F84220 		strb	r2, [r3, #66]
  76 0074 7B68     		ldr	r3, [r7, #4]
  77 0076 0122     		movs	r2, #1
  78 0078 83F84320 		strb	r2, [r3, #67]
  79 007c 7B68     		ldr	r3, [r7, #4]
  80 007e 0122     		movs	r2, #1
  81 0080 83F84420 		strb	r2, [r3, #68]
  82 0084 7B68     		ldr	r3, [r7, #4]
  83 0086 0122     		movs	r2, #1
  84 0088 83F84520 		strb	r2, [r3, #69]
  85 008c 7B68     		ldr	r3, [r7, #4]
  86 008e 0122     		movs	r2, #1
  87 0090 83F83D20 		strb	r2, [r3, #61]
  88 0094 0023     		movs	r3, #0
  89              	.L3:
  90 0096 1846     		mov	r0, r3
  91 0098 0837     		adds	r7, r7, #8
  92 009a BD46     		mov	sp, r7
  93              		@ sp needed
  94 009c 80BD     		pop	{r7, pc}
  96              		.section	.text.HAL_TIM_Base_DeInit,"ax",%progbits
  97              		.align	1
  98              		.global	HAL_TIM_Base_DeInit
  99              		.syntax unified
 100              		.thumb
 101              		.thumb_func
 103              	HAL_TIM_Base_DeInit:
 104              		@ args = 0, pretend = 0, frame = 8
 105              		@ frame_needed = 1, uses_anonymous_args = 0
 106 0000 80B5     		push	{r7, lr}
 107 0002 82B0     		sub	sp, sp, #8
 108 0004 00AF     		add	r7, sp, #0
 109 0006 7860     		str	r0, [r7, #4]
 110 0008 7B68     		ldr	r3, [r7, #4]
 111 000a 0222     		movs	r2, #2
 112 000c 83F83D20 		strb	r2, [r3, #61]
 113 0010 7B68     		ldr	r3, [r7, #4]
 114 0012 1B68     		ldr	r3, [r3]
 115 0014 1A6A     		ldr	r2, [r3, #32]
 116 0016 41F21113 		movw	r3, #4369
 117 001a 1340     		ands	r3, r3, r2
ARM GAS  C:\Users\user\AppData\Local\Temp\ccrDHgJ5.s 			page 3


 118 001c 002B     		cmp	r3, #0
 119 001e 0FD1     		bne	.L6
 120 0020 7B68     		ldr	r3, [r7, #4]
 121 0022 1B68     		ldr	r3, [r3]
 122 0024 1A6A     		ldr	r2, [r3, #32]
 123 0026 40F24443 		movw	r3, #1092
 124 002a 1340     		ands	r3, r3, r2
 125 002c 002B     		cmp	r3, #0
 126 002e 07D1     		bne	.L6
 127 0030 7B68     		ldr	r3, [r7, #4]
 128 0032 1B68     		ldr	r3, [r3]
 129 0034 1A68     		ldr	r2, [r3]
 130 0036 7B68     		ldr	r3, [r7, #4]
 131 0038 1B68     		ldr	r3, [r3]
 132 003a 22F00102 		bic	r2, r2, #1
 133 003e 1A60     		str	r2, [r3]
 134              	.L6:
 135 0040 7868     		ldr	r0, [r7, #4]
 136 0042 FFF7FEFF 		bl	HAL_TIM_Base_MspDeInit
 137 0046 7B68     		ldr	r3, [r7, #4]
 138 0048 0022     		movs	r2, #0
 139 004a 83F84620 		strb	r2, [r3, #70]
 140 004e 7B68     		ldr	r3, [r7, #4]
 141 0050 0022     		movs	r2, #0
 142 0052 83F83E20 		strb	r2, [r3, #62]
 143 0056 7B68     		ldr	r3, [r7, #4]
 144 0058 0022     		movs	r2, #0
 145 005a 83F83F20 		strb	r2, [r3, #63]
 146 005e 7B68     		ldr	r3, [r7, #4]
 147 0060 0022     		movs	r2, #0
 148 0062 83F84020 		strb	r2, [r3, #64]
 149 0066 7B68     		ldr	r3, [r7, #4]
 150 0068 0022     		movs	r2, #0
 151 006a 83F84120 		strb	r2, [r3, #65]
 152 006e 7B68     		ldr	r3, [r7, #4]
 153 0070 0022     		movs	r2, #0
 154 0072 83F84220 		strb	r2, [r3, #66]
 155 0076 7B68     		ldr	r3, [r7, #4]
 156 0078 0022     		movs	r2, #0
 157 007a 83F84320 		strb	r2, [r3, #67]
 158 007e 7B68     		ldr	r3, [r7, #4]
 159 0080 0022     		movs	r2, #0
 160 0082 83F84420 		strb	r2, [r3, #68]
 161 0086 7B68     		ldr	r3, [r7, #4]
 162 0088 0022     		movs	r2, #0
 163 008a 83F84520 		strb	r2, [r3, #69]
 164 008e 7B68     		ldr	r3, [r7, #4]
 165 0090 0022     		movs	r2, #0
 166 0092 83F83D20 		strb	r2, [r3, #61]
 167 0096 7B68     		ldr	r3, [r7, #4]
 168 0098 0022     		movs	r2, #0
 169 009a 83F83C20 		strb	r2, [r3, #60]
 170 009e 0023     		movs	r3, #0
 171 00a0 1846     		mov	r0, r3
 172 00a2 0837     		adds	r7, r7, #8
 173 00a4 BD46     		mov	sp, r7
 174              		@ sp needed
ARM GAS  C:\Users\user\AppData\Local\Temp\ccrDHgJ5.s 			page 4


 175 00a6 80BD     		pop	{r7, pc}
 177              		.section	.text.HAL_TIM_Base_MspInit,"ax",%progbits
 178              		.align	1
 179              		.weak	HAL_TIM_Base_MspInit
 180              		.syntax unified
 181              		.thumb
 182              		.thumb_func
 184              	HAL_TIM_Base_MspInit:
 185              		@ args = 0, pretend = 0, frame = 8
 186              		@ frame_needed = 1, uses_anonymous_args = 0
 187              		@ link register save eliminated.
 188 0000 80B4     		push	{r7}
 189 0002 83B0     		sub	sp, sp, #12
 190 0004 00AF     		add	r7, sp, #0
 191 0006 7860     		str	r0, [r7, #4]
 192 0008 00BF     		nop
 193 000a 0C37     		adds	r7, r7, #12
 194 000c BD46     		mov	sp, r7
 195              		@ sp needed
 196 000e 5DF8047B 		ldr	r7, [sp], #4
 197 0012 7047     		bx	lr
 199              		.section	.text.HAL_TIM_Base_MspDeInit,"ax",%progbits
 200              		.align	1
 201              		.weak	HAL_TIM_Base_MspDeInit
 202              		.syntax unified
 203              		.thumb
 204              		.thumb_func
 206              	HAL_TIM_Base_MspDeInit:
 207              		@ args = 0, pretend = 0, frame = 8
 208              		@ frame_needed = 1, uses_anonymous_args = 0
 209              		@ link register save eliminated.
 210 0000 80B4     		push	{r7}
 211 0002 83B0     		sub	sp, sp, #12
 212 0004 00AF     		add	r7, sp, #0
 213 0006 7860     		str	r0, [r7, #4]
 214 0008 00BF     		nop
 215 000a 0C37     		adds	r7, r7, #12
 216 000c BD46     		mov	sp, r7
 217              		@ sp needed
 218 000e 5DF8047B 		ldr	r7, [sp], #4
 219 0012 7047     		bx	lr
 221              		.section	.text.HAL_TIM_Base_Start,"ax",%progbits
 222              		.align	1
 223              		.global	HAL_TIM_Base_Start
 224              		.syntax unified
 225              		.thumb
 226              		.thumb_func
 228              	HAL_TIM_Base_Start:
 229              		@ args = 0, pretend = 0, frame = 16
 230              		@ frame_needed = 1, uses_anonymous_args = 0
 231              		@ link register save eliminated.
 232 0000 80B4     		push	{r7}
 233 0002 85B0     		sub	sp, sp, #20
 234 0004 00AF     		add	r7, sp, #0
 235 0006 7860     		str	r0, [r7, #4]
 236 0008 7B68     		ldr	r3, [r7, #4]
 237 000a 93F83D30 		ldrb	r3, [r3, #61]
ARM GAS  C:\Users\user\AppData\Local\Temp\ccrDHgJ5.s 			page 5


 238 000e DBB2     		uxtb	r3, r3
 239 0010 012B     		cmp	r3, #1
 240 0012 01D0     		beq	.L11
 241 0014 0123     		movs	r3, #1
 242 0016 46E0     		b	.L12
 243              	.L11:
 244 0018 7B68     		ldr	r3, [r7, #4]
 245 001a 0222     		movs	r2, #2
 246 001c 83F83D20 		strb	r2, [r3, #61]
 247 0020 7B68     		ldr	r3, [r7, #4]
 248 0022 1B68     		ldr	r3, [r3]
 249 0024 234A     		ldr	r2, .L17
 250 0026 9342     		cmp	r3, r2
 251 0028 22D0     		beq	.L13
 252 002a 7B68     		ldr	r3, [r7, #4]
 253 002c 1B68     		ldr	r3, [r3]
 254 002e B3F1804F 		cmp	r3, #1073741824
 255 0032 1DD0     		beq	.L13
 256 0034 7B68     		ldr	r3, [r7, #4]
 257 0036 1B68     		ldr	r3, [r3]
 258 0038 1F4A     		ldr	r2, .L17+4
 259 003a 9342     		cmp	r3, r2
 260 003c 18D0     		beq	.L13
 261 003e 7B68     		ldr	r3, [r7, #4]
 262 0040 1B68     		ldr	r3, [r3]
 263 0042 1E4A     		ldr	r2, .L17+8
 264 0044 9342     		cmp	r3, r2
 265 0046 13D0     		beq	.L13
 266 0048 7B68     		ldr	r3, [r7, #4]
 267 004a 1B68     		ldr	r3, [r3]
 268 004c 1C4A     		ldr	r2, .L17+12
 269 004e 9342     		cmp	r3, r2
 270 0050 0ED0     		beq	.L13
 271 0052 7B68     		ldr	r3, [r7, #4]
 272 0054 1B68     		ldr	r3, [r3]
 273 0056 1B4A     		ldr	r2, .L17+16
 274 0058 9342     		cmp	r3, r2
 275 005a 09D0     		beq	.L13
 276 005c 7B68     		ldr	r3, [r7, #4]
 277 005e 1B68     		ldr	r3, [r3]
 278 0060 194A     		ldr	r2, .L17+20
 279 0062 9342     		cmp	r3, r2
 280 0064 04D0     		beq	.L13
 281 0066 7B68     		ldr	r3, [r7, #4]
 282 0068 1B68     		ldr	r3, [r3]
 283 006a 184A     		ldr	r2, .L17+24
 284 006c 9342     		cmp	r3, r2
 285 006e 11D1     		bne	.L14
 286              	.L13:
 287 0070 7B68     		ldr	r3, [r7, #4]
 288 0072 1B68     		ldr	r3, [r3]
 289 0074 9B68     		ldr	r3, [r3, #8]
 290 0076 03F00703 		and	r3, r3, #7
 291 007a FB60     		str	r3, [r7, #12]
 292 007c FB68     		ldr	r3, [r7, #12]
 293 007e 062B     		cmp	r3, #6
 294 0080 10D0     		beq	.L16
ARM GAS  C:\Users\user\AppData\Local\Temp\ccrDHgJ5.s 			page 6


 295 0082 7B68     		ldr	r3, [r7, #4]
 296 0084 1B68     		ldr	r3, [r3]
 297 0086 1A68     		ldr	r2, [r3]
 298 0088 7B68     		ldr	r3, [r7, #4]
 299 008a 1B68     		ldr	r3, [r3]
 300 008c 42F00102 		orr	r2, r2, #1
 301 0090 1A60     		str	r2, [r3]
 302 0092 07E0     		b	.L16
 303              	.L14:
 304 0094 7B68     		ldr	r3, [r7, #4]
 305 0096 1B68     		ldr	r3, [r3]
 306 0098 1A68     		ldr	r2, [r3]
 307 009a 7B68     		ldr	r3, [r7, #4]
 308 009c 1B68     		ldr	r3, [r3]
 309 009e 42F00102 		orr	r2, r2, #1
 310 00a2 1A60     		str	r2, [r3]
 311              	.L16:
 312 00a4 0023     		movs	r3, #0
 313              	.L12:
 314 00a6 1846     		mov	r0, r3
 315 00a8 1437     		adds	r7, r7, #20
 316 00aa BD46     		mov	sp, r7
 317              		@ sp needed
 318 00ac 5DF8047B 		ldr	r7, [sp], #4
 319 00b0 7047     		bx	lr
 320              	.L18:
 321 00b2 00BF     		.align	2
 322              	.L17:
 323 00b4 00000140 		.word	1073807360
 324 00b8 00040040 		.word	1073742848
 325 00bc 00080040 		.word	1073743872
 326 00c0 000C0040 		.word	1073744896
 327 00c4 00040140 		.word	1073808384
 328 00c8 00400140 		.word	1073823744
 329 00cc 00180040 		.word	1073747968
 331              		.section	.text.HAL_TIM_Base_Stop,"ax",%progbits
 332              		.align	1
 333              		.global	HAL_TIM_Base_Stop
 334              		.syntax unified
 335              		.thumb
 336              		.thumb_func
 338              	HAL_TIM_Base_Stop:
 339              		@ args = 0, pretend = 0, frame = 8
 340              		@ frame_needed = 1, uses_anonymous_args = 0
 341              		@ link register save eliminated.
 342 0000 80B4     		push	{r7}
 343 0002 83B0     		sub	sp, sp, #12
 344 0004 00AF     		add	r7, sp, #0
 345 0006 7860     		str	r0, [r7, #4]
 346 0008 7B68     		ldr	r3, [r7, #4]
 347 000a 1B68     		ldr	r3, [r3]
 348 000c 1A6A     		ldr	r2, [r3, #32]
 349 000e 41F21113 		movw	r3, #4369
 350 0012 1340     		ands	r3, r3, r2
 351 0014 002B     		cmp	r3, #0
 352 0016 0FD1     		bne	.L20
 353 0018 7B68     		ldr	r3, [r7, #4]
ARM GAS  C:\Users\user\AppData\Local\Temp\ccrDHgJ5.s 			page 7


 354 001a 1B68     		ldr	r3, [r3]
 355 001c 1A6A     		ldr	r2, [r3, #32]
 356 001e 40F24443 		movw	r3, #1092
 357 0022 1340     		ands	r3, r3, r2
 358 0024 002B     		cmp	r3, #0
 359 0026 07D1     		bne	.L20
 360 0028 7B68     		ldr	r3, [r7, #4]
 361 002a 1B68     		ldr	r3, [r3]
 362 002c 1A68     		ldr	r2, [r3]
 363 002e 7B68     		ldr	r3, [r7, #4]
 364 0030 1B68     		ldr	r3, [r3]
 365 0032 22F00102 		bic	r2, r2, #1
 366 0036 1A60     		str	r2, [r3]
 367              	.L20:
 368 0038 7B68     		ldr	r3, [r7, #4]
 369 003a 0122     		movs	r2, #1
 370 003c 83F83D20 		strb	r2, [r3, #61]
 371 0040 0023     		movs	r3, #0
 372 0042 1846     		mov	r0, r3
 373 0044 0C37     		adds	r7, r7, #12
 374 0046 BD46     		mov	sp, r7
 375              		@ sp needed
 376 0048 5DF8047B 		ldr	r7, [sp], #4
 377 004c 7047     		bx	lr
 379              		.section	.text.HAL_TIM_Base_Start_IT,"ax",%progbits
 380              		.align	1
 381              		.global	HAL_TIM_Base_Start_IT
 382              		.syntax unified
 383              		.thumb
 384              		.thumb_func
 386              	HAL_TIM_Base_Start_IT:
 387              		@ args = 0, pretend = 0, frame = 16
 388              		@ frame_needed = 1, uses_anonymous_args = 0
 389              		@ link register save eliminated.
 390 0000 80B4     		push	{r7}
 391 0002 85B0     		sub	sp, sp, #20
 392 0004 00AF     		add	r7, sp, #0
 393 0006 7860     		str	r0, [r7, #4]
 394 0008 7B68     		ldr	r3, [r7, #4]
 395 000a 93F83D30 		ldrb	r3, [r3, #61]
 396 000e DBB2     		uxtb	r3, r3
 397 0010 012B     		cmp	r3, #1
 398 0012 01D0     		beq	.L23
 399 0014 0123     		movs	r3, #1
 400 0016 4EE0     		b	.L24
 401              	.L23:
 402 0018 7B68     		ldr	r3, [r7, #4]
 403 001a 0222     		movs	r2, #2
 404 001c 83F83D20 		strb	r2, [r3, #61]
 405 0020 7B68     		ldr	r3, [r7, #4]
 406 0022 1B68     		ldr	r3, [r3]
 407 0024 DA68     		ldr	r2, [r3, #12]
 408 0026 7B68     		ldr	r3, [r7, #4]
 409 0028 1B68     		ldr	r3, [r3]
 410 002a 42F00102 		orr	r2, r2, #1
 411 002e DA60     		str	r2, [r3, #12]
 412 0030 7B68     		ldr	r3, [r7, #4]
ARM GAS  C:\Users\user\AppData\Local\Temp\ccrDHgJ5.s 			page 8


 413 0032 1B68     		ldr	r3, [r3]
 414 0034 234A     		ldr	r2, .L29
 415 0036 9342     		cmp	r3, r2
 416 0038 22D0     		beq	.L25
 417 003a 7B68     		ldr	r3, [r7, #4]
 418 003c 1B68     		ldr	r3, [r3]
 419 003e B3F1804F 		cmp	r3, #1073741824
 420 0042 1DD0     		beq	.L25
 421 0044 7B68     		ldr	r3, [r7, #4]
 422 0046 1B68     		ldr	r3, [r3]
 423 0048 1F4A     		ldr	r2, .L29+4
 424 004a 9342     		cmp	r3, r2
 425 004c 18D0     		beq	.L25
 426 004e 7B68     		ldr	r3, [r7, #4]
 427 0050 1B68     		ldr	r3, [r3]
 428 0052 1E4A     		ldr	r2, .L29+8
 429 0054 9342     		cmp	r3, r2
 430 0056 13D0     		beq	.L25
 431 0058 7B68     		ldr	r3, [r7, #4]
 432 005a 1B68     		ldr	r3, [r3]
 433 005c 1C4A     		ldr	r2, .L29+12
 434 005e 9342     		cmp	r3, r2
 435 0060 0ED0     		beq	.L25
 436 0062 7B68     		ldr	r3, [r7, #4]
 437 0064 1B68     		ldr	r3, [r3]
 438 0066 1B4A     		ldr	r2, .L29+16
 439 0068 9342     		cmp	r3, r2
 440 006a 09D0     		beq	.L25
 441 006c 7B68     		ldr	r3, [r7, #4]
 442 006e 1B68     		ldr	r3, [r3]
 443 0070 194A     		ldr	r2, .L29+20
 444 0072 9342     		cmp	r3, r2
 445 0074 04D0     		beq	.L25
 446 0076 7B68     		ldr	r3, [r7, #4]
 447 0078 1B68     		ldr	r3, [r3]
 448 007a 184A     		ldr	r2, .L29+24
 449 007c 9342     		cmp	r3, r2
 450 007e 11D1     		bne	.L26
 451              	.L25:
 452 0080 7B68     		ldr	r3, [r7, #4]
 453 0082 1B68     		ldr	r3, [r3]
 454 0084 9B68     		ldr	r3, [r3, #8]
 455 0086 03F00703 		and	r3, r3, #7
 456 008a FB60     		str	r3, [r7, #12]
 457 008c FB68     		ldr	r3, [r7, #12]
 458 008e 062B     		cmp	r3, #6
 459 0090 10D0     		beq	.L28
 460 0092 7B68     		ldr	r3, [r7, #4]
 461 0094 1B68     		ldr	r3, [r3]
 462 0096 1A68     		ldr	r2, [r3]
 463 0098 7B68     		ldr	r3, [r7, #4]
 464 009a 1B68     		ldr	r3, [r3]
 465 009c 42F00102 		orr	r2, r2, #1
 466 00a0 1A60     		str	r2, [r3]
 467 00a2 07E0     		b	.L28
 468              	.L26:
 469 00a4 7B68     		ldr	r3, [r7, #4]
ARM GAS  C:\Users\user\AppData\Local\Temp\ccrDHgJ5.s 			page 9


 470 00a6 1B68     		ldr	r3, [r3]
 471 00a8 1A68     		ldr	r2, [r3]
 472 00aa 7B68     		ldr	r3, [r7, #4]
 473 00ac 1B68     		ldr	r3, [r3]
 474 00ae 42F00102 		orr	r2, r2, #1
 475 00b2 1A60     		str	r2, [r3]
 476              	.L28:
 477 00b4 0023     		movs	r3, #0
 478              	.L24:
 479 00b6 1846     		mov	r0, r3
 480 00b8 1437     		adds	r7, r7, #20
 481 00ba BD46     		mov	sp, r7
 482              		@ sp needed
 483 00bc 5DF8047B 		ldr	r7, [sp], #4
 484 00c0 7047     		bx	lr
 485              	.L30:
 486 00c2 00BF     		.align	2
 487              	.L29:
 488 00c4 00000140 		.word	1073807360
 489 00c8 00040040 		.word	1073742848
 490 00cc 00080040 		.word	1073743872
 491 00d0 000C0040 		.word	1073744896
 492 00d4 00040140 		.word	1073808384
 493 00d8 00400140 		.word	1073823744
 494 00dc 00180040 		.word	1073747968
 496              		.section	.text.HAL_TIM_Base_Stop_IT,"ax",%progbits
 497              		.align	1
 498              		.global	HAL_TIM_Base_Stop_IT
 499              		.syntax unified
 500              		.thumb
 501              		.thumb_func
 503              	HAL_TIM_Base_Stop_IT:
 504              		@ args = 0, pretend = 0, frame = 8
 505              		@ frame_needed = 1, uses_anonymous_args = 0
 506              		@ link register save eliminated.
 507 0000 80B4     		push	{r7}
 508 0002 83B0     		sub	sp, sp, #12
 509 0004 00AF     		add	r7, sp, #0
 510 0006 7860     		str	r0, [r7, #4]
 511 0008 7B68     		ldr	r3, [r7, #4]
 512 000a 1B68     		ldr	r3, [r3]
 513 000c DA68     		ldr	r2, [r3, #12]
 514 000e 7B68     		ldr	r3, [r7, #4]
 515 0010 1B68     		ldr	r3, [r3]
 516 0012 22F00102 		bic	r2, r2, #1
 517 0016 DA60     		str	r2, [r3, #12]
 518 0018 7B68     		ldr	r3, [r7, #4]
 519 001a 1B68     		ldr	r3, [r3]
 520 001c 1A6A     		ldr	r2, [r3, #32]
 521 001e 41F21113 		movw	r3, #4369
 522 0022 1340     		ands	r3, r3, r2
 523 0024 002B     		cmp	r3, #0
 524 0026 0FD1     		bne	.L32
 525 0028 7B68     		ldr	r3, [r7, #4]
 526 002a 1B68     		ldr	r3, [r3]
 527 002c 1A6A     		ldr	r2, [r3, #32]
 528 002e 40F24443 		movw	r3, #1092
ARM GAS  C:\Users\user\AppData\Local\Temp\ccrDHgJ5.s 			page 10


 529 0032 1340     		ands	r3, r3, r2
 530 0034 002B     		cmp	r3, #0
 531 0036 07D1     		bne	.L32
 532 0038 7B68     		ldr	r3, [r7, #4]
 533 003a 1B68     		ldr	r3, [r3]
 534 003c 1A68     		ldr	r2, [r3]
 535 003e 7B68     		ldr	r3, [r7, #4]
 536 0040 1B68     		ldr	r3, [r3]
 537 0042 22F00102 		bic	r2, r2, #1
 538 0046 1A60     		str	r2, [r3]
 539              	.L32:
 540 0048 7B68     		ldr	r3, [r7, #4]
 541 004a 0122     		movs	r2, #1
 542 004c 83F83D20 		strb	r2, [r3, #61]
 543 0050 0023     		movs	r3, #0
 544 0052 1846     		mov	r0, r3
 545 0054 0C37     		adds	r7, r7, #12
 546 0056 BD46     		mov	sp, r7
 547              		@ sp needed
 548 0058 5DF8047B 		ldr	r7, [sp], #4
 549 005c 7047     		bx	lr
 551              		.section	.text.HAL_TIM_Base_Start_DMA,"ax",%progbits
 552              		.align	1
 553              		.global	HAL_TIM_Base_Start_DMA
 554              		.syntax unified
 555              		.thumb
 556              		.thumb_func
 558              	HAL_TIM_Base_Start_DMA:
 559              		@ args = 0, pretend = 0, frame = 24
 560              		@ frame_needed = 1, uses_anonymous_args = 0
 561 0000 80B5     		push	{r7, lr}
 562 0002 86B0     		sub	sp, sp, #24
 563 0004 00AF     		add	r7, sp, #0
 564 0006 F860     		str	r0, [r7, #12]
 565 0008 B960     		str	r1, [r7, #8]
 566 000a 1346     		mov	r3, r2
 567 000c FB80     		strh	r3, [r7, #6]	@ movhi
 568 000e FB68     		ldr	r3, [r7, #12]
 569 0010 93F83D30 		ldrb	r3, [r3, #61]
 570 0014 DBB2     		uxtb	r3, r3
 571 0016 022B     		cmp	r3, #2
 572 0018 01D1     		bne	.L35
 573 001a 0223     		movs	r3, #2
 574 001c 7AE0     		b	.L36
 575              	.L35:
 576 001e FB68     		ldr	r3, [r7, #12]
 577 0020 93F83D30 		ldrb	r3, [r3, #61]
 578 0024 DBB2     		uxtb	r3, r3
 579 0026 012B     		cmp	r3, #1
 580 0028 25D1     		bne	.L37
 581 002a BB68     		ldr	r3, [r7, #8]
 582 002c 002B     		cmp	r3, #0
 583 002e 04D1     		bne	.L38
 584 0030 FB88     		ldrh	r3, [r7, #6]
 585 0032 002B     		cmp	r3, #0
 586 0034 01D0     		beq	.L38
 587 0036 0123     		movs	r3, #1
ARM GAS  C:\Users\user\AppData\Local\Temp\ccrDHgJ5.s 			page 11


 588 0038 6CE0     		b	.L36
 589              	.L38:
 590 003a FB68     		ldr	r3, [r7, #12]
 591 003c 0222     		movs	r2, #2
 592 003e 83F83D20 		strb	r2, [r3, #61]
 593 0042 FB68     		ldr	r3, [r7, #12]
 594 0044 1B6A     		ldr	r3, [r3, #32]
 595 0046 354A     		ldr	r2, .L46
 596 0048 DA63     		str	r2, [r3, #60]
 597 004a FB68     		ldr	r3, [r7, #12]
 598 004c 1B6A     		ldr	r3, [r3, #32]
 599 004e 344A     		ldr	r2, .L46+4
 600 0050 1A64     		str	r2, [r3, #64]
 601 0052 FB68     		ldr	r3, [r7, #12]
 602 0054 1B6A     		ldr	r3, [r3, #32]
 603 0056 334A     		ldr	r2, .L46+8
 604 0058 DA64     		str	r2, [r3, #76]
 605 005a FB68     		ldr	r3, [r7, #12]
 606 005c 186A     		ldr	r0, [r3, #32]
 607 005e B968     		ldr	r1, [r7, #8]
 608 0060 FB68     		ldr	r3, [r7, #12]
 609 0062 1B68     		ldr	r3, [r3]
 610 0064 2C33     		adds	r3, r3, #44
 611 0066 1A46     		mov	r2, r3
 612 0068 FB88     		ldrh	r3, [r7, #6]
 613 006a FFF7FEFF 		bl	HAL_DMA_Start_IT
 614 006e 0346     		mov	r3, r0
 615 0070 002B     		cmp	r3, #0
 616 0072 04D0     		beq	.L40
 617 0074 01E0     		b	.L45
 618              	.L37:
 619 0076 0123     		movs	r3, #1
 620 0078 4CE0     		b	.L36
 621              	.L45:
 622 007a 0123     		movs	r3, #1
 623 007c 4AE0     		b	.L36
 624              	.L40:
 625 007e FB68     		ldr	r3, [r7, #12]
 626 0080 1B68     		ldr	r3, [r3]
 627 0082 DA68     		ldr	r2, [r3, #12]
 628 0084 FB68     		ldr	r3, [r7, #12]
 629 0086 1B68     		ldr	r3, [r3]
 630 0088 42F48072 		orr	r2, r2, #256
 631 008c DA60     		str	r2, [r3, #12]
 632 008e FB68     		ldr	r3, [r7, #12]
 633 0090 1B68     		ldr	r3, [r3]
 634 0092 254A     		ldr	r2, .L46+12
 635 0094 9342     		cmp	r3, r2
 636 0096 22D0     		beq	.L41
 637 0098 FB68     		ldr	r3, [r7, #12]
 638 009a 1B68     		ldr	r3, [r3]
 639 009c B3F1804F 		cmp	r3, #1073741824
 640 00a0 1DD0     		beq	.L41
 641 00a2 FB68     		ldr	r3, [r7, #12]
 642 00a4 1B68     		ldr	r3, [r3]
 643 00a6 214A     		ldr	r2, .L46+16
 644 00a8 9342     		cmp	r3, r2
ARM GAS  C:\Users\user\AppData\Local\Temp\ccrDHgJ5.s 			page 12


 645 00aa 18D0     		beq	.L41
 646 00ac FB68     		ldr	r3, [r7, #12]
 647 00ae 1B68     		ldr	r3, [r3]
 648 00b0 1F4A     		ldr	r2, .L46+20
 649 00b2 9342     		cmp	r3, r2
 650 00b4 13D0     		beq	.L41
 651 00b6 FB68     		ldr	r3, [r7, #12]
 652 00b8 1B68     		ldr	r3, [r3]
 653 00ba 1E4A     		ldr	r2, .L46+24
 654 00bc 9342     		cmp	r3, r2
 655 00be 0ED0     		beq	.L41
 656 00c0 FB68     		ldr	r3, [r7, #12]
 657 00c2 1B68     		ldr	r3, [r3]
 658 00c4 1C4A     		ldr	r2, .L46+28
 659 00c6 9342     		cmp	r3, r2
 660 00c8 09D0     		beq	.L41
 661 00ca FB68     		ldr	r3, [r7, #12]
 662 00cc 1B68     		ldr	r3, [r3]
 663 00ce 1B4A     		ldr	r2, .L46+32
 664 00d0 9342     		cmp	r3, r2
 665 00d2 04D0     		beq	.L41
 666 00d4 FB68     		ldr	r3, [r7, #12]
 667 00d6 1B68     		ldr	r3, [r3]
 668 00d8 194A     		ldr	r2, .L46+36
 669 00da 9342     		cmp	r3, r2
 670 00dc 11D1     		bne	.L42
 671              	.L41:
 672 00de FB68     		ldr	r3, [r7, #12]
 673 00e0 1B68     		ldr	r3, [r3]
 674 00e2 9B68     		ldr	r3, [r3, #8]
 675 00e4 03F00703 		and	r3, r3, #7
 676 00e8 7B61     		str	r3, [r7, #20]
 677 00ea 7B69     		ldr	r3, [r7, #20]
 678 00ec 062B     		cmp	r3, #6
 679 00ee 10D0     		beq	.L44
 680 00f0 FB68     		ldr	r3, [r7, #12]
 681 00f2 1B68     		ldr	r3, [r3]
 682 00f4 1A68     		ldr	r2, [r3]
 683 00f6 FB68     		ldr	r3, [r7, #12]
 684 00f8 1B68     		ldr	r3, [r3]
 685 00fa 42F00102 		orr	r2, r2, #1
 686 00fe 1A60     		str	r2, [r3]
 687 0100 07E0     		b	.L44
 688              	.L42:
 689 0102 FB68     		ldr	r3, [r7, #12]
 690 0104 1B68     		ldr	r3, [r3]
 691 0106 1A68     		ldr	r2, [r3]
 692 0108 FB68     		ldr	r3, [r7, #12]
 693 010a 1B68     		ldr	r3, [r3]
 694 010c 42F00102 		orr	r2, r2, #1
 695 0110 1A60     		str	r2, [r3]
 696              	.L44:
 697 0112 0023     		movs	r3, #0
 698              	.L36:
 699 0114 1846     		mov	r0, r3
 700 0116 1837     		adds	r7, r7, #24
 701 0118 BD46     		mov	sp, r7
ARM GAS  C:\Users\user\AppData\Local\Temp\ccrDHgJ5.s 			page 13


 702              		@ sp needed
 703 011a 80BD     		pop	{r7, pc}
 704              	.L47:
 705              		.align	2
 706              	.L46:
 707 011c 00000000 		.word	TIM_DMAPeriodElapsedCplt
 708 0120 00000000 		.word	TIM_DMAPeriodElapsedHalfCplt
 709 0124 00000000 		.word	TIM_DMAError
 710 0128 00000140 		.word	1073807360
 711 012c 00040040 		.word	1073742848
 712 0130 00080040 		.word	1073743872
 713 0134 000C0040 		.word	1073744896
 714 0138 00040140 		.word	1073808384
 715 013c 00400140 		.word	1073823744
 716 0140 00180040 		.word	1073747968
 718              		.section	.text.HAL_TIM_Base_Stop_DMA,"ax",%progbits
 719              		.align	1
 720              		.global	HAL_TIM_Base_Stop_DMA
 721              		.syntax unified
 722              		.thumb
 723              		.thumb_func
 725              	HAL_TIM_Base_Stop_DMA:
 726              		@ args = 0, pretend = 0, frame = 8
 727              		@ frame_needed = 1, uses_anonymous_args = 0
 728 0000 80B5     		push	{r7, lr}
 729 0002 82B0     		sub	sp, sp, #8
 730 0004 00AF     		add	r7, sp, #0
 731 0006 7860     		str	r0, [r7, #4]
 732 0008 7B68     		ldr	r3, [r7, #4]
 733 000a 1B68     		ldr	r3, [r3]
 734 000c DA68     		ldr	r2, [r3, #12]
 735 000e 7B68     		ldr	r3, [r7, #4]
 736 0010 1B68     		ldr	r3, [r3]
 737 0012 22F48072 		bic	r2, r2, #256
 738 0016 DA60     		str	r2, [r3, #12]
 739 0018 7B68     		ldr	r3, [r7, #4]
 740 001a 1B6A     		ldr	r3, [r3, #32]
 741 001c 1846     		mov	r0, r3
 742 001e FFF7FEFF 		bl	HAL_DMA_Abort_IT
 743 0022 7B68     		ldr	r3, [r7, #4]
 744 0024 1B68     		ldr	r3, [r3]
 745 0026 1A6A     		ldr	r2, [r3, #32]
 746 0028 41F21113 		movw	r3, #4369
 747 002c 1340     		ands	r3, r3, r2
 748 002e 002B     		cmp	r3, #0
 749 0030 0FD1     		bne	.L49
 750 0032 7B68     		ldr	r3, [r7, #4]
 751 0034 1B68     		ldr	r3, [r3]
 752 0036 1A6A     		ldr	r2, [r3, #32]
 753 0038 40F24443 		movw	r3, #1092
 754 003c 1340     		ands	r3, r3, r2
 755 003e 002B     		cmp	r3, #0
 756 0040 07D1     		bne	.L49
 757 0042 7B68     		ldr	r3, [r7, #4]
 758 0044 1B68     		ldr	r3, [r3]
 759 0046 1A68     		ldr	r2, [r3]
 760 0048 7B68     		ldr	r3, [r7, #4]
ARM GAS  C:\Users\user\AppData\Local\Temp\ccrDHgJ5.s 			page 14


 761 004a 1B68     		ldr	r3, [r3]
 762 004c 22F00102 		bic	r2, r2, #1
 763 0050 1A60     		str	r2, [r3]
 764              	.L49:
 765 0052 7B68     		ldr	r3, [r7, #4]
 766 0054 0122     		movs	r2, #1
 767 0056 83F83D20 		strb	r2, [r3, #61]
 768 005a 0023     		movs	r3, #0
 769 005c 1846     		mov	r0, r3
 770 005e 0837     		adds	r7, r7, #8
 771 0060 BD46     		mov	sp, r7
 772              		@ sp needed
 773 0062 80BD     		pop	{r7, pc}
 775              		.section	.text.HAL_TIM_OC_Init,"ax",%progbits
 776              		.align	1
 777              		.global	HAL_TIM_OC_Init
 778              		.syntax unified
 779              		.thumb
 780              		.thumb_func
 782              	HAL_TIM_OC_Init:
 783              		@ args = 0, pretend = 0, frame = 8
 784              		@ frame_needed = 1, uses_anonymous_args = 0
 785 0000 80B5     		push	{r7, lr}
 786 0002 82B0     		sub	sp, sp, #8
 787 0004 00AF     		add	r7, sp, #0
 788 0006 7860     		str	r0, [r7, #4]
 789 0008 7B68     		ldr	r3, [r7, #4]
 790 000a 002B     		cmp	r3, #0
 791 000c 01D1     		bne	.L52
 792 000e 0123     		movs	r3, #1
 793 0010 41E0     		b	.L53
 794              	.L52:
 795 0012 7B68     		ldr	r3, [r7, #4]
 796 0014 93F83D30 		ldrb	r3, [r3, #61]
 797 0018 DBB2     		uxtb	r3, r3
 798 001a 002B     		cmp	r3, #0
 799 001c 06D1     		bne	.L54
 800 001e 7B68     		ldr	r3, [r7, #4]
 801 0020 0022     		movs	r2, #0
 802 0022 83F83C20 		strb	r2, [r3, #60]
 803 0026 7868     		ldr	r0, [r7, #4]
 804 0028 FFF7FEFF 		bl	HAL_TIM_OC_MspInit
 805              	.L54:
 806 002c 7B68     		ldr	r3, [r7, #4]
 807 002e 0222     		movs	r2, #2
 808 0030 83F83D20 		strb	r2, [r3, #61]
 809 0034 7B68     		ldr	r3, [r7, #4]
 810 0036 1A68     		ldr	r2, [r3]
 811 0038 7B68     		ldr	r3, [r7, #4]
 812 003a 0433     		adds	r3, r3, #4
 813 003c 1946     		mov	r1, r3
 814 003e 1046     		mov	r0, r2
 815 0040 FFF7FEFF 		bl	TIM_Base_SetConfig
 816 0044 7B68     		ldr	r3, [r7, #4]
 817 0046 0122     		movs	r2, #1
 818 0048 83F84620 		strb	r2, [r3, #70]
 819 004c 7B68     		ldr	r3, [r7, #4]
ARM GAS  C:\Users\user\AppData\Local\Temp\ccrDHgJ5.s 			page 15


 820 004e 0122     		movs	r2, #1
 821 0050 83F83E20 		strb	r2, [r3, #62]
 822 0054 7B68     		ldr	r3, [r7, #4]
 823 0056 0122     		movs	r2, #1
 824 0058 83F83F20 		strb	r2, [r3, #63]
 825 005c 7B68     		ldr	r3, [r7, #4]
 826 005e 0122     		movs	r2, #1
 827 0060 83F84020 		strb	r2, [r3, #64]
 828 0064 7B68     		ldr	r3, [r7, #4]
 829 0066 0122     		movs	r2, #1
 830 0068 83F84120 		strb	r2, [r3, #65]
 831 006c 7B68     		ldr	r3, [r7, #4]
 832 006e 0122     		movs	r2, #1
 833 0070 83F84220 		strb	r2, [r3, #66]
 834 0074 7B68     		ldr	r3, [r7, #4]
 835 0076 0122     		movs	r2, #1
 836 0078 83F84320 		strb	r2, [r3, #67]
 837 007c 7B68     		ldr	r3, [r7, #4]
 838 007e 0122     		movs	r2, #1
 839 0080 83F84420 		strb	r2, [r3, #68]
 840 0084 7B68     		ldr	r3, [r7, #4]
 841 0086 0122     		movs	r2, #1
 842 0088 83F84520 		strb	r2, [r3, #69]
 843 008c 7B68     		ldr	r3, [r7, #4]
 844 008e 0122     		movs	r2, #1
 845 0090 83F83D20 		strb	r2, [r3, #61]
 846 0094 0023     		movs	r3, #0
 847              	.L53:
 848 0096 1846     		mov	r0, r3
 849 0098 0837     		adds	r7, r7, #8
 850 009a BD46     		mov	sp, r7
 851              		@ sp needed
 852 009c 80BD     		pop	{r7, pc}
 854              		.section	.text.HAL_TIM_OC_DeInit,"ax",%progbits
 855              		.align	1
 856              		.global	HAL_TIM_OC_DeInit
 857              		.syntax unified
 858              		.thumb
 859              		.thumb_func
 861              	HAL_TIM_OC_DeInit:
 862              		@ args = 0, pretend = 0, frame = 8
 863              		@ frame_needed = 1, uses_anonymous_args = 0
 864 0000 80B5     		push	{r7, lr}
 865 0002 82B0     		sub	sp, sp, #8
 866 0004 00AF     		add	r7, sp, #0
 867 0006 7860     		str	r0, [r7, #4]
 868 0008 7B68     		ldr	r3, [r7, #4]
 869 000a 0222     		movs	r2, #2
 870 000c 83F83D20 		strb	r2, [r3, #61]
 871 0010 7B68     		ldr	r3, [r7, #4]
 872 0012 1B68     		ldr	r3, [r3]
 873 0014 1A6A     		ldr	r2, [r3, #32]
 874 0016 41F21113 		movw	r3, #4369
 875 001a 1340     		ands	r3, r3, r2
 876 001c 002B     		cmp	r3, #0
 877 001e 0FD1     		bne	.L56
 878 0020 7B68     		ldr	r3, [r7, #4]
ARM GAS  C:\Users\user\AppData\Local\Temp\ccrDHgJ5.s 			page 16


 879 0022 1B68     		ldr	r3, [r3]
 880 0024 1A6A     		ldr	r2, [r3, #32]
 881 0026 40F24443 		movw	r3, #1092
 882 002a 1340     		ands	r3, r3, r2
 883 002c 002B     		cmp	r3, #0
 884 002e 07D1     		bne	.L56
 885 0030 7B68     		ldr	r3, [r7, #4]
 886 0032 1B68     		ldr	r3, [r3]
 887 0034 1A68     		ldr	r2, [r3]
 888 0036 7B68     		ldr	r3, [r7, #4]
 889 0038 1B68     		ldr	r3, [r3]
 890 003a 22F00102 		bic	r2, r2, #1
 891 003e 1A60     		str	r2, [r3]
 892              	.L56:
 893 0040 7868     		ldr	r0, [r7, #4]
 894 0042 FFF7FEFF 		bl	HAL_TIM_OC_MspDeInit
 895 0046 7B68     		ldr	r3, [r7, #4]
 896 0048 0022     		movs	r2, #0
 897 004a 83F84620 		strb	r2, [r3, #70]
 898 004e 7B68     		ldr	r3, [r7, #4]
 899 0050 0022     		movs	r2, #0
 900 0052 83F83E20 		strb	r2, [r3, #62]
 901 0056 7B68     		ldr	r3, [r7, #4]
 902 0058 0022     		movs	r2, #0
 903 005a 83F83F20 		strb	r2, [r3, #63]
 904 005e 7B68     		ldr	r3, [r7, #4]
 905 0060 0022     		movs	r2, #0
 906 0062 83F84020 		strb	r2, [r3, #64]
 907 0066 7B68     		ldr	r3, [r7, #4]
 908 0068 0022     		movs	r2, #0
 909 006a 83F84120 		strb	r2, [r3, #65]
 910 006e 7B68     		ldr	r3, [r7, #4]
 911 0070 0022     		movs	r2, #0
 912 0072 83F84220 		strb	r2, [r3, #66]
 913 0076 7B68     		ldr	r3, [r7, #4]
 914 0078 0022     		movs	r2, #0
 915 007a 83F84320 		strb	r2, [r3, #67]
 916 007e 7B68     		ldr	r3, [r7, #4]
 917 0080 0022     		movs	r2, #0
 918 0082 83F84420 		strb	r2, [r3, #68]
 919 0086 7B68     		ldr	r3, [r7, #4]
 920 0088 0022     		movs	r2, #0
 921 008a 83F84520 		strb	r2, [r3, #69]
 922 008e 7B68     		ldr	r3, [r7, #4]
 923 0090 0022     		movs	r2, #0
 924 0092 83F83D20 		strb	r2, [r3, #61]
 925 0096 7B68     		ldr	r3, [r7, #4]
 926 0098 0022     		movs	r2, #0
 927 009a 83F83C20 		strb	r2, [r3, #60]
 928 009e 0023     		movs	r3, #0
 929 00a0 1846     		mov	r0, r3
 930 00a2 0837     		adds	r7, r7, #8
 931 00a4 BD46     		mov	sp, r7
 932              		@ sp needed
 933 00a6 80BD     		pop	{r7, pc}
 935              		.section	.text.HAL_TIM_OC_MspInit,"ax",%progbits
 936              		.align	1
ARM GAS  C:\Users\user\AppData\Local\Temp\ccrDHgJ5.s 			page 17


 937              		.weak	HAL_TIM_OC_MspInit
 938              		.syntax unified
 939              		.thumb
 940              		.thumb_func
 942              	HAL_TIM_OC_MspInit:
 943              		@ args = 0, pretend = 0, frame = 8
 944              		@ frame_needed = 1, uses_anonymous_args = 0
 945              		@ link register save eliminated.
 946 0000 80B4     		push	{r7}
 947 0002 83B0     		sub	sp, sp, #12
 948 0004 00AF     		add	r7, sp, #0
 949 0006 7860     		str	r0, [r7, #4]
 950 0008 00BF     		nop
 951 000a 0C37     		adds	r7, r7, #12
 952 000c BD46     		mov	sp, r7
 953              		@ sp needed
 954 000e 5DF8047B 		ldr	r7, [sp], #4
 955 0012 7047     		bx	lr
 957              		.section	.text.HAL_TIM_OC_MspDeInit,"ax",%progbits
 958              		.align	1
 959              		.weak	HAL_TIM_OC_MspDeInit
 960              		.syntax unified
 961              		.thumb
 962              		.thumb_func
 964              	HAL_TIM_OC_MspDeInit:
 965              		@ args = 0, pretend = 0, frame = 8
 966              		@ frame_needed = 1, uses_anonymous_args = 0
 967              		@ link register save eliminated.
 968 0000 80B4     		push	{r7}
 969 0002 83B0     		sub	sp, sp, #12
 970 0004 00AF     		add	r7, sp, #0
 971 0006 7860     		str	r0, [r7, #4]
 972 0008 00BF     		nop
 973 000a 0C37     		adds	r7, r7, #12
 974 000c BD46     		mov	sp, r7
 975              		@ sp needed
 976 000e 5DF8047B 		ldr	r7, [sp], #4
 977 0012 7047     		bx	lr
 979              		.section	.text.HAL_TIM_OC_Start,"ax",%progbits
 980              		.align	1
 981              		.global	HAL_TIM_OC_Start
 982              		.syntax unified
 983              		.thumb
 984              		.thumb_func
 986              	HAL_TIM_OC_Start:
 987              		@ args = 0, pretend = 0, frame = 16
 988              		@ frame_needed = 1, uses_anonymous_args = 0
 989 0000 80B5     		push	{r7, lr}
 990 0002 84B0     		sub	sp, sp, #16
 991 0004 00AF     		add	r7, sp, #0
 992 0006 7860     		str	r0, [r7, #4]
 993 0008 3960     		str	r1, [r7]
 994 000a 3B68     		ldr	r3, [r7]
 995 000c 002B     		cmp	r3, #0
 996 000e 09D1     		bne	.L61
 997 0010 7B68     		ldr	r3, [r7, #4]
 998 0012 93F83E30 		ldrb	r3, [r3, #62]
ARM GAS  C:\Users\user\AppData\Local\Temp\ccrDHgJ5.s 			page 18


 999 0016 DBB2     		uxtb	r3, r3
 1000 0018 012B     		cmp	r3, #1
 1001 001a 14BF     		ite	ne
 1002 001c 0123     		movne	r3, #1
 1003 001e 0023     		moveq	r3, #0
 1004 0020 DBB2     		uxtb	r3, r3
 1005 0022 22E0     		b	.L62
 1006              	.L61:
 1007 0024 3B68     		ldr	r3, [r7]
 1008 0026 042B     		cmp	r3, #4
 1009 0028 09D1     		bne	.L63
 1010 002a 7B68     		ldr	r3, [r7, #4]
 1011 002c 93F83F30 		ldrb	r3, [r3, #63]
 1012 0030 DBB2     		uxtb	r3, r3
 1013 0032 012B     		cmp	r3, #1
 1014 0034 14BF     		ite	ne
 1015 0036 0123     		movne	r3, #1
 1016 0038 0023     		moveq	r3, #0
 1017 003a DBB2     		uxtb	r3, r3
 1018 003c 15E0     		b	.L62
 1019              	.L63:
 1020 003e 3B68     		ldr	r3, [r7]
 1021 0040 082B     		cmp	r3, #8
 1022 0042 09D1     		bne	.L65
 1023 0044 7B68     		ldr	r3, [r7, #4]
 1024 0046 93F84030 		ldrb	r3, [r3, #64]
 1025 004a DBB2     		uxtb	r3, r3
 1026 004c 012B     		cmp	r3, #1
 1027 004e 14BF     		ite	ne
 1028 0050 0123     		movne	r3, #1
 1029 0052 0023     		moveq	r3, #0
 1030 0054 DBB2     		uxtb	r3, r3
 1031 0056 08E0     		b	.L62
 1032              	.L65:
 1033 0058 7B68     		ldr	r3, [r7, #4]
 1034 005a 93F84130 		ldrb	r3, [r3, #65]
 1035 005e DBB2     		uxtb	r3, r3
 1036 0060 012B     		cmp	r3, #1
 1037 0062 14BF     		ite	ne
 1038 0064 0123     		movne	r3, #1
 1039 0066 0023     		moveq	r3, #0
 1040 0068 DBB2     		uxtb	r3, r3
 1041              	.L62:
 1042 006a 002B     		cmp	r3, #0
 1043 006c 01D0     		beq	.L67
 1044 006e 0123     		movs	r3, #1
 1045 0070 7CE0     		b	.L68
 1046              	.L67:
 1047 0072 3B68     		ldr	r3, [r7]
 1048 0074 002B     		cmp	r3, #0
 1049 0076 04D1     		bne	.L69
 1050 0078 7B68     		ldr	r3, [r7, #4]
 1051 007a 0222     		movs	r2, #2
 1052 007c 83F83E20 		strb	r2, [r3, #62]
 1053 0080 13E0     		b	.L70
 1054              	.L69:
 1055 0082 3B68     		ldr	r3, [r7]
ARM GAS  C:\Users\user\AppData\Local\Temp\ccrDHgJ5.s 			page 19


 1056 0084 042B     		cmp	r3, #4
 1057 0086 04D1     		bne	.L71
 1058 0088 7B68     		ldr	r3, [r7, #4]
 1059 008a 0222     		movs	r2, #2
 1060 008c 83F83F20 		strb	r2, [r3, #63]
 1061 0090 0BE0     		b	.L70
 1062              	.L71:
 1063 0092 3B68     		ldr	r3, [r7]
 1064 0094 082B     		cmp	r3, #8
 1065 0096 04D1     		bne	.L73
 1066 0098 7B68     		ldr	r3, [r7, #4]
 1067 009a 0222     		movs	r2, #2
 1068 009c 83F84020 		strb	r2, [r3, #64]
 1069 00a0 03E0     		b	.L70
 1070              	.L73:
 1071 00a2 7B68     		ldr	r3, [r7, #4]
 1072 00a4 0222     		movs	r2, #2
 1073 00a6 83F84120 		strb	r2, [r3, #65]
 1074              	.L70:
 1075 00aa 7B68     		ldr	r3, [r7, #4]
 1076 00ac 1B68     		ldr	r3, [r3]
 1077 00ae 0122     		movs	r2, #1
 1078 00b0 3968     		ldr	r1, [r7]
 1079 00b2 1846     		mov	r0, r3
 1080 00b4 FFF7FEFF 		bl	TIM_CCxChannelCmd
 1081 00b8 7B68     		ldr	r3, [r7, #4]
 1082 00ba 1B68     		ldr	r3, [r3]
 1083 00bc 2D4A     		ldr	r2, .L83
 1084 00be 9342     		cmp	r3, r2
 1085 00c0 04D0     		beq	.L75
 1086 00c2 7B68     		ldr	r3, [r7, #4]
 1087 00c4 1B68     		ldr	r3, [r3]
 1088 00c6 2C4A     		ldr	r2, .L83+4
 1089 00c8 9342     		cmp	r3, r2
 1090 00ca 01D1     		bne	.L76
 1091              	.L75:
 1092 00cc 0123     		movs	r3, #1
 1093 00ce 00E0     		b	.L77
 1094              	.L76:
 1095 00d0 0023     		movs	r3, #0
 1096              	.L77:
 1097 00d2 002B     		cmp	r3, #0
 1098 00d4 07D0     		beq	.L78
 1099 00d6 7B68     		ldr	r3, [r7, #4]
 1100 00d8 1B68     		ldr	r3, [r3]
 1101 00da 5A6C     		ldr	r2, [r3, #68]
 1102 00dc 7B68     		ldr	r3, [r7, #4]
 1103 00de 1B68     		ldr	r3, [r3]
 1104 00e0 42F40042 		orr	r2, r2, #32768
 1105 00e4 5A64     		str	r2, [r3, #68]
 1106              	.L78:
 1107 00e6 7B68     		ldr	r3, [r7, #4]
 1108 00e8 1B68     		ldr	r3, [r3]
 1109 00ea 224A     		ldr	r2, .L83
 1110 00ec 9342     		cmp	r3, r2
 1111 00ee 22D0     		beq	.L79
 1112 00f0 7B68     		ldr	r3, [r7, #4]
ARM GAS  C:\Users\user\AppData\Local\Temp\ccrDHgJ5.s 			page 20


 1113 00f2 1B68     		ldr	r3, [r3]
 1114 00f4 B3F1804F 		cmp	r3, #1073741824
 1115 00f8 1DD0     		beq	.L79
 1116 00fa 7B68     		ldr	r3, [r7, #4]
 1117 00fc 1B68     		ldr	r3, [r3]
 1118 00fe 1F4A     		ldr	r2, .L83+8
 1119 0100 9342     		cmp	r3, r2
 1120 0102 18D0     		beq	.L79
 1121 0104 7B68     		ldr	r3, [r7, #4]
 1122 0106 1B68     		ldr	r3, [r3]
 1123 0108 1D4A     		ldr	r2, .L83+12
 1124 010a 9342     		cmp	r3, r2
 1125 010c 13D0     		beq	.L79
 1126 010e 7B68     		ldr	r3, [r7, #4]
 1127 0110 1B68     		ldr	r3, [r3]
 1128 0112 1C4A     		ldr	r2, .L83+16
 1129 0114 9342     		cmp	r3, r2
 1130 0116 0ED0     		beq	.L79
 1131 0118 7B68     		ldr	r3, [r7, #4]
 1132 011a 1B68     		ldr	r3, [r3]
 1133 011c 164A     		ldr	r2, .L83+4
 1134 011e 9342     		cmp	r3, r2
 1135 0120 09D0     		beq	.L79
 1136 0122 7B68     		ldr	r3, [r7, #4]
 1137 0124 1B68     		ldr	r3, [r3]
 1138 0126 184A     		ldr	r2, .L83+20
 1139 0128 9342     		cmp	r3, r2
 1140 012a 04D0     		beq	.L79
 1141 012c 7B68     		ldr	r3, [r7, #4]
 1142 012e 1B68     		ldr	r3, [r3]
 1143 0130 164A     		ldr	r2, .L83+24
 1144 0132 9342     		cmp	r3, r2
 1145 0134 11D1     		bne	.L80
 1146              	.L79:
 1147 0136 7B68     		ldr	r3, [r7, #4]
 1148 0138 1B68     		ldr	r3, [r3]
 1149 013a 9B68     		ldr	r3, [r3, #8]
 1150 013c 03F00703 		and	r3, r3, #7
 1151 0140 FB60     		str	r3, [r7, #12]
 1152 0142 FB68     		ldr	r3, [r7, #12]
 1153 0144 062B     		cmp	r3, #6
 1154 0146 10D0     		beq	.L82
 1155 0148 7B68     		ldr	r3, [r7, #4]
 1156 014a 1B68     		ldr	r3, [r3]
 1157 014c 1A68     		ldr	r2, [r3]
 1158 014e 7B68     		ldr	r3, [r7, #4]
 1159 0150 1B68     		ldr	r3, [r3]
 1160 0152 42F00102 		orr	r2, r2, #1
 1161 0156 1A60     		str	r2, [r3]
 1162 0158 07E0     		b	.L82
 1163              	.L80:
 1164 015a 7B68     		ldr	r3, [r7, #4]
 1165 015c 1B68     		ldr	r3, [r3]
 1166 015e 1A68     		ldr	r2, [r3]
 1167 0160 7B68     		ldr	r3, [r7, #4]
 1168 0162 1B68     		ldr	r3, [r3]
 1169 0164 42F00102 		orr	r2, r2, #1
ARM GAS  C:\Users\user\AppData\Local\Temp\ccrDHgJ5.s 			page 21


 1170 0168 1A60     		str	r2, [r3]
 1171              	.L82:
 1172 016a 0023     		movs	r3, #0
 1173              	.L68:
 1174 016c 1846     		mov	r0, r3
 1175 016e 1037     		adds	r7, r7, #16
 1176 0170 BD46     		mov	sp, r7
 1177              		@ sp needed
 1178 0172 80BD     		pop	{r7, pc}
 1179              	.L84:
 1180              		.align	2
 1181              	.L83:
 1182 0174 00000140 		.word	1073807360
 1183 0178 00040140 		.word	1073808384
 1184 017c 00040040 		.word	1073742848
 1185 0180 00080040 		.word	1073743872
 1186 0184 000C0040 		.word	1073744896
 1187 0188 00400140 		.word	1073823744
 1188 018c 00180040 		.word	1073747968
 1190              		.section	.text.HAL_TIM_OC_Stop,"ax",%progbits
 1191              		.align	1
 1192              		.global	HAL_TIM_OC_Stop
 1193              		.syntax unified
 1194              		.thumb
 1195              		.thumb_func
 1197              	HAL_TIM_OC_Stop:
 1198              		@ args = 0, pretend = 0, frame = 8
 1199              		@ frame_needed = 1, uses_anonymous_args = 0
 1200 0000 80B5     		push	{r7, lr}
 1201 0002 82B0     		sub	sp, sp, #8
 1202 0004 00AF     		add	r7, sp, #0
 1203 0006 7860     		str	r0, [r7, #4]
 1204 0008 3960     		str	r1, [r7]
 1205 000a 7B68     		ldr	r3, [r7, #4]
 1206 000c 1B68     		ldr	r3, [r3]
 1207 000e 0022     		movs	r2, #0
 1208 0010 3968     		ldr	r1, [r7]
 1209 0012 1846     		mov	r0, r3
 1210 0014 FFF7FEFF 		bl	TIM_CCxChannelCmd
 1211 0018 7B68     		ldr	r3, [r7, #4]
 1212 001a 1B68     		ldr	r3, [r3]
 1213 001c 2E4A     		ldr	r2, .L98
 1214 001e 9342     		cmp	r3, r2
 1215 0020 04D0     		beq	.L86
 1216 0022 7B68     		ldr	r3, [r7, #4]
 1217 0024 1B68     		ldr	r3, [r3]
 1218 0026 2D4A     		ldr	r2, .L98+4
 1219 0028 9342     		cmp	r3, r2
 1220 002a 01D1     		bne	.L87
 1221              	.L86:
 1222 002c 0123     		movs	r3, #1
 1223 002e 00E0     		b	.L88
 1224              	.L87:
 1225 0030 0023     		movs	r3, #0
 1226              	.L88:
 1227 0032 002B     		cmp	r3, #0
 1228 0034 17D0     		beq	.L89
ARM GAS  C:\Users\user\AppData\Local\Temp\ccrDHgJ5.s 			page 22


 1229 0036 7B68     		ldr	r3, [r7, #4]
 1230 0038 1B68     		ldr	r3, [r3]
 1231 003a 1A6A     		ldr	r2, [r3, #32]
 1232 003c 41F21113 		movw	r3, #4369
 1233 0040 1340     		ands	r3, r3, r2
 1234 0042 002B     		cmp	r3, #0
 1235 0044 0FD1     		bne	.L89
 1236 0046 7B68     		ldr	r3, [r7, #4]
 1237 0048 1B68     		ldr	r3, [r3]
 1238 004a 1A6A     		ldr	r2, [r3, #32]
 1239 004c 40F24443 		movw	r3, #1092
 1240 0050 1340     		ands	r3, r3, r2
 1241 0052 002B     		cmp	r3, #0
 1242 0054 07D1     		bne	.L89
 1243 0056 7B68     		ldr	r3, [r7, #4]
 1244 0058 1B68     		ldr	r3, [r3]
 1245 005a 5A6C     		ldr	r2, [r3, #68]
 1246 005c 7B68     		ldr	r3, [r7, #4]
 1247 005e 1B68     		ldr	r3, [r3]
 1248 0060 22F40042 		bic	r2, r2, #32768
 1249 0064 5A64     		str	r2, [r3, #68]
 1250              	.L89:
 1251 0066 7B68     		ldr	r3, [r7, #4]
 1252 0068 1B68     		ldr	r3, [r3]
 1253 006a 1A6A     		ldr	r2, [r3, #32]
 1254 006c 41F21113 		movw	r3, #4369
 1255 0070 1340     		ands	r3, r3, r2
 1256 0072 002B     		cmp	r3, #0
 1257 0074 0FD1     		bne	.L90
 1258 0076 7B68     		ldr	r3, [r7, #4]
 1259 0078 1B68     		ldr	r3, [r3]
 1260 007a 1A6A     		ldr	r2, [r3, #32]
 1261 007c 40F24443 		movw	r3, #1092
 1262 0080 1340     		ands	r3, r3, r2
 1263 0082 002B     		cmp	r3, #0
 1264 0084 07D1     		bne	.L90
 1265 0086 7B68     		ldr	r3, [r7, #4]
 1266 0088 1B68     		ldr	r3, [r3]
 1267 008a 1A68     		ldr	r2, [r3]
 1268 008c 7B68     		ldr	r3, [r7, #4]
 1269 008e 1B68     		ldr	r3, [r3]
 1270 0090 22F00102 		bic	r2, r2, #1
 1271 0094 1A60     		str	r2, [r3]
 1272              	.L90:
 1273 0096 3B68     		ldr	r3, [r7]
 1274 0098 002B     		cmp	r3, #0
 1275 009a 04D1     		bne	.L91
 1276 009c 7B68     		ldr	r3, [r7, #4]
 1277 009e 0122     		movs	r2, #1
 1278 00a0 83F83E20 		strb	r2, [r3, #62]
 1279 00a4 13E0     		b	.L92
 1280              	.L91:
 1281 00a6 3B68     		ldr	r3, [r7]
 1282 00a8 042B     		cmp	r3, #4
 1283 00aa 04D1     		bne	.L93
 1284 00ac 7B68     		ldr	r3, [r7, #4]
 1285 00ae 0122     		movs	r2, #1
ARM GAS  C:\Users\user\AppData\Local\Temp\ccrDHgJ5.s 			page 23


 1286 00b0 83F83F20 		strb	r2, [r3, #63]
 1287 00b4 0BE0     		b	.L92
 1288              	.L93:
 1289 00b6 3B68     		ldr	r3, [r7]
 1290 00b8 082B     		cmp	r3, #8
 1291 00ba 04D1     		bne	.L95
 1292 00bc 7B68     		ldr	r3, [r7, #4]
 1293 00be 0122     		movs	r2, #1
 1294 00c0 83F84020 		strb	r2, [r3, #64]
 1295 00c4 03E0     		b	.L92
 1296              	.L95:
 1297 00c6 7B68     		ldr	r3, [r7, #4]
 1298 00c8 0122     		movs	r2, #1
 1299 00ca 83F84120 		strb	r2, [r3, #65]
 1300              	.L92:
 1301 00ce 0023     		movs	r3, #0
 1302 00d0 1846     		mov	r0, r3
 1303 00d2 0837     		adds	r7, r7, #8
 1304 00d4 BD46     		mov	sp, r7
 1305              		@ sp needed
 1306 00d6 80BD     		pop	{r7, pc}
 1307              	.L99:
 1308              		.align	2
 1309              	.L98:
 1310 00d8 00000140 		.word	1073807360
 1311 00dc 00040140 		.word	1073808384
 1313              		.section	.text.HAL_TIM_OC_Start_IT,"ax",%progbits
 1314              		.align	1
 1315              		.global	HAL_TIM_OC_Start_IT
 1316              		.syntax unified
 1317              		.thumb
 1318              		.thumb_func
 1320              	HAL_TIM_OC_Start_IT:
 1321              		@ args = 0, pretend = 0, frame = 16
 1322              		@ frame_needed = 1, uses_anonymous_args = 0
 1323 0000 80B5     		push	{r7, lr}
 1324 0002 84B0     		sub	sp, sp, #16
 1325 0004 00AF     		add	r7, sp, #0
 1326 0006 7860     		str	r0, [r7, #4]
 1327 0008 3960     		str	r1, [r7]
 1328 000a 0023     		movs	r3, #0
 1329 000c FB73     		strb	r3, [r7, #15]
 1330 000e 3B68     		ldr	r3, [r7]
 1331 0010 002B     		cmp	r3, #0
 1332 0012 09D1     		bne	.L101
 1333 0014 7B68     		ldr	r3, [r7, #4]
 1334 0016 93F83E30 		ldrb	r3, [r3, #62]
 1335 001a DBB2     		uxtb	r3, r3
 1336 001c 012B     		cmp	r3, #1
 1337 001e 14BF     		ite	ne
 1338 0020 0123     		movne	r3, #1
 1339 0022 0023     		moveq	r3, #0
 1340 0024 DBB2     		uxtb	r3, r3
 1341 0026 22E0     		b	.L102
 1342              	.L101:
 1343 0028 3B68     		ldr	r3, [r7]
 1344 002a 042B     		cmp	r3, #4
ARM GAS  C:\Users\user\AppData\Local\Temp\ccrDHgJ5.s 			page 24


 1345 002c 09D1     		bne	.L103
 1346 002e 7B68     		ldr	r3, [r7, #4]
 1347 0030 93F83F30 		ldrb	r3, [r3, #63]
 1348 0034 DBB2     		uxtb	r3, r3
 1349 0036 012B     		cmp	r3, #1
 1350 0038 14BF     		ite	ne
 1351 003a 0123     		movne	r3, #1
 1352 003c 0023     		moveq	r3, #0
 1353 003e DBB2     		uxtb	r3, r3
 1354 0040 15E0     		b	.L102
 1355              	.L103:
 1356 0042 3B68     		ldr	r3, [r7]
 1357 0044 082B     		cmp	r3, #8
 1358 0046 09D1     		bne	.L105
 1359 0048 7B68     		ldr	r3, [r7, #4]
 1360 004a 93F84030 		ldrb	r3, [r3, #64]
 1361 004e DBB2     		uxtb	r3, r3
 1362 0050 012B     		cmp	r3, #1
 1363 0052 14BF     		ite	ne
 1364 0054 0123     		movne	r3, #1
 1365 0056 0023     		moveq	r3, #0
 1366 0058 DBB2     		uxtb	r3, r3
 1367 005a 08E0     		b	.L102
 1368              	.L105:
 1369 005c 7B68     		ldr	r3, [r7, #4]
 1370 005e 93F84130 		ldrb	r3, [r3, #65]
 1371 0062 DBB2     		uxtb	r3, r3
 1372 0064 012B     		cmp	r3, #1
 1373 0066 14BF     		ite	ne
 1374 0068 0123     		movne	r3, #1
 1375 006a 0023     		moveq	r3, #0
 1376 006c DBB2     		uxtb	r3, r3
 1377              	.L102:
 1378 006e 002B     		cmp	r3, #0
 1379 0070 01D0     		beq	.L107
 1380 0072 0123     		movs	r3, #1
 1381 0074 C7E0     		b	.L108
 1382              	.L107:
 1383 0076 3B68     		ldr	r3, [r7]
 1384 0078 002B     		cmp	r3, #0
 1385 007a 04D1     		bne	.L109
 1386 007c 7B68     		ldr	r3, [r7, #4]
 1387 007e 0222     		movs	r2, #2
 1388 0080 83F83E20 		strb	r2, [r3, #62]
 1389 0084 13E0     		b	.L110
 1390              	.L109:
 1391 0086 3B68     		ldr	r3, [r7]
 1392 0088 042B     		cmp	r3, #4
 1393 008a 04D1     		bne	.L111
 1394 008c 7B68     		ldr	r3, [r7, #4]
 1395 008e 0222     		movs	r2, #2
 1396 0090 83F83F20 		strb	r2, [r3, #63]
 1397 0094 0BE0     		b	.L110
 1398              	.L111:
 1399 0096 3B68     		ldr	r3, [r7]
 1400 0098 082B     		cmp	r3, #8
 1401 009a 04D1     		bne	.L113
ARM GAS  C:\Users\user\AppData\Local\Temp\ccrDHgJ5.s 			page 25


 1402 009c 7B68     		ldr	r3, [r7, #4]
 1403 009e 0222     		movs	r2, #2
 1404 00a0 83F84020 		strb	r2, [r3, #64]
 1405 00a4 03E0     		b	.L110
 1406              	.L113:
 1407 00a6 7B68     		ldr	r3, [r7, #4]
 1408 00a8 0222     		movs	r2, #2
 1409 00aa 83F84120 		strb	r2, [r3, #65]
 1410              	.L110:
 1411 00ae 3B68     		ldr	r3, [r7]
 1412 00b0 0C2B     		cmp	r3, #12
 1413 00b2 41D8     		bhi	.L115
 1414 00b4 01A2     		adr	r2, .L117
 1415 00b6 52F823F0 		ldr	pc, [r2, r3, lsl #2]
 1416 00ba 00BF     		.p2align 2
 1417              	.L117:
 1418 00bc F1000000 		.word	.L120+1
 1419 00c0 39010000 		.word	.L115+1
 1420 00c4 39010000 		.word	.L115+1
 1421 00c8 39010000 		.word	.L115+1
 1422 00cc 03010000 		.word	.L119+1
 1423 00d0 39010000 		.word	.L115+1
 1424 00d4 39010000 		.word	.L115+1
 1425 00d8 39010000 		.word	.L115+1
 1426 00dc 15010000 		.word	.L118+1
 1427 00e0 39010000 		.word	.L115+1
 1428 00e4 39010000 		.word	.L115+1
 1429 00e8 39010000 		.word	.L115+1
 1430 00ec 27010000 		.word	.L116+1
 1431              		.p2align 1
 1432              	.L120:
 1433 00f0 7B68     		ldr	r3, [r7, #4]
 1434 00f2 1B68     		ldr	r3, [r3]
 1435 00f4 DA68     		ldr	r2, [r3, #12]
 1436 00f6 7B68     		ldr	r3, [r7, #4]
 1437 00f8 1B68     		ldr	r3, [r3]
 1438 00fa 42F00202 		orr	r2, r2, #2
 1439 00fe DA60     		str	r2, [r3, #12]
 1440 0100 1DE0     		b	.L121
 1441              	.L119:
 1442 0102 7B68     		ldr	r3, [r7, #4]
 1443 0104 1B68     		ldr	r3, [r3]
 1444 0106 DA68     		ldr	r2, [r3, #12]
 1445 0108 7B68     		ldr	r3, [r7, #4]
 1446 010a 1B68     		ldr	r3, [r3]
 1447 010c 42F00402 		orr	r2, r2, #4
 1448 0110 DA60     		str	r2, [r3, #12]
 1449 0112 14E0     		b	.L121
 1450              	.L118:
 1451 0114 7B68     		ldr	r3, [r7, #4]
 1452 0116 1B68     		ldr	r3, [r3]
 1453 0118 DA68     		ldr	r2, [r3, #12]
 1454 011a 7B68     		ldr	r3, [r7, #4]
 1455 011c 1B68     		ldr	r3, [r3]
 1456 011e 42F00802 		orr	r2, r2, #8
 1457 0122 DA60     		str	r2, [r3, #12]
 1458 0124 0BE0     		b	.L121
ARM GAS  C:\Users\user\AppData\Local\Temp\ccrDHgJ5.s 			page 26


 1459              	.L116:
 1460 0126 7B68     		ldr	r3, [r7, #4]
 1461 0128 1B68     		ldr	r3, [r3]
 1462 012a DA68     		ldr	r2, [r3, #12]
 1463 012c 7B68     		ldr	r3, [r7, #4]
 1464 012e 1B68     		ldr	r3, [r3]
 1465 0130 42F01002 		orr	r2, r2, #16
 1466 0134 DA60     		str	r2, [r3, #12]
 1467 0136 02E0     		b	.L121
 1468              	.L115:
 1469 0138 0123     		movs	r3, #1
 1470 013a FB73     		strb	r3, [r7, #15]
 1471 013c 00BF     		nop
 1472              	.L121:
 1473 013e FB7B     		ldrb	r3, [r7, #15]	@ zero_extendqisi2
 1474 0140 002B     		cmp	r3, #0
 1475 0142 5FD1     		bne	.L122
 1476 0144 7B68     		ldr	r3, [r7, #4]
 1477 0146 1B68     		ldr	r3, [r3]
 1478 0148 0122     		movs	r2, #1
 1479 014a 3968     		ldr	r1, [r7]
 1480 014c 1846     		mov	r0, r3
 1481 014e FFF7FEFF 		bl	TIM_CCxChannelCmd
 1482 0152 7B68     		ldr	r3, [r7, #4]
 1483 0154 1B68     		ldr	r3, [r3]
 1484 0156 2E4A     		ldr	r2, .L130
 1485 0158 9342     		cmp	r3, r2
 1486 015a 04D0     		beq	.L123
 1487 015c 7B68     		ldr	r3, [r7, #4]
 1488 015e 1B68     		ldr	r3, [r3]
 1489 0160 2C4A     		ldr	r2, .L130+4
 1490 0162 9342     		cmp	r3, r2
 1491 0164 01D1     		bne	.L124
 1492              	.L123:
 1493 0166 0123     		movs	r3, #1
 1494 0168 00E0     		b	.L125
 1495              	.L124:
 1496 016a 0023     		movs	r3, #0
 1497              	.L125:
 1498 016c 002B     		cmp	r3, #0
 1499 016e 07D0     		beq	.L126
 1500 0170 7B68     		ldr	r3, [r7, #4]
 1501 0172 1B68     		ldr	r3, [r3]
 1502 0174 5A6C     		ldr	r2, [r3, #68]
 1503 0176 7B68     		ldr	r3, [r7, #4]
 1504 0178 1B68     		ldr	r3, [r3]
 1505 017a 42F40042 		orr	r2, r2, #32768
 1506 017e 5A64     		str	r2, [r3, #68]
 1507              	.L126:
 1508 0180 7B68     		ldr	r3, [r7, #4]
 1509 0182 1B68     		ldr	r3, [r3]
 1510 0184 224A     		ldr	r2, .L130
 1511 0186 9342     		cmp	r3, r2
 1512 0188 22D0     		beq	.L127
 1513 018a 7B68     		ldr	r3, [r7, #4]
 1514 018c 1B68     		ldr	r3, [r3]
 1515 018e B3F1804F 		cmp	r3, #1073741824
ARM GAS  C:\Users\user\AppData\Local\Temp\ccrDHgJ5.s 			page 27


 1516 0192 1DD0     		beq	.L127
 1517 0194 7B68     		ldr	r3, [r7, #4]
 1518 0196 1B68     		ldr	r3, [r3]
 1519 0198 1F4A     		ldr	r2, .L130+8
 1520 019a 9342     		cmp	r3, r2
 1521 019c 18D0     		beq	.L127
 1522 019e 7B68     		ldr	r3, [r7, #4]
 1523 01a0 1B68     		ldr	r3, [r3]
 1524 01a2 1E4A     		ldr	r2, .L130+12
 1525 01a4 9342     		cmp	r3, r2
 1526 01a6 13D0     		beq	.L127
 1527 01a8 7B68     		ldr	r3, [r7, #4]
 1528 01aa 1B68     		ldr	r3, [r3]
 1529 01ac 1C4A     		ldr	r2, .L130+16
 1530 01ae 9342     		cmp	r3, r2
 1531 01b0 0ED0     		beq	.L127
 1532 01b2 7B68     		ldr	r3, [r7, #4]
 1533 01b4 1B68     		ldr	r3, [r3]
 1534 01b6 174A     		ldr	r2, .L130+4
 1535 01b8 9342     		cmp	r3, r2
 1536 01ba 09D0     		beq	.L127
 1537 01bc 7B68     		ldr	r3, [r7, #4]
 1538 01be 1B68     		ldr	r3, [r3]
 1539 01c0 184A     		ldr	r2, .L130+20
 1540 01c2 9342     		cmp	r3, r2
 1541 01c4 04D0     		beq	.L127
 1542 01c6 7B68     		ldr	r3, [r7, #4]
 1543 01c8 1B68     		ldr	r3, [r3]
 1544 01ca 174A     		ldr	r2, .L130+24
 1545 01cc 9342     		cmp	r3, r2
 1546 01ce 11D1     		bne	.L128
 1547              	.L127:
 1548 01d0 7B68     		ldr	r3, [r7, #4]
 1549 01d2 1B68     		ldr	r3, [r3]
 1550 01d4 9B68     		ldr	r3, [r3, #8]
 1551 01d6 03F00703 		and	r3, r3, #7
 1552 01da BB60     		str	r3, [r7, #8]
 1553 01dc BB68     		ldr	r3, [r7, #8]
 1554 01de 062B     		cmp	r3, #6
 1555 01e0 10D0     		beq	.L122
 1556 01e2 7B68     		ldr	r3, [r7, #4]
 1557 01e4 1B68     		ldr	r3, [r3]
 1558 01e6 1A68     		ldr	r2, [r3]
 1559 01e8 7B68     		ldr	r3, [r7, #4]
 1560 01ea 1B68     		ldr	r3, [r3]
 1561 01ec 42F00102 		orr	r2, r2, #1
 1562 01f0 1A60     		str	r2, [r3]
 1563 01f2 07E0     		b	.L122
 1564              	.L128:
 1565 01f4 7B68     		ldr	r3, [r7, #4]
 1566 01f6 1B68     		ldr	r3, [r3]
 1567 01f8 1A68     		ldr	r2, [r3]
 1568 01fa 7B68     		ldr	r3, [r7, #4]
 1569 01fc 1B68     		ldr	r3, [r3]
 1570 01fe 42F00102 		orr	r2, r2, #1
 1571 0202 1A60     		str	r2, [r3]
 1572              	.L122:
ARM GAS  C:\Users\user\AppData\Local\Temp\ccrDHgJ5.s 			page 28


 1573 0204 FB7B     		ldrb	r3, [r7, #15]	@ zero_extendqisi2
 1574              	.L108:
 1575 0206 1846     		mov	r0, r3
 1576 0208 1037     		adds	r7, r7, #16
 1577 020a BD46     		mov	sp, r7
 1578              		@ sp needed
 1579 020c 80BD     		pop	{r7, pc}
 1580              	.L131:
 1581 020e 00BF     		.align	2
 1582              	.L130:
 1583 0210 00000140 		.word	1073807360
 1584 0214 00040140 		.word	1073808384
 1585 0218 00040040 		.word	1073742848
 1586 021c 00080040 		.word	1073743872
 1587 0220 000C0040 		.word	1073744896
 1588 0224 00400140 		.word	1073823744
 1589 0228 00180040 		.word	1073747968
 1591              		.section	.text.HAL_TIM_OC_Stop_IT,"ax",%progbits
 1592              		.align	1
 1593              		.global	HAL_TIM_OC_Stop_IT
 1594              		.syntax unified
 1595              		.thumb
 1596              		.thumb_func
 1598              	HAL_TIM_OC_Stop_IT:
 1599              		@ args = 0, pretend = 0, frame = 16
 1600              		@ frame_needed = 1, uses_anonymous_args = 0
 1601 0000 80B5     		push	{r7, lr}
 1602 0002 84B0     		sub	sp, sp, #16
 1603 0004 00AF     		add	r7, sp, #0
 1604 0006 7860     		str	r0, [r7, #4]
 1605 0008 3960     		str	r1, [r7]
 1606 000a 0023     		movs	r3, #0
 1607 000c FB73     		strb	r3, [r7, #15]
 1608 000e 3B68     		ldr	r3, [r7]
 1609 0010 0C2B     		cmp	r3, #12
 1610 0012 41D8     		bhi	.L133
 1611 0014 01A2     		adr	r2, .L135
 1612 0016 52F823F0 		ldr	pc, [r2, r3, lsl #2]
 1613 001a 00BF     		.p2align 2
 1614              	.L135:
 1615 001c 51000000 		.word	.L138+1
 1616 0020 99000000 		.word	.L133+1
 1617 0024 99000000 		.word	.L133+1
 1618 0028 99000000 		.word	.L133+1
 1619 002c 63000000 		.word	.L137+1
 1620 0030 99000000 		.word	.L133+1
 1621 0034 99000000 		.word	.L133+1
 1622 0038 99000000 		.word	.L133+1
 1623 003c 75000000 		.word	.L136+1
 1624 0040 99000000 		.word	.L133+1
 1625 0044 99000000 		.word	.L133+1
 1626 0048 99000000 		.word	.L133+1
 1627 004c 87000000 		.word	.L134+1
 1628              		.p2align 1
 1629              	.L138:
 1630 0050 7B68     		ldr	r3, [r7, #4]
 1631 0052 1B68     		ldr	r3, [r3]
ARM GAS  C:\Users\user\AppData\Local\Temp\ccrDHgJ5.s 			page 29


 1632 0054 DA68     		ldr	r2, [r3, #12]
 1633 0056 7B68     		ldr	r3, [r7, #4]
 1634 0058 1B68     		ldr	r3, [r3]
 1635 005a 22F00202 		bic	r2, r2, #2
 1636 005e DA60     		str	r2, [r3, #12]
 1637 0060 1DE0     		b	.L139
 1638              	.L137:
 1639 0062 7B68     		ldr	r3, [r7, #4]
 1640 0064 1B68     		ldr	r3, [r3]
 1641 0066 DA68     		ldr	r2, [r3, #12]
 1642 0068 7B68     		ldr	r3, [r7, #4]
 1643 006a 1B68     		ldr	r3, [r3]
 1644 006c 22F00402 		bic	r2, r2, #4
 1645 0070 DA60     		str	r2, [r3, #12]
 1646 0072 14E0     		b	.L139
 1647              	.L136:
 1648 0074 7B68     		ldr	r3, [r7, #4]
 1649 0076 1B68     		ldr	r3, [r3]
 1650 0078 DA68     		ldr	r2, [r3, #12]
 1651 007a 7B68     		ldr	r3, [r7, #4]
 1652 007c 1B68     		ldr	r3, [r3]
 1653 007e 22F00802 		bic	r2, r2, #8
 1654 0082 DA60     		str	r2, [r3, #12]
 1655 0084 0BE0     		b	.L139
 1656              	.L134:
 1657 0086 7B68     		ldr	r3, [r7, #4]
 1658 0088 1B68     		ldr	r3, [r3]
 1659 008a DA68     		ldr	r2, [r3, #12]
 1660 008c 7B68     		ldr	r3, [r7, #4]
 1661 008e 1B68     		ldr	r3, [r3]
 1662 0090 22F01002 		bic	r2, r2, #16
 1663 0094 DA60     		str	r2, [r3, #12]
 1664 0096 02E0     		b	.L139
 1665              	.L133:
 1666 0098 0123     		movs	r3, #1
 1667 009a FB73     		strb	r3, [r7, #15]
 1668 009c 00BF     		nop
 1669              	.L139:
 1670 009e FB7B     		ldrb	r3, [r7, #15]	@ zero_extendqisi2
 1671 00a0 002B     		cmp	r3, #0
 1672 00a2 61D1     		bne	.L140
 1673 00a4 7B68     		ldr	r3, [r7, #4]
 1674 00a6 1B68     		ldr	r3, [r3]
 1675 00a8 0022     		movs	r2, #0
 1676 00aa 3968     		ldr	r1, [r7]
 1677 00ac 1846     		mov	r0, r3
 1678 00ae FFF7FEFF 		bl	TIM_CCxChannelCmd
 1679 00b2 7B68     		ldr	r3, [r7, #4]
 1680 00b4 1B68     		ldr	r3, [r3]
 1681 00b6 2F4A     		ldr	r2, .L152
 1682 00b8 9342     		cmp	r3, r2
 1683 00ba 04D0     		beq	.L141
 1684 00bc 7B68     		ldr	r3, [r7, #4]
 1685 00be 1B68     		ldr	r3, [r3]
 1686 00c0 2D4A     		ldr	r2, .L152+4
 1687 00c2 9342     		cmp	r3, r2
 1688 00c4 01D1     		bne	.L142
ARM GAS  C:\Users\user\AppData\Local\Temp\ccrDHgJ5.s 			page 30


 1689              	.L141:
 1690 00c6 0123     		movs	r3, #1
 1691 00c8 00E0     		b	.L143
 1692              	.L142:
 1693 00ca 0023     		movs	r3, #0
 1694              	.L143:
 1695 00cc 002B     		cmp	r3, #0
 1696 00ce 17D0     		beq	.L144
 1697 00d0 7B68     		ldr	r3, [r7, #4]
 1698 00d2 1B68     		ldr	r3, [r3]
 1699 00d4 1A6A     		ldr	r2, [r3, #32]
 1700 00d6 41F21113 		movw	r3, #4369
 1701 00da 1340     		ands	r3, r3, r2
 1702 00dc 002B     		cmp	r3, #0
 1703 00de 0FD1     		bne	.L144
 1704 00e0 7B68     		ldr	r3, [r7, #4]
 1705 00e2 1B68     		ldr	r3, [r3]
 1706 00e4 1A6A     		ldr	r2, [r3, #32]
 1707 00e6 40F24443 		movw	r3, #1092
 1708 00ea 1340     		ands	r3, r3, r2
 1709 00ec 002B     		cmp	r3, #0
 1710 00ee 07D1     		bne	.L144
 1711 00f0 7B68     		ldr	r3, [r7, #4]
 1712 00f2 1B68     		ldr	r3, [r3]
 1713 00f4 5A6C     		ldr	r2, [r3, #68]
 1714 00f6 7B68     		ldr	r3, [r7, #4]
 1715 00f8 1B68     		ldr	r3, [r3]
 1716 00fa 22F40042 		bic	r2, r2, #32768
 1717 00fe 5A64     		str	r2, [r3, #68]
 1718              	.L144:
 1719 0100 7B68     		ldr	r3, [r7, #4]
 1720 0102 1B68     		ldr	r3, [r3]
 1721 0104 1A6A     		ldr	r2, [r3, #32]
 1722 0106 41F21113 		movw	r3, #4369
 1723 010a 1340     		ands	r3, r3, r2
 1724 010c 002B     		cmp	r3, #0
 1725 010e 0FD1     		bne	.L145
 1726 0110 7B68     		ldr	r3, [r7, #4]
 1727 0112 1B68     		ldr	r3, [r3]
 1728 0114 1A6A     		ldr	r2, [r3, #32]
 1729 0116 40F24443 		movw	r3, #1092
 1730 011a 1340     		ands	r3, r3, r2
 1731 011c 002B     		cmp	r3, #0
 1732 011e 07D1     		bne	.L145
 1733 0120 7B68     		ldr	r3, [r7, #4]
 1734 0122 1B68     		ldr	r3, [r3]
 1735 0124 1A68     		ldr	r2, [r3]
 1736 0126 7B68     		ldr	r3, [r7, #4]
 1737 0128 1B68     		ldr	r3, [r3]
 1738 012a 22F00102 		bic	r2, r2, #1
 1739 012e 1A60     		str	r2, [r3]
 1740              	.L145:
 1741 0130 3B68     		ldr	r3, [r7]
 1742 0132 002B     		cmp	r3, #0
 1743 0134 04D1     		bne	.L146
 1744 0136 7B68     		ldr	r3, [r7, #4]
 1745 0138 0122     		movs	r2, #1
ARM GAS  C:\Users\user\AppData\Local\Temp\ccrDHgJ5.s 			page 31


 1746 013a 83F83E20 		strb	r2, [r3, #62]
 1747 013e 13E0     		b	.L140
 1748              	.L146:
 1749 0140 3B68     		ldr	r3, [r7]
 1750 0142 042B     		cmp	r3, #4
 1751 0144 04D1     		bne	.L147
 1752 0146 7B68     		ldr	r3, [r7, #4]
 1753 0148 0122     		movs	r2, #1
 1754 014a 83F83F20 		strb	r2, [r3, #63]
 1755 014e 0BE0     		b	.L140
 1756              	.L147:
 1757 0150 3B68     		ldr	r3, [r7]
 1758 0152 082B     		cmp	r3, #8
 1759 0154 04D1     		bne	.L149
 1760 0156 7B68     		ldr	r3, [r7, #4]
 1761 0158 0122     		movs	r2, #1
 1762 015a 83F84020 		strb	r2, [r3, #64]
 1763 015e 03E0     		b	.L140
 1764              	.L149:
 1765 0160 7B68     		ldr	r3, [r7, #4]
 1766 0162 0122     		movs	r2, #1
 1767 0164 83F84120 		strb	r2, [r3, #65]
 1768              	.L140:
 1769 0168 FB7B     		ldrb	r3, [r7, #15]	@ zero_extendqisi2
 1770 016a 1846     		mov	r0, r3
 1771 016c 1037     		adds	r7, r7, #16
 1772 016e BD46     		mov	sp, r7
 1773              		@ sp needed
 1774 0170 80BD     		pop	{r7, pc}
 1775              	.L153:
 1776 0172 00BF     		.align	2
 1777              	.L152:
 1778 0174 00000140 		.word	1073807360
 1779 0178 00040140 		.word	1073808384
 1781              		.section	.text.HAL_TIM_OC_Start_DMA,"ax",%progbits
 1782              		.align	1
 1783              		.global	HAL_TIM_OC_Start_DMA
 1784              		.syntax unified
 1785              		.thumb
 1786              		.thumb_func
 1788              	HAL_TIM_OC_Start_DMA:
 1789              		@ args = 0, pretend = 0, frame = 24
 1790              		@ frame_needed = 1, uses_anonymous_args = 0
 1791 0000 80B5     		push	{r7, lr}
 1792 0002 86B0     		sub	sp, sp, #24
 1793 0004 00AF     		add	r7, sp, #0
 1794 0006 F860     		str	r0, [r7, #12]
 1795 0008 B960     		str	r1, [r7, #8]
 1796 000a 7A60     		str	r2, [r7, #4]
 1797 000c 7B80     		strh	r3, [r7, #2]	@ movhi
 1798 000e 0023     		movs	r3, #0
 1799 0010 FB75     		strb	r3, [r7, #23]
 1800 0012 BB68     		ldr	r3, [r7, #8]
 1801 0014 002B     		cmp	r3, #0
 1802 0016 09D1     		bne	.L155
 1803 0018 FB68     		ldr	r3, [r7, #12]
 1804 001a 93F83E30 		ldrb	r3, [r3, #62]
ARM GAS  C:\Users\user\AppData\Local\Temp\ccrDHgJ5.s 			page 32


 1805 001e DBB2     		uxtb	r3, r3
 1806 0020 022B     		cmp	r3, #2
 1807 0022 0CBF     		ite	eq
 1808 0024 0123     		moveq	r3, #1
 1809 0026 0023     		movne	r3, #0
 1810 0028 DBB2     		uxtb	r3, r3
 1811 002a 22E0     		b	.L156
 1812              	.L155:
 1813 002c BB68     		ldr	r3, [r7, #8]
 1814 002e 042B     		cmp	r3, #4
 1815 0030 09D1     		bne	.L157
 1816 0032 FB68     		ldr	r3, [r7, #12]
 1817 0034 93F83F30 		ldrb	r3, [r3, #63]
 1818 0038 DBB2     		uxtb	r3, r3
 1819 003a 022B     		cmp	r3, #2
 1820 003c 0CBF     		ite	eq
 1821 003e 0123     		moveq	r3, #1
 1822 0040 0023     		movne	r3, #0
 1823 0042 DBB2     		uxtb	r3, r3
 1824 0044 15E0     		b	.L156
 1825              	.L157:
 1826 0046 BB68     		ldr	r3, [r7, #8]
 1827 0048 082B     		cmp	r3, #8
 1828 004a 09D1     		bne	.L159
 1829 004c FB68     		ldr	r3, [r7, #12]
 1830 004e 93F84030 		ldrb	r3, [r3, #64]
 1831 0052 DBB2     		uxtb	r3, r3
 1832 0054 022B     		cmp	r3, #2
 1833 0056 0CBF     		ite	eq
 1834 0058 0123     		moveq	r3, #1
 1835 005a 0023     		movne	r3, #0
 1836 005c DBB2     		uxtb	r3, r3
 1837 005e 08E0     		b	.L156
 1838              	.L159:
 1839 0060 FB68     		ldr	r3, [r7, #12]
 1840 0062 93F84130 		ldrb	r3, [r3, #65]
 1841 0066 DBB2     		uxtb	r3, r3
 1842 0068 022B     		cmp	r3, #2
 1843 006a 0CBF     		ite	eq
 1844 006c 0123     		moveq	r3, #1
 1845 006e 0023     		movne	r3, #0
 1846 0070 DBB2     		uxtb	r3, r3
 1847              	.L156:
 1848 0072 002B     		cmp	r3, #0
 1849 0074 01D0     		beq	.L161
 1850 0076 0223     		movs	r3, #2
 1851 0078 71E1     		b	.L162
 1852              	.L161:
 1853 007a BB68     		ldr	r3, [r7, #8]
 1854 007c 002B     		cmp	r3, #0
 1855 007e 09D1     		bne	.L163
 1856 0080 FB68     		ldr	r3, [r7, #12]
 1857 0082 93F83E30 		ldrb	r3, [r3, #62]
 1858 0086 DBB2     		uxtb	r3, r3
 1859 0088 012B     		cmp	r3, #1
 1860 008a 0CBF     		ite	eq
 1861 008c 0123     		moveq	r3, #1
ARM GAS  C:\Users\user\AppData\Local\Temp\ccrDHgJ5.s 			page 33


 1862 008e 0023     		movne	r3, #0
 1863 0090 DBB2     		uxtb	r3, r3
 1864 0092 22E0     		b	.L164
 1865              	.L163:
 1866 0094 BB68     		ldr	r3, [r7, #8]
 1867 0096 042B     		cmp	r3, #4
 1868 0098 09D1     		bne	.L165
 1869 009a FB68     		ldr	r3, [r7, #12]
 1870 009c 93F83F30 		ldrb	r3, [r3, #63]
 1871 00a0 DBB2     		uxtb	r3, r3
 1872 00a2 012B     		cmp	r3, #1
 1873 00a4 0CBF     		ite	eq
 1874 00a6 0123     		moveq	r3, #1
 1875 00a8 0023     		movne	r3, #0
 1876 00aa DBB2     		uxtb	r3, r3
 1877 00ac 15E0     		b	.L164
 1878              	.L165:
 1879 00ae BB68     		ldr	r3, [r7, #8]
 1880 00b0 082B     		cmp	r3, #8
 1881 00b2 09D1     		bne	.L167
 1882 00b4 FB68     		ldr	r3, [r7, #12]
 1883 00b6 93F84030 		ldrb	r3, [r3, #64]
 1884 00ba DBB2     		uxtb	r3, r3
 1885 00bc 012B     		cmp	r3, #1
 1886 00be 0CBF     		ite	eq
 1887 00c0 0123     		moveq	r3, #1
 1888 00c2 0023     		movne	r3, #0
 1889 00c4 DBB2     		uxtb	r3, r3
 1890 00c6 08E0     		b	.L164
 1891              	.L167:
 1892 00c8 FB68     		ldr	r3, [r7, #12]
 1893 00ca 93F84130 		ldrb	r3, [r3, #65]
 1894 00ce DBB2     		uxtb	r3, r3
 1895 00d0 012B     		cmp	r3, #1
 1896 00d2 0CBF     		ite	eq
 1897 00d4 0123     		moveq	r3, #1
 1898 00d6 0023     		movne	r3, #0
 1899 00d8 DBB2     		uxtb	r3, r3
 1900              	.L164:
 1901 00da 002B     		cmp	r3, #0
 1902 00dc 24D0     		beq	.L169
 1903 00de 7B68     		ldr	r3, [r7, #4]
 1904 00e0 002B     		cmp	r3, #0
 1905 00e2 04D1     		bne	.L170
 1906 00e4 7B88     		ldrh	r3, [r7, #2]
 1907 00e6 002B     		cmp	r3, #0
 1908 00e8 01D0     		beq	.L170
 1909 00ea 0123     		movs	r3, #1
 1910 00ec 37E1     		b	.L162
 1911              	.L170:
 1912 00ee BB68     		ldr	r3, [r7, #8]
 1913 00f0 002B     		cmp	r3, #0
 1914 00f2 04D1     		bne	.L171
 1915 00f4 FB68     		ldr	r3, [r7, #12]
 1916 00f6 0222     		movs	r2, #2
 1917 00f8 83F83E20 		strb	r2, [r3, #62]
 1918 00fc 16E0     		b	.L172
ARM GAS  C:\Users\user\AppData\Local\Temp\ccrDHgJ5.s 			page 34


 1919              	.L171:
 1920 00fe BB68     		ldr	r3, [r7, #8]
 1921 0100 042B     		cmp	r3, #4
 1922 0102 04D1     		bne	.L173
 1923 0104 FB68     		ldr	r3, [r7, #12]
 1924 0106 0222     		movs	r2, #2
 1925 0108 83F83F20 		strb	r2, [r3, #63]
 1926 010c 0EE0     		b	.L172
 1927              	.L173:
 1928 010e BB68     		ldr	r3, [r7, #8]
 1929 0110 082B     		cmp	r3, #8
 1930 0112 04D1     		bne	.L175
 1931 0114 FB68     		ldr	r3, [r7, #12]
 1932 0116 0222     		movs	r2, #2
 1933 0118 83F84020 		strb	r2, [r3, #64]
 1934 011c 06E0     		b	.L172
 1935              	.L175:
 1936 011e FB68     		ldr	r3, [r7, #12]
 1937 0120 0222     		movs	r2, #2
 1938 0122 83F84120 		strb	r2, [r3, #65]
 1939 0126 01E0     		b	.L172
 1940              	.L169:
 1941 0128 0123     		movs	r3, #1
 1942 012a 18E1     		b	.L162
 1943              	.L172:
 1944 012c BB68     		ldr	r3, [r7, #8]
 1945 012e 0C2B     		cmp	r3, #12
 1946 0130 00F2AE80 		bhi	.L177
 1947 0134 01A2     		adr	r2, .L179
 1948 0136 52F823F0 		ldr	pc, [r2, r3, lsl #2]
 1949 013a 00BF     		.p2align 2
 1950              	.L179:
 1951 013c 71010000 		.word	.L182+1
 1952 0140 91020000 		.word	.L177+1
 1953 0144 91020000 		.word	.L177+1
 1954 0148 91020000 		.word	.L177+1
 1955 014c B9010000 		.word	.L181+1
 1956 0150 91020000 		.word	.L177+1
 1957 0154 91020000 		.word	.L177+1
 1958 0158 91020000 		.word	.L177+1
 1959 015c 01020000 		.word	.L180+1
 1960 0160 91020000 		.word	.L177+1
 1961 0164 91020000 		.word	.L177+1
 1962 0168 91020000 		.word	.L177+1
 1963 016c 49020000 		.word	.L178+1
 1964              		.p2align 1
 1965              	.L182:
 1966 0170 FB68     		ldr	r3, [r7, #12]
 1967 0172 5B6A     		ldr	r3, [r3, #36]
 1968 0174 7C4A     		ldr	r2, .L196
 1969 0176 DA63     		str	r2, [r3, #60]
 1970 0178 FB68     		ldr	r3, [r7, #12]
 1971 017a 5B6A     		ldr	r3, [r3, #36]
 1972 017c 7B4A     		ldr	r2, .L196+4
 1973 017e 1A64     		str	r2, [r3, #64]
 1974 0180 FB68     		ldr	r3, [r7, #12]
 1975 0182 5B6A     		ldr	r3, [r3, #36]
ARM GAS  C:\Users\user\AppData\Local\Temp\ccrDHgJ5.s 			page 35


 1976 0184 7A4A     		ldr	r2, .L196+8
 1977 0186 DA64     		str	r2, [r3, #76]
 1978 0188 FB68     		ldr	r3, [r7, #12]
 1979 018a 586A     		ldr	r0, [r3, #36]
 1980 018c 7968     		ldr	r1, [r7, #4]
 1981 018e FB68     		ldr	r3, [r7, #12]
 1982 0190 1B68     		ldr	r3, [r3]
 1983 0192 3433     		adds	r3, r3, #52
 1984 0194 1A46     		mov	r2, r3
 1985 0196 7B88     		ldrh	r3, [r7, #2]
 1986 0198 FFF7FEFF 		bl	HAL_DMA_Start_IT
 1987 019c 0346     		mov	r3, r0
 1988 019e 002B     		cmp	r3, #0
 1989 01a0 01D0     		beq	.L183
 1990 01a2 0123     		movs	r3, #1
 1991 01a4 DBE0     		b	.L162
 1992              	.L183:
 1993 01a6 FB68     		ldr	r3, [r7, #12]
 1994 01a8 1B68     		ldr	r3, [r3]
 1995 01aa DA68     		ldr	r2, [r3, #12]
 1996 01ac FB68     		ldr	r3, [r7, #12]
 1997 01ae 1B68     		ldr	r3, [r3]
 1998 01b0 42F40072 		orr	r2, r2, #512
 1999 01b4 DA60     		str	r2, [r3, #12]
 2000 01b6 6EE0     		b	.L184
 2001              	.L181:
 2002 01b8 FB68     		ldr	r3, [r7, #12]
 2003 01ba 9B6A     		ldr	r3, [r3, #40]
 2004 01bc 6A4A     		ldr	r2, .L196
 2005 01be DA63     		str	r2, [r3, #60]
 2006 01c0 FB68     		ldr	r3, [r7, #12]
 2007 01c2 9B6A     		ldr	r3, [r3, #40]
 2008 01c4 694A     		ldr	r2, .L196+4
 2009 01c6 1A64     		str	r2, [r3, #64]
 2010 01c8 FB68     		ldr	r3, [r7, #12]
 2011 01ca 9B6A     		ldr	r3, [r3, #40]
 2012 01cc 684A     		ldr	r2, .L196+8
 2013 01ce DA64     		str	r2, [r3, #76]
 2014 01d0 FB68     		ldr	r3, [r7, #12]
 2015 01d2 986A     		ldr	r0, [r3, #40]
 2016 01d4 7968     		ldr	r1, [r7, #4]
 2017 01d6 FB68     		ldr	r3, [r7, #12]
 2018 01d8 1B68     		ldr	r3, [r3]
 2019 01da 3833     		adds	r3, r3, #56
 2020 01dc 1A46     		mov	r2, r3
 2021 01de 7B88     		ldrh	r3, [r7, #2]
 2022 01e0 FFF7FEFF 		bl	HAL_DMA_Start_IT
 2023 01e4 0346     		mov	r3, r0
 2024 01e6 002B     		cmp	r3, #0
 2025 01e8 01D0     		beq	.L185
 2026 01ea 0123     		movs	r3, #1
 2027 01ec B7E0     		b	.L162
 2028              	.L185:
 2029 01ee FB68     		ldr	r3, [r7, #12]
 2030 01f0 1B68     		ldr	r3, [r3]
 2031 01f2 DA68     		ldr	r2, [r3, #12]
 2032 01f4 FB68     		ldr	r3, [r7, #12]
ARM GAS  C:\Users\user\AppData\Local\Temp\ccrDHgJ5.s 			page 36


 2033 01f6 1B68     		ldr	r3, [r3]
 2034 01f8 42F48062 		orr	r2, r2, #1024
 2035 01fc DA60     		str	r2, [r3, #12]
 2036 01fe 4AE0     		b	.L184
 2037              	.L180:
 2038 0200 FB68     		ldr	r3, [r7, #12]
 2039 0202 DB6A     		ldr	r3, [r3, #44]
 2040 0204 584A     		ldr	r2, .L196
 2041 0206 DA63     		str	r2, [r3, #60]
 2042 0208 FB68     		ldr	r3, [r7, #12]
 2043 020a DB6A     		ldr	r3, [r3, #44]
 2044 020c 574A     		ldr	r2, .L196+4
 2045 020e 1A64     		str	r2, [r3, #64]
 2046 0210 FB68     		ldr	r3, [r7, #12]
 2047 0212 DB6A     		ldr	r3, [r3, #44]
 2048 0214 564A     		ldr	r2, .L196+8
 2049 0216 DA64     		str	r2, [r3, #76]
 2050 0218 FB68     		ldr	r3, [r7, #12]
 2051 021a D86A     		ldr	r0, [r3, #44]
 2052 021c 7968     		ldr	r1, [r7, #4]
 2053 021e FB68     		ldr	r3, [r7, #12]
 2054 0220 1B68     		ldr	r3, [r3]
 2055 0222 3C33     		adds	r3, r3, #60
 2056 0224 1A46     		mov	r2, r3
 2057 0226 7B88     		ldrh	r3, [r7, #2]
 2058 0228 FFF7FEFF 		bl	HAL_DMA_Start_IT
 2059 022c 0346     		mov	r3, r0
 2060 022e 002B     		cmp	r3, #0
 2061 0230 01D0     		beq	.L186
 2062 0232 0123     		movs	r3, #1
 2063 0234 93E0     		b	.L162
 2064              	.L186:
 2065 0236 FB68     		ldr	r3, [r7, #12]
 2066 0238 1B68     		ldr	r3, [r3]
 2067 023a DA68     		ldr	r2, [r3, #12]
 2068 023c FB68     		ldr	r3, [r7, #12]
 2069 023e 1B68     		ldr	r3, [r3]
 2070 0240 42F40062 		orr	r2, r2, #2048
 2071 0244 DA60     		str	r2, [r3, #12]
 2072 0246 26E0     		b	.L184
 2073              	.L178:
 2074 0248 FB68     		ldr	r3, [r7, #12]
 2075 024a 1B6B     		ldr	r3, [r3, #48]
 2076 024c 464A     		ldr	r2, .L196
 2077 024e DA63     		str	r2, [r3, #60]
 2078 0250 FB68     		ldr	r3, [r7, #12]
 2079 0252 1B6B     		ldr	r3, [r3, #48]
 2080 0254 454A     		ldr	r2, .L196+4
 2081 0256 1A64     		str	r2, [r3, #64]
 2082 0258 FB68     		ldr	r3, [r7, #12]
 2083 025a 1B6B     		ldr	r3, [r3, #48]
 2084 025c 444A     		ldr	r2, .L196+8
 2085 025e DA64     		str	r2, [r3, #76]
 2086 0260 FB68     		ldr	r3, [r7, #12]
 2087 0262 186B     		ldr	r0, [r3, #48]
 2088 0264 7968     		ldr	r1, [r7, #4]
 2089 0266 FB68     		ldr	r3, [r7, #12]
ARM GAS  C:\Users\user\AppData\Local\Temp\ccrDHgJ5.s 			page 37


 2090 0268 1B68     		ldr	r3, [r3]
 2091 026a 4033     		adds	r3, r3, #64
 2092 026c 1A46     		mov	r2, r3
 2093 026e 7B88     		ldrh	r3, [r7, #2]
 2094 0270 FFF7FEFF 		bl	HAL_DMA_Start_IT
 2095 0274 0346     		mov	r3, r0
 2096 0276 002B     		cmp	r3, #0
 2097 0278 01D0     		beq	.L187
 2098 027a 0123     		movs	r3, #1
 2099 027c 6FE0     		b	.L162
 2100              	.L187:
 2101 027e FB68     		ldr	r3, [r7, #12]
 2102 0280 1B68     		ldr	r3, [r3]
 2103 0282 DA68     		ldr	r2, [r3, #12]
 2104 0284 FB68     		ldr	r3, [r7, #12]
 2105 0286 1B68     		ldr	r3, [r3]
 2106 0288 42F48052 		orr	r2, r2, #4096
 2107 028c DA60     		str	r2, [r3, #12]
 2108 028e 02E0     		b	.L184
 2109              	.L177:
 2110 0290 0123     		movs	r3, #1
 2111 0292 FB75     		strb	r3, [r7, #23]
 2112 0294 00BF     		nop
 2113              	.L184:
 2114 0296 FB7D     		ldrb	r3, [r7, #23]	@ zero_extendqisi2
 2115 0298 002B     		cmp	r3, #0
 2116 029a 5FD1     		bne	.L188
 2117 029c FB68     		ldr	r3, [r7, #12]
 2118 029e 1B68     		ldr	r3, [r3]
 2119 02a0 0122     		movs	r2, #1
 2120 02a2 B968     		ldr	r1, [r7, #8]
 2121 02a4 1846     		mov	r0, r3
 2122 02a6 FFF7FEFF 		bl	TIM_CCxChannelCmd
 2123 02aa FB68     		ldr	r3, [r7, #12]
 2124 02ac 1B68     		ldr	r3, [r3]
 2125 02ae 314A     		ldr	r2, .L196+12
 2126 02b0 9342     		cmp	r3, r2
 2127 02b2 04D0     		beq	.L189
 2128 02b4 FB68     		ldr	r3, [r7, #12]
 2129 02b6 1B68     		ldr	r3, [r3]
 2130 02b8 2F4A     		ldr	r2, .L196+16
 2131 02ba 9342     		cmp	r3, r2
 2132 02bc 01D1     		bne	.L190
 2133              	.L189:
 2134 02be 0123     		movs	r3, #1
 2135 02c0 00E0     		b	.L191
 2136              	.L190:
 2137 02c2 0023     		movs	r3, #0
 2138              	.L191:
 2139 02c4 002B     		cmp	r3, #0
 2140 02c6 07D0     		beq	.L192
 2141 02c8 FB68     		ldr	r3, [r7, #12]
 2142 02ca 1B68     		ldr	r3, [r3]
 2143 02cc 5A6C     		ldr	r2, [r3, #68]
 2144 02ce FB68     		ldr	r3, [r7, #12]
 2145 02d0 1B68     		ldr	r3, [r3]
 2146 02d2 42F40042 		orr	r2, r2, #32768
ARM GAS  C:\Users\user\AppData\Local\Temp\ccrDHgJ5.s 			page 38


 2147 02d6 5A64     		str	r2, [r3, #68]
 2148              	.L192:
 2149 02d8 FB68     		ldr	r3, [r7, #12]
 2150 02da 1B68     		ldr	r3, [r3]
 2151 02dc 254A     		ldr	r2, .L196+12
 2152 02de 9342     		cmp	r3, r2
 2153 02e0 22D0     		beq	.L193
 2154 02e2 FB68     		ldr	r3, [r7, #12]
 2155 02e4 1B68     		ldr	r3, [r3]
 2156 02e6 B3F1804F 		cmp	r3, #1073741824
 2157 02ea 1DD0     		beq	.L193
 2158 02ec FB68     		ldr	r3, [r7, #12]
 2159 02ee 1B68     		ldr	r3, [r3]
 2160 02f0 224A     		ldr	r2, .L196+20
 2161 02f2 9342     		cmp	r3, r2
 2162 02f4 18D0     		beq	.L193
 2163 02f6 FB68     		ldr	r3, [r7, #12]
 2164 02f8 1B68     		ldr	r3, [r3]
 2165 02fa 214A     		ldr	r2, .L196+24
 2166 02fc 9342     		cmp	r3, r2
 2167 02fe 13D0     		beq	.L193
 2168 0300 FB68     		ldr	r3, [r7, #12]
 2169 0302 1B68     		ldr	r3, [r3]
 2170 0304 1F4A     		ldr	r2, .L196+28
 2171 0306 9342     		cmp	r3, r2
 2172 0308 0ED0     		beq	.L193
 2173 030a FB68     		ldr	r3, [r7, #12]
 2174 030c 1B68     		ldr	r3, [r3]
 2175 030e 1A4A     		ldr	r2, .L196+16
 2176 0310 9342     		cmp	r3, r2
 2177 0312 09D0     		beq	.L193
 2178 0314 FB68     		ldr	r3, [r7, #12]
 2179 0316 1B68     		ldr	r3, [r3]
 2180 0318 1B4A     		ldr	r2, .L196+32
 2181 031a 9342     		cmp	r3, r2
 2182 031c 04D0     		beq	.L193
 2183 031e FB68     		ldr	r3, [r7, #12]
 2184 0320 1B68     		ldr	r3, [r3]
 2185 0322 1A4A     		ldr	r2, .L196+36
 2186 0324 9342     		cmp	r3, r2
 2187 0326 11D1     		bne	.L194
 2188              	.L193:
 2189 0328 FB68     		ldr	r3, [r7, #12]
 2190 032a 1B68     		ldr	r3, [r3]
 2191 032c 9B68     		ldr	r3, [r3, #8]
 2192 032e 03F00703 		and	r3, r3, #7
 2193 0332 3B61     		str	r3, [r7, #16]
 2194 0334 3B69     		ldr	r3, [r7, #16]
 2195 0336 062B     		cmp	r3, #6
 2196 0338 10D0     		beq	.L188
 2197 033a FB68     		ldr	r3, [r7, #12]
 2198 033c 1B68     		ldr	r3, [r3]
 2199 033e 1A68     		ldr	r2, [r3]
 2200 0340 FB68     		ldr	r3, [r7, #12]
 2201 0342 1B68     		ldr	r3, [r3]
 2202 0344 42F00102 		orr	r2, r2, #1
 2203 0348 1A60     		str	r2, [r3]
ARM GAS  C:\Users\user\AppData\Local\Temp\ccrDHgJ5.s 			page 39


 2204 034a 07E0     		b	.L188
 2205              	.L194:
 2206 034c FB68     		ldr	r3, [r7, #12]
 2207 034e 1B68     		ldr	r3, [r3]
 2208 0350 1A68     		ldr	r2, [r3]
 2209 0352 FB68     		ldr	r3, [r7, #12]
 2210 0354 1B68     		ldr	r3, [r3]
 2211 0356 42F00102 		orr	r2, r2, #1
 2212 035a 1A60     		str	r2, [r3]
 2213              	.L188:
 2214 035c FB7D     		ldrb	r3, [r7, #23]	@ zero_extendqisi2
 2215              	.L162:
 2216 035e 1846     		mov	r0, r3
 2217 0360 1837     		adds	r7, r7, #24
 2218 0362 BD46     		mov	sp, r7
 2219              		@ sp needed
 2220 0364 80BD     		pop	{r7, pc}
 2221              	.L197:
 2222 0366 00BF     		.align	2
 2223              	.L196:
 2224 0368 00000000 		.word	TIM_DMADelayPulseCplt
 2225 036c 00000000 		.word	TIM_DMADelayPulseHalfCplt
 2226 0370 00000000 		.word	TIM_DMAError
 2227 0374 00000140 		.word	1073807360
 2228 0378 00040140 		.word	1073808384
 2229 037c 00040040 		.word	1073742848
 2230 0380 00080040 		.word	1073743872
 2231 0384 000C0040 		.word	1073744896
 2232 0388 00400140 		.word	1073823744
 2233 038c 00180040 		.word	1073747968
 2235              		.section	.text.HAL_TIM_OC_Stop_DMA,"ax",%progbits
 2236              		.align	1
 2237              		.global	HAL_TIM_OC_Stop_DMA
 2238              		.syntax unified
 2239              		.thumb
 2240              		.thumb_func
 2242              	HAL_TIM_OC_Stop_DMA:
 2243              		@ args = 0, pretend = 0, frame = 16
 2244              		@ frame_needed = 1, uses_anonymous_args = 0
 2245 0000 80B5     		push	{r7, lr}
 2246 0002 84B0     		sub	sp, sp, #16
 2247 0004 00AF     		add	r7, sp, #0
 2248 0006 7860     		str	r0, [r7, #4]
 2249 0008 3960     		str	r1, [r7]
 2250 000a 0023     		movs	r3, #0
 2251 000c FB73     		strb	r3, [r7, #15]
 2252 000e 3B68     		ldr	r3, [r7]
 2253 0010 0C2B     		cmp	r3, #12
 2254 0012 55D8     		bhi	.L199
 2255 0014 01A2     		adr	r2, .L201
 2256 0016 52F823F0 		ldr	pc, [r2, r3, lsl #2]
 2257 001a 00BF     		.p2align 2
 2258              	.L201:
 2259 001c 51000000 		.word	.L204+1
 2260 0020 C1000000 		.word	.L199+1
 2261 0024 C1000000 		.word	.L199+1
 2262 0028 C1000000 		.word	.L199+1
ARM GAS  C:\Users\user\AppData\Local\Temp\ccrDHgJ5.s 			page 40


 2263 002c 6D000000 		.word	.L203+1
 2264 0030 C1000000 		.word	.L199+1
 2265 0034 C1000000 		.word	.L199+1
 2266 0038 C1000000 		.word	.L199+1
 2267 003c 89000000 		.word	.L202+1
 2268 0040 C1000000 		.word	.L199+1
 2269 0044 C1000000 		.word	.L199+1
 2270 0048 C1000000 		.word	.L199+1
 2271 004c A5000000 		.word	.L200+1
 2272              		.p2align 1
 2273              	.L204:
 2274 0050 7B68     		ldr	r3, [r7, #4]
 2275 0052 1B68     		ldr	r3, [r3]
 2276 0054 DA68     		ldr	r2, [r3, #12]
 2277 0056 7B68     		ldr	r3, [r7, #4]
 2278 0058 1B68     		ldr	r3, [r3]
 2279 005a 22F40072 		bic	r2, r2, #512
 2280 005e DA60     		str	r2, [r3, #12]
 2281 0060 7B68     		ldr	r3, [r7, #4]
 2282 0062 5B6A     		ldr	r3, [r3, #36]
 2283 0064 1846     		mov	r0, r3
 2284 0066 FFF7FEFF 		bl	HAL_DMA_Abort_IT
 2285 006a 2CE0     		b	.L205
 2286              	.L203:
 2287 006c 7B68     		ldr	r3, [r7, #4]
 2288 006e 1B68     		ldr	r3, [r3]
 2289 0070 DA68     		ldr	r2, [r3, #12]
 2290 0072 7B68     		ldr	r3, [r7, #4]
 2291 0074 1B68     		ldr	r3, [r3]
 2292 0076 22F48062 		bic	r2, r2, #1024
 2293 007a DA60     		str	r2, [r3, #12]
 2294 007c 7B68     		ldr	r3, [r7, #4]
 2295 007e 9B6A     		ldr	r3, [r3, #40]
 2296 0080 1846     		mov	r0, r3
 2297 0082 FFF7FEFF 		bl	HAL_DMA_Abort_IT
 2298 0086 1EE0     		b	.L205
 2299              	.L202:
 2300 0088 7B68     		ldr	r3, [r7, #4]
 2301 008a 1B68     		ldr	r3, [r3]
 2302 008c DA68     		ldr	r2, [r3, #12]
 2303 008e 7B68     		ldr	r3, [r7, #4]
 2304 0090 1B68     		ldr	r3, [r3]
 2305 0092 22F40062 		bic	r2, r2, #2048
 2306 0096 DA60     		str	r2, [r3, #12]
 2307 0098 7B68     		ldr	r3, [r7, #4]
 2308 009a DB6A     		ldr	r3, [r3, #44]
 2309 009c 1846     		mov	r0, r3
 2310 009e FFF7FEFF 		bl	HAL_DMA_Abort_IT
 2311 00a2 10E0     		b	.L205
 2312              	.L200:
 2313 00a4 7B68     		ldr	r3, [r7, #4]
 2314 00a6 1B68     		ldr	r3, [r3]
 2315 00a8 DA68     		ldr	r2, [r3, #12]
 2316 00aa 7B68     		ldr	r3, [r7, #4]
 2317 00ac 1B68     		ldr	r3, [r3]
 2318 00ae 22F48052 		bic	r2, r2, #4096
 2319 00b2 DA60     		str	r2, [r3, #12]
ARM GAS  C:\Users\user\AppData\Local\Temp\ccrDHgJ5.s 			page 41


 2320 00b4 7B68     		ldr	r3, [r7, #4]
 2321 00b6 1B6B     		ldr	r3, [r3, #48]
 2322 00b8 1846     		mov	r0, r3
 2323 00ba FFF7FEFF 		bl	HAL_DMA_Abort_IT
 2324 00be 02E0     		b	.L205
 2325              	.L199:
 2326 00c0 0123     		movs	r3, #1
 2327 00c2 FB73     		strb	r3, [r7, #15]
 2328 00c4 00BF     		nop
 2329              	.L205:
 2330 00c6 FB7B     		ldrb	r3, [r7, #15]	@ zero_extendqisi2
 2331 00c8 002B     		cmp	r3, #0
 2332 00ca 61D1     		bne	.L206
 2333 00cc 7B68     		ldr	r3, [r7, #4]
 2334 00ce 1B68     		ldr	r3, [r3]
 2335 00d0 0022     		movs	r2, #0
 2336 00d2 3968     		ldr	r1, [r7]
 2337 00d4 1846     		mov	r0, r3
 2338 00d6 FFF7FEFF 		bl	TIM_CCxChannelCmd
 2339 00da 7B68     		ldr	r3, [r7, #4]
 2340 00dc 1B68     		ldr	r3, [r3]
 2341 00de 2F4A     		ldr	r2, .L218
 2342 00e0 9342     		cmp	r3, r2
 2343 00e2 04D0     		beq	.L207
 2344 00e4 7B68     		ldr	r3, [r7, #4]
 2345 00e6 1B68     		ldr	r3, [r3]
 2346 00e8 2D4A     		ldr	r2, .L218+4
 2347 00ea 9342     		cmp	r3, r2
 2348 00ec 01D1     		bne	.L208
 2349              	.L207:
 2350 00ee 0123     		movs	r3, #1
 2351 00f0 00E0     		b	.L209
 2352              	.L208:
 2353 00f2 0023     		movs	r3, #0
 2354              	.L209:
 2355 00f4 002B     		cmp	r3, #0
 2356 00f6 17D0     		beq	.L210
 2357 00f8 7B68     		ldr	r3, [r7, #4]
 2358 00fa 1B68     		ldr	r3, [r3]
 2359 00fc 1A6A     		ldr	r2, [r3, #32]
 2360 00fe 41F21113 		movw	r3, #4369
 2361 0102 1340     		ands	r3, r3, r2
 2362 0104 002B     		cmp	r3, #0
 2363 0106 0FD1     		bne	.L210
 2364 0108 7B68     		ldr	r3, [r7, #4]
 2365 010a 1B68     		ldr	r3, [r3]
 2366 010c 1A6A     		ldr	r2, [r3, #32]
 2367 010e 40F24443 		movw	r3, #1092
 2368 0112 1340     		ands	r3, r3, r2
 2369 0114 002B     		cmp	r3, #0
 2370 0116 07D1     		bne	.L210
 2371 0118 7B68     		ldr	r3, [r7, #4]
 2372 011a 1B68     		ldr	r3, [r3]
 2373 011c 5A6C     		ldr	r2, [r3, #68]
 2374 011e 7B68     		ldr	r3, [r7, #4]
 2375 0120 1B68     		ldr	r3, [r3]
 2376 0122 22F40042 		bic	r2, r2, #32768
ARM GAS  C:\Users\user\AppData\Local\Temp\ccrDHgJ5.s 			page 42


 2377 0126 5A64     		str	r2, [r3, #68]
 2378              	.L210:
 2379 0128 7B68     		ldr	r3, [r7, #4]
 2380 012a 1B68     		ldr	r3, [r3]
 2381 012c 1A6A     		ldr	r2, [r3, #32]
 2382 012e 41F21113 		movw	r3, #4369
 2383 0132 1340     		ands	r3, r3, r2
 2384 0134 002B     		cmp	r3, #0
 2385 0136 0FD1     		bne	.L211
 2386 0138 7B68     		ldr	r3, [r7, #4]
 2387 013a 1B68     		ldr	r3, [r3]
 2388 013c 1A6A     		ldr	r2, [r3, #32]
 2389 013e 40F24443 		movw	r3, #1092
 2390 0142 1340     		ands	r3, r3, r2
 2391 0144 002B     		cmp	r3, #0
 2392 0146 07D1     		bne	.L211
 2393 0148 7B68     		ldr	r3, [r7, #4]
 2394 014a 1B68     		ldr	r3, [r3]
 2395 014c 1A68     		ldr	r2, [r3]
 2396 014e 7B68     		ldr	r3, [r7, #4]
 2397 0150 1B68     		ldr	r3, [r3]
 2398 0152 22F00102 		bic	r2, r2, #1
 2399 0156 1A60     		str	r2, [r3]
 2400              	.L211:
 2401 0158 3B68     		ldr	r3, [r7]
 2402 015a 002B     		cmp	r3, #0
 2403 015c 04D1     		bne	.L212
 2404 015e 7B68     		ldr	r3, [r7, #4]
 2405 0160 0122     		movs	r2, #1
 2406 0162 83F83E20 		strb	r2, [r3, #62]
 2407 0166 13E0     		b	.L206
 2408              	.L212:
 2409 0168 3B68     		ldr	r3, [r7]
 2410 016a 042B     		cmp	r3, #4
 2411 016c 04D1     		bne	.L213
 2412 016e 7B68     		ldr	r3, [r7, #4]
 2413 0170 0122     		movs	r2, #1
 2414 0172 83F83F20 		strb	r2, [r3, #63]
 2415 0176 0BE0     		b	.L206
 2416              	.L213:
 2417 0178 3B68     		ldr	r3, [r7]
 2418 017a 082B     		cmp	r3, #8
 2419 017c 04D1     		bne	.L215
 2420 017e 7B68     		ldr	r3, [r7, #4]
 2421 0180 0122     		movs	r2, #1
 2422 0182 83F84020 		strb	r2, [r3, #64]
 2423 0186 03E0     		b	.L206
 2424              	.L215:
 2425 0188 7B68     		ldr	r3, [r7, #4]
 2426 018a 0122     		movs	r2, #1
 2427 018c 83F84120 		strb	r2, [r3, #65]
 2428              	.L206:
 2429 0190 FB7B     		ldrb	r3, [r7, #15]	@ zero_extendqisi2
 2430 0192 1846     		mov	r0, r3
 2431 0194 1037     		adds	r7, r7, #16
 2432 0196 BD46     		mov	sp, r7
 2433              		@ sp needed
ARM GAS  C:\Users\user\AppData\Local\Temp\ccrDHgJ5.s 			page 43


 2434 0198 80BD     		pop	{r7, pc}
 2435              	.L219:
 2436 019a 00BF     		.align	2
 2437              	.L218:
 2438 019c 00000140 		.word	1073807360
 2439 01a0 00040140 		.word	1073808384
 2441              		.section	.text.HAL_TIM_PWM_Init,"ax",%progbits
 2442              		.align	1
 2443              		.global	HAL_TIM_PWM_Init
 2444              		.syntax unified
 2445              		.thumb
 2446              		.thumb_func
 2448              	HAL_TIM_PWM_Init:
 2449              		@ args = 0, pretend = 0, frame = 8
 2450              		@ frame_needed = 1, uses_anonymous_args = 0
 2451 0000 80B5     		push	{r7, lr}
 2452 0002 82B0     		sub	sp, sp, #8
 2453 0004 00AF     		add	r7, sp, #0
 2454 0006 7860     		str	r0, [r7, #4]
 2455 0008 7B68     		ldr	r3, [r7, #4]
 2456 000a 002B     		cmp	r3, #0
 2457 000c 01D1     		bne	.L221
 2458 000e 0123     		movs	r3, #1
 2459 0010 41E0     		b	.L222
 2460              	.L221:
 2461 0012 7B68     		ldr	r3, [r7, #4]
 2462 0014 93F83D30 		ldrb	r3, [r3, #61]
 2463 0018 DBB2     		uxtb	r3, r3
 2464 001a 002B     		cmp	r3, #0
 2465 001c 06D1     		bne	.L223
 2466 001e 7B68     		ldr	r3, [r7, #4]
 2467 0020 0022     		movs	r2, #0
 2468 0022 83F83C20 		strb	r2, [r3, #60]
 2469 0026 7868     		ldr	r0, [r7, #4]
 2470 0028 FFF7FEFF 		bl	HAL_TIM_PWM_MspInit
 2471              	.L223:
 2472 002c 7B68     		ldr	r3, [r7, #4]
 2473 002e 0222     		movs	r2, #2
 2474 0030 83F83D20 		strb	r2, [r3, #61]
 2475 0034 7B68     		ldr	r3, [r7, #4]
 2476 0036 1A68     		ldr	r2, [r3]
 2477 0038 7B68     		ldr	r3, [r7, #4]
 2478 003a 0433     		adds	r3, r3, #4
 2479 003c 1946     		mov	r1, r3
 2480 003e 1046     		mov	r0, r2
 2481 0040 FFF7FEFF 		bl	TIM_Base_SetConfig
 2482 0044 7B68     		ldr	r3, [r7, #4]
 2483 0046 0122     		movs	r2, #1
 2484 0048 83F84620 		strb	r2, [r3, #70]
 2485 004c 7B68     		ldr	r3, [r7, #4]
 2486 004e 0122     		movs	r2, #1
 2487 0050 83F83E20 		strb	r2, [r3, #62]
 2488 0054 7B68     		ldr	r3, [r7, #4]
 2489 0056 0122     		movs	r2, #1
 2490 0058 83F83F20 		strb	r2, [r3, #63]
 2491 005c 7B68     		ldr	r3, [r7, #4]
 2492 005e 0122     		movs	r2, #1
ARM GAS  C:\Users\user\AppData\Local\Temp\ccrDHgJ5.s 			page 44


 2493 0060 83F84020 		strb	r2, [r3, #64]
 2494 0064 7B68     		ldr	r3, [r7, #4]
 2495 0066 0122     		movs	r2, #1
 2496 0068 83F84120 		strb	r2, [r3, #65]
 2497 006c 7B68     		ldr	r3, [r7, #4]
 2498 006e 0122     		movs	r2, #1
 2499 0070 83F84220 		strb	r2, [r3, #66]
 2500 0074 7B68     		ldr	r3, [r7, #4]
 2501 0076 0122     		movs	r2, #1
 2502 0078 83F84320 		strb	r2, [r3, #67]
 2503 007c 7B68     		ldr	r3, [r7, #4]
 2504 007e 0122     		movs	r2, #1
 2505 0080 83F84420 		strb	r2, [r3, #68]
 2506 0084 7B68     		ldr	r3, [r7, #4]
 2507 0086 0122     		movs	r2, #1
 2508 0088 83F84520 		strb	r2, [r3, #69]
 2509 008c 7B68     		ldr	r3, [r7, #4]
 2510 008e 0122     		movs	r2, #1
 2511 0090 83F83D20 		strb	r2, [r3, #61]
 2512 0094 0023     		movs	r3, #0
 2513              	.L222:
 2514 0096 1846     		mov	r0, r3
 2515 0098 0837     		adds	r7, r7, #8
 2516 009a BD46     		mov	sp, r7
 2517              		@ sp needed
 2518 009c 80BD     		pop	{r7, pc}
 2520              		.section	.text.HAL_TIM_PWM_DeInit,"ax",%progbits
 2521              		.align	1
 2522              		.global	HAL_TIM_PWM_DeInit
 2523              		.syntax unified
 2524              		.thumb
 2525              		.thumb_func
 2527              	HAL_TIM_PWM_DeInit:
 2528              		@ args = 0, pretend = 0, frame = 8
 2529              		@ frame_needed = 1, uses_anonymous_args = 0
 2530 0000 80B5     		push	{r7, lr}
 2531 0002 82B0     		sub	sp, sp, #8
 2532 0004 00AF     		add	r7, sp, #0
 2533 0006 7860     		str	r0, [r7, #4]
 2534 0008 7B68     		ldr	r3, [r7, #4]
 2535 000a 0222     		movs	r2, #2
 2536 000c 83F83D20 		strb	r2, [r3, #61]
 2537 0010 7B68     		ldr	r3, [r7, #4]
 2538 0012 1B68     		ldr	r3, [r3]
 2539 0014 1A6A     		ldr	r2, [r3, #32]
 2540 0016 41F21113 		movw	r3, #4369
 2541 001a 1340     		ands	r3, r3, r2
 2542 001c 002B     		cmp	r3, #0
 2543 001e 0FD1     		bne	.L225
 2544 0020 7B68     		ldr	r3, [r7, #4]
 2545 0022 1B68     		ldr	r3, [r3]
 2546 0024 1A6A     		ldr	r2, [r3, #32]
 2547 0026 40F24443 		movw	r3, #1092
 2548 002a 1340     		ands	r3, r3, r2
 2549 002c 002B     		cmp	r3, #0
 2550 002e 07D1     		bne	.L225
 2551 0030 7B68     		ldr	r3, [r7, #4]
ARM GAS  C:\Users\user\AppData\Local\Temp\ccrDHgJ5.s 			page 45


 2552 0032 1B68     		ldr	r3, [r3]
 2553 0034 1A68     		ldr	r2, [r3]
 2554 0036 7B68     		ldr	r3, [r7, #4]
 2555 0038 1B68     		ldr	r3, [r3]
 2556 003a 22F00102 		bic	r2, r2, #1
 2557 003e 1A60     		str	r2, [r3]
 2558              	.L225:
 2559 0040 7868     		ldr	r0, [r7, #4]
 2560 0042 FFF7FEFF 		bl	HAL_TIM_PWM_MspDeInit
 2561 0046 7B68     		ldr	r3, [r7, #4]
 2562 0048 0022     		movs	r2, #0
 2563 004a 83F84620 		strb	r2, [r3, #70]
 2564 004e 7B68     		ldr	r3, [r7, #4]
 2565 0050 0022     		movs	r2, #0
 2566 0052 83F83E20 		strb	r2, [r3, #62]
 2567 0056 7B68     		ldr	r3, [r7, #4]
 2568 0058 0022     		movs	r2, #0
 2569 005a 83F83F20 		strb	r2, [r3, #63]
 2570 005e 7B68     		ldr	r3, [r7, #4]
 2571 0060 0022     		movs	r2, #0
 2572 0062 83F84020 		strb	r2, [r3, #64]
 2573 0066 7B68     		ldr	r3, [r7, #4]
 2574 0068 0022     		movs	r2, #0
 2575 006a 83F84120 		strb	r2, [r3, #65]
 2576 006e 7B68     		ldr	r3, [r7, #4]
 2577 0070 0022     		movs	r2, #0
 2578 0072 83F84220 		strb	r2, [r3, #66]
 2579 0076 7B68     		ldr	r3, [r7, #4]
 2580 0078 0022     		movs	r2, #0
 2581 007a 83F84320 		strb	r2, [r3, #67]
 2582 007e 7B68     		ldr	r3, [r7, #4]
 2583 0080 0022     		movs	r2, #0
 2584 0082 83F84420 		strb	r2, [r3, #68]
 2585 0086 7B68     		ldr	r3, [r7, #4]
 2586 0088 0022     		movs	r2, #0
 2587 008a 83F84520 		strb	r2, [r3, #69]
 2588 008e 7B68     		ldr	r3, [r7, #4]
 2589 0090 0022     		movs	r2, #0
 2590 0092 83F83D20 		strb	r2, [r3, #61]
 2591 0096 7B68     		ldr	r3, [r7, #4]
 2592 0098 0022     		movs	r2, #0
 2593 009a 83F83C20 		strb	r2, [r3, #60]
 2594 009e 0023     		movs	r3, #0
 2595 00a0 1846     		mov	r0, r3
 2596 00a2 0837     		adds	r7, r7, #8
 2597 00a4 BD46     		mov	sp, r7
 2598              		@ sp needed
 2599 00a6 80BD     		pop	{r7, pc}
 2601              		.section	.text.HAL_TIM_PWM_MspInit,"ax",%progbits
 2602              		.align	1
 2603              		.weak	HAL_TIM_PWM_MspInit
 2604              		.syntax unified
 2605              		.thumb
 2606              		.thumb_func
 2608              	HAL_TIM_PWM_MspInit:
 2609              		@ args = 0, pretend = 0, frame = 8
 2610              		@ frame_needed = 1, uses_anonymous_args = 0
ARM GAS  C:\Users\user\AppData\Local\Temp\ccrDHgJ5.s 			page 46


 2611              		@ link register save eliminated.
 2612 0000 80B4     		push	{r7}
 2613 0002 83B0     		sub	sp, sp, #12
 2614 0004 00AF     		add	r7, sp, #0
 2615 0006 7860     		str	r0, [r7, #4]
 2616 0008 00BF     		nop
 2617 000a 0C37     		adds	r7, r7, #12
 2618 000c BD46     		mov	sp, r7
 2619              		@ sp needed
 2620 000e 5DF8047B 		ldr	r7, [sp], #4
 2621 0012 7047     		bx	lr
 2623              		.section	.text.HAL_TIM_PWM_MspDeInit,"ax",%progbits
 2624              		.align	1
 2625              		.weak	HAL_TIM_PWM_MspDeInit
 2626              		.syntax unified
 2627              		.thumb
 2628              		.thumb_func
 2630              	HAL_TIM_PWM_MspDeInit:
 2631              		@ args = 0, pretend = 0, frame = 8
 2632              		@ frame_needed = 1, uses_anonymous_args = 0
 2633              		@ link register save eliminated.
 2634 0000 80B4     		push	{r7}
 2635 0002 83B0     		sub	sp, sp, #12
 2636 0004 00AF     		add	r7, sp, #0
 2637 0006 7860     		str	r0, [r7, #4]
 2638 0008 00BF     		nop
 2639 000a 0C37     		adds	r7, r7, #12
 2640 000c BD46     		mov	sp, r7
 2641              		@ sp needed
 2642 000e 5DF8047B 		ldr	r7, [sp], #4
 2643 0012 7047     		bx	lr
 2645              		.section	.text.HAL_TIM_PWM_Start,"ax",%progbits
 2646              		.align	1
 2647              		.global	HAL_TIM_PWM_Start
 2648              		.syntax unified
 2649              		.thumb
 2650              		.thumb_func
 2652              	HAL_TIM_PWM_Start:
 2653              		@ args = 0, pretend = 0, frame = 16
 2654              		@ frame_needed = 1, uses_anonymous_args = 0
 2655 0000 80B5     		push	{r7, lr}
 2656 0002 84B0     		sub	sp, sp, #16
 2657 0004 00AF     		add	r7, sp, #0
 2658 0006 7860     		str	r0, [r7, #4]
 2659 0008 3960     		str	r1, [r7]
 2660 000a 3B68     		ldr	r3, [r7]
 2661 000c 002B     		cmp	r3, #0
 2662 000e 09D1     		bne	.L230
 2663 0010 7B68     		ldr	r3, [r7, #4]
 2664 0012 93F83E30 		ldrb	r3, [r3, #62]
 2665 0016 DBB2     		uxtb	r3, r3
 2666 0018 012B     		cmp	r3, #1
 2667 001a 14BF     		ite	ne
 2668 001c 0123     		movne	r3, #1
 2669 001e 0023     		moveq	r3, #0
 2670 0020 DBB2     		uxtb	r3, r3
 2671 0022 22E0     		b	.L231
ARM GAS  C:\Users\user\AppData\Local\Temp\ccrDHgJ5.s 			page 47


 2672              	.L230:
 2673 0024 3B68     		ldr	r3, [r7]
 2674 0026 042B     		cmp	r3, #4
 2675 0028 09D1     		bne	.L232
 2676 002a 7B68     		ldr	r3, [r7, #4]
 2677 002c 93F83F30 		ldrb	r3, [r3, #63]
 2678 0030 DBB2     		uxtb	r3, r3
 2679 0032 012B     		cmp	r3, #1
 2680 0034 14BF     		ite	ne
 2681 0036 0123     		movne	r3, #1
 2682 0038 0023     		moveq	r3, #0
 2683 003a DBB2     		uxtb	r3, r3
 2684 003c 15E0     		b	.L231
 2685              	.L232:
 2686 003e 3B68     		ldr	r3, [r7]
 2687 0040 082B     		cmp	r3, #8
 2688 0042 09D1     		bne	.L234
 2689 0044 7B68     		ldr	r3, [r7, #4]
 2690 0046 93F84030 		ldrb	r3, [r3, #64]
 2691 004a DBB2     		uxtb	r3, r3
 2692 004c 012B     		cmp	r3, #1
 2693 004e 14BF     		ite	ne
 2694 0050 0123     		movne	r3, #1
 2695 0052 0023     		moveq	r3, #0
 2696 0054 DBB2     		uxtb	r3, r3
 2697 0056 08E0     		b	.L231
 2698              	.L234:
 2699 0058 7B68     		ldr	r3, [r7, #4]
 2700 005a 93F84130 		ldrb	r3, [r3, #65]
 2701 005e DBB2     		uxtb	r3, r3
 2702 0060 012B     		cmp	r3, #1
 2703 0062 14BF     		ite	ne
 2704 0064 0123     		movne	r3, #1
 2705 0066 0023     		moveq	r3, #0
 2706 0068 DBB2     		uxtb	r3, r3
 2707              	.L231:
 2708 006a 002B     		cmp	r3, #0
 2709 006c 01D0     		beq	.L236
 2710 006e 0123     		movs	r3, #1
 2711 0070 7CE0     		b	.L237
 2712              	.L236:
 2713 0072 3B68     		ldr	r3, [r7]
 2714 0074 002B     		cmp	r3, #0
 2715 0076 04D1     		bne	.L238
 2716 0078 7B68     		ldr	r3, [r7, #4]
 2717 007a 0222     		movs	r2, #2
 2718 007c 83F83E20 		strb	r2, [r3, #62]
 2719 0080 13E0     		b	.L239
 2720              	.L238:
 2721 0082 3B68     		ldr	r3, [r7]
 2722 0084 042B     		cmp	r3, #4
 2723 0086 04D1     		bne	.L240
 2724 0088 7B68     		ldr	r3, [r7, #4]
 2725 008a 0222     		movs	r2, #2
 2726 008c 83F83F20 		strb	r2, [r3, #63]
 2727 0090 0BE0     		b	.L239
 2728              	.L240:
ARM GAS  C:\Users\user\AppData\Local\Temp\ccrDHgJ5.s 			page 48


 2729 0092 3B68     		ldr	r3, [r7]
 2730 0094 082B     		cmp	r3, #8
 2731 0096 04D1     		bne	.L242
 2732 0098 7B68     		ldr	r3, [r7, #4]
 2733 009a 0222     		movs	r2, #2
 2734 009c 83F84020 		strb	r2, [r3, #64]
 2735 00a0 03E0     		b	.L239
 2736              	.L242:
 2737 00a2 7B68     		ldr	r3, [r7, #4]
 2738 00a4 0222     		movs	r2, #2
 2739 00a6 83F84120 		strb	r2, [r3, #65]
 2740              	.L239:
 2741 00aa 7B68     		ldr	r3, [r7, #4]
 2742 00ac 1B68     		ldr	r3, [r3]
 2743 00ae 0122     		movs	r2, #1
 2744 00b0 3968     		ldr	r1, [r7]
 2745 00b2 1846     		mov	r0, r3
 2746 00b4 FFF7FEFF 		bl	TIM_CCxChannelCmd
 2747 00b8 7B68     		ldr	r3, [r7, #4]
 2748 00ba 1B68     		ldr	r3, [r3]
 2749 00bc 2D4A     		ldr	r2, .L252
 2750 00be 9342     		cmp	r3, r2
 2751 00c0 04D0     		beq	.L244
 2752 00c2 7B68     		ldr	r3, [r7, #4]
 2753 00c4 1B68     		ldr	r3, [r3]
 2754 00c6 2C4A     		ldr	r2, .L252+4
 2755 00c8 9342     		cmp	r3, r2
 2756 00ca 01D1     		bne	.L245
 2757              	.L244:
 2758 00cc 0123     		movs	r3, #1
 2759 00ce 00E0     		b	.L246
 2760              	.L245:
 2761 00d0 0023     		movs	r3, #0
 2762              	.L246:
 2763 00d2 002B     		cmp	r3, #0
 2764 00d4 07D0     		beq	.L247
 2765 00d6 7B68     		ldr	r3, [r7, #4]
 2766 00d8 1B68     		ldr	r3, [r3]
 2767 00da 5A6C     		ldr	r2, [r3, #68]
 2768 00dc 7B68     		ldr	r3, [r7, #4]
 2769 00de 1B68     		ldr	r3, [r3]
 2770 00e0 42F40042 		orr	r2, r2, #32768
 2771 00e4 5A64     		str	r2, [r3, #68]
 2772              	.L247:
 2773 00e6 7B68     		ldr	r3, [r7, #4]
 2774 00e8 1B68     		ldr	r3, [r3]
 2775 00ea 224A     		ldr	r2, .L252
 2776 00ec 9342     		cmp	r3, r2
 2777 00ee 22D0     		beq	.L248
 2778 00f0 7B68     		ldr	r3, [r7, #4]
 2779 00f2 1B68     		ldr	r3, [r3]
 2780 00f4 B3F1804F 		cmp	r3, #1073741824
 2781 00f8 1DD0     		beq	.L248
 2782 00fa 7B68     		ldr	r3, [r7, #4]
 2783 00fc 1B68     		ldr	r3, [r3]
 2784 00fe 1F4A     		ldr	r2, .L252+8
 2785 0100 9342     		cmp	r3, r2
ARM GAS  C:\Users\user\AppData\Local\Temp\ccrDHgJ5.s 			page 49


 2786 0102 18D0     		beq	.L248
 2787 0104 7B68     		ldr	r3, [r7, #4]
 2788 0106 1B68     		ldr	r3, [r3]
 2789 0108 1D4A     		ldr	r2, .L252+12
 2790 010a 9342     		cmp	r3, r2
 2791 010c 13D0     		beq	.L248
 2792 010e 7B68     		ldr	r3, [r7, #4]
 2793 0110 1B68     		ldr	r3, [r3]
 2794 0112 1C4A     		ldr	r2, .L252+16
 2795 0114 9342     		cmp	r3, r2
 2796 0116 0ED0     		beq	.L248
 2797 0118 7B68     		ldr	r3, [r7, #4]
 2798 011a 1B68     		ldr	r3, [r3]
 2799 011c 164A     		ldr	r2, .L252+4
 2800 011e 9342     		cmp	r3, r2
 2801 0120 09D0     		beq	.L248
 2802 0122 7B68     		ldr	r3, [r7, #4]
 2803 0124 1B68     		ldr	r3, [r3]
 2804 0126 184A     		ldr	r2, .L252+20
 2805 0128 9342     		cmp	r3, r2
 2806 012a 04D0     		beq	.L248
 2807 012c 7B68     		ldr	r3, [r7, #4]
 2808 012e 1B68     		ldr	r3, [r3]
 2809 0130 164A     		ldr	r2, .L252+24
 2810 0132 9342     		cmp	r3, r2
 2811 0134 11D1     		bne	.L249
 2812              	.L248:
 2813 0136 7B68     		ldr	r3, [r7, #4]
 2814 0138 1B68     		ldr	r3, [r3]
 2815 013a 9B68     		ldr	r3, [r3, #8]
 2816 013c 03F00703 		and	r3, r3, #7
 2817 0140 FB60     		str	r3, [r7, #12]
 2818 0142 FB68     		ldr	r3, [r7, #12]
 2819 0144 062B     		cmp	r3, #6
 2820 0146 10D0     		beq	.L251
 2821 0148 7B68     		ldr	r3, [r7, #4]
 2822 014a 1B68     		ldr	r3, [r3]
 2823 014c 1A68     		ldr	r2, [r3]
 2824 014e 7B68     		ldr	r3, [r7, #4]
 2825 0150 1B68     		ldr	r3, [r3]
 2826 0152 42F00102 		orr	r2, r2, #1
 2827 0156 1A60     		str	r2, [r3]
 2828 0158 07E0     		b	.L251
 2829              	.L249:
 2830 015a 7B68     		ldr	r3, [r7, #4]
 2831 015c 1B68     		ldr	r3, [r3]
 2832 015e 1A68     		ldr	r2, [r3]
 2833 0160 7B68     		ldr	r3, [r7, #4]
 2834 0162 1B68     		ldr	r3, [r3]
 2835 0164 42F00102 		orr	r2, r2, #1
 2836 0168 1A60     		str	r2, [r3]
 2837              	.L251:
 2838 016a 0023     		movs	r3, #0
 2839              	.L237:
 2840 016c 1846     		mov	r0, r3
 2841 016e 1037     		adds	r7, r7, #16
 2842 0170 BD46     		mov	sp, r7
ARM GAS  C:\Users\user\AppData\Local\Temp\ccrDHgJ5.s 			page 50


 2843              		@ sp needed
 2844 0172 80BD     		pop	{r7, pc}
 2845              	.L253:
 2846              		.align	2
 2847              	.L252:
 2848 0174 00000140 		.word	1073807360
 2849 0178 00040140 		.word	1073808384
 2850 017c 00040040 		.word	1073742848
 2851 0180 00080040 		.word	1073743872
 2852 0184 000C0040 		.word	1073744896
 2853 0188 00400140 		.word	1073823744
 2854 018c 00180040 		.word	1073747968
 2856              		.section	.text.HAL_TIM_PWM_Stop,"ax",%progbits
 2857              		.align	1
 2858              		.global	HAL_TIM_PWM_Stop
 2859              		.syntax unified
 2860              		.thumb
 2861              		.thumb_func
 2863              	HAL_TIM_PWM_Stop:
 2864              		@ args = 0, pretend = 0, frame = 8
 2865              		@ frame_needed = 1, uses_anonymous_args = 0
 2866 0000 80B5     		push	{r7, lr}
 2867 0002 82B0     		sub	sp, sp, #8
 2868 0004 00AF     		add	r7, sp, #0
 2869 0006 7860     		str	r0, [r7, #4]
 2870 0008 3960     		str	r1, [r7]
 2871 000a 7B68     		ldr	r3, [r7, #4]
 2872 000c 1B68     		ldr	r3, [r3]
 2873 000e 0022     		movs	r2, #0
 2874 0010 3968     		ldr	r1, [r7]
 2875 0012 1846     		mov	r0, r3
 2876 0014 FFF7FEFF 		bl	TIM_CCxChannelCmd
 2877 0018 7B68     		ldr	r3, [r7, #4]
 2878 001a 1B68     		ldr	r3, [r3]
 2879 001c 2E4A     		ldr	r2, .L267
 2880 001e 9342     		cmp	r3, r2
 2881 0020 04D0     		beq	.L255
 2882 0022 7B68     		ldr	r3, [r7, #4]
 2883 0024 1B68     		ldr	r3, [r3]
 2884 0026 2D4A     		ldr	r2, .L267+4
 2885 0028 9342     		cmp	r3, r2
 2886 002a 01D1     		bne	.L256
 2887              	.L255:
 2888 002c 0123     		movs	r3, #1
 2889 002e 00E0     		b	.L257
 2890              	.L256:
 2891 0030 0023     		movs	r3, #0
 2892              	.L257:
 2893 0032 002B     		cmp	r3, #0
 2894 0034 17D0     		beq	.L258
 2895 0036 7B68     		ldr	r3, [r7, #4]
 2896 0038 1B68     		ldr	r3, [r3]
 2897 003a 1A6A     		ldr	r2, [r3, #32]
 2898 003c 41F21113 		movw	r3, #4369
 2899 0040 1340     		ands	r3, r3, r2
 2900 0042 002B     		cmp	r3, #0
 2901 0044 0FD1     		bne	.L258
ARM GAS  C:\Users\user\AppData\Local\Temp\ccrDHgJ5.s 			page 51


 2902 0046 7B68     		ldr	r3, [r7, #4]
 2903 0048 1B68     		ldr	r3, [r3]
 2904 004a 1A6A     		ldr	r2, [r3, #32]
 2905 004c 40F24443 		movw	r3, #1092
 2906 0050 1340     		ands	r3, r3, r2
 2907 0052 002B     		cmp	r3, #0
 2908 0054 07D1     		bne	.L258
 2909 0056 7B68     		ldr	r3, [r7, #4]
 2910 0058 1B68     		ldr	r3, [r3]
 2911 005a 5A6C     		ldr	r2, [r3, #68]
 2912 005c 7B68     		ldr	r3, [r7, #4]
 2913 005e 1B68     		ldr	r3, [r3]
 2914 0060 22F40042 		bic	r2, r2, #32768
 2915 0064 5A64     		str	r2, [r3, #68]
 2916              	.L258:
 2917 0066 7B68     		ldr	r3, [r7, #4]
 2918 0068 1B68     		ldr	r3, [r3]
 2919 006a 1A6A     		ldr	r2, [r3, #32]
 2920 006c 41F21113 		movw	r3, #4369
 2921 0070 1340     		ands	r3, r3, r2
 2922 0072 002B     		cmp	r3, #0
 2923 0074 0FD1     		bne	.L259
 2924 0076 7B68     		ldr	r3, [r7, #4]
 2925 0078 1B68     		ldr	r3, [r3]
 2926 007a 1A6A     		ldr	r2, [r3, #32]
 2927 007c 40F24443 		movw	r3, #1092
 2928 0080 1340     		ands	r3, r3, r2
 2929 0082 002B     		cmp	r3, #0
 2930 0084 07D1     		bne	.L259
 2931 0086 7B68     		ldr	r3, [r7, #4]
 2932 0088 1B68     		ldr	r3, [r3]
 2933 008a 1A68     		ldr	r2, [r3]
 2934 008c 7B68     		ldr	r3, [r7, #4]
 2935 008e 1B68     		ldr	r3, [r3]
 2936 0090 22F00102 		bic	r2, r2, #1
 2937 0094 1A60     		str	r2, [r3]
 2938              	.L259:
 2939 0096 3B68     		ldr	r3, [r7]
 2940 0098 002B     		cmp	r3, #0
 2941 009a 04D1     		bne	.L260
 2942 009c 7B68     		ldr	r3, [r7, #4]
 2943 009e 0122     		movs	r2, #1
 2944 00a0 83F83E20 		strb	r2, [r3, #62]
 2945 00a4 13E0     		b	.L261
 2946              	.L260:
 2947 00a6 3B68     		ldr	r3, [r7]
 2948 00a8 042B     		cmp	r3, #4
 2949 00aa 04D1     		bne	.L262
 2950 00ac 7B68     		ldr	r3, [r7, #4]
 2951 00ae 0122     		movs	r2, #1
 2952 00b0 83F83F20 		strb	r2, [r3, #63]
 2953 00b4 0BE0     		b	.L261
 2954              	.L262:
 2955 00b6 3B68     		ldr	r3, [r7]
 2956 00b8 082B     		cmp	r3, #8
 2957 00ba 04D1     		bne	.L264
 2958 00bc 7B68     		ldr	r3, [r7, #4]
ARM GAS  C:\Users\user\AppData\Local\Temp\ccrDHgJ5.s 			page 52


 2959 00be 0122     		movs	r2, #1
 2960 00c0 83F84020 		strb	r2, [r3, #64]
 2961 00c4 03E0     		b	.L261
 2962              	.L264:
 2963 00c6 7B68     		ldr	r3, [r7, #4]
 2964 00c8 0122     		movs	r2, #1
 2965 00ca 83F84120 		strb	r2, [r3, #65]
 2966              	.L261:
 2967 00ce 0023     		movs	r3, #0
 2968 00d0 1846     		mov	r0, r3
 2969 00d2 0837     		adds	r7, r7, #8
 2970 00d4 BD46     		mov	sp, r7
 2971              		@ sp needed
 2972 00d6 80BD     		pop	{r7, pc}
 2973              	.L268:
 2974              		.align	2
 2975              	.L267:
 2976 00d8 00000140 		.word	1073807360
 2977 00dc 00040140 		.word	1073808384
 2979              		.section	.text.HAL_TIM_PWM_Start_IT,"ax",%progbits
 2980              		.align	1
 2981              		.global	HAL_TIM_PWM_Start_IT
 2982              		.syntax unified
 2983              		.thumb
 2984              		.thumb_func
 2986              	HAL_TIM_PWM_Start_IT:
 2987              		@ args = 0, pretend = 0, frame = 16
 2988              		@ frame_needed = 1, uses_anonymous_args = 0
 2989 0000 80B5     		push	{r7, lr}
 2990 0002 84B0     		sub	sp, sp, #16
 2991 0004 00AF     		add	r7, sp, #0
 2992 0006 7860     		str	r0, [r7, #4]
 2993 0008 3960     		str	r1, [r7]
 2994 000a 0023     		movs	r3, #0
 2995 000c FB73     		strb	r3, [r7, #15]
 2996 000e 3B68     		ldr	r3, [r7]
 2997 0010 002B     		cmp	r3, #0
 2998 0012 09D1     		bne	.L270
 2999 0014 7B68     		ldr	r3, [r7, #4]
 3000 0016 93F83E30 		ldrb	r3, [r3, #62]
 3001 001a DBB2     		uxtb	r3, r3
 3002 001c 012B     		cmp	r3, #1
 3003 001e 14BF     		ite	ne
 3004 0020 0123     		movne	r3, #1
 3005 0022 0023     		moveq	r3, #0
 3006 0024 DBB2     		uxtb	r3, r3
 3007 0026 22E0     		b	.L271
 3008              	.L270:
 3009 0028 3B68     		ldr	r3, [r7]
 3010 002a 042B     		cmp	r3, #4
 3011 002c 09D1     		bne	.L272
 3012 002e 7B68     		ldr	r3, [r7, #4]
 3013 0030 93F83F30 		ldrb	r3, [r3, #63]
 3014 0034 DBB2     		uxtb	r3, r3
 3015 0036 012B     		cmp	r3, #1
 3016 0038 14BF     		ite	ne
 3017 003a 0123     		movne	r3, #1
ARM GAS  C:\Users\user\AppData\Local\Temp\ccrDHgJ5.s 			page 53


 3018 003c 0023     		moveq	r3, #0
 3019 003e DBB2     		uxtb	r3, r3
 3020 0040 15E0     		b	.L271
 3021              	.L272:
 3022 0042 3B68     		ldr	r3, [r7]
 3023 0044 082B     		cmp	r3, #8
 3024 0046 09D1     		bne	.L274
 3025 0048 7B68     		ldr	r3, [r7, #4]
 3026 004a 93F84030 		ldrb	r3, [r3, #64]
 3027 004e DBB2     		uxtb	r3, r3
 3028 0050 012B     		cmp	r3, #1
 3029 0052 14BF     		ite	ne
 3030 0054 0123     		movne	r3, #1
 3031 0056 0023     		moveq	r3, #0
 3032 0058 DBB2     		uxtb	r3, r3
 3033 005a 08E0     		b	.L271
 3034              	.L274:
 3035 005c 7B68     		ldr	r3, [r7, #4]
 3036 005e 93F84130 		ldrb	r3, [r3, #65]
 3037 0062 DBB2     		uxtb	r3, r3
 3038 0064 012B     		cmp	r3, #1
 3039 0066 14BF     		ite	ne
 3040 0068 0123     		movne	r3, #1
 3041 006a 0023     		moveq	r3, #0
 3042 006c DBB2     		uxtb	r3, r3
 3043              	.L271:
 3044 006e 002B     		cmp	r3, #0
 3045 0070 01D0     		beq	.L276
 3046 0072 0123     		movs	r3, #1
 3047 0074 C7E0     		b	.L277
 3048              	.L276:
 3049 0076 3B68     		ldr	r3, [r7]
 3050 0078 002B     		cmp	r3, #0
 3051 007a 04D1     		bne	.L278
 3052 007c 7B68     		ldr	r3, [r7, #4]
 3053 007e 0222     		movs	r2, #2
 3054 0080 83F83E20 		strb	r2, [r3, #62]
 3055 0084 13E0     		b	.L279
 3056              	.L278:
 3057 0086 3B68     		ldr	r3, [r7]
 3058 0088 042B     		cmp	r3, #4
 3059 008a 04D1     		bne	.L280
 3060 008c 7B68     		ldr	r3, [r7, #4]
 3061 008e 0222     		movs	r2, #2
 3062 0090 83F83F20 		strb	r2, [r3, #63]
 3063 0094 0BE0     		b	.L279
 3064              	.L280:
 3065 0096 3B68     		ldr	r3, [r7]
 3066 0098 082B     		cmp	r3, #8
 3067 009a 04D1     		bne	.L282
 3068 009c 7B68     		ldr	r3, [r7, #4]
 3069 009e 0222     		movs	r2, #2
 3070 00a0 83F84020 		strb	r2, [r3, #64]
 3071 00a4 03E0     		b	.L279
 3072              	.L282:
 3073 00a6 7B68     		ldr	r3, [r7, #4]
 3074 00a8 0222     		movs	r2, #2
ARM GAS  C:\Users\user\AppData\Local\Temp\ccrDHgJ5.s 			page 54


 3075 00aa 83F84120 		strb	r2, [r3, #65]
 3076              	.L279:
 3077 00ae 3B68     		ldr	r3, [r7]
 3078 00b0 0C2B     		cmp	r3, #12
 3079 00b2 41D8     		bhi	.L284
 3080 00b4 01A2     		adr	r2, .L286
 3081 00b6 52F823F0 		ldr	pc, [r2, r3, lsl #2]
 3082 00ba 00BF     		.p2align 2
 3083              	.L286:
 3084 00bc F1000000 		.word	.L289+1
 3085 00c0 39010000 		.word	.L284+1
 3086 00c4 39010000 		.word	.L284+1
 3087 00c8 39010000 		.word	.L284+1
 3088 00cc 03010000 		.word	.L288+1
 3089 00d0 39010000 		.word	.L284+1
 3090 00d4 39010000 		.word	.L284+1
 3091 00d8 39010000 		.word	.L284+1
 3092 00dc 15010000 		.word	.L287+1
 3093 00e0 39010000 		.word	.L284+1
 3094 00e4 39010000 		.word	.L284+1
 3095 00e8 39010000 		.word	.L284+1
 3096 00ec 27010000 		.word	.L285+1
 3097              		.p2align 1
 3098              	.L289:
 3099 00f0 7B68     		ldr	r3, [r7, #4]
 3100 00f2 1B68     		ldr	r3, [r3]
 3101 00f4 DA68     		ldr	r2, [r3, #12]
 3102 00f6 7B68     		ldr	r3, [r7, #4]
 3103 00f8 1B68     		ldr	r3, [r3]
 3104 00fa 42F00202 		orr	r2, r2, #2
 3105 00fe DA60     		str	r2, [r3, #12]
 3106 0100 1DE0     		b	.L290
 3107              	.L288:
 3108 0102 7B68     		ldr	r3, [r7, #4]
 3109 0104 1B68     		ldr	r3, [r3]
 3110 0106 DA68     		ldr	r2, [r3, #12]
 3111 0108 7B68     		ldr	r3, [r7, #4]
 3112 010a 1B68     		ldr	r3, [r3]
 3113 010c 42F00402 		orr	r2, r2, #4
 3114 0110 DA60     		str	r2, [r3, #12]
 3115 0112 14E0     		b	.L290
 3116              	.L287:
 3117 0114 7B68     		ldr	r3, [r7, #4]
 3118 0116 1B68     		ldr	r3, [r3]
 3119 0118 DA68     		ldr	r2, [r3, #12]
 3120 011a 7B68     		ldr	r3, [r7, #4]
 3121 011c 1B68     		ldr	r3, [r3]
 3122 011e 42F00802 		orr	r2, r2, #8
 3123 0122 DA60     		str	r2, [r3, #12]
 3124 0124 0BE0     		b	.L290
 3125              	.L285:
 3126 0126 7B68     		ldr	r3, [r7, #4]
 3127 0128 1B68     		ldr	r3, [r3]
 3128 012a DA68     		ldr	r2, [r3, #12]
 3129 012c 7B68     		ldr	r3, [r7, #4]
 3130 012e 1B68     		ldr	r3, [r3]
 3131 0130 42F01002 		orr	r2, r2, #16
ARM GAS  C:\Users\user\AppData\Local\Temp\ccrDHgJ5.s 			page 55


 3132 0134 DA60     		str	r2, [r3, #12]
 3133 0136 02E0     		b	.L290
 3134              	.L284:
 3135 0138 0123     		movs	r3, #1
 3136 013a FB73     		strb	r3, [r7, #15]
 3137 013c 00BF     		nop
 3138              	.L290:
 3139 013e FB7B     		ldrb	r3, [r7, #15]	@ zero_extendqisi2
 3140 0140 002B     		cmp	r3, #0
 3141 0142 5FD1     		bne	.L291
 3142 0144 7B68     		ldr	r3, [r7, #4]
 3143 0146 1B68     		ldr	r3, [r3]
 3144 0148 0122     		movs	r2, #1
 3145 014a 3968     		ldr	r1, [r7]
 3146 014c 1846     		mov	r0, r3
 3147 014e FFF7FEFF 		bl	TIM_CCxChannelCmd
 3148 0152 7B68     		ldr	r3, [r7, #4]
 3149 0154 1B68     		ldr	r3, [r3]
 3150 0156 2E4A     		ldr	r2, .L299
 3151 0158 9342     		cmp	r3, r2
 3152 015a 04D0     		beq	.L292
 3153 015c 7B68     		ldr	r3, [r7, #4]
 3154 015e 1B68     		ldr	r3, [r3]
 3155 0160 2C4A     		ldr	r2, .L299+4
 3156 0162 9342     		cmp	r3, r2
 3157 0164 01D1     		bne	.L293
 3158              	.L292:
 3159 0166 0123     		movs	r3, #1
 3160 0168 00E0     		b	.L294
 3161              	.L293:
 3162 016a 0023     		movs	r3, #0
 3163              	.L294:
 3164 016c 002B     		cmp	r3, #0
 3165 016e 07D0     		beq	.L295
 3166 0170 7B68     		ldr	r3, [r7, #4]
 3167 0172 1B68     		ldr	r3, [r3]
 3168 0174 5A6C     		ldr	r2, [r3, #68]
 3169 0176 7B68     		ldr	r3, [r7, #4]
 3170 0178 1B68     		ldr	r3, [r3]
 3171 017a 42F40042 		orr	r2, r2, #32768
 3172 017e 5A64     		str	r2, [r3, #68]
 3173              	.L295:
 3174 0180 7B68     		ldr	r3, [r7, #4]
 3175 0182 1B68     		ldr	r3, [r3]
 3176 0184 224A     		ldr	r2, .L299
 3177 0186 9342     		cmp	r3, r2
 3178 0188 22D0     		beq	.L296
 3179 018a 7B68     		ldr	r3, [r7, #4]
 3180 018c 1B68     		ldr	r3, [r3]
 3181 018e B3F1804F 		cmp	r3, #1073741824
 3182 0192 1DD0     		beq	.L296
 3183 0194 7B68     		ldr	r3, [r7, #4]
 3184 0196 1B68     		ldr	r3, [r3]
 3185 0198 1F4A     		ldr	r2, .L299+8
 3186 019a 9342     		cmp	r3, r2
 3187 019c 18D0     		beq	.L296
 3188 019e 7B68     		ldr	r3, [r7, #4]
ARM GAS  C:\Users\user\AppData\Local\Temp\ccrDHgJ5.s 			page 56


 3189 01a0 1B68     		ldr	r3, [r3]
 3190 01a2 1E4A     		ldr	r2, .L299+12
 3191 01a4 9342     		cmp	r3, r2
 3192 01a6 13D0     		beq	.L296
 3193 01a8 7B68     		ldr	r3, [r7, #4]
 3194 01aa 1B68     		ldr	r3, [r3]
 3195 01ac 1C4A     		ldr	r2, .L299+16
 3196 01ae 9342     		cmp	r3, r2
 3197 01b0 0ED0     		beq	.L296
 3198 01b2 7B68     		ldr	r3, [r7, #4]
 3199 01b4 1B68     		ldr	r3, [r3]
 3200 01b6 174A     		ldr	r2, .L299+4
 3201 01b8 9342     		cmp	r3, r2
 3202 01ba 09D0     		beq	.L296
 3203 01bc 7B68     		ldr	r3, [r7, #4]
 3204 01be 1B68     		ldr	r3, [r3]
 3205 01c0 184A     		ldr	r2, .L299+20
 3206 01c2 9342     		cmp	r3, r2
 3207 01c4 04D0     		beq	.L296
 3208 01c6 7B68     		ldr	r3, [r7, #4]
 3209 01c8 1B68     		ldr	r3, [r3]
 3210 01ca 174A     		ldr	r2, .L299+24
 3211 01cc 9342     		cmp	r3, r2
 3212 01ce 11D1     		bne	.L297
 3213              	.L296:
 3214 01d0 7B68     		ldr	r3, [r7, #4]
 3215 01d2 1B68     		ldr	r3, [r3]
 3216 01d4 9B68     		ldr	r3, [r3, #8]
 3217 01d6 03F00703 		and	r3, r3, #7
 3218 01da BB60     		str	r3, [r7, #8]
 3219 01dc BB68     		ldr	r3, [r7, #8]
 3220 01de 062B     		cmp	r3, #6
 3221 01e0 10D0     		beq	.L291
 3222 01e2 7B68     		ldr	r3, [r7, #4]
 3223 01e4 1B68     		ldr	r3, [r3]
 3224 01e6 1A68     		ldr	r2, [r3]
 3225 01e8 7B68     		ldr	r3, [r7, #4]
 3226 01ea 1B68     		ldr	r3, [r3]
 3227 01ec 42F00102 		orr	r2, r2, #1
 3228 01f0 1A60     		str	r2, [r3]
 3229 01f2 07E0     		b	.L291
 3230              	.L297:
 3231 01f4 7B68     		ldr	r3, [r7, #4]
 3232 01f6 1B68     		ldr	r3, [r3]
 3233 01f8 1A68     		ldr	r2, [r3]
 3234 01fa 7B68     		ldr	r3, [r7, #4]
 3235 01fc 1B68     		ldr	r3, [r3]
 3236 01fe 42F00102 		orr	r2, r2, #1
 3237 0202 1A60     		str	r2, [r3]
 3238              	.L291:
 3239 0204 FB7B     		ldrb	r3, [r7, #15]	@ zero_extendqisi2
 3240              	.L277:
 3241 0206 1846     		mov	r0, r3
 3242 0208 1037     		adds	r7, r7, #16
 3243 020a BD46     		mov	sp, r7
 3244              		@ sp needed
 3245 020c 80BD     		pop	{r7, pc}
ARM GAS  C:\Users\user\AppData\Local\Temp\ccrDHgJ5.s 			page 57


 3246              	.L300:
 3247 020e 00BF     		.align	2
 3248              	.L299:
 3249 0210 00000140 		.word	1073807360
 3250 0214 00040140 		.word	1073808384
 3251 0218 00040040 		.word	1073742848
 3252 021c 00080040 		.word	1073743872
 3253 0220 000C0040 		.word	1073744896
 3254 0224 00400140 		.word	1073823744
 3255 0228 00180040 		.word	1073747968
 3257              		.section	.text.HAL_TIM_PWM_Stop_IT,"ax",%progbits
 3258              		.align	1
 3259              		.global	HAL_TIM_PWM_Stop_IT
 3260              		.syntax unified
 3261              		.thumb
 3262              		.thumb_func
 3264              	HAL_TIM_PWM_Stop_IT:
 3265              		@ args = 0, pretend = 0, frame = 16
 3266              		@ frame_needed = 1, uses_anonymous_args = 0
 3267 0000 80B5     		push	{r7, lr}
 3268 0002 84B0     		sub	sp, sp, #16
 3269 0004 00AF     		add	r7, sp, #0
 3270 0006 7860     		str	r0, [r7, #4]
 3271 0008 3960     		str	r1, [r7]
 3272 000a 0023     		movs	r3, #0
 3273 000c FB73     		strb	r3, [r7, #15]
 3274 000e 3B68     		ldr	r3, [r7]
 3275 0010 0C2B     		cmp	r3, #12
 3276 0012 41D8     		bhi	.L302
 3277 0014 01A2     		adr	r2, .L304
 3278 0016 52F823F0 		ldr	pc, [r2, r3, lsl #2]
 3279 001a 00BF     		.p2align 2
 3280              	.L304:
 3281 001c 51000000 		.word	.L307+1
 3282 0020 99000000 		.word	.L302+1
 3283 0024 99000000 		.word	.L302+1
 3284 0028 99000000 		.word	.L302+1
 3285 002c 63000000 		.word	.L306+1
 3286 0030 99000000 		.word	.L302+1
 3287 0034 99000000 		.word	.L302+1
 3288 0038 99000000 		.word	.L302+1
 3289 003c 75000000 		.word	.L305+1
 3290 0040 99000000 		.word	.L302+1
 3291 0044 99000000 		.word	.L302+1
 3292 0048 99000000 		.word	.L302+1
 3293 004c 87000000 		.word	.L303+1
 3294              		.p2align 1
 3295              	.L307:
 3296 0050 7B68     		ldr	r3, [r7, #4]
 3297 0052 1B68     		ldr	r3, [r3]
 3298 0054 DA68     		ldr	r2, [r3, #12]
 3299 0056 7B68     		ldr	r3, [r7, #4]
 3300 0058 1B68     		ldr	r3, [r3]
 3301 005a 22F00202 		bic	r2, r2, #2
 3302 005e DA60     		str	r2, [r3, #12]
 3303 0060 1DE0     		b	.L308
 3304              	.L306:
ARM GAS  C:\Users\user\AppData\Local\Temp\ccrDHgJ5.s 			page 58


 3305 0062 7B68     		ldr	r3, [r7, #4]
 3306 0064 1B68     		ldr	r3, [r3]
 3307 0066 DA68     		ldr	r2, [r3, #12]
 3308 0068 7B68     		ldr	r3, [r7, #4]
 3309 006a 1B68     		ldr	r3, [r3]
 3310 006c 22F00402 		bic	r2, r2, #4
 3311 0070 DA60     		str	r2, [r3, #12]
 3312 0072 14E0     		b	.L308
 3313              	.L305:
 3314 0074 7B68     		ldr	r3, [r7, #4]
 3315 0076 1B68     		ldr	r3, [r3]
 3316 0078 DA68     		ldr	r2, [r3, #12]
 3317 007a 7B68     		ldr	r3, [r7, #4]
 3318 007c 1B68     		ldr	r3, [r3]
 3319 007e 22F00802 		bic	r2, r2, #8
 3320 0082 DA60     		str	r2, [r3, #12]
 3321 0084 0BE0     		b	.L308
 3322              	.L303:
 3323 0086 7B68     		ldr	r3, [r7, #4]
 3324 0088 1B68     		ldr	r3, [r3]
 3325 008a DA68     		ldr	r2, [r3, #12]
 3326 008c 7B68     		ldr	r3, [r7, #4]
 3327 008e 1B68     		ldr	r3, [r3]
 3328 0090 22F01002 		bic	r2, r2, #16
 3329 0094 DA60     		str	r2, [r3, #12]
 3330 0096 02E0     		b	.L308
 3331              	.L302:
 3332 0098 0123     		movs	r3, #1
 3333 009a FB73     		strb	r3, [r7, #15]
 3334 009c 00BF     		nop
 3335              	.L308:
 3336 009e FB7B     		ldrb	r3, [r7, #15]	@ zero_extendqisi2
 3337 00a0 002B     		cmp	r3, #0
 3338 00a2 61D1     		bne	.L309
 3339 00a4 7B68     		ldr	r3, [r7, #4]
 3340 00a6 1B68     		ldr	r3, [r3]
 3341 00a8 0022     		movs	r2, #0
 3342 00aa 3968     		ldr	r1, [r7]
 3343 00ac 1846     		mov	r0, r3
 3344 00ae FFF7FEFF 		bl	TIM_CCxChannelCmd
 3345 00b2 7B68     		ldr	r3, [r7, #4]
 3346 00b4 1B68     		ldr	r3, [r3]
 3347 00b6 2F4A     		ldr	r2, .L321
 3348 00b8 9342     		cmp	r3, r2
 3349 00ba 04D0     		beq	.L310
 3350 00bc 7B68     		ldr	r3, [r7, #4]
 3351 00be 1B68     		ldr	r3, [r3]
 3352 00c0 2D4A     		ldr	r2, .L321+4
 3353 00c2 9342     		cmp	r3, r2
 3354 00c4 01D1     		bne	.L311
 3355              	.L310:
 3356 00c6 0123     		movs	r3, #1
 3357 00c8 00E0     		b	.L312
 3358              	.L311:
 3359 00ca 0023     		movs	r3, #0
 3360              	.L312:
 3361 00cc 002B     		cmp	r3, #0
ARM GAS  C:\Users\user\AppData\Local\Temp\ccrDHgJ5.s 			page 59


 3362 00ce 17D0     		beq	.L313
 3363 00d0 7B68     		ldr	r3, [r7, #4]
 3364 00d2 1B68     		ldr	r3, [r3]
 3365 00d4 1A6A     		ldr	r2, [r3, #32]
 3366 00d6 41F21113 		movw	r3, #4369
 3367 00da 1340     		ands	r3, r3, r2
 3368 00dc 002B     		cmp	r3, #0
 3369 00de 0FD1     		bne	.L313
 3370 00e0 7B68     		ldr	r3, [r7, #4]
 3371 00e2 1B68     		ldr	r3, [r3]
 3372 00e4 1A6A     		ldr	r2, [r3, #32]
 3373 00e6 40F24443 		movw	r3, #1092
 3374 00ea 1340     		ands	r3, r3, r2
 3375 00ec 002B     		cmp	r3, #0
 3376 00ee 07D1     		bne	.L313
 3377 00f0 7B68     		ldr	r3, [r7, #4]
 3378 00f2 1B68     		ldr	r3, [r3]
 3379 00f4 5A6C     		ldr	r2, [r3, #68]
 3380 00f6 7B68     		ldr	r3, [r7, #4]
 3381 00f8 1B68     		ldr	r3, [r3]
 3382 00fa 22F40042 		bic	r2, r2, #32768
 3383 00fe 5A64     		str	r2, [r3, #68]
 3384              	.L313:
 3385 0100 7B68     		ldr	r3, [r7, #4]
 3386 0102 1B68     		ldr	r3, [r3]
 3387 0104 1A6A     		ldr	r2, [r3, #32]
 3388 0106 41F21113 		movw	r3, #4369
 3389 010a 1340     		ands	r3, r3, r2
 3390 010c 002B     		cmp	r3, #0
 3391 010e 0FD1     		bne	.L314
 3392 0110 7B68     		ldr	r3, [r7, #4]
 3393 0112 1B68     		ldr	r3, [r3]
 3394 0114 1A6A     		ldr	r2, [r3, #32]
 3395 0116 40F24443 		movw	r3, #1092
 3396 011a 1340     		ands	r3, r3, r2
 3397 011c 002B     		cmp	r3, #0
 3398 011e 07D1     		bne	.L314
 3399 0120 7B68     		ldr	r3, [r7, #4]
 3400 0122 1B68     		ldr	r3, [r3]
 3401 0124 1A68     		ldr	r2, [r3]
 3402 0126 7B68     		ldr	r3, [r7, #4]
 3403 0128 1B68     		ldr	r3, [r3]
 3404 012a 22F00102 		bic	r2, r2, #1
 3405 012e 1A60     		str	r2, [r3]
 3406              	.L314:
 3407 0130 3B68     		ldr	r3, [r7]
 3408 0132 002B     		cmp	r3, #0
 3409 0134 04D1     		bne	.L315
 3410 0136 7B68     		ldr	r3, [r7, #4]
 3411 0138 0122     		movs	r2, #1
 3412 013a 83F83E20 		strb	r2, [r3, #62]
 3413 013e 13E0     		b	.L309
 3414              	.L315:
 3415 0140 3B68     		ldr	r3, [r7]
 3416 0142 042B     		cmp	r3, #4
 3417 0144 04D1     		bne	.L316
 3418 0146 7B68     		ldr	r3, [r7, #4]
ARM GAS  C:\Users\user\AppData\Local\Temp\ccrDHgJ5.s 			page 60


 3419 0148 0122     		movs	r2, #1
 3420 014a 83F83F20 		strb	r2, [r3, #63]
 3421 014e 0BE0     		b	.L309
 3422              	.L316:
 3423 0150 3B68     		ldr	r3, [r7]
 3424 0152 082B     		cmp	r3, #8
 3425 0154 04D1     		bne	.L318
 3426 0156 7B68     		ldr	r3, [r7, #4]
 3427 0158 0122     		movs	r2, #1
 3428 015a 83F84020 		strb	r2, [r3, #64]
 3429 015e 03E0     		b	.L309
 3430              	.L318:
 3431 0160 7B68     		ldr	r3, [r7, #4]
 3432 0162 0122     		movs	r2, #1
 3433 0164 83F84120 		strb	r2, [r3, #65]
 3434              	.L309:
 3435 0168 FB7B     		ldrb	r3, [r7, #15]	@ zero_extendqisi2
 3436 016a 1846     		mov	r0, r3
 3437 016c 1037     		adds	r7, r7, #16
 3438 016e BD46     		mov	sp, r7
 3439              		@ sp needed
 3440 0170 80BD     		pop	{r7, pc}
 3441              	.L322:
 3442 0172 00BF     		.align	2
 3443              	.L321:
 3444 0174 00000140 		.word	1073807360
 3445 0178 00040140 		.word	1073808384
 3447              		.section	.text.HAL_TIM_PWM_Start_DMA,"ax",%progbits
 3448              		.align	1
 3449              		.global	HAL_TIM_PWM_Start_DMA
 3450              		.syntax unified
 3451              		.thumb
 3452              		.thumb_func
 3454              	HAL_TIM_PWM_Start_DMA:
 3455              		@ args = 0, pretend = 0, frame = 24
 3456              		@ frame_needed = 1, uses_anonymous_args = 0
 3457 0000 80B5     		push	{r7, lr}
 3458 0002 86B0     		sub	sp, sp, #24
 3459 0004 00AF     		add	r7, sp, #0
 3460 0006 F860     		str	r0, [r7, #12]
 3461 0008 B960     		str	r1, [r7, #8]
 3462 000a 7A60     		str	r2, [r7, #4]
 3463 000c 7B80     		strh	r3, [r7, #2]	@ movhi
 3464 000e 0023     		movs	r3, #0
 3465 0010 FB75     		strb	r3, [r7, #23]
 3466 0012 BB68     		ldr	r3, [r7, #8]
 3467 0014 002B     		cmp	r3, #0
 3468 0016 09D1     		bne	.L324
 3469 0018 FB68     		ldr	r3, [r7, #12]
 3470 001a 93F83E30 		ldrb	r3, [r3, #62]
 3471 001e DBB2     		uxtb	r3, r3
 3472 0020 022B     		cmp	r3, #2
 3473 0022 0CBF     		ite	eq
 3474 0024 0123     		moveq	r3, #1
 3475 0026 0023     		movne	r3, #0
 3476 0028 DBB2     		uxtb	r3, r3
 3477 002a 22E0     		b	.L325
ARM GAS  C:\Users\user\AppData\Local\Temp\ccrDHgJ5.s 			page 61


 3478              	.L324:
 3479 002c BB68     		ldr	r3, [r7, #8]
 3480 002e 042B     		cmp	r3, #4
 3481 0030 09D1     		bne	.L326
 3482 0032 FB68     		ldr	r3, [r7, #12]
 3483 0034 93F83F30 		ldrb	r3, [r3, #63]
 3484 0038 DBB2     		uxtb	r3, r3
 3485 003a 022B     		cmp	r3, #2
 3486 003c 0CBF     		ite	eq
 3487 003e 0123     		moveq	r3, #1
 3488 0040 0023     		movne	r3, #0
 3489 0042 DBB2     		uxtb	r3, r3
 3490 0044 15E0     		b	.L325
 3491              	.L326:
 3492 0046 BB68     		ldr	r3, [r7, #8]
 3493 0048 082B     		cmp	r3, #8
 3494 004a 09D1     		bne	.L328
 3495 004c FB68     		ldr	r3, [r7, #12]
 3496 004e 93F84030 		ldrb	r3, [r3, #64]
 3497 0052 DBB2     		uxtb	r3, r3
 3498 0054 022B     		cmp	r3, #2
 3499 0056 0CBF     		ite	eq
 3500 0058 0123     		moveq	r3, #1
 3501 005a 0023     		movne	r3, #0
 3502 005c DBB2     		uxtb	r3, r3
 3503 005e 08E0     		b	.L325
 3504              	.L328:
 3505 0060 FB68     		ldr	r3, [r7, #12]
 3506 0062 93F84130 		ldrb	r3, [r3, #65]
 3507 0066 DBB2     		uxtb	r3, r3
 3508 0068 022B     		cmp	r3, #2
 3509 006a 0CBF     		ite	eq
 3510 006c 0123     		moveq	r3, #1
 3511 006e 0023     		movne	r3, #0
 3512 0070 DBB2     		uxtb	r3, r3
 3513              	.L325:
 3514 0072 002B     		cmp	r3, #0
 3515 0074 01D0     		beq	.L330
 3516 0076 0223     		movs	r3, #2
 3517 0078 71E1     		b	.L331
 3518              	.L330:
 3519 007a BB68     		ldr	r3, [r7, #8]
 3520 007c 002B     		cmp	r3, #0
 3521 007e 09D1     		bne	.L332
 3522 0080 FB68     		ldr	r3, [r7, #12]
 3523 0082 93F83E30 		ldrb	r3, [r3, #62]
 3524 0086 DBB2     		uxtb	r3, r3
 3525 0088 012B     		cmp	r3, #1
 3526 008a 0CBF     		ite	eq
 3527 008c 0123     		moveq	r3, #1
 3528 008e 0023     		movne	r3, #0
 3529 0090 DBB2     		uxtb	r3, r3
 3530 0092 22E0     		b	.L333
 3531              	.L332:
 3532 0094 BB68     		ldr	r3, [r7, #8]
 3533 0096 042B     		cmp	r3, #4
 3534 0098 09D1     		bne	.L334
ARM GAS  C:\Users\user\AppData\Local\Temp\ccrDHgJ5.s 			page 62


 3535 009a FB68     		ldr	r3, [r7, #12]
 3536 009c 93F83F30 		ldrb	r3, [r3, #63]
 3537 00a0 DBB2     		uxtb	r3, r3
 3538 00a2 012B     		cmp	r3, #1
 3539 00a4 0CBF     		ite	eq
 3540 00a6 0123     		moveq	r3, #1
 3541 00a8 0023     		movne	r3, #0
 3542 00aa DBB2     		uxtb	r3, r3
 3543 00ac 15E0     		b	.L333
 3544              	.L334:
 3545 00ae BB68     		ldr	r3, [r7, #8]
 3546 00b0 082B     		cmp	r3, #8
 3547 00b2 09D1     		bne	.L336
 3548 00b4 FB68     		ldr	r3, [r7, #12]
 3549 00b6 93F84030 		ldrb	r3, [r3, #64]
 3550 00ba DBB2     		uxtb	r3, r3
 3551 00bc 012B     		cmp	r3, #1
 3552 00be 0CBF     		ite	eq
 3553 00c0 0123     		moveq	r3, #1
 3554 00c2 0023     		movne	r3, #0
 3555 00c4 DBB2     		uxtb	r3, r3
 3556 00c6 08E0     		b	.L333
 3557              	.L336:
 3558 00c8 FB68     		ldr	r3, [r7, #12]
 3559 00ca 93F84130 		ldrb	r3, [r3, #65]
 3560 00ce DBB2     		uxtb	r3, r3
 3561 00d0 012B     		cmp	r3, #1
 3562 00d2 0CBF     		ite	eq
 3563 00d4 0123     		moveq	r3, #1
 3564 00d6 0023     		movne	r3, #0
 3565 00d8 DBB2     		uxtb	r3, r3
 3566              	.L333:
 3567 00da 002B     		cmp	r3, #0
 3568 00dc 24D0     		beq	.L338
 3569 00de 7B68     		ldr	r3, [r7, #4]
 3570 00e0 002B     		cmp	r3, #0
 3571 00e2 04D1     		bne	.L339
 3572 00e4 7B88     		ldrh	r3, [r7, #2]
 3573 00e6 002B     		cmp	r3, #0
 3574 00e8 01D0     		beq	.L339
 3575 00ea 0123     		movs	r3, #1
 3576 00ec 37E1     		b	.L331
 3577              	.L339:
 3578 00ee BB68     		ldr	r3, [r7, #8]
 3579 00f0 002B     		cmp	r3, #0
 3580 00f2 04D1     		bne	.L340
 3581 00f4 FB68     		ldr	r3, [r7, #12]
 3582 00f6 0222     		movs	r2, #2
 3583 00f8 83F83E20 		strb	r2, [r3, #62]
 3584 00fc 16E0     		b	.L341
 3585              	.L340:
 3586 00fe BB68     		ldr	r3, [r7, #8]
 3587 0100 042B     		cmp	r3, #4
 3588 0102 04D1     		bne	.L342
 3589 0104 FB68     		ldr	r3, [r7, #12]
 3590 0106 0222     		movs	r2, #2
 3591 0108 83F83F20 		strb	r2, [r3, #63]
ARM GAS  C:\Users\user\AppData\Local\Temp\ccrDHgJ5.s 			page 63


 3592 010c 0EE0     		b	.L341
 3593              	.L342:
 3594 010e BB68     		ldr	r3, [r7, #8]
 3595 0110 082B     		cmp	r3, #8
 3596 0112 04D1     		bne	.L344
 3597 0114 FB68     		ldr	r3, [r7, #12]
 3598 0116 0222     		movs	r2, #2
 3599 0118 83F84020 		strb	r2, [r3, #64]
 3600 011c 06E0     		b	.L341
 3601              	.L344:
 3602 011e FB68     		ldr	r3, [r7, #12]
 3603 0120 0222     		movs	r2, #2
 3604 0122 83F84120 		strb	r2, [r3, #65]
 3605 0126 01E0     		b	.L341
 3606              	.L338:
 3607 0128 0123     		movs	r3, #1
 3608 012a 18E1     		b	.L331
 3609              	.L341:
 3610 012c BB68     		ldr	r3, [r7, #8]
 3611 012e 0C2B     		cmp	r3, #12
 3612 0130 00F2AE80 		bhi	.L346
 3613 0134 01A2     		adr	r2, .L348
 3614 0136 52F823F0 		ldr	pc, [r2, r3, lsl #2]
 3615 013a 00BF     		.p2align 2
 3616              	.L348:
 3617 013c 71010000 		.word	.L351+1
 3618 0140 91020000 		.word	.L346+1
 3619 0144 91020000 		.word	.L346+1
 3620 0148 91020000 		.word	.L346+1
 3621 014c B9010000 		.word	.L350+1
 3622 0150 91020000 		.word	.L346+1
 3623 0154 91020000 		.word	.L346+1
 3624 0158 91020000 		.word	.L346+1
 3625 015c 01020000 		.word	.L349+1
 3626 0160 91020000 		.word	.L346+1
 3627 0164 91020000 		.word	.L346+1
 3628 0168 91020000 		.word	.L346+1
 3629 016c 49020000 		.word	.L347+1
 3630              		.p2align 1
 3631              	.L351:
 3632 0170 FB68     		ldr	r3, [r7, #12]
 3633 0172 5B6A     		ldr	r3, [r3, #36]
 3634 0174 7C4A     		ldr	r2, .L365
 3635 0176 DA63     		str	r2, [r3, #60]
 3636 0178 FB68     		ldr	r3, [r7, #12]
 3637 017a 5B6A     		ldr	r3, [r3, #36]
 3638 017c 7B4A     		ldr	r2, .L365+4
 3639 017e 1A64     		str	r2, [r3, #64]
 3640 0180 FB68     		ldr	r3, [r7, #12]
 3641 0182 5B6A     		ldr	r3, [r3, #36]
 3642 0184 7A4A     		ldr	r2, .L365+8
 3643 0186 DA64     		str	r2, [r3, #76]
 3644 0188 FB68     		ldr	r3, [r7, #12]
 3645 018a 586A     		ldr	r0, [r3, #36]
 3646 018c 7968     		ldr	r1, [r7, #4]
 3647 018e FB68     		ldr	r3, [r7, #12]
 3648 0190 1B68     		ldr	r3, [r3]
ARM GAS  C:\Users\user\AppData\Local\Temp\ccrDHgJ5.s 			page 64


 3649 0192 3433     		adds	r3, r3, #52
 3650 0194 1A46     		mov	r2, r3
 3651 0196 7B88     		ldrh	r3, [r7, #2]
 3652 0198 FFF7FEFF 		bl	HAL_DMA_Start_IT
 3653 019c 0346     		mov	r3, r0
 3654 019e 002B     		cmp	r3, #0
 3655 01a0 01D0     		beq	.L352
 3656 01a2 0123     		movs	r3, #1
 3657 01a4 DBE0     		b	.L331
 3658              	.L352:
 3659 01a6 FB68     		ldr	r3, [r7, #12]
 3660 01a8 1B68     		ldr	r3, [r3]
 3661 01aa DA68     		ldr	r2, [r3, #12]
 3662 01ac FB68     		ldr	r3, [r7, #12]
 3663 01ae 1B68     		ldr	r3, [r3]
 3664 01b0 42F40072 		orr	r2, r2, #512
 3665 01b4 DA60     		str	r2, [r3, #12]
 3666 01b6 6EE0     		b	.L353
 3667              	.L350:
 3668 01b8 FB68     		ldr	r3, [r7, #12]
 3669 01ba 9B6A     		ldr	r3, [r3, #40]
 3670 01bc 6A4A     		ldr	r2, .L365
 3671 01be DA63     		str	r2, [r3, #60]
 3672 01c0 FB68     		ldr	r3, [r7, #12]
 3673 01c2 9B6A     		ldr	r3, [r3, #40]
 3674 01c4 694A     		ldr	r2, .L365+4
 3675 01c6 1A64     		str	r2, [r3, #64]
 3676 01c8 FB68     		ldr	r3, [r7, #12]
 3677 01ca 9B6A     		ldr	r3, [r3, #40]
 3678 01cc 684A     		ldr	r2, .L365+8
 3679 01ce DA64     		str	r2, [r3, #76]
 3680 01d0 FB68     		ldr	r3, [r7, #12]
 3681 01d2 986A     		ldr	r0, [r3, #40]
 3682 01d4 7968     		ldr	r1, [r7, #4]
 3683 01d6 FB68     		ldr	r3, [r7, #12]
 3684 01d8 1B68     		ldr	r3, [r3]
 3685 01da 3833     		adds	r3, r3, #56
 3686 01dc 1A46     		mov	r2, r3
 3687 01de 7B88     		ldrh	r3, [r7, #2]
 3688 01e0 FFF7FEFF 		bl	HAL_DMA_Start_IT
 3689 01e4 0346     		mov	r3, r0
 3690 01e6 002B     		cmp	r3, #0
 3691 01e8 01D0     		beq	.L354
 3692 01ea 0123     		movs	r3, #1
 3693 01ec B7E0     		b	.L331
 3694              	.L354:
 3695 01ee FB68     		ldr	r3, [r7, #12]
 3696 01f0 1B68     		ldr	r3, [r3]
 3697 01f2 DA68     		ldr	r2, [r3, #12]
 3698 01f4 FB68     		ldr	r3, [r7, #12]
 3699 01f6 1B68     		ldr	r3, [r3]
 3700 01f8 42F48062 		orr	r2, r2, #1024
 3701 01fc DA60     		str	r2, [r3, #12]
 3702 01fe 4AE0     		b	.L353
 3703              	.L349:
 3704 0200 FB68     		ldr	r3, [r7, #12]
 3705 0202 DB6A     		ldr	r3, [r3, #44]
ARM GAS  C:\Users\user\AppData\Local\Temp\ccrDHgJ5.s 			page 65


 3706 0204 584A     		ldr	r2, .L365
 3707 0206 DA63     		str	r2, [r3, #60]
 3708 0208 FB68     		ldr	r3, [r7, #12]
 3709 020a DB6A     		ldr	r3, [r3, #44]
 3710 020c 574A     		ldr	r2, .L365+4
 3711 020e 1A64     		str	r2, [r3, #64]
 3712 0210 FB68     		ldr	r3, [r7, #12]
 3713 0212 DB6A     		ldr	r3, [r3, #44]
 3714 0214 564A     		ldr	r2, .L365+8
 3715 0216 DA64     		str	r2, [r3, #76]
 3716 0218 FB68     		ldr	r3, [r7, #12]
 3717 021a D86A     		ldr	r0, [r3, #44]
 3718 021c 7968     		ldr	r1, [r7, #4]
 3719 021e FB68     		ldr	r3, [r7, #12]
 3720 0220 1B68     		ldr	r3, [r3]
 3721 0222 3C33     		adds	r3, r3, #60
 3722 0224 1A46     		mov	r2, r3
 3723 0226 7B88     		ldrh	r3, [r7, #2]
 3724 0228 FFF7FEFF 		bl	HAL_DMA_Start_IT
 3725 022c 0346     		mov	r3, r0
 3726 022e 002B     		cmp	r3, #0
 3727 0230 01D0     		beq	.L355
 3728 0232 0123     		movs	r3, #1
 3729 0234 93E0     		b	.L331
 3730              	.L355:
 3731 0236 FB68     		ldr	r3, [r7, #12]
 3732 0238 1B68     		ldr	r3, [r3]
 3733 023a DA68     		ldr	r2, [r3, #12]
 3734 023c FB68     		ldr	r3, [r7, #12]
 3735 023e 1B68     		ldr	r3, [r3]
 3736 0240 42F40062 		orr	r2, r2, #2048
 3737 0244 DA60     		str	r2, [r3, #12]
 3738 0246 26E0     		b	.L353
 3739              	.L347:
 3740 0248 FB68     		ldr	r3, [r7, #12]
 3741 024a 1B6B     		ldr	r3, [r3, #48]
 3742 024c 464A     		ldr	r2, .L365
 3743 024e DA63     		str	r2, [r3, #60]
 3744 0250 FB68     		ldr	r3, [r7, #12]
 3745 0252 1B6B     		ldr	r3, [r3, #48]
 3746 0254 454A     		ldr	r2, .L365+4
 3747 0256 1A64     		str	r2, [r3, #64]
 3748 0258 FB68     		ldr	r3, [r7, #12]
 3749 025a 1B6B     		ldr	r3, [r3, #48]
 3750 025c 444A     		ldr	r2, .L365+8
 3751 025e DA64     		str	r2, [r3, #76]
 3752 0260 FB68     		ldr	r3, [r7, #12]
 3753 0262 186B     		ldr	r0, [r3, #48]
 3754 0264 7968     		ldr	r1, [r7, #4]
 3755 0266 FB68     		ldr	r3, [r7, #12]
 3756 0268 1B68     		ldr	r3, [r3]
 3757 026a 4033     		adds	r3, r3, #64
 3758 026c 1A46     		mov	r2, r3
 3759 026e 7B88     		ldrh	r3, [r7, #2]
 3760 0270 FFF7FEFF 		bl	HAL_DMA_Start_IT
 3761 0274 0346     		mov	r3, r0
 3762 0276 002B     		cmp	r3, #0
ARM GAS  C:\Users\user\AppData\Local\Temp\ccrDHgJ5.s 			page 66


 3763 0278 01D0     		beq	.L356
 3764 027a 0123     		movs	r3, #1
 3765 027c 6FE0     		b	.L331
 3766              	.L356:
 3767 027e FB68     		ldr	r3, [r7, #12]
 3768 0280 1B68     		ldr	r3, [r3]
 3769 0282 DA68     		ldr	r2, [r3, #12]
 3770 0284 FB68     		ldr	r3, [r7, #12]
 3771 0286 1B68     		ldr	r3, [r3]
 3772 0288 42F48052 		orr	r2, r2, #4096
 3773 028c DA60     		str	r2, [r3, #12]
 3774 028e 02E0     		b	.L353
 3775              	.L346:
 3776 0290 0123     		movs	r3, #1
 3777 0292 FB75     		strb	r3, [r7, #23]
 3778 0294 00BF     		nop
 3779              	.L353:
 3780 0296 FB7D     		ldrb	r3, [r7, #23]	@ zero_extendqisi2
 3781 0298 002B     		cmp	r3, #0
 3782 029a 5FD1     		bne	.L357
 3783 029c FB68     		ldr	r3, [r7, #12]
 3784 029e 1B68     		ldr	r3, [r3]
 3785 02a0 0122     		movs	r2, #1
 3786 02a2 B968     		ldr	r1, [r7, #8]
 3787 02a4 1846     		mov	r0, r3
 3788 02a6 FFF7FEFF 		bl	TIM_CCxChannelCmd
 3789 02aa FB68     		ldr	r3, [r7, #12]
 3790 02ac 1B68     		ldr	r3, [r3]
 3791 02ae 314A     		ldr	r2, .L365+12
 3792 02b0 9342     		cmp	r3, r2
 3793 02b2 04D0     		beq	.L358
 3794 02b4 FB68     		ldr	r3, [r7, #12]
 3795 02b6 1B68     		ldr	r3, [r3]
 3796 02b8 2F4A     		ldr	r2, .L365+16
 3797 02ba 9342     		cmp	r3, r2
 3798 02bc 01D1     		bne	.L359
 3799              	.L358:
 3800 02be 0123     		movs	r3, #1
 3801 02c0 00E0     		b	.L360
 3802              	.L359:
 3803 02c2 0023     		movs	r3, #0
 3804              	.L360:
 3805 02c4 002B     		cmp	r3, #0
 3806 02c6 07D0     		beq	.L361
 3807 02c8 FB68     		ldr	r3, [r7, #12]
 3808 02ca 1B68     		ldr	r3, [r3]
 3809 02cc 5A6C     		ldr	r2, [r3, #68]
 3810 02ce FB68     		ldr	r3, [r7, #12]
 3811 02d0 1B68     		ldr	r3, [r3]
 3812 02d2 42F40042 		orr	r2, r2, #32768
 3813 02d6 5A64     		str	r2, [r3, #68]
 3814              	.L361:
 3815 02d8 FB68     		ldr	r3, [r7, #12]
 3816 02da 1B68     		ldr	r3, [r3]
 3817 02dc 254A     		ldr	r2, .L365+12
 3818 02de 9342     		cmp	r3, r2
 3819 02e0 22D0     		beq	.L362
ARM GAS  C:\Users\user\AppData\Local\Temp\ccrDHgJ5.s 			page 67


 3820 02e2 FB68     		ldr	r3, [r7, #12]
 3821 02e4 1B68     		ldr	r3, [r3]
 3822 02e6 B3F1804F 		cmp	r3, #1073741824
 3823 02ea 1DD0     		beq	.L362
 3824 02ec FB68     		ldr	r3, [r7, #12]
 3825 02ee 1B68     		ldr	r3, [r3]
 3826 02f0 224A     		ldr	r2, .L365+20
 3827 02f2 9342     		cmp	r3, r2
 3828 02f4 18D0     		beq	.L362
 3829 02f6 FB68     		ldr	r3, [r7, #12]
 3830 02f8 1B68     		ldr	r3, [r3]
 3831 02fa 214A     		ldr	r2, .L365+24
 3832 02fc 9342     		cmp	r3, r2
 3833 02fe 13D0     		beq	.L362
 3834 0300 FB68     		ldr	r3, [r7, #12]
 3835 0302 1B68     		ldr	r3, [r3]
 3836 0304 1F4A     		ldr	r2, .L365+28
 3837 0306 9342     		cmp	r3, r2
 3838 0308 0ED0     		beq	.L362
 3839 030a FB68     		ldr	r3, [r7, #12]
 3840 030c 1B68     		ldr	r3, [r3]
 3841 030e 1A4A     		ldr	r2, .L365+16
 3842 0310 9342     		cmp	r3, r2
 3843 0312 09D0     		beq	.L362
 3844 0314 FB68     		ldr	r3, [r7, #12]
 3845 0316 1B68     		ldr	r3, [r3]
 3846 0318 1B4A     		ldr	r2, .L365+32
 3847 031a 9342     		cmp	r3, r2
 3848 031c 04D0     		beq	.L362
 3849 031e FB68     		ldr	r3, [r7, #12]
 3850 0320 1B68     		ldr	r3, [r3]
 3851 0322 1A4A     		ldr	r2, .L365+36
 3852 0324 9342     		cmp	r3, r2
 3853 0326 11D1     		bne	.L363
 3854              	.L362:
 3855 0328 FB68     		ldr	r3, [r7, #12]
 3856 032a 1B68     		ldr	r3, [r3]
 3857 032c 9B68     		ldr	r3, [r3, #8]
 3858 032e 03F00703 		and	r3, r3, #7
 3859 0332 3B61     		str	r3, [r7, #16]
 3860 0334 3B69     		ldr	r3, [r7, #16]
 3861 0336 062B     		cmp	r3, #6
 3862 0338 10D0     		beq	.L357
 3863 033a FB68     		ldr	r3, [r7, #12]
 3864 033c 1B68     		ldr	r3, [r3]
 3865 033e 1A68     		ldr	r2, [r3]
 3866 0340 FB68     		ldr	r3, [r7, #12]
 3867 0342 1B68     		ldr	r3, [r3]
 3868 0344 42F00102 		orr	r2, r2, #1
 3869 0348 1A60     		str	r2, [r3]
 3870 034a 07E0     		b	.L357
 3871              	.L363:
 3872 034c FB68     		ldr	r3, [r7, #12]
 3873 034e 1B68     		ldr	r3, [r3]
 3874 0350 1A68     		ldr	r2, [r3]
 3875 0352 FB68     		ldr	r3, [r7, #12]
 3876 0354 1B68     		ldr	r3, [r3]
ARM GAS  C:\Users\user\AppData\Local\Temp\ccrDHgJ5.s 			page 68


 3877 0356 42F00102 		orr	r2, r2, #1
 3878 035a 1A60     		str	r2, [r3]
 3879              	.L357:
 3880 035c FB7D     		ldrb	r3, [r7, #23]	@ zero_extendqisi2
 3881              	.L331:
 3882 035e 1846     		mov	r0, r3
 3883 0360 1837     		adds	r7, r7, #24
 3884 0362 BD46     		mov	sp, r7
 3885              		@ sp needed
 3886 0364 80BD     		pop	{r7, pc}
 3887              	.L366:
 3888 0366 00BF     		.align	2
 3889              	.L365:
 3890 0368 00000000 		.word	TIM_DMADelayPulseCplt
 3891 036c 00000000 		.word	TIM_DMADelayPulseHalfCplt
 3892 0370 00000000 		.word	TIM_DMAError
 3893 0374 00000140 		.word	1073807360
 3894 0378 00040140 		.word	1073808384
 3895 037c 00040040 		.word	1073742848
 3896 0380 00080040 		.word	1073743872
 3897 0384 000C0040 		.word	1073744896
 3898 0388 00400140 		.word	1073823744
 3899 038c 00180040 		.word	1073747968
 3901              		.section	.text.HAL_TIM_PWM_Stop_DMA,"ax",%progbits
 3902              		.align	1
 3903              		.global	HAL_TIM_PWM_Stop_DMA
 3904              		.syntax unified
 3905              		.thumb
 3906              		.thumb_func
 3908              	HAL_TIM_PWM_Stop_DMA:
 3909              		@ args = 0, pretend = 0, frame = 16
 3910              		@ frame_needed = 1, uses_anonymous_args = 0
 3911 0000 80B5     		push	{r7, lr}
 3912 0002 84B0     		sub	sp, sp, #16
 3913 0004 00AF     		add	r7, sp, #0
 3914 0006 7860     		str	r0, [r7, #4]
 3915 0008 3960     		str	r1, [r7]
 3916 000a 0023     		movs	r3, #0
 3917 000c FB73     		strb	r3, [r7, #15]
 3918 000e 3B68     		ldr	r3, [r7]
 3919 0010 0C2B     		cmp	r3, #12
 3920 0012 55D8     		bhi	.L368
 3921 0014 01A2     		adr	r2, .L370
 3922 0016 52F823F0 		ldr	pc, [r2, r3, lsl #2]
 3923 001a 00BF     		.p2align 2
 3924              	.L370:
 3925 001c 51000000 		.word	.L373+1
 3926 0020 C1000000 		.word	.L368+1
 3927 0024 C1000000 		.word	.L368+1
 3928 0028 C1000000 		.word	.L368+1
 3929 002c 6D000000 		.word	.L372+1
 3930 0030 C1000000 		.word	.L368+1
 3931 0034 C1000000 		.word	.L368+1
 3932 0038 C1000000 		.word	.L368+1
 3933 003c 89000000 		.word	.L371+1
 3934 0040 C1000000 		.word	.L368+1
 3935 0044 C1000000 		.word	.L368+1
ARM GAS  C:\Users\user\AppData\Local\Temp\ccrDHgJ5.s 			page 69


 3936 0048 C1000000 		.word	.L368+1
 3937 004c A5000000 		.word	.L369+1
 3938              		.p2align 1
 3939              	.L373:
 3940 0050 7B68     		ldr	r3, [r7, #4]
 3941 0052 1B68     		ldr	r3, [r3]
 3942 0054 DA68     		ldr	r2, [r3, #12]
 3943 0056 7B68     		ldr	r3, [r7, #4]
 3944 0058 1B68     		ldr	r3, [r3]
 3945 005a 22F40072 		bic	r2, r2, #512
 3946 005e DA60     		str	r2, [r3, #12]
 3947 0060 7B68     		ldr	r3, [r7, #4]
 3948 0062 5B6A     		ldr	r3, [r3, #36]
 3949 0064 1846     		mov	r0, r3
 3950 0066 FFF7FEFF 		bl	HAL_DMA_Abort_IT
 3951 006a 2CE0     		b	.L374
 3952              	.L372:
 3953 006c 7B68     		ldr	r3, [r7, #4]
 3954 006e 1B68     		ldr	r3, [r3]
 3955 0070 DA68     		ldr	r2, [r3, #12]
 3956 0072 7B68     		ldr	r3, [r7, #4]
 3957 0074 1B68     		ldr	r3, [r3]
 3958 0076 22F48062 		bic	r2, r2, #1024
 3959 007a DA60     		str	r2, [r3, #12]
 3960 007c 7B68     		ldr	r3, [r7, #4]
 3961 007e 9B6A     		ldr	r3, [r3, #40]
 3962 0080 1846     		mov	r0, r3
 3963 0082 FFF7FEFF 		bl	HAL_DMA_Abort_IT
 3964 0086 1EE0     		b	.L374
 3965              	.L371:
 3966 0088 7B68     		ldr	r3, [r7, #4]
 3967 008a 1B68     		ldr	r3, [r3]
 3968 008c DA68     		ldr	r2, [r3, #12]
 3969 008e 7B68     		ldr	r3, [r7, #4]
 3970 0090 1B68     		ldr	r3, [r3]
 3971 0092 22F40062 		bic	r2, r2, #2048
 3972 0096 DA60     		str	r2, [r3, #12]
 3973 0098 7B68     		ldr	r3, [r7, #4]
 3974 009a DB6A     		ldr	r3, [r3, #44]
 3975 009c 1846     		mov	r0, r3
 3976 009e FFF7FEFF 		bl	HAL_DMA_Abort_IT
 3977 00a2 10E0     		b	.L374
 3978              	.L369:
 3979 00a4 7B68     		ldr	r3, [r7, #4]
 3980 00a6 1B68     		ldr	r3, [r3]
 3981 00a8 DA68     		ldr	r2, [r3, #12]
 3982 00aa 7B68     		ldr	r3, [r7, #4]
 3983 00ac 1B68     		ldr	r3, [r3]
 3984 00ae 22F48052 		bic	r2, r2, #4096
 3985 00b2 DA60     		str	r2, [r3, #12]
 3986 00b4 7B68     		ldr	r3, [r7, #4]
 3987 00b6 1B6B     		ldr	r3, [r3, #48]
 3988 00b8 1846     		mov	r0, r3
 3989 00ba FFF7FEFF 		bl	HAL_DMA_Abort_IT
 3990 00be 02E0     		b	.L374
 3991              	.L368:
 3992 00c0 0123     		movs	r3, #1
ARM GAS  C:\Users\user\AppData\Local\Temp\ccrDHgJ5.s 			page 70


 3993 00c2 FB73     		strb	r3, [r7, #15]
 3994 00c4 00BF     		nop
 3995              	.L374:
 3996 00c6 FB7B     		ldrb	r3, [r7, #15]	@ zero_extendqisi2
 3997 00c8 002B     		cmp	r3, #0
 3998 00ca 61D1     		bne	.L375
 3999 00cc 7B68     		ldr	r3, [r7, #4]
 4000 00ce 1B68     		ldr	r3, [r3]
 4001 00d0 0022     		movs	r2, #0
 4002 00d2 3968     		ldr	r1, [r7]
 4003 00d4 1846     		mov	r0, r3
 4004 00d6 FFF7FEFF 		bl	TIM_CCxChannelCmd
 4005 00da 7B68     		ldr	r3, [r7, #4]
 4006 00dc 1B68     		ldr	r3, [r3]
 4007 00de 2F4A     		ldr	r2, .L387
 4008 00e0 9342     		cmp	r3, r2
 4009 00e2 04D0     		beq	.L376
 4010 00e4 7B68     		ldr	r3, [r7, #4]
 4011 00e6 1B68     		ldr	r3, [r3]
 4012 00e8 2D4A     		ldr	r2, .L387+4
 4013 00ea 9342     		cmp	r3, r2
 4014 00ec 01D1     		bne	.L377
 4015              	.L376:
 4016 00ee 0123     		movs	r3, #1
 4017 00f0 00E0     		b	.L378
 4018              	.L377:
 4019 00f2 0023     		movs	r3, #0
 4020              	.L378:
 4021 00f4 002B     		cmp	r3, #0
 4022 00f6 17D0     		beq	.L379
 4023 00f8 7B68     		ldr	r3, [r7, #4]
 4024 00fa 1B68     		ldr	r3, [r3]
 4025 00fc 1A6A     		ldr	r2, [r3, #32]
 4026 00fe 41F21113 		movw	r3, #4369
 4027 0102 1340     		ands	r3, r3, r2
 4028 0104 002B     		cmp	r3, #0
 4029 0106 0FD1     		bne	.L379
 4030 0108 7B68     		ldr	r3, [r7, #4]
 4031 010a 1B68     		ldr	r3, [r3]
 4032 010c 1A6A     		ldr	r2, [r3, #32]
 4033 010e 40F24443 		movw	r3, #1092
 4034 0112 1340     		ands	r3, r3, r2
 4035 0114 002B     		cmp	r3, #0
 4036 0116 07D1     		bne	.L379
 4037 0118 7B68     		ldr	r3, [r7, #4]
 4038 011a 1B68     		ldr	r3, [r3]
 4039 011c 5A6C     		ldr	r2, [r3, #68]
 4040 011e 7B68     		ldr	r3, [r7, #4]
 4041 0120 1B68     		ldr	r3, [r3]
 4042 0122 22F40042 		bic	r2, r2, #32768
 4043 0126 5A64     		str	r2, [r3, #68]
 4044              	.L379:
 4045 0128 7B68     		ldr	r3, [r7, #4]
 4046 012a 1B68     		ldr	r3, [r3]
 4047 012c 1A6A     		ldr	r2, [r3, #32]
 4048 012e 41F21113 		movw	r3, #4369
 4049 0132 1340     		ands	r3, r3, r2
ARM GAS  C:\Users\user\AppData\Local\Temp\ccrDHgJ5.s 			page 71


 4050 0134 002B     		cmp	r3, #0
 4051 0136 0FD1     		bne	.L380
 4052 0138 7B68     		ldr	r3, [r7, #4]
 4053 013a 1B68     		ldr	r3, [r3]
 4054 013c 1A6A     		ldr	r2, [r3, #32]
 4055 013e 40F24443 		movw	r3, #1092
 4056 0142 1340     		ands	r3, r3, r2
 4057 0144 002B     		cmp	r3, #0
 4058 0146 07D1     		bne	.L380
 4059 0148 7B68     		ldr	r3, [r7, #4]
 4060 014a 1B68     		ldr	r3, [r3]
 4061 014c 1A68     		ldr	r2, [r3]
 4062 014e 7B68     		ldr	r3, [r7, #4]
 4063 0150 1B68     		ldr	r3, [r3]
 4064 0152 22F00102 		bic	r2, r2, #1
 4065 0156 1A60     		str	r2, [r3]
 4066              	.L380:
 4067 0158 3B68     		ldr	r3, [r7]
 4068 015a 002B     		cmp	r3, #0
 4069 015c 04D1     		bne	.L381
 4070 015e 7B68     		ldr	r3, [r7, #4]
 4071 0160 0122     		movs	r2, #1
 4072 0162 83F83E20 		strb	r2, [r3, #62]
 4073 0166 13E0     		b	.L375
 4074              	.L381:
 4075 0168 3B68     		ldr	r3, [r7]
 4076 016a 042B     		cmp	r3, #4
 4077 016c 04D1     		bne	.L382
 4078 016e 7B68     		ldr	r3, [r7, #4]
 4079 0170 0122     		movs	r2, #1
 4080 0172 83F83F20 		strb	r2, [r3, #63]
 4081 0176 0BE0     		b	.L375
 4082              	.L382:
 4083 0178 3B68     		ldr	r3, [r7]
 4084 017a 082B     		cmp	r3, #8
 4085 017c 04D1     		bne	.L384
 4086 017e 7B68     		ldr	r3, [r7, #4]
 4087 0180 0122     		movs	r2, #1
 4088 0182 83F84020 		strb	r2, [r3, #64]
 4089 0186 03E0     		b	.L375
 4090              	.L384:
 4091 0188 7B68     		ldr	r3, [r7, #4]
 4092 018a 0122     		movs	r2, #1
 4093 018c 83F84120 		strb	r2, [r3, #65]
 4094              	.L375:
 4095 0190 FB7B     		ldrb	r3, [r7, #15]	@ zero_extendqisi2
 4096 0192 1846     		mov	r0, r3
 4097 0194 1037     		adds	r7, r7, #16
 4098 0196 BD46     		mov	sp, r7
 4099              		@ sp needed
 4100 0198 80BD     		pop	{r7, pc}
 4101              	.L388:
 4102 019a 00BF     		.align	2
 4103              	.L387:
 4104 019c 00000140 		.word	1073807360
 4105 01a0 00040140 		.word	1073808384
 4107              		.section	.text.HAL_TIM_IC_Init,"ax",%progbits
ARM GAS  C:\Users\user\AppData\Local\Temp\ccrDHgJ5.s 			page 72


 4108              		.align	1
 4109              		.global	HAL_TIM_IC_Init
 4110              		.syntax unified
 4111              		.thumb
 4112              		.thumb_func
 4114              	HAL_TIM_IC_Init:
 4115              		@ args = 0, pretend = 0, frame = 8
 4116              		@ frame_needed = 1, uses_anonymous_args = 0
 4117 0000 80B5     		push	{r7, lr}
 4118 0002 82B0     		sub	sp, sp, #8
 4119 0004 00AF     		add	r7, sp, #0
 4120 0006 7860     		str	r0, [r7, #4]
 4121 0008 7B68     		ldr	r3, [r7, #4]
 4122 000a 002B     		cmp	r3, #0
 4123 000c 01D1     		bne	.L390
 4124 000e 0123     		movs	r3, #1
 4125 0010 41E0     		b	.L391
 4126              	.L390:
 4127 0012 7B68     		ldr	r3, [r7, #4]
 4128 0014 93F83D30 		ldrb	r3, [r3, #61]
 4129 0018 DBB2     		uxtb	r3, r3
 4130 001a 002B     		cmp	r3, #0
 4131 001c 06D1     		bne	.L392
 4132 001e 7B68     		ldr	r3, [r7, #4]
 4133 0020 0022     		movs	r2, #0
 4134 0022 83F83C20 		strb	r2, [r3, #60]
 4135 0026 7868     		ldr	r0, [r7, #4]
 4136 0028 FFF7FEFF 		bl	HAL_TIM_IC_MspInit
 4137              	.L392:
 4138 002c 7B68     		ldr	r3, [r7, #4]
 4139 002e 0222     		movs	r2, #2
 4140 0030 83F83D20 		strb	r2, [r3, #61]
 4141 0034 7B68     		ldr	r3, [r7, #4]
 4142 0036 1A68     		ldr	r2, [r3]
 4143 0038 7B68     		ldr	r3, [r7, #4]
 4144 003a 0433     		adds	r3, r3, #4
 4145 003c 1946     		mov	r1, r3
 4146 003e 1046     		mov	r0, r2
 4147 0040 FFF7FEFF 		bl	TIM_Base_SetConfig
 4148 0044 7B68     		ldr	r3, [r7, #4]
 4149 0046 0122     		movs	r2, #1
 4150 0048 83F84620 		strb	r2, [r3, #70]
 4151 004c 7B68     		ldr	r3, [r7, #4]
 4152 004e 0122     		movs	r2, #1
 4153 0050 83F83E20 		strb	r2, [r3, #62]
 4154 0054 7B68     		ldr	r3, [r7, #4]
 4155 0056 0122     		movs	r2, #1
 4156 0058 83F83F20 		strb	r2, [r3, #63]
 4157 005c 7B68     		ldr	r3, [r7, #4]
 4158 005e 0122     		movs	r2, #1
 4159 0060 83F84020 		strb	r2, [r3, #64]
 4160 0064 7B68     		ldr	r3, [r7, #4]
 4161 0066 0122     		movs	r2, #1
 4162 0068 83F84120 		strb	r2, [r3, #65]
 4163 006c 7B68     		ldr	r3, [r7, #4]
 4164 006e 0122     		movs	r2, #1
 4165 0070 83F84220 		strb	r2, [r3, #66]
ARM GAS  C:\Users\user\AppData\Local\Temp\ccrDHgJ5.s 			page 73


 4166 0074 7B68     		ldr	r3, [r7, #4]
 4167 0076 0122     		movs	r2, #1
 4168 0078 83F84320 		strb	r2, [r3, #67]
 4169 007c 7B68     		ldr	r3, [r7, #4]
 4170 007e 0122     		movs	r2, #1
 4171 0080 83F84420 		strb	r2, [r3, #68]
 4172 0084 7B68     		ldr	r3, [r7, #4]
 4173 0086 0122     		movs	r2, #1
 4174 0088 83F84520 		strb	r2, [r3, #69]
 4175 008c 7B68     		ldr	r3, [r7, #4]
 4176 008e 0122     		movs	r2, #1
 4177 0090 83F83D20 		strb	r2, [r3, #61]
 4178 0094 0023     		movs	r3, #0
 4179              	.L391:
 4180 0096 1846     		mov	r0, r3
 4181 0098 0837     		adds	r7, r7, #8
 4182 009a BD46     		mov	sp, r7
 4183              		@ sp needed
 4184 009c 80BD     		pop	{r7, pc}
 4186              		.section	.text.HAL_TIM_IC_DeInit,"ax",%progbits
 4187              		.align	1
 4188              		.global	HAL_TIM_IC_DeInit
 4189              		.syntax unified
 4190              		.thumb
 4191              		.thumb_func
 4193              	HAL_TIM_IC_DeInit:
 4194              		@ args = 0, pretend = 0, frame = 8
 4195              		@ frame_needed = 1, uses_anonymous_args = 0
 4196 0000 80B5     		push	{r7, lr}
 4197 0002 82B0     		sub	sp, sp, #8
 4198 0004 00AF     		add	r7, sp, #0
 4199 0006 7860     		str	r0, [r7, #4]
 4200 0008 7B68     		ldr	r3, [r7, #4]
 4201 000a 0222     		movs	r2, #2
 4202 000c 83F83D20 		strb	r2, [r3, #61]
 4203 0010 7B68     		ldr	r3, [r7, #4]
 4204 0012 1B68     		ldr	r3, [r3]
 4205 0014 1A6A     		ldr	r2, [r3, #32]
 4206 0016 41F21113 		movw	r3, #4369
 4207 001a 1340     		ands	r3, r3, r2
 4208 001c 002B     		cmp	r3, #0
 4209 001e 0FD1     		bne	.L394
 4210 0020 7B68     		ldr	r3, [r7, #4]
 4211 0022 1B68     		ldr	r3, [r3]
 4212 0024 1A6A     		ldr	r2, [r3, #32]
 4213 0026 40F24443 		movw	r3, #1092
 4214 002a 1340     		ands	r3, r3, r2
 4215 002c 002B     		cmp	r3, #0
 4216 002e 07D1     		bne	.L394
 4217 0030 7B68     		ldr	r3, [r7, #4]
 4218 0032 1B68     		ldr	r3, [r3]
 4219 0034 1A68     		ldr	r2, [r3]
 4220 0036 7B68     		ldr	r3, [r7, #4]
 4221 0038 1B68     		ldr	r3, [r3]
 4222 003a 22F00102 		bic	r2, r2, #1
 4223 003e 1A60     		str	r2, [r3]
 4224              	.L394:
ARM GAS  C:\Users\user\AppData\Local\Temp\ccrDHgJ5.s 			page 74


 4225 0040 7868     		ldr	r0, [r7, #4]
 4226 0042 FFF7FEFF 		bl	HAL_TIM_IC_MspDeInit
 4227 0046 7B68     		ldr	r3, [r7, #4]
 4228 0048 0022     		movs	r2, #0
 4229 004a 83F84620 		strb	r2, [r3, #70]
 4230 004e 7B68     		ldr	r3, [r7, #4]
 4231 0050 0022     		movs	r2, #0
 4232 0052 83F83E20 		strb	r2, [r3, #62]
 4233 0056 7B68     		ldr	r3, [r7, #4]
 4234 0058 0022     		movs	r2, #0
 4235 005a 83F83F20 		strb	r2, [r3, #63]
 4236 005e 7B68     		ldr	r3, [r7, #4]
 4237 0060 0022     		movs	r2, #0
 4238 0062 83F84020 		strb	r2, [r3, #64]
 4239 0066 7B68     		ldr	r3, [r7, #4]
 4240 0068 0022     		movs	r2, #0
 4241 006a 83F84120 		strb	r2, [r3, #65]
 4242 006e 7B68     		ldr	r3, [r7, #4]
 4243 0070 0022     		movs	r2, #0
 4244 0072 83F84220 		strb	r2, [r3, #66]
 4245 0076 7B68     		ldr	r3, [r7, #4]
 4246 0078 0022     		movs	r2, #0
 4247 007a 83F84320 		strb	r2, [r3, #67]
 4248 007e 7B68     		ldr	r3, [r7, #4]
 4249 0080 0022     		movs	r2, #0
 4250 0082 83F84420 		strb	r2, [r3, #68]
 4251 0086 7B68     		ldr	r3, [r7, #4]
 4252 0088 0022     		movs	r2, #0
 4253 008a 83F84520 		strb	r2, [r3, #69]
 4254 008e 7B68     		ldr	r3, [r7, #4]
 4255 0090 0022     		movs	r2, #0
 4256 0092 83F83D20 		strb	r2, [r3, #61]
 4257 0096 7B68     		ldr	r3, [r7, #4]
 4258 0098 0022     		movs	r2, #0
 4259 009a 83F83C20 		strb	r2, [r3, #60]
 4260 009e 0023     		movs	r3, #0
 4261 00a0 1846     		mov	r0, r3
 4262 00a2 0837     		adds	r7, r7, #8
 4263 00a4 BD46     		mov	sp, r7
 4264              		@ sp needed
 4265 00a6 80BD     		pop	{r7, pc}
 4267              		.section	.text.HAL_TIM_IC_MspInit,"ax",%progbits
 4268              		.align	1
 4269              		.weak	HAL_TIM_IC_MspInit
 4270              		.syntax unified
 4271              		.thumb
 4272              		.thumb_func
 4274              	HAL_TIM_IC_MspInit:
 4275              		@ args = 0, pretend = 0, frame = 8
 4276              		@ frame_needed = 1, uses_anonymous_args = 0
 4277              		@ link register save eliminated.
 4278 0000 80B4     		push	{r7}
 4279 0002 83B0     		sub	sp, sp, #12
 4280 0004 00AF     		add	r7, sp, #0
 4281 0006 7860     		str	r0, [r7, #4]
 4282 0008 00BF     		nop
 4283 000a 0C37     		adds	r7, r7, #12
ARM GAS  C:\Users\user\AppData\Local\Temp\ccrDHgJ5.s 			page 75


 4284 000c BD46     		mov	sp, r7
 4285              		@ sp needed
 4286 000e 5DF8047B 		ldr	r7, [sp], #4
 4287 0012 7047     		bx	lr
 4289              		.section	.text.HAL_TIM_IC_MspDeInit,"ax",%progbits
 4290              		.align	1
 4291              		.weak	HAL_TIM_IC_MspDeInit
 4292              		.syntax unified
 4293              		.thumb
 4294              		.thumb_func
 4296              	HAL_TIM_IC_MspDeInit:
 4297              		@ args = 0, pretend = 0, frame = 8
 4298              		@ frame_needed = 1, uses_anonymous_args = 0
 4299              		@ link register save eliminated.
 4300 0000 80B4     		push	{r7}
 4301 0002 83B0     		sub	sp, sp, #12
 4302 0004 00AF     		add	r7, sp, #0
 4303 0006 7860     		str	r0, [r7, #4]
 4304 0008 00BF     		nop
 4305 000a 0C37     		adds	r7, r7, #12
 4306 000c BD46     		mov	sp, r7
 4307              		@ sp needed
 4308 000e 5DF8047B 		ldr	r7, [sp], #4
 4309 0012 7047     		bx	lr
 4311              		.section	.text.HAL_TIM_IC_Start,"ax",%progbits
 4312              		.align	1
 4313              		.global	HAL_TIM_IC_Start
 4314              		.syntax unified
 4315              		.thumb
 4316              		.thumb_func
 4318              	HAL_TIM_IC_Start:
 4319              		@ args = 0, pretend = 0, frame = 16
 4320              		@ frame_needed = 1, uses_anonymous_args = 0
 4321 0000 80B5     		push	{r7, lr}
 4322 0002 84B0     		sub	sp, sp, #16
 4323 0004 00AF     		add	r7, sp, #0
 4324 0006 7860     		str	r0, [r7, #4]
 4325 0008 3960     		str	r1, [r7]
 4326 000a 3B68     		ldr	r3, [r7]
 4327 000c 002B     		cmp	r3, #0
 4328 000e 04D1     		bne	.L399
 4329 0010 7B68     		ldr	r3, [r7, #4]
 4330 0012 93F83E30 		ldrb	r3, [r3, #62]
 4331 0016 DBB2     		uxtb	r3, r3
 4332 0018 13E0     		b	.L400
 4333              	.L399:
 4334 001a 3B68     		ldr	r3, [r7]
 4335 001c 042B     		cmp	r3, #4
 4336 001e 04D1     		bne	.L401
 4337 0020 7B68     		ldr	r3, [r7, #4]
 4338 0022 93F83F30 		ldrb	r3, [r3, #63]
 4339 0026 DBB2     		uxtb	r3, r3
 4340 0028 0BE0     		b	.L400
 4341              	.L401:
 4342 002a 3B68     		ldr	r3, [r7]
 4343 002c 082B     		cmp	r3, #8
 4344 002e 04D1     		bne	.L403
ARM GAS  C:\Users\user\AppData\Local\Temp\ccrDHgJ5.s 			page 76


 4345 0030 7B68     		ldr	r3, [r7, #4]
 4346 0032 93F84030 		ldrb	r3, [r3, #64]
 4347 0036 DBB2     		uxtb	r3, r3
 4348 0038 03E0     		b	.L400
 4349              	.L403:
 4350 003a 7B68     		ldr	r3, [r7, #4]
 4351 003c 93F84130 		ldrb	r3, [r3, #65]
 4352 0040 DBB2     		uxtb	r3, r3
 4353              	.L400:
 4354 0042 FB73     		strb	r3, [r7, #15]
 4355 0044 3B68     		ldr	r3, [r7]
 4356 0046 002B     		cmp	r3, #0
 4357 0048 04D1     		bne	.L405
 4358 004a 7B68     		ldr	r3, [r7, #4]
 4359 004c 93F84230 		ldrb	r3, [r3, #66]
 4360 0050 DBB2     		uxtb	r3, r3
 4361 0052 13E0     		b	.L406
 4362              	.L405:
 4363 0054 3B68     		ldr	r3, [r7]
 4364 0056 042B     		cmp	r3, #4
 4365 0058 04D1     		bne	.L407
 4366 005a 7B68     		ldr	r3, [r7, #4]
 4367 005c 93F84330 		ldrb	r3, [r3, #67]
 4368 0060 DBB2     		uxtb	r3, r3
 4369 0062 0BE0     		b	.L406
 4370              	.L407:
 4371 0064 3B68     		ldr	r3, [r7]
 4372 0066 082B     		cmp	r3, #8
 4373 0068 04D1     		bne	.L409
 4374 006a 7B68     		ldr	r3, [r7, #4]
 4375 006c 93F84430 		ldrb	r3, [r3, #68]
 4376 0070 DBB2     		uxtb	r3, r3
 4377 0072 03E0     		b	.L406
 4378              	.L409:
 4379 0074 7B68     		ldr	r3, [r7, #4]
 4380 0076 93F84530 		ldrb	r3, [r3, #69]
 4381 007a DBB2     		uxtb	r3, r3
 4382              	.L406:
 4383 007c BB73     		strb	r3, [r7, #14]
 4384 007e FB7B     		ldrb	r3, [r7, #15]	@ zero_extendqisi2
 4385 0080 012B     		cmp	r3, #1
 4386 0082 02D1     		bne	.L411
 4387 0084 BB7B     		ldrb	r3, [r7, #14]	@ zero_extendqisi2
 4388 0086 012B     		cmp	r3, #1
 4389 0088 01D0     		beq	.L412
 4390              	.L411:
 4391 008a 0123     		movs	r3, #1
 4392 008c 81E0     		b	.L413
 4393              	.L412:
 4394 008e 3B68     		ldr	r3, [r7]
 4395 0090 002B     		cmp	r3, #0
 4396 0092 04D1     		bne	.L414
 4397 0094 7B68     		ldr	r3, [r7, #4]
 4398 0096 0222     		movs	r2, #2
 4399 0098 83F83E20 		strb	r2, [r3, #62]
 4400 009c 13E0     		b	.L415
 4401              	.L414:
ARM GAS  C:\Users\user\AppData\Local\Temp\ccrDHgJ5.s 			page 77


 4402 009e 3B68     		ldr	r3, [r7]
 4403 00a0 042B     		cmp	r3, #4
 4404 00a2 04D1     		bne	.L416
 4405 00a4 7B68     		ldr	r3, [r7, #4]
 4406 00a6 0222     		movs	r2, #2
 4407 00a8 83F83F20 		strb	r2, [r3, #63]
 4408 00ac 0BE0     		b	.L415
 4409              	.L416:
 4410 00ae 3B68     		ldr	r3, [r7]
 4411 00b0 082B     		cmp	r3, #8
 4412 00b2 04D1     		bne	.L418
 4413 00b4 7B68     		ldr	r3, [r7, #4]
 4414 00b6 0222     		movs	r2, #2
 4415 00b8 83F84020 		strb	r2, [r3, #64]
 4416 00bc 03E0     		b	.L415
 4417              	.L418:
 4418 00be 7B68     		ldr	r3, [r7, #4]
 4419 00c0 0222     		movs	r2, #2
 4420 00c2 83F84120 		strb	r2, [r3, #65]
 4421              	.L415:
 4422 00c6 3B68     		ldr	r3, [r7]
 4423 00c8 002B     		cmp	r3, #0
 4424 00ca 04D1     		bne	.L420
 4425 00cc 7B68     		ldr	r3, [r7, #4]
 4426 00ce 0222     		movs	r2, #2
 4427 00d0 83F84220 		strb	r2, [r3, #66]
 4428 00d4 13E0     		b	.L421
 4429              	.L420:
 4430 00d6 3B68     		ldr	r3, [r7]
 4431 00d8 042B     		cmp	r3, #4
 4432 00da 04D1     		bne	.L422
 4433 00dc 7B68     		ldr	r3, [r7, #4]
 4434 00de 0222     		movs	r2, #2
 4435 00e0 83F84320 		strb	r2, [r3, #67]
 4436 00e4 0BE0     		b	.L421
 4437              	.L422:
 4438 00e6 3B68     		ldr	r3, [r7]
 4439 00e8 082B     		cmp	r3, #8
 4440 00ea 04D1     		bne	.L424
 4441 00ec 7B68     		ldr	r3, [r7, #4]
 4442 00ee 0222     		movs	r2, #2
 4443 00f0 83F84420 		strb	r2, [r3, #68]
 4444 00f4 03E0     		b	.L421
 4445              	.L424:
 4446 00f6 7B68     		ldr	r3, [r7, #4]
 4447 00f8 0222     		movs	r2, #2
 4448 00fa 83F84520 		strb	r2, [r3, #69]
 4449              	.L421:
 4450 00fe 7B68     		ldr	r3, [r7, #4]
 4451 0100 1B68     		ldr	r3, [r3]
 4452 0102 0122     		movs	r2, #1
 4453 0104 3968     		ldr	r1, [r7]
 4454 0106 1846     		mov	r0, r3
 4455 0108 FFF7FEFF 		bl	TIM_CCxChannelCmd
 4456 010c 7B68     		ldr	r3, [r7, #4]
 4457 010e 1B68     		ldr	r3, [r3]
 4458 0110 224A     		ldr	r2, .L430
ARM GAS  C:\Users\user\AppData\Local\Temp\ccrDHgJ5.s 			page 78


 4459 0112 9342     		cmp	r3, r2
 4460 0114 22D0     		beq	.L426
 4461 0116 7B68     		ldr	r3, [r7, #4]
 4462 0118 1B68     		ldr	r3, [r3]
 4463 011a B3F1804F 		cmp	r3, #1073741824
 4464 011e 1DD0     		beq	.L426
 4465 0120 7B68     		ldr	r3, [r7, #4]
 4466 0122 1B68     		ldr	r3, [r3]
 4467 0124 1E4A     		ldr	r2, .L430+4
 4468 0126 9342     		cmp	r3, r2
 4469 0128 18D0     		beq	.L426
 4470 012a 7B68     		ldr	r3, [r7, #4]
 4471 012c 1B68     		ldr	r3, [r3]
 4472 012e 1D4A     		ldr	r2, .L430+8
 4473 0130 9342     		cmp	r3, r2
 4474 0132 13D0     		beq	.L426
 4475 0134 7B68     		ldr	r3, [r7, #4]
 4476 0136 1B68     		ldr	r3, [r3]
 4477 0138 1B4A     		ldr	r2, .L430+12
 4478 013a 9342     		cmp	r3, r2
 4479 013c 0ED0     		beq	.L426
 4480 013e 7B68     		ldr	r3, [r7, #4]
 4481 0140 1B68     		ldr	r3, [r3]
 4482 0142 1A4A     		ldr	r2, .L430+16
 4483 0144 9342     		cmp	r3, r2
 4484 0146 09D0     		beq	.L426
 4485 0148 7B68     		ldr	r3, [r7, #4]
 4486 014a 1B68     		ldr	r3, [r3]
 4487 014c 184A     		ldr	r2, .L430+20
 4488 014e 9342     		cmp	r3, r2
 4489 0150 04D0     		beq	.L426
 4490 0152 7B68     		ldr	r3, [r7, #4]
 4491 0154 1B68     		ldr	r3, [r3]
 4492 0156 174A     		ldr	r2, .L430+24
 4493 0158 9342     		cmp	r3, r2
 4494 015a 11D1     		bne	.L427
 4495              	.L426:
 4496 015c 7B68     		ldr	r3, [r7, #4]
 4497 015e 1B68     		ldr	r3, [r3]
 4498 0160 9B68     		ldr	r3, [r3, #8]
 4499 0162 03F00703 		and	r3, r3, #7
 4500 0166 BB60     		str	r3, [r7, #8]
 4501 0168 BB68     		ldr	r3, [r7, #8]
 4502 016a 062B     		cmp	r3, #6
 4503 016c 10D0     		beq	.L429
 4504 016e 7B68     		ldr	r3, [r7, #4]
 4505 0170 1B68     		ldr	r3, [r3]
 4506 0172 1A68     		ldr	r2, [r3]
 4507 0174 7B68     		ldr	r3, [r7, #4]
 4508 0176 1B68     		ldr	r3, [r3]
 4509 0178 42F00102 		orr	r2, r2, #1
 4510 017c 1A60     		str	r2, [r3]
 4511 017e 07E0     		b	.L429
 4512              	.L427:
 4513 0180 7B68     		ldr	r3, [r7, #4]
 4514 0182 1B68     		ldr	r3, [r3]
 4515 0184 1A68     		ldr	r2, [r3]
ARM GAS  C:\Users\user\AppData\Local\Temp\ccrDHgJ5.s 			page 79


 4516 0186 7B68     		ldr	r3, [r7, #4]
 4517 0188 1B68     		ldr	r3, [r3]
 4518 018a 42F00102 		orr	r2, r2, #1
 4519 018e 1A60     		str	r2, [r3]
 4520              	.L429:
 4521 0190 0023     		movs	r3, #0
 4522              	.L413:
 4523 0192 1846     		mov	r0, r3
 4524 0194 1037     		adds	r7, r7, #16
 4525 0196 BD46     		mov	sp, r7
 4526              		@ sp needed
 4527 0198 80BD     		pop	{r7, pc}
 4528              	.L431:
 4529 019a 00BF     		.align	2
 4530              	.L430:
 4531 019c 00000140 		.word	1073807360
 4532 01a0 00040040 		.word	1073742848
 4533 01a4 00080040 		.word	1073743872
 4534 01a8 000C0040 		.word	1073744896
 4535 01ac 00040140 		.word	1073808384
 4536 01b0 00400140 		.word	1073823744
 4537 01b4 00180040 		.word	1073747968
 4539              		.section	.text.HAL_TIM_IC_Stop,"ax",%progbits
 4540              		.align	1
 4541              		.global	HAL_TIM_IC_Stop
 4542              		.syntax unified
 4543              		.thumb
 4544              		.thumb_func
 4546              	HAL_TIM_IC_Stop:
 4547              		@ args = 0, pretend = 0, frame = 8
 4548              		@ frame_needed = 1, uses_anonymous_args = 0
 4549 0000 80B5     		push	{r7, lr}
 4550 0002 82B0     		sub	sp, sp, #8
 4551 0004 00AF     		add	r7, sp, #0
 4552 0006 7860     		str	r0, [r7, #4]
 4553 0008 3960     		str	r1, [r7]
 4554 000a 7B68     		ldr	r3, [r7, #4]
 4555 000c 1B68     		ldr	r3, [r3]
 4556 000e 0022     		movs	r2, #0
 4557 0010 3968     		ldr	r1, [r7]
 4558 0012 1846     		mov	r0, r3
 4559 0014 FFF7FEFF 		bl	TIM_CCxChannelCmd
 4560 0018 7B68     		ldr	r3, [r7, #4]
 4561 001a 1B68     		ldr	r3, [r3]
 4562 001c 1A6A     		ldr	r2, [r3, #32]
 4563 001e 41F21113 		movw	r3, #4369
 4564 0022 1340     		ands	r3, r3, r2
 4565 0024 002B     		cmp	r3, #0
 4566 0026 0FD1     		bne	.L433
 4567 0028 7B68     		ldr	r3, [r7, #4]
 4568 002a 1B68     		ldr	r3, [r3]
 4569 002c 1A6A     		ldr	r2, [r3, #32]
 4570 002e 40F24443 		movw	r3, #1092
 4571 0032 1340     		ands	r3, r3, r2
 4572 0034 002B     		cmp	r3, #0
 4573 0036 07D1     		bne	.L433
 4574 0038 7B68     		ldr	r3, [r7, #4]
ARM GAS  C:\Users\user\AppData\Local\Temp\ccrDHgJ5.s 			page 80


 4575 003a 1B68     		ldr	r3, [r3]
 4576 003c 1A68     		ldr	r2, [r3]
 4577 003e 7B68     		ldr	r3, [r7, #4]
 4578 0040 1B68     		ldr	r3, [r3]
 4579 0042 22F00102 		bic	r2, r2, #1
 4580 0046 1A60     		str	r2, [r3]
 4581              	.L433:
 4582 0048 3B68     		ldr	r3, [r7]
 4583 004a 002B     		cmp	r3, #0
 4584 004c 04D1     		bne	.L434
 4585 004e 7B68     		ldr	r3, [r7, #4]
 4586 0050 0122     		movs	r2, #1
 4587 0052 83F83E20 		strb	r2, [r3, #62]
 4588 0056 13E0     		b	.L435
 4589              	.L434:
 4590 0058 3B68     		ldr	r3, [r7]
 4591 005a 042B     		cmp	r3, #4
 4592 005c 04D1     		bne	.L436
 4593 005e 7B68     		ldr	r3, [r7, #4]
 4594 0060 0122     		movs	r2, #1
 4595 0062 83F83F20 		strb	r2, [r3, #63]
 4596 0066 0BE0     		b	.L435
 4597              	.L436:
 4598 0068 3B68     		ldr	r3, [r7]
 4599 006a 082B     		cmp	r3, #8
 4600 006c 04D1     		bne	.L438
 4601 006e 7B68     		ldr	r3, [r7, #4]
 4602 0070 0122     		movs	r2, #1
 4603 0072 83F84020 		strb	r2, [r3, #64]
 4604 0076 03E0     		b	.L435
 4605              	.L438:
 4606 0078 7B68     		ldr	r3, [r7, #4]
 4607 007a 0122     		movs	r2, #1
 4608 007c 83F84120 		strb	r2, [r3, #65]
 4609              	.L435:
 4610 0080 3B68     		ldr	r3, [r7]
 4611 0082 002B     		cmp	r3, #0
 4612 0084 04D1     		bne	.L440
 4613 0086 7B68     		ldr	r3, [r7, #4]
 4614 0088 0122     		movs	r2, #1
 4615 008a 83F84220 		strb	r2, [r3, #66]
 4616 008e 13E0     		b	.L441
 4617              	.L440:
 4618 0090 3B68     		ldr	r3, [r7]
 4619 0092 042B     		cmp	r3, #4
 4620 0094 04D1     		bne	.L442
 4621 0096 7B68     		ldr	r3, [r7, #4]
 4622 0098 0122     		movs	r2, #1
 4623 009a 83F84320 		strb	r2, [r3, #67]
 4624 009e 0BE0     		b	.L441
 4625              	.L442:
 4626 00a0 3B68     		ldr	r3, [r7]
 4627 00a2 082B     		cmp	r3, #8
 4628 00a4 04D1     		bne	.L444
 4629 00a6 7B68     		ldr	r3, [r7, #4]
 4630 00a8 0122     		movs	r2, #1
 4631 00aa 83F84420 		strb	r2, [r3, #68]
ARM GAS  C:\Users\user\AppData\Local\Temp\ccrDHgJ5.s 			page 81


 4632 00ae 03E0     		b	.L441
 4633              	.L444:
 4634 00b0 7B68     		ldr	r3, [r7, #4]
 4635 00b2 0122     		movs	r2, #1
 4636 00b4 83F84520 		strb	r2, [r3, #69]
 4637              	.L441:
 4638 00b8 0023     		movs	r3, #0
 4639 00ba 1846     		mov	r0, r3
 4640 00bc 0837     		adds	r7, r7, #8
 4641 00be BD46     		mov	sp, r7
 4642              		@ sp needed
 4643 00c0 80BD     		pop	{r7, pc}
 4645              		.section	.text.HAL_TIM_IC_Start_IT,"ax",%progbits
 4646              		.align	1
 4647              		.global	HAL_TIM_IC_Start_IT
 4648              		.syntax unified
 4649              		.thumb
 4650              		.thumb_func
 4652              	HAL_TIM_IC_Start_IT:
 4653              		@ args = 0, pretend = 0, frame = 16
 4654              		@ frame_needed = 1, uses_anonymous_args = 0
 4655 0000 80B5     		push	{r7, lr}
 4656 0002 84B0     		sub	sp, sp, #16
 4657 0004 00AF     		add	r7, sp, #0
 4658 0006 7860     		str	r0, [r7, #4]
 4659 0008 3960     		str	r1, [r7]
 4660 000a 0023     		movs	r3, #0
 4661 000c FB73     		strb	r3, [r7, #15]
 4662 000e 3B68     		ldr	r3, [r7]
 4663 0010 002B     		cmp	r3, #0
 4664 0012 04D1     		bne	.L448
 4665 0014 7B68     		ldr	r3, [r7, #4]
 4666 0016 93F83E30 		ldrb	r3, [r3, #62]
 4667 001a DBB2     		uxtb	r3, r3
 4668 001c 13E0     		b	.L449
 4669              	.L448:
 4670 001e 3B68     		ldr	r3, [r7]
 4671 0020 042B     		cmp	r3, #4
 4672 0022 04D1     		bne	.L450
 4673 0024 7B68     		ldr	r3, [r7, #4]
 4674 0026 93F83F30 		ldrb	r3, [r3, #63]
 4675 002a DBB2     		uxtb	r3, r3
 4676 002c 0BE0     		b	.L449
 4677              	.L450:
 4678 002e 3B68     		ldr	r3, [r7]
 4679 0030 082B     		cmp	r3, #8
 4680 0032 04D1     		bne	.L452
 4681 0034 7B68     		ldr	r3, [r7, #4]
 4682 0036 93F84030 		ldrb	r3, [r3, #64]
 4683 003a DBB2     		uxtb	r3, r3
 4684 003c 03E0     		b	.L449
 4685              	.L452:
 4686 003e 7B68     		ldr	r3, [r7, #4]
 4687 0040 93F84130 		ldrb	r3, [r3, #65]
 4688 0044 DBB2     		uxtb	r3, r3
 4689              	.L449:
 4690 0046 BB73     		strb	r3, [r7, #14]
ARM GAS  C:\Users\user\AppData\Local\Temp\ccrDHgJ5.s 			page 82


 4691 0048 3B68     		ldr	r3, [r7]
 4692 004a 002B     		cmp	r3, #0
 4693 004c 04D1     		bne	.L454
 4694 004e 7B68     		ldr	r3, [r7, #4]
 4695 0050 93F84230 		ldrb	r3, [r3, #66]
 4696 0054 DBB2     		uxtb	r3, r3
 4697 0056 13E0     		b	.L455
 4698              	.L454:
 4699 0058 3B68     		ldr	r3, [r7]
 4700 005a 042B     		cmp	r3, #4
 4701 005c 04D1     		bne	.L456
 4702 005e 7B68     		ldr	r3, [r7, #4]
 4703 0060 93F84330 		ldrb	r3, [r3, #67]
 4704 0064 DBB2     		uxtb	r3, r3
 4705 0066 0BE0     		b	.L455
 4706              	.L456:
 4707 0068 3B68     		ldr	r3, [r7]
 4708 006a 082B     		cmp	r3, #8
 4709 006c 04D1     		bne	.L458
 4710 006e 7B68     		ldr	r3, [r7, #4]
 4711 0070 93F84430 		ldrb	r3, [r3, #68]
 4712 0074 DBB2     		uxtb	r3, r3
 4713 0076 03E0     		b	.L455
 4714              	.L458:
 4715 0078 7B68     		ldr	r3, [r7, #4]
 4716 007a 93F84530 		ldrb	r3, [r3, #69]
 4717 007e DBB2     		uxtb	r3, r3
 4718              	.L455:
 4719 0080 7B73     		strb	r3, [r7, #13]
 4720 0082 BB7B     		ldrb	r3, [r7, #14]	@ zero_extendqisi2
 4721 0084 012B     		cmp	r3, #1
 4722 0086 02D1     		bne	.L460
 4723 0088 7B7B     		ldrb	r3, [r7, #13]	@ zero_extendqisi2
 4724 008a 012B     		cmp	r3, #1
 4725 008c 01D0     		beq	.L461
 4726              	.L460:
 4727 008e 0123     		movs	r3, #1
 4728 0090 CCE0     		b	.L462
 4729              	.L461:
 4730 0092 3B68     		ldr	r3, [r7]
 4731 0094 002B     		cmp	r3, #0
 4732 0096 04D1     		bne	.L463
 4733 0098 7B68     		ldr	r3, [r7, #4]
 4734 009a 0222     		movs	r2, #2
 4735 009c 83F83E20 		strb	r2, [r3, #62]
 4736 00a0 13E0     		b	.L464
 4737              	.L463:
 4738 00a2 3B68     		ldr	r3, [r7]
 4739 00a4 042B     		cmp	r3, #4
 4740 00a6 04D1     		bne	.L465
 4741 00a8 7B68     		ldr	r3, [r7, #4]
 4742 00aa 0222     		movs	r2, #2
 4743 00ac 83F83F20 		strb	r2, [r3, #63]
 4744 00b0 0BE0     		b	.L464
 4745              	.L465:
 4746 00b2 3B68     		ldr	r3, [r7]
 4747 00b4 082B     		cmp	r3, #8
ARM GAS  C:\Users\user\AppData\Local\Temp\ccrDHgJ5.s 			page 83


 4748 00b6 04D1     		bne	.L467
 4749 00b8 7B68     		ldr	r3, [r7, #4]
 4750 00ba 0222     		movs	r2, #2
 4751 00bc 83F84020 		strb	r2, [r3, #64]
 4752 00c0 03E0     		b	.L464
 4753              	.L467:
 4754 00c2 7B68     		ldr	r3, [r7, #4]
 4755 00c4 0222     		movs	r2, #2
 4756 00c6 83F84120 		strb	r2, [r3, #65]
 4757              	.L464:
 4758 00ca 3B68     		ldr	r3, [r7]
 4759 00cc 002B     		cmp	r3, #0
 4760 00ce 04D1     		bne	.L469
 4761 00d0 7B68     		ldr	r3, [r7, #4]
 4762 00d2 0222     		movs	r2, #2
 4763 00d4 83F84220 		strb	r2, [r3, #66]
 4764 00d8 13E0     		b	.L470
 4765              	.L469:
 4766 00da 3B68     		ldr	r3, [r7]
 4767 00dc 042B     		cmp	r3, #4
 4768 00de 04D1     		bne	.L471
 4769 00e0 7B68     		ldr	r3, [r7, #4]
 4770 00e2 0222     		movs	r2, #2
 4771 00e4 83F84320 		strb	r2, [r3, #67]
 4772 00e8 0BE0     		b	.L470
 4773              	.L471:
 4774 00ea 3B68     		ldr	r3, [r7]
 4775 00ec 082B     		cmp	r3, #8
 4776 00ee 04D1     		bne	.L473
 4777 00f0 7B68     		ldr	r3, [r7, #4]
 4778 00f2 0222     		movs	r2, #2
 4779 00f4 83F84420 		strb	r2, [r3, #68]
 4780 00f8 03E0     		b	.L470
 4781              	.L473:
 4782 00fa 7B68     		ldr	r3, [r7, #4]
 4783 00fc 0222     		movs	r2, #2
 4784 00fe 83F84520 		strb	r2, [r3, #69]
 4785              	.L470:
 4786 0102 3B68     		ldr	r3, [r7]
 4787 0104 0C2B     		cmp	r3, #12
 4788 0106 41D8     		bhi	.L475
 4789 0108 01A2     		adr	r2, .L477
 4790 010a 52F823F0 		ldr	pc, [r2, r3, lsl #2]
 4791 010e 00BF     		.p2align 2
 4792              	.L477:
 4793 0110 45010000 		.word	.L480+1
 4794 0114 8D010000 		.word	.L475+1
 4795 0118 8D010000 		.word	.L475+1
 4796 011c 8D010000 		.word	.L475+1
 4797 0120 57010000 		.word	.L479+1
 4798 0124 8D010000 		.word	.L475+1
 4799 0128 8D010000 		.word	.L475+1
 4800 012c 8D010000 		.word	.L475+1
 4801 0130 69010000 		.word	.L478+1
 4802 0134 8D010000 		.word	.L475+1
 4803 0138 8D010000 		.word	.L475+1
 4804 013c 8D010000 		.word	.L475+1
ARM GAS  C:\Users\user\AppData\Local\Temp\ccrDHgJ5.s 			page 84


 4805 0140 7B010000 		.word	.L476+1
 4806              		.p2align 1
 4807              	.L480:
 4808 0144 7B68     		ldr	r3, [r7, #4]
 4809 0146 1B68     		ldr	r3, [r3]
 4810 0148 DA68     		ldr	r2, [r3, #12]
 4811 014a 7B68     		ldr	r3, [r7, #4]
 4812 014c 1B68     		ldr	r3, [r3]
 4813 014e 42F00202 		orr	r2, r2, #2
 4814 0152 DA60     		str	r2, [r3, #12]
 4815 0154 1DE0     		b	.L481
 4816              	.L479:
 4817 0156 7B68     		ldr	r3, [r7, #4]
 4818 0158 1B68     		ldr	r3, [r3]
 4819 015a DA68     		ldr	r2, [r3, #12]
 4820 015c 7B68     		ldr	r3, [r7, #4]
 4821 015e 1B68     		ldr	r3, [r3]
 4822 0160 42F00402 		orr	r2, r2, #4
 4823 0164 DA60     		str	r2, [r3, #12]
 4824 0166 14E0     		b	.L481
 4825              	.L478:
 4826 0168 7B68     		ldr	r3, [r7, #4]
 4827 016a 1B68     		ldr	r3, [r3]
 4828 016c DA68     		ldr	r2, [r3, #12]
 4829 016e 7B68     		ldr	r3, [r7, #4]
 4830 0170 1B68     		ldr	r3, [r3]
 4831 0172 42F00802 		orr	r2, r2, #8
 4832 0176 DA60     		str	r2, [r3, #12]
 4833 0178 0BE0     		b	.L481
 4834              	.L476:
 4835 017a 7B68     		ldr	r3, [r7, #4]
 4836 017c 1B68     		ldr	r3, [r3]
 4837 017e DA68     		ldr	r2, [r3, #12]
 4838 0180 7B68     		ldr	r3, [r7, #4]
 4839 0182 1B68     		ldr	r3, [r3]
 4840 0184 42F01002 		orr	r2, r2, #16
 4841 0188 DA60     		str	r2, [r3, #12]
 4842 018a 02E0     		b	.L481
 4843              	.L475:
 4844 018c 0123     		movs	r3, #1
 4845 018e FB73     		strb	r3, [r7, #15]
 4846 0190 00BF     		nop
 4847              	.L481:
 4848 0192 FB7B     		ldrb	r3, [r7, #15]	@ zero_extendqisi2
 4849 0194 002B     		cmp	r3, #0
 4850 0196 48D1     		bne	.L482
 4851 0198 7B68     		ldr	r3, [r7, #4]
 4852 019a 1B68     		ldr	r3, [r3]
 4853 019c 0122     		movs	r2, #1
 4854 019e 3968     		ldr	r1, [r7]
 4855 01a0 1846     		mov	r0, r3
 4856 01a2 FFF7FEFF 		bl	TIM_CCxChannelCmd
 4857 01a6 7B68     		ldr	r3, [r7, #4]
 4858 01a8 1B68     		ldr	r3, [r3]
 4859 01aa 224A     		ldr	r2, .L486
 4860 01ac 9342     		cmp	r3, r2
 4861 01ae 22D0     		beq	.L483
ARM GAS  C:\Users\user\AppData\Local\Temp\ccrDHgJ5.s 			page 85


 4862 01b0 7B68     		ldr	r3, [r7, #4]
 4863 01b2 1B68     		ldr	r3, [r3]
 4864 01b4 B3F1804F 		cmp	r3, #1073741824
 4865 01b8 1DD0     		beq	.L483
 4866 01ba 7B68     		ldr	r3, [r7, #4]
 4867 01bc 1B68     		ldr	r3, [r3]
 4868 01be 1E4A     		ldr	r2, .L486+4
 4869 01c0 9342     		cmp	r3, r2
 4870 01c2 18D0     		beq	.L483
 4871 01c4 7B68     		ldr	r3, [r7, #4]
 4872 01c6 1B68     		ldr	r3, [r3]
 4873 01c8 1C4A     		ldr	r2, .L486+8
 4874 01ca 9342     		cmp	r3, r2
 4875 01cc 13D0     		beq	.L483
 4876 01ce 7B68     		ldr	r3, [r7, #4]
 4877 01d0 1B68     		ldr	r3, [r3]
 4878 01d2 1B4A     		ldr	r2, .L486+12
 4879 01d4 9342     		cmp	r3, r2
 4880 01d6 0ED0     		beq	.L483
 4881 01d8 7B68     		ldr	r3, [r7, #4]
 4882 01da 1B68     		ldr	r3, [r3]
 4883 01dc 194A     		ldr	r2, .L486+16
 4884 01de 9342     		cmp	r3, r2
 4885 01e0 09D0     		beq	.L483
 4886 01e2 7B68     		ldr	r3, [r7, #4]
 4887 01e4 1B68     		ldr	r3, [r3]
 4888 01e6 184A     		ldr	r2, .L486+20
 4889 01e8 9342     		cmp	r3, r2
 4890 01ea 04D0     		beq	.L483
 4891 01ec 7B68     		ldr	r3, [r7, #4]
 4892 01ee 1B68     		ldr	r3, [r3]
 4893 01f0 164A     		ldr	r2, .L486+24
 4894 01f2 9342     		cmp	r3, r2
 4895 01f4 11D1     		bne	.L484
 4896              	.L483:
 4897 01f6 7B68     		ldr	r3, [r7, #4]
 4898 01f8 1B68     		ldr	r3, [r3]
 4899 01fa 9B68     		ldr	r3, [r3, #8]
 4900 01fc 03F00703 		and	r3, r3, #7
 4901 0200 BB60     		str	r3, [r7, #8]
 4902 0202 BB68     		ldr	r3, [r7, #8]
 4903 0204 062B     		cmp	r3, #6
 4904 0206 10D0     		beq	.L482
 4905 0208 7B68     		ldr	r3, [r7, #4]
 4906 020a 1B68     		ldr	r3, [r3]
 4907 020c 1A68     		ldr	r2, [r3]
 4908 020e 7B68     		ldr	r3, [r7, #4]
 4909 0210 1B68     		ldr	r3, [r3]
 4910 0212 42F00102 		orr	r2, r2, #1
 4911 0216 1A60     		str	r2, [r3]
 4912 0218 07E0     		b	.L482
 4913              	.L484:
 4914 021a 7B68     		ldr	r3, [r7, #4]
 4915 021c 1B68     		ldr	r3, [r3]
 4916 021e 1A68     		ldr	r2, [r3]
 4917 0220 7B68     		ldr	r3, [r7, #4]
 4918 0222 1B68     		ldr	r3, [r3]
ARM GAS  C:\Users\user\AppData\Local\Temp\ccrDHgJ5.s 			page 86


 4919 0224 42F00102 		orr	r2, r2, #1
 4920 0228 1A60     		str	r2, [r3]
 4921              	.L482:
 4922 022a FB7B     		ldrb	r3, [r7, #15]	@ zero_extendqisi2
 4923              	.L462:
 4924 022c 1846     		mov	r0, r3
 4925 022e 1037     		adds	r7, r7, #16
 4926 0230 BD46     		mov	sp, r7
 4927              		@ sp needed
 4928 0232 80BD     		pop	{r7, pc}
 4929              	.L487:
 4930              		.align	2
 4931              	.L486:
 4932 0234 00000140 		.word	1073807360
 4933 0238 00040040 		.word	1073742848
 4934 023c 00080040 		.word	1073743872
 4935 0240 000C0040 		.word	1073744896
 4936 0244 00040140 		.word	1073808384
 4937 0248 00400140 		.word	1073823744
 4938 024c 00180040 		.word	1073747968
 4940              		.section	.text.HAL_TIM_IC_Stop_IT,"ax",%progbits
 4941              		.align	1
 4942              		.global	HAL_TIM_IC_Stop_IT
 4943              		.syntax unified
 4944              		.thumb
 4945              		.thumb_func
 4947              	HAL_TIM_IC_Stop_IT:
 4948              		@ args = 0, pretend = 0, frame = 16
 4949              		@ frame_needed = 1, uses_anonymous_args = 0
 4950 0000 80B5     		push	{r7, lr}
 4951 0002 84B0     		sub	sp, sp, #16
 4952 0004 00AF     		add	r7, sp, #0
 4953 0006 7860     		str	r0, [r7, #4]
 4954 0008 3960     		str	r1, [r7]
 4955 000a 0023     		movs	r3, #0
 4956 000c FB73     		strb	r3, [r7, #15]
 4957 000e 3B68     		ldr	r3, [r7]
 4958 0010 0C2B     		cmp	r3, #12
 4959 0012 41D8     		bhi	.L489
 4960 0014 01A2     		adr	r2, .L491
 4961 0016 52F823F0 		ldr	pc, [r2, r3, lsl #2]
 4962 001a 00BF     		.p2align 2
 4963              	.L491:
 4964 001c 51000000 		.word	.L494+1
 4965 0020 99000000 		.word	.L489+1
 4966 0024 99000000 		.word	.L489+1
 4967 0028 99000000 		.word	.L489+1
 4968 002c 63000000 		.word	.L493+1
 4969 0030 99000000 		.word	.L489+1
 4970 0034 99000000 		.word	.L489+1
 4971 0038 99000000 		.word	.L489+1
 4972 003c 75000000 		.word	.L492+1
 4973 0040 99000000 		.word	.L489+1
 4974 0044 99000000 		.word	.L489+1
 4975 0048 99000000 		.word	.L489+1
 4976 004c 87000000 		.word	.L490+1
 4977              		.p2align 1
ARM GAS  C:\Users\user\AppData\Local\Temp\ccrDHgJ5.s 			page 87


 4978              	.L494:
 4979 0050 7B68     		ldr	r3, [r7, #4]
 4980 0052 1B68     		ldr	r3, [r3]
 4981 0054 DA68     		ldr	r2, [r3, #12]
 4982 0056 7B68     		ldr	r3, [r7, #4]
 4983 0058 1B68     		ldr	r3, [r3]
 4984 005a 22F00202 		bic	r2, r2, #2
 4985 005e DA60     		str	r2, [r3, #12]
 4986 0060 1DE0     		b	.L495
 4987              	.L493:
 4988 0062 7B68     		ldr	r3, [r7, #4]
 4989 0064 1B68     		ldr	r3, [r3]
 4990 0066 DA68     		ldr	r2, [r3, #12]
 4991 0068 7B68     		ldr	r3, [r7, #4]
 4992 006a 1B68     		ldr	r3, [r3]
 4993 006c 22F00402 		bic	r2, r2, #4
 4994 0070 DA60     		str	r2, [r3, #12]
 4995 0072 14E0     		b	.L495
 4996              	.L492:
 4997 0074 7B68     		ldr	r3, [r7, #4]
 4998 0076 1B68     		ldr	r3, [r3]
 4999 0078 DA68     		ldr	r2, [r3, #12]
 5000 007a 7B68     		ldr	r3, [r7, #4]
 5001 007c 1B68     		ldr	r3, [r3]
 5002 007e 22F00802 		bic	r2, r2, #8
 5003 0082 DA60     		str	r2, [r3, #12]
 5004 0084 0BE0     		b	.L495
 5005              	.L490:
 5006 0086 7B68     		ldr	r3, [r7, #4]
 5007 0088 1B68     		ldr	r3, [r3]
 5008 008a DA68     		ldr	r2, [r3, #12]
 5009 008c 7B68     		ldr	r3, [r7, #4]
 5010 008e 1B68     		ldr	r3, [r3]
 5011 0090 22F01002 		bic	r2, r2, #16
 5012 0094 DA60     		str	r2, [r3, #12]
 5013 0096 02E0     		b	.L495
 5014              	.L489:
 5015 0098 0123     		movs	r3, #1
 5016 009a FB73     		strb	r3, [r7, #15]
 5017 009c 00BF     		nop
 5018              	.L495:
 5019 009e FB7B     		ldrb	r3, [r7, #15]	@ zero_extendqisi2
 5020 00a0 002B     		cmp	r3, #0
 5021 00a2 56D1     		bne	.L496
 5022 00a4 7B68     		ldr	r3, [r7, #4]
 5023 00a6 1B68     		ldr	r3, [r3]
 5024 00a8 0022     		movs	r2, #0
 5025 00aa 3968     		ldr	r1, [r7]
 5026 00ac 1846     		mov	r0, r3
 5027 00ae FFF7FEFF 		bl	TIM_CCxChannelCmd
 5028 00b2 7B68     		ldr	r3, [r7, #4]
 5029 00b4 1B68     		ldr	r3, [r3]
 5030 00b6 1A6A     		ldr	r2, [r3, #32]
 5031 00b8 41F21113 		movw	r3, #4369
 5032 00bc 1340     		ands	r3, r3, r2
 5033 00be 002B     		cmp	r3, #0
 5034 00c0 0FD1     		bne	.L497
ARM GAS  C:\Users\user\AppData\Local\Temp\ccrDHgJ5.s 			page 88


 5035 00c2 7B68     		ldr	r3, [r7, #4]
 5036 00c4 1B68     		ldr	r3, [r3]
 5037 00c6 1A6A     		ldr	r2, [r3, #32]
 5038 00c8 40F24443 		movw	r3, #1092
 5039 00cc 1340     		ands	r3, r3, r2
 5040 00ce 002B     		cmp	r3, #0
 5041 00d0 07D1     		bne	.L497
 5042 00d2 7B68     		ldr	r3, [r7, #4]
 5043 00d4 1B68     		ldr	r3, [r3]
 5044 00d6 1A68     		ldr	r2, [r3]
 5045 00d8 7B68     		ldr	r3, [r7, #4]
 5046 00da 1B68     		ldr	r3, [r3]
 5047 00dc 22F00102 		bic	r2, r2, #1
 5048 00e0 1A60     		str	r2, [r3]
 5049              	.L497:
 5050 00e2 3B68     		ldr	r3, [r7]
 5051 00e4 002B     		cmp	r3, #0
 5052 00e6 04D1     		bne	.L498
 5053 00e8 7B68     		ldr	r3, [r7, #4]
 5054 00ea 0122     		movs	r2, #1
 5055 00ec 83F83E20 		strb	r2, [r3, #62]
 5056 00f0 13E0     		b	.L499
 5057              	.L498:
 5058 00f2 3B68     		ldr	r3, [r7]
 5059 00f4 042B     		cmp	r3, #4
 5060 00f6 04D1     		bne	.L500
 5061 00f8 7B68     		ldr	r3, [r7, #4]
 5062 00fa 0122     		movs	r2, #1
 5063 00fc 83F83F20 		strb	r2, [r3, #63]
 5064 0100 0BE0     		b	.L499
 5065              	.L500:
 5066 0102 3B68     		ldr	r3, [r7]
 5067 0104 082B     		cmp	r3, #8
 5068 0106 04D1     		bne	.L502
 5069 0108 7B68     		ldr	r3, [r7, #4]
 5070 010a 0122     		movs	r2, #1
 5071 010c 83F84020 		strb	r2, [r3, #64]
 5072 0110 03E0     		b	.L499
 5073              	.L502:
 5074 0112 7B68     		ldr	r3, [r7, #4]
 5075 0114 0122     		movs	r2, #1
 5076 0116 83F84120 		strb	r2, [r3, #65]
 5077              	.L499:
 5078 011a 3B68     		ldr	r3, [r7]
 5079 011c 002B     		cmp	r3, #0
 5080 011e 04D1     		bne	.L504
 5081 0120 7B68     		ldr	r3, [r7, #4]
 5082 0122 0122     		movs	r2, #1
 5083 0124 83F84220 		strb	r2, [r3, #66]
 5084 0128 13E0     		b	.L496
 5085              	.L504:
 5086 012a 3B68     		ldr	r3, [r7]
 5087 012c 042B     		cmp	r3, #4
 5088 012e 04D1     		bne	.L505
 5089 0130 7B68     		ldr	r3, [r7, #4]
 5090 0132 0122     		movs	r2, #1
 5091 0134 83F84320 		strb	r2, [r3, #67]
ARM GAS  C:\Users\user\AppData\Local\Temp\ccrDHgJ5.s 			page 89


 5092 0138 0BE0     		b	.L496
 5093              	.L505:
 5094 013a 3B68     		ldr	r3, [r7]
 5095 013c 082B     		cmp	r3, #8
 5096 013e 04D1     		bne	.L507
 5097 0140 7B68     		ldr	r3, [r7, #4]
 5098 0142 0122     		movs	r2, #1
 5099 0144 83F84420 		strb	r2, [r3, #68]
 5100 0148 03E0     		b	.L496
 5101              	.L507:
 5102 014a 7B68     		ldr	r3, [r7, #4]
 5103 014c 0122     		movs	r2, #1
 5104 014e 83F84520 		strb	r2, [r3, #69]
 5105              	.L496:
 5106 0152 FB7B     		ldrb	r3, [r7, #15]	@ zero_extendqisi2
 5107 0154 1846     		mov	r0, r3
 5108 0156 1037     		adds	r7, r7, #16
 5109 0158 BD46     		mov	sp, r7
 5110              		@ sp needed
 5111 015a 80BD     		pop	{r7, pc}
 5113              		.section	.text.HAL_TIM_IC_Start_DMA,"ax",%progbits
 5114              		.align	1
 5115              		.global	HAL_TIM_IC_Start_DMA
 5116              		.syntax unified
 5117              		.thumb
 5118              		.thumb_func
 5120              	HAL_TIM_IC_Start_DMA:
 5121              		@ args = 0, pretend = 0, frame = 24
 5122              		@ frame_needed = 1, uses_anonymous_args = 0
 5123 0000 80B5     		push	{r7, lr}
 5124 0002 86B0     		sub	sp, sp, #24
 5125 0004 00AF     		add	r7, sp, #0
 5126 0006 F860     		str	r0, [r7, #12]
 5127 0008 B960     		str	r1, [r7, #8]
 5128 000a 7A60     		str	r2, [r7, #4]
 5129 000c 7B80     		strh	r3, [r7, #2]	@ movhi
 5130 000e 0023     		movs	r3, #0
 5131 0010 FB75     		strb	r3, [r7, #23]
 5132 0012 BB68     		ldr	r3, [r7, #8]
 5133 0014 002B     		cmp	r3, #0
 5134 0016 04D1     		bne	.L511
 5135 0018 FB68     		ldr	r3, [r7, #12]
 5136 001a 93F83E30 		ldrb	r3, [r3, #62]
 5137 001e DBB2     		uxtb	r3, r3
 5138 0020 13E0     		b	.L512
 5139              	.L511:
 5140 0022 BB68     		ldr	r3, [r7, #8]
 5141 0024 042B     		cmp	r3, #4
 5142 0026 04D1     		bne	.L513
 5143 0028 FB68     		ldr	r3, [r7, #12]
 5144 002a 93F83F30 		ldrb	r3, [r3, #63]
 5145 002e DBB2     		uxtb	r3, r3
 5146 0030 0BE0     		b	.L512
 5147              	.L513:
 5148 0032 BB68     		ldr	r3, [r7, #8]
 5149 0034 082B     		cmp	r3, #8
 5150 0036 04D1     		bne	.L515
ARM GAS  C:\Users\user\AppData\Local\Temp\ccrDHgJ5.s 			page 90


 5151 0038 FB68     		ldr	r3, [r7, #12]
 5152 003a 93F84030 		ldrb	r3, [r3, #64]
 5153 003e DBB2     		uxtb	r3, r3
 5154 0040 03E0     		b	.L512
 5155              	.L515:
 5156 0042 FB68     		ldr	r3, [r7, #12]
 5157 0044 93F84130 		ldrb	r3, [r3, #65]
 5158 0048 DBB2     		uxtb	r3, r3
 5159              	.L512:
 5160 004a BB75     		strb	r3, [r7, #22]
 5161 004c BB68     		ldr	r3, [r7, #8]
 5162 004e 002B     		cmp	r3, #0
 5163 0050 04D1     		bne	.L517
 5164 0052 FB68     		ldr	r3, [r7, #12]
 5165 0054 93F84230 		ldrb	r3, [r3, #66]
 5166 0058 DBB2     		uxtb	r3, r3
 5167 005a 13E0     		b	.L518
 5168              	.L517:
 5169 005c BB68     		ldr	r3, [r7, #8]
 5170 005e 042B     		cmp	r3, #4
 5171 0060 04D1     		bne	.L519
 5172 0062 FB68     		ldr	r3, [r7, #12]
 5173 0064 93F84330 		ldrb	r3, [r3, #67]
 5174 0068 DBB2     		uxtb	r3, r3
 5175 006a 0BE0     		b	.L518
 5176              	.L519:
 5177 006c BB68     		ldr	r3, [r7, #8]
 5178 006e 082B     		cmp	r3, #8
 5179 0070 04D1     		bne	.L521
 5180 0072 FB68     		ldr	r3, [r7, #12]
 5181 0074 93F84430 		ldrb	r3, [r3, #68]
 5182 0078 DBB2     		uxtb	r3, r3
 5183 007a 03E0     		b	.L518
 5184              	.L521:
 5185 007c FB68     		ldr	r3, [r7, #12]
 5186 007e 93F84530 		ldrb	r3, [r3, #69]
 5187 0082 DBB2     		uxtb	r3, r3
 5188              	.L518:
 5189 0084 7B75     		strb	r3, [r7, #21]
 5190 0086 BB7D     		ldrb	r3, [r7, #22]	@ zero_extendqisi2
 5191 0088 022B     		cmp	r3, #2
 5192 008a 02D0     		beq	.L523
 5193 008c 7B7D     		ldrb	r3, [r7, #21]	@ zero_extendqisi2
 5194 008e 022B     		cmp	r3, #2
 5195 0090 01D1     		bne	.L524
 5196              	.L523:
 5197 0092 0223     		movs	r3, #2
 5198 0094 46E1     		b	.L525
 5199              	.L524:
 5200 0096 BB7D     		ldrb	r3, [r7, #22]	@ zero_extendqisi2
 5201 0098 012B     		cmp	r3, #1
 5202 009a 43D1     		bne	.L526
 5203 009c 7B7D     		ldrb	r3, [r7, #21]	@ zero_extendqisi2
 5204 009e 012B     		cmp	r3, #1
 5205 00a0 40D1     		bne	.L526
 5206 00a2 7B68     		ldr	r3, [r7, #4]
 5207 00a4 002B     		cmp	r3, #0
ARM GAS  C:\Users\user\AppData\Local\Temp\ccrDHgJ5.s 			page 91


 5208 00a6 04D1     		bne	.L527
 5209 00a8 7B88     		ldrh	r3, [r7, #2]
 5210 00aa 002B     		cmp	r3, #0
 5211 00ac 01D0     		beq	.L527
 5212 00ae 0123     		movs	r3, #1
 5213 00b0 38E1     		b	.L525
 5214              	.L527:
 5215 00b2 BB68     		ldr	r3, [r7, #8]
 5216 00b4 002B     		cmp	r3, #0
 5217 00b6 04D1     		bne	.L528
 5218 00b8 FB68     		ldr	r3, [r7, #12]
 5219 00ba 0222     		movs	r2, #2
 5220 00bc 83F83E20 		strb	r2, [r3, #62]
 5221 00c0 13E0     		b	.L529
 5222              	.L528:
 5223 00c2 BB68     		ldr	r3, [r7, #8]
 5224 00c4 042B     		cmp	r3, #4
 5225 00c6 04D1     		bne	.L530
 5226 00c8 FB68     		ldr	r3, [r7, #12]
 5227 00ca 0222     		movs	r2, #2
 5228 00cc 83F83F20 		strb	r2, [r3, #63]
 5229 00d0 0BE0     		b	.L529
 5230              	.L530:
 5231 00d2 BB68     		ldr	r3, [r7, #8]
 5232 00d4 082B     		cmp	r3, #8
 5233 00d6 04D1     		bne	.L532
 5234 00d8 FB68     		ldr	r3, [r7, #12]
 5235 00da 0222     		movs	r2, #2
 5236 00dc 83F84020 		strb	r2, [r3, #64]
 5237 00e0 03E0     		b	.L529
 5238              	.L532:
 5239 00e2 FB68     		ldr	r3, [r7, #12]
 5240 00e4 0222     		movs	r2, #2
 5241 00e6 83F84120 		strb	r2, [r3, #65]
 5242              	.L529:
 5243 00ea BB68     		ldr	r3, [r7, #8]
 5244 00ec 002B     		cmp	r3, #0
 5245 00ee 04D1     		bne	.L534
 5246 00f0 FB68     		ldr	r3, [r7, #12]
 5247 00f2 0222     		movs	r2, #2
 5248 00f4 83F84220 		strb	r2, [r3, #66]
 5249 00f8 16E0     		b	.L540
 5250              	.L534:
 5251 00fa BB68     		ldr	r3, [r7, #8]
 5252 00fc 042B     		cmp	r3, #4
 5253 00fe 04D1     		bne	.L536
 5254 0100 FB68     		ldr	r3, [r7, #12]
 5255 0102 0222     		movs	r2, #2
 5256 0104 83F84320 		strb	r2, [r3, #67]
 5257 0108 0EE0     		b	.L540
 5258              	.L536:
 5259 010a BB68     		ldr	r3, [r7, #8]
 5260 010c 082B     		cmp	r3, #8
 5261 010e 04D1     		bne	.L538
 5262 0110 FB68     		ldr	r3, [r7, #12]
 5263 0112 0222     		movs	r2, #2
 5264 0114 83F84420 		strb	r2, [r3, #68]
ARM GAS  C:\Users\user\AppData\Local\Temp\ccrDHgJ5.s 			page 92


 5265 0118 06E0     		b	.L540
 5266              	.L538:
 5267 011a FB68     		ldr	r3, [r7, #12]
 5268 011c 0222     		movs	r2, #2
 5269 011e 83F84520 		strb	r2, [r3, #69]
 5270 0122 01E0     		b	.L540
 5271              	.L526:
 5272 0124 0123     		movs	r3, #1
 5273 0126 FDE0     		b	.L525
 5274              	.L540:
 5275 0128 FB68     		ldr	r3, [r7, #12]
 5276 012a 1B68     		ldr	r3, [r3]
 5277 012c 0122     		movs	r2, #1
 5278 012e B968     		ldr	r1, [r7, #8]
 5279 0130 1846     		mov	r0, r3
 5280 0132 FFF7FEFF 		bl	TIM_CCxChannelCmd
 5281 0136 BB68     		ldr	r3, [r7, #8]
 5282 0138 0C2B     		cmp	r3, #12
 5283 013a 00F2AD80 		bhi	.L541
 5284 013e 01A2     		adr	r2, .L543
 5285 0140 52F823F0 		ldr	pc, [r2, r3, lsl #2]
 5286              		.p2align 2
 5287              	.L543:
 5288 0144 79010000 		.word	.L546+1
 5289 0148 99020000 		.word	.L541+1
 5290 014c 99020000 		.word	.L541+1
 5291 0150 99020000 		.word	.L541+1
 5292 0154 C1010000 		.word	.L545+1
 5293 0158 99020000 		.word	.L541+1
 5294 015c 99020000 		.word	.L541+1
 5295 0160 99020000 		.word	.L541+1
 5296 0164 09020000 		.word	.L544+1
 5297 0168 99020000 		.word	.L541+1
 5298 016c 99020000 		.word	.L541+1
 5299 0170 99020000 		.word	.L541+1
 5300 0174 51020000 		.word	.L542+1
 5301              		.p2align 1
 5302              	.L546:
 5303 0178 FB68     		ldr	r3, [r7, #12]
 5304 017a 5B6A     		ldr	r3, [r3, #36]
 5305 017c 6B4A     		ldr	r2, .L556
 5306 017e DA63     		str	r2, [r3, #60]
 5307 0180 FB68     		ldr	r3, [r7, #12]
 5308 0182 5B6A     		ldr	r3, [r3, #36]
 5309 0184 6A4A     		ldr	r2, .L556+4
 5310 0186 1A64     		str	r2, [r3, #64]
 5311 0188 FB68     		ldr	r3, [r7, #12]
 5312 018a 5B6A     		ldr	r3, [r3, #36]
 5313 018c 694A     		ldr	r2, .L556+8
 5314 018e DA64     		str	r2, [r3, #76]
 5315 0190 FB68     		ldr	r3, [r7, #12]
 5316 0192 586A     		ldr	r0, [r3, #36]
 5317 0194 FB68     		ldr	r3, [r7, #12]
 5318 0196 1B68     		ldr	r3, [r3]
 5319 0198 3433     		adds	r3, r3, #52
 5320 019a 1946     		mov	r1, r3
 5321 019c 7A68     		ldr	r2, [r7, #4]
ARM GAS  C:\Users\user\AppData\Local\Temp\ccrDHgJ5.s 			page 93


 5322 019e 7B88     		ldrh	r3, [r7, #2]
 5323 01a0 FFF7FEFF 		bl	HAL_DMA_Start_IT
 5324 01a4 0346     		mov	r3, r0
 5325 01a6 002B     		cmp	r3, #0
 5326 01a8 01D0     		beq	.L547
 5327 01aa 0123     		movs	r3, #1
 5328 01ac BAE0     		b	.L525
 5329              	.L547:
 5330 01ae FB68     		ldr	r3, [r7, #12]
 5331 01b0 1B68     		ldr	r3, [r3]
 5332 01b2 DA68     		ldr	r2, [r3, #12]
 5333 01b4 FB68     		ldr	r3, [r7, #12]
 5334 01b6 1B68     		ldr	r3, [r3]
 5335 01b8 42F40072 		orr	r2, r2, #512
 5336 01bc DA60     		str	r2, [r3, #12]
 5337 01be 6EE0     		b	.L548
 5338              	.L545:
 5339 01c0 FB68     		ldr	r3, [r7, #12]
 5340 01c2 9B6A     		ldr	r3, [r3, #40]
 5341 01c4 594A     		ldr	r2, .L556
 5342 01c6 DA63     		str	r2, [r3, #60]
 5343 01c8 FB68     		ldr	r3, [r7, #12]
 5344 01ca 9B6A     		ldr	r3, [r3, #40]
 5345 01cc 584A     		ldr	r2, .L556+4
 5346 01ce 1A64     		str	r2, [r3, #64]
 5347 01d0 FB68     		ldr	r3, [r7, #12]
 5348 01d2 9B6A     		ldr	r3, [r3, #40]
 5349 01d4 574A     		ldr	r2, .L556+8
 5350 01d6 DA64     		str	r2, [r3, #76]
 5351 01d8 FB68     		ldr	r3, [r7, #12]
 5352 01da 986A     		ldr	r0, [r3, #40]
 5353 01dc FB68     		ldr	r3, [r7, #12]
 5354 01de 1B68     		ldr	r3, [r3]
 5355 01e0 3833     		adds	r3, r3, #56
 5356 01e2 1946     		mov	r1, r3
 5357 01e4 7A68     		ldr	r2, [r7, #4]
 5358 01e6 7B88     		ldrh	r3, [r7, #2]
 5359 01e8 FFF7FEFF 		bl	HAL_DMA_Start_IT
 5360 01ec 0346     		mov	r3, r0
 5361 01ee 002B     		cmp	r3, #0
 5362 01f0 01D0     		beq	.L549
 5363 01f2 0123     		movs	r3, #1
 5364 01f4 96E0     		b	.L525
 5365              	.L549:
 5366 01f6 FB68     		ldr	r3, [r7, #12]
 5367 01f8 1B68     		ldr	r3, [r3]
 5368 01fa DA68     		ldr	r2, [r3, #12]
 5369 01fc FB68     		ldr	r3, [r7, #12]
 5370 01fe 1B68     		ldr	r3, [r3]
 5371 0200 42F48062 		orr	r2, r2, #1024
 5372 0204 DA60     		str	r2, [r3, #12]
 5373 0206 4AE0     		b	.L548
 5374              	.L544:
 5375 0208 FB68     		ldr	r3, [r7, #12]
 5376 020a DB6A     		ldr	r3, [r3, #44]
 5377 020c 474A     		ldr	r2, .L556
 5378 020e DA63     		str	r2, [r3, #60]
ARM GAS  C:\Users\user\AppData\Local\Temp\ccrDHgJ5.s 			page 94


 5379 0210 FB68     		ldr	r3, [r7, #12]
 5380 0212 DB6A     		ldr	r3, [r3, #44]
 5381 0214 464A     		ldr	r2, .L556+4
 5382 0216 1A64     		str	r2, [r3, #64]
 5383 0218 FB68     		ldr	r3, [r7, #12]
 5384 021a DB6A     		ldr	r3, [r3, #44]
 5385 021c 454A     		ldr	r2, .L556+8
 5386 021e DA64     		str	r2, [r3, #76]
 5387 0220 FB68     		ldr	r3, [r7, #12]
 5388 0222 D86A     		ldr	r0, [r3, #44]
 5389 0224 FB68     		ldr	r3, [r7, #12]
 5390 0226 1B68     		ldr	r3, [r3]
 5391 0228 3C33     		adds	r3, r3, #60
 5392 022a 1946     		mov	r1, r3
 5393 022c 7A68     		ldr	r2, [r7, #4]
 5394 022e 7B88     		ldrh	r3, [r7, #2]
 5395 0230 FFF7FEFF 		bl	HAL_DMA_Start_IT
 5396 0234 0346     		mov	r3, r0
 5397 0236 002B     		cmp	r3, #0
 5398 0238 01D0     		beq	.L550
 5399 023a 0123     		movs	r3, #1
 5400 023c 72E0     		b	.L525
 5401              	.L550:
 5402 023e FB68     		ldr	r3, [r7, #12]
 5403 0240 1B68     		ldr	r3, [r3]
 5404 0242 DA68     		ldr	r2, [r3, #12]
 5405 0244 FB68     		ldr	r3, [r7, #12]
 5406 0246 1B68     		ldr	r3, [r3]
 5407 0248 42F40062 		orr	r2, r2, #2048
 5408 024c DA60     		str	r2, [r3, #12]
 5409 024e 26E0     		b	.L548
 5410              	.L542:
 5411 0250 FB68     		ldr	r3, [r7, #12]
 5412 0252 1B6B     		ldr	r3, [r3, #48]
 5413 0254 354A     		ldr	r2, .L556
 5414 0256 DA63     		str	r2, [r3, #60]
 5415 0258 FB68     		ldr	r3, [r7, #12]
 5416 025a 1B6B     		ldr	r3, [r3, #48]
 5417 025c 344A     		ldr	r2, .L556+4
 5418 025e 1A64     		str	r2, [r3, #64]
 5419 0260 FB68     		ldr	r3, [r7, #12]
 5420 0262 1B6B     		ldr	r3, [r3, #48]
 5421 0264 334A     		ldr	r2, .L556+8
 5422 0266 DA64     		str	r2, [r3, #76]
 5423 0268 FB68     		ldr	r3, [r7, #12]
 5424 026a 186B     		ldr	r0, [r3, #48]
 5425 026c FB68     		ldr	r3, [r7, #12]
 5426 026e 1B68     		ldr	r3, [r3]
 5427 0270 4033     		adds	r3, r3, #64
 5428 0272 1946     		mov	r1, r3
 5429 0274 7A68     		ldr	r2, [r7, #4]
 5430 0276 7B88     		ldrh	r3, [r7, #2]
 5431 0278 FFF7FEFF 		bl	HAL_DMA_Start_IT
 5432 027c 0346     		mov	r3, r0
 5433 027e 002B     		cmp	r3, #0
 5434 0280 01D0     		beq	.L551
 5435 0282 0123     		movs	r3, #1
ARM GAS  C:\Users\user\AppData\Local\Temp\ccrDHgJ5.s 			page 95


 5436 0284 4EE0     		b	.L525
 5437              	.L551:
 5438 0286 FB68     		ldr	r3, [r7, #12]
 5439 0288 1B68     		ldr	r3, [r3]
 5440 028a DA68     		ldr	r2, [r3, #12]
 5441 028c FB68     		ldr	r3, [r7, #12]
 5442 028e 1B68     		ldr	r3, [r3]
 5443 0290 42F48052 		orr	r2, r2, #4096
 5444 0294 DA60     		str	r2, [r3, #12]
 5445 0296 02E0     		b	.L548
 5446              	.L541:
 5447 0298 0123     		movs	r3, #1
 5448 029a FB75     		strb	r3, [r7, #23]
 5449 029c 00BF     		nop
 5450              	.L548:
 5451 029e FB68     		ldr	r3, [r7, #12]
 5452 02a0 1B68     		ldr	r3, [r3]
 5453 02a2 254A     		ldr	r2, .L556+12
 5454 02a4 9342     		cmp	r3, r2
 5455 02a6 22D0     		beq	.L552
 5456 02a8 FB68     		ldr	r3, [r7, #12]
 5457 02aa 1B68     		ldr	r3, [r3]
 5458 02ac B3F1804F 		cmp	r3, #1073741824
 5459 02b0 1DD0     		beq	.L552
 5460 02b2 FB68     		ldr	r3, [r7, #12]
 5461 02b4 1B68     		ldr	r3, [r3]
 5462 02b6 214A     		ldr	r2, .L556+16
 5463 02b8 9342     		cmp	r3, r2
 5464 02ba 18D0     		beq	.L552
 5465 02bc FB68     		ldr	r3, [r7, #12]
 5466 02be 1B68     		ldr	r3, [r3]
 5467 02c0 1F4A     		ldr	r2, .L556+20
 5468 02c2 9342     		cmp	r3, r2
 5469 02c4 13D0     		beq	.L552
 5470 02c6 FB68     		ldr	r3, [r7, #12]
 5471 02c8 1B68     		ldr	r3, [r3]
 5472 02ca 1E4A     		ldr	r2, .L556+24
 5473 02cc 9342     		cmp	r3, r2
 5474 02ce 0ED0     		beq	.L552
 5475 02d0 FB68     		ldr	r3, [r7, #12]
 5476 02d2 1B68     		ldr	r3, [r3]
 5477 02d4 1C4A     		ldr	r2, .L556+28
 5478 02d6 9342     		cmp	r3, r2
 5479 02d8 09D0     		beq	.L552
 5480 02da FB68     		ldr	r3, [r7, #12]
 5481 02dc 1B68     		ldr	r3, [r3]
 5482 02de 1B4A     		ldr	r2, .L556+32
 5483 02e0 9342     		cmp	r3, r2
 5484 02e2 04D0     		beq	.L552
 5485 02e4 FB68     		ldr	r3, [r7, #12]
 5486 02e6 1B68     		ldr	r3, [r3]
 5487 02e8 194A     		ldr	r2, .L556+36
 5488 02ea 9342     		cmp	r3, r2
 5489 02ec 11D1     		bne	.L553
 5490              	.L552:
 5491 02ee FB68     		ldr	r3, [r7, #12]
 5492 02f0 1B68     		ldr	r3, [r3]
ARM GAS  C:\Users\user\AppData\Local\Temp\ccrDHgJ5.s 			page 96


 5493 02f2 9B68     		ldr	r3, [r3, #8]
 5494 02f4 03F00703 		and	r3, r3, #7
 5495 02f8 3B61     		str	r3, [r7, #16]
 5496 02fa 3B69     		ldr	r3, [r7, #16]
 5497 02fc 062B     		cmp	r3, #6
 5498 02fe 10D0     		beq	.L555
 5499 0300 FB68     		ldr	r3, [r7, #12]
 5500 0302 1B68     		ldr	r3, [r3]
 5501 0304 1A68     		ldr	r2, [r3]
 5502 0306 FB68     		ldr	r3, [r7, #12]
 5503 0308 1B68     		ldr	r3, [r3]
 5504 030a 42F00102 		orr	r2, r2, #1
 5505 030e 1A60     		str	r2, [r3]
 5506 0310 07E0     		b	.L555
 5507              	.L553:
 5508 0312 FB68     		ldr	r3, [r7, #12]
 5509 0314 1B68     		ldr	r3, [r3]
 5510 0316 1A68     		ldr	r2, [r3]
 5511 0318 FB68     		ldr	r3, [r7, #12]
 5512 031a 1B68     		ldr	r3, [r3]
 5513 031c 42F00102 		orr	r2, r2, #1
 5514 0320 1A60     		str	r2, [r3]
 5515              	.L555:
 5516 0322 FB7D     		ldrb	r3, [r7, #23]	@ zero_extendqisi2
 5517              	.L525:
 5518 0324 1846     		mov	r0, r3
 5519 0326 1837     		adds	r7, r7, #24
 5520 0328 BD46     		mov	sp, r7
 5521              		@ sp needed
 5522 032a 80BD     		pop	{r7, pc}
 5523              	.L557:
 5524              		.align	2
 5525              	.L556:
 5526 032c 00000000 		.word	TIM_DMACaptureCplt
 5527 0330 00000000 		.word	TIM_DMACaptureHalfCplt
 5528 0334 00000000 		.word	TIM_DMAError
 5529 0338 00000140 		.word	1073807360
 5530 033c 00040040 		.word	1073742848
 5531 0340 00080040 		.word	1073743872
 5532 0344 000C0040 		.word	1073744896
 5533 0348 00040140 		.word	1073808384
 5534 034c 00400140 		.word	1073823744
 5535 0350 00180040 		.word	1073747968
 5537              		.section	.text.HAL_TIM_IC_Stop_DMA,"ax",%progbits
 5538              		.align	1
 5539              		.global	HAL_TIM_IC_Stop_DMA
 5540              		.syntax unified
 5541              		.thumb
 5542              		.thumb_func
 5544              	HAL_TIM_IC_Stop_DMA:
 5545              		@ args = 0, pretend = 0, frame = 16
 5546              		@ frame_needed = 1, uses_anonymous_args = 0
 5547 0000 80B5     		push	{r7, lr}
 5548 0002 84B0     		sub	sp, sp, #16
 5549 0004 00AF     		add	r7, sp, #0
 5550 0006 7860     		str	r0, [r7, #4]
 5551 0008 3960     		str	r1, [r7]
ARM GAS  C:\Users\user\AppData\Local\Temp\ccrDHgJ5.s 			page 97


 5552 000a 0023     		movs	r3, #0
 5553 000c FB73     		strb	r3, [r7, #15]
 5554 000e 7B68     		ldr	r3, [r7, #4]
 5555 0010 1B68     		ldr	r3, [r3]
 5556 0012 0022     		movs	r2, #0
 5557 0014 3968     		ldr	r1, [r7]
 5558 0016 1846     		mov	r0, r3
 5559 0018 FFF7FEFF 		bl	TIM_CCxChannelCmd
 5560 001c 3B68     		ldr	r3, [r7]
 5561 001e 0C2B     		cmp	r3, #12
 5562 0020 54D8     		bhi	.L559
 5563 0022 01A2     		adr	r2, .L561
 5564 0024 52F823F0 		ldr	pc, [r2, r3, lsl #2]
 5565              		.p2align 2
 5566              	.L561:
 5567 0028 5D000000 		.word	.L564+1
 5568 002c CD000000 		.word	.L559+1
 5569 0030 CD000000 		.word	.L559+1
 5570 0034 CD000000 		.word	.L559+1
 5571 0038 79000000 		.word	.L563+1
 5572 003c CD000000 		.word	.L559+1
 5573 0040 CD000000 		.word	.L559+1
 5574 0044 CD000000 		.word	.L559+1
 5575 0048 95000000 		.word	.L562+1
 5576 004c CD000000 		.word	.L559+1
 5577 0050 CD000000 		.word	.L559+1
 5578 0054 CD000000 		.word	.L559+1
 5579 0058 B1000000 		.word	.L560+1
 5580              		.p2align 1
 5581              	.L564:
 5582 005c 7B68     		ldr	r3, [r7, #4]
 5583 005e 1B68     		ldr	r3, [r3]
 5584 0060 DA68     		ldr	r2, [r3, #12]
 5585 0062 7B68     		ldr	r3, [r7, #4]
 5586 0064 1B68     		ldr	r3, [r3]
 5587 0066 22F40072 		bic	r2, r2, #512
 5588 006a DA60     		str	r2, [r3, #12]
 5589 006c 7B68     		ldr	r3, [r7, #4]
 5590 006e 5B6A     		ldr	r3, [r3, #36]
 5591 0070 1846     		mov	r0, r3
 5592 0072 FFF7FEFF 		bl	HAL_DMA_Abort_IT
 5593 0076 2CE0     		b	.L565
 5594              	.L563:
 5595 0078 7B68     		ldr	r3, [r7, #4]
 5596 007a 1B68     		ldr	r3, [r3]
 5597 007c DA68     		ldr	r2, [r3, #12]
 5598 007e 7B68     		ldr	r3, [r7, #4]
 5599 0080 1B68     		ldr	r3, [r3]
 5600 0082 22F48062 		bic	r2, r2, #1024
 5601 0086 DA60     		str	r2, [r3, #12]
 5602 0088 7B68     		ldr	r3, [r7, #4]
 5603 008a 9B6A     		ldr	r3, [r3, #40]
 5604 008c 1846     		mov	r0, r3
 5605 008e FFF7FEFF 		bl	HAL_DMA_Abort_IT
 5606 0092 1EE0     		b	.L565
 5607              	.L562:
 5608 0094 7B68     		ldr	r3, [r7, #4]
ARM GAS  C:\Users\user\AppData\Local\Temp\ccrDHgJ5.s 			page 98


 5609 0096 1B68     		ldr	r3, [r3]
 5610 0098 DA68     		ldr	r2, [r3, #12]
 5611 009a 7B68     		ldr	r3, [r7, #4]
 5612 009c 1B68     		ldr	r3, [r3]
 5613 009e 22F40062 		bic	r2, r2, #2048
 5614 00a2 DA60     		str	r2, [r3, #12]
 5615 00a4 7B68     		ldr	r3, [r7, #4]
 5616 00a6 DB6A     		ldr	r3, [r3, #44]
 5617 00a8 1846     		mov	r0, r3
 5618 00aa FFF7FEFF 		bl	HAL_DMA_Abort_IT
 5619 00ae 10E0     		b	.L565
 5620              	.L560:
 5621 00b0 7B68     		ldr	r3, [r7, #4]
 5622 00b2 1B68     		ldr	r3, [r3]
 5623 00b4 DA68     		ldr	r2, [r3, #12]
 5624 00b6 7B68     		ldr	r3, [r7, #4]
 5625 00b8 1B68     		ldr	r3, [r3]
 5626 00ba 22F48052 		bic	r2, r2, #4096
 5627 00be DA60     		str	r2, [r3, #12]
 5628 00c0 7B68     		ldr	r3, [r7, #4]
 5629 00c2 1B6B     		ldr	r3, [r3, #48]
 5630 00c4 1846     		mov	r0, r3
 5631 00c6 FFF7FEFF 		bl	HAL_DMA_Abort_IT
 5632 00ca 02E0     		b	.L565
 5633              	.L559:
 5634 00cc 0123     		movs	r3, #1
 5635 00ce FB73     		strb	r3, [r7, #15]
 5636 00d0 00BF     		nop
 5637              	.L565:
 5638 00d2 FB7B     		ldrb	r3, [r7, #15]	@ zero_extendqisi2
 5639 00d4 002B     		cmp	r3, #0
 5640 00d6 4FD1     		bne	.L566
 5641 00d8 7B68     		ldr	r3, [r7, #4]
 5642 00da 1B68     		ldr	r3, [r3]
 5643 00dc 1A6A     		ldr	r2, [r3, #32]
 5644 00de 41F21113 		movw	r3, #4369
 5645 00e2 1340     		ands	r3, r3, r2
 5646 00e4 002B     		cmp	r3, #0
 5647 00e6 0FD1     		bne	.L567
 5648 00e8 7B68     		ldr	r3, [r7, #4]
 5649 00ea 1B68     		ldr	r3, [r3]
 5650 00ec 1A6A     		ldr	r2, [r3, #32]
 5651 00ee 40F24443 		movw	r3, #1092
 5652 00f2 1340     		ands	r3, r3, r2
 5653 00f4 002B     		cmp	r3, #0
 5654 00f6 07D1     		bne	.L567
 5655 00f8 7B68     		ldr	r3, [r7, #4]
 5656 00fa 1B68     		ldr	r3, [r3]
 5657 00fc 1A68     		ldr	r2, [r3]
 5658 00fe 7B68     		ldr	r3, [r7, #4]
 5659 0100 1B68     		ldr	r3, [r3]
 5660 0102 22F00102 		bic	r2, r2, #1
 5661 0106 1A60     		str	r2, [r3]
 5662              	.L567:
 5663 0108 3B68     		ldr	r3, [r7]
 5664 010a 002B     		cmp	r3, #0
 5665 010c 04D1     		bne	.L568
ARM GAS  C:\Users\user\AppData\Local\Temp\ccrDHgJ5.s 			page 99


 5666 010e 7B68     		ldr	r3, [r7, #4]
 5667 0110 0122     		movs	r2, #1
 5668 0112 83F83E20 		strb	r2, [r3, #62]
 5669 0116 13E0     		b	.L569
 5670              	.L568:
 5671 0118 3B68     		ldr	r3, [r7]
 5672 011a 042B     		cmp	r3, #4
 5673 011c 04D1     		bne	.L570
 5674 011e 7B68     		ldr	r3, [r7, #4]
 5675 0120 0122     		movs	r2, #1
 5676 0122 83F83F20 		strb	r2, [r3, #63]
 5677 0126 0BE0     		b	.L569
 5678              	.L570:
 5679 0128 3B68     		ldr	r3, [r7]
 5680 012a 082B     		cmp	r3, #8
 5681 012c 04D1     		bne	.L572
 5682 012e 7B68     		ldr	r3, [r7, #4]
 5683 0130 0122     		movs	r2, #1
 5684 0132 83F84020 		strb	r2, [r3, #64]
 5685 0136 03E0     		b	.L569
 5686              	.L572:
 5687 0138 7B68     		ldr	r3, [r7, #4]
 5688 013a 0122     		movs	r2, #1
 5689 013c 83F84120 		strb	r2, [r3, #65]
 5690              	.L569:
 5691 0140 3B68     		ldr	r3, [r7]
 5692 0142 002B     		cmp	r3, #0
 5693 0144 04D1     		bne	.L574
 5694 0146 7B68     		ldr	r3, [r7, #4]
 5695 0148 0122     		movs	r2, #1
 5696 014a 83F84220 		strb	r2, [r3, #66]
 5697 014e 13E0     		b	.L566
 5698              	.L574:
 5699 0150 3B68     		ldr	r3, [r7]
 5700 0152 042B     		cmp	r3, #4
 5701 0154 04D1     		bne	.L575
 5702 0156 7B68     		ldr	r3, [r7, #4]
 5703 0158 0122     		movs	r2, #1
 5704 015a 83F84320 		strb	r2, [r3, #67]
 5705 015e 0BE0     		b	.L566
 5706              	.L575:
 5707 0160 3B68     		ldr	r3, [r7]
 5708 0162 082B     		cmp	r3, #8
 5709 0164 04D1     		bne	.L577
 5710 0166 7B68     		ldr	r3, [r7, #4]
 5711 0168 0122     		movs	r2, #1
 5712 016a 83F84420 		strb	r2, [r3, #68]
 5713 016e 03E0     		b	.L566
 5714              	.L577:
 5715 0170 7B68     		ldr	r3, [r7, #4]
 5716 0172 0122     		movs	r2, #1
 5717 0174 83F84520 		strb	r2, [r3, #69]
 5718              	.L566:
 5719 0178 FB7B     		ldrb	r3, [r7, #15]	@ zero_extendqisi2
 5720 017a 1846     		mov	r0, r3
 5721 017c 1037     		adds	r7, r7, #16
 5722 017e BD46     		mov	sp, r7
ARM GAS  C:\Users\user\AppData\Local\Temp\ccrDHgJ5.s 			page 100


 5723              		@ sp needed
 5724 0180 80BD     		pop	{r7, pc}
 5726 0182 00BF     		.section	.text.HAL_TIM_OnePulse_Init,"ax",%progbits
 5727              		.align	1
 5728              		.global	HAL_TIM_OnePulse_Init
 5729              		.syntax unified
 5730              		.thumb
 5731              		.thumb_func
 5733              	HAL_TIM_OnePulse_Init:
 5734              		@ args = 0, pretend = 0, frame = 8
 5735              		@ frame_needed = 1, uses_anonymous_args = 0
 5736 0000 80B5     		push	{r7, lr}
 5737 0002 82B0     		sub	sp, sp, #8
 5738 0004 00AF     		add	r7, sp, #0
 5739 0006 7860     		str	r0, [r7, #4]
 5740 0008 3960     		str	r1, [r7]
 5741 000a 7B68     		ldr	r3, [r7, #4]
 5742 000c 002B     		cmp	r3, #0
 5743 000e 01D1     		bne	.L581
 5744 0010 0123     		movs	r3, #1
 5745 0012 41E0     		b	.L582
 5746              	.L581:
 5747 0014 7B68     		ldr	r3, [r7, #4]
 5748 0016 93F83D30 		ldrb	r3, [r3, #61]
 5749 001a DBB2     		uxtb	r3, r3
 5750 001c 002B     		cmp	r3, #0
 5751 001e 06D1     		bne	.L583
 5752 0020 7B68     		ldr	r3, [r7, #4]
 5753 0022 0022     		movs	r2, #0
 5754 0024 83F83C20 		strb	r2, [r3, #60]
 5755 0028 7868     		ldr	r0, [r7, #4]
 5756 002a FFF7FEFF 		bl	HAL_TIM_OnePulse_MspInit
 5757              	.L583:
 5758 002e 7B68     		ldr	r3, [r7, #4]
 5759 0030 0222     		movs	r2, #2
 5760 0032 83F83D20 		strb	r2, [r3, #61]
 5761 0036 7B68     		ldr	r3, [r7, #4]
 5762 0038 1A68     		ldr	r2, [r3]
 5763 003a 7B68     		ldr	r3, [r7, #4]
 5764 003c 0433     		adds	r3, r3, #4
 5765 003e 1946     		mov	r1, r3
 5766 0040 1046     		mov	r0, r2
 5767 0042 FFF7FEFF 		bl	TIM_Base_SetConfig
 5768 0046 7B68     		ldr	r3, [r7, #4]
 5769 0048 1B68     		ldr	r3, [r3]
 5770 004a 1A68     		ldr	r2, [r3]
 5771 004c 7B68     		ldr	r3, [r7, #4]
 5772 004e 1B68     		ldr	r3, [r3]
 5773 0050 22F00802 		bic	r2, r2, #8
 5774 0054 1A60     		str	r2, [r3]
 5775 0056 7B68     		ldr	r3, [r7, #4]
 5776 0058 1B68     		ldr	r3, [r3]
 5777 005a 1968     		ldr	r1, [r3]
 5778 005c 7B68     		ldr	r3, [r7, #4]
 5779 005e 1B68     		ldr	r3, [r3]
 5780 0060 3A68     		ldr	r2, [r7]
 5781 0062 0A43     		orrs	r2, r2, r1
ARM GAS  C:\Users\user\AppData\Local\Temp\ccrDHgJ5.s 			page 101


 5782 0064 1A60     		str	r2, [r3]
 5783 0066 7B68     		ldr	r3, [r7, #4]
 5784 0068 0122     		movs	r2, #1
 5785 006a 83F84620 		strb	r2, [r3, #70]
 5786 006e 7B68     		ldr	r3, [r7, #4]
 5787 0070 0122     		movs	r2, #1
 5788 0072 83F83E20 		strb	r2, [r3, #62]
 5789 0076 7B68     		ldr	r3, [r7, #4]
 5790 0078 0122     		movs	r2, #1
 5791 007a 83F83F20 		strb	r2, [r3, #63]
 5792 007e 7B68     		ldr	r3, [r7, #4]
 5793 0080 0122     		movs	r2, #1
 5794 0082 83F84220 		strb	r2, [r3, #66]
 5795 0086 7B68     		ldr	r3, [r7, #4]
 5796 0088 0122     		movs	r2, #1
 5797 008a 83F84320 		strb	r2, [r3, #67]
 5798 008e 7B68     		ldr	r3, [r7, #4]
 5799 0090 0122     		movs	r2, #1
 5800 0092 83F83D20 		strb	r2, [r3, #61]
 5801 0096 0023     		movs	r3, #0
 5802              	.L582:
 5803 0098 1846     		mov	r0, r3
 5804 009a 0837     		adds	r7, r7, #8
 5805 009c BD46     		mov	sp, r7
 5806              		@ sp needed
 5807 009e 80BD     		pop	{r7, pc}
 5809              		.section	.text.HAL_TIM_OnePulse_DeInit,"ax",%progbits
 5810              		.align	1
 5811              		.global	HAL_TIM_OnePulse_DeInit
 5812              		.syntax unified
 5813              		.thumb
 5814              		.thumb_func
 5816              	HAL_TIM_OnePulse_DeInit:
 5817              		@ args = 0, pretend = 0, frame = 8
 5818              		@ frame_needed = 1, uses_anonymous_args = 0
 5819 0000 80B5     		push	{r7, lr}
 5820 0002 82B0     		sub	sp, sp, #8
 5821 0004 00AF     		add	r7, sp, #0
 5822 0006 7860     		str	r0, [r7, #4]
 5823 0008 7B68     		ldr	r3, [r7, #4]
 5824 000a 0222     		movs	r2, #2
 5825 000c 83F83D20 		strb	r2, [r3, #61]
 5826 0010 7B68     		ldr	r3, [r7, #4]
 5827 0012 1B68     		ldr	r3, [r3]
 5828 0014 1A6A     		ldr	r2, [r3, #32]
 5829 0016 41F21113 		movw	r3, #4369
 5830 001a 1340     		ands	r3, r3, r2
 5831 001c 002B     		cmp	r3, #0
 5832 001e 0FD1     		bne	.L585
 5833 0020 7B68     		ldr	r3, [r7, #4]
 5834 0022 1B68     		ldr	r3, [r3]
 5835 0024 1A6A     		ldr	r2, [r3, #32]
 5836 0026 40F24443 		movw	r3, #1092
 5837 002a 1340     		ands	r3, r3, r2
 5838 002c 002B     		cmp	r3, #0
 5839 002e 07D1     		bne	.L585
 5840 0030 7B68     		ldr	r3, [r7, #4]
ARM GAS  C:\Users\user\AppData\Local\Temp\ccrDHgJ5.s 			page 102


 5841 0032 1B68     		ldr	r3, [r3]
 5842 0034 1A68     		ldr	r2, [r3]
 5843 0036 7B68     		ldr	r3, [r7, #4]
 5844 0038 1B68     		ldr	r3, [r3]
 5845 003a 22F00102 		bic	r2, r2, #1
 5846 003e 1A60     		str	r2, [r3]
 5847              	.L585:
 5848 0040 7868     		ldr	r0, [r7, #4]
 5849 0042 FFF7FEFF 		bl	HAL_TIM_OnePulse_MspDeInit
 5850 0046 7B68     		ldr	r3, [r7, #4]
 5851 0048 0022     		movs	r2, #0
 5852 004a 83F84620 		strb	r2, [r3, #70]
 5853 004e 7B68     		ldr	r3, [r7, #4]
 5854 0050 0022     		movs	r2, #0
 5855 0052 83F83E20 		strb	r2, [r3, #62]
 5856 0056 7B68     		ldr	r3, [r7, #4]
 5857 0058 0022     		movs	r2, #0
 5858 005a 83F83F20 		strb	r2, [r3, #63]
 5859 005e 7B68     		ldr	r3, [r7, #4]
 5860 0060 0022     		movs	r2, #0
 5861 0062 83F84220 		strb	r2, [r3, #66]
 5862 0066 7B68     		ldr	r3, [r7, #4]
 5863 0068 0022     		movs	r2, #0
 5864 006a 83F84320 		strb	r2, [r3, #67]
 5865 006e 7B68     		ldr	r3, [r7, #4]
 5866 0070 0022     		movs	r2, #0
 5867 0072 83F83D20 		strb	r2, [r3, #61]
 5868 0076 7B68     		ldr	r3, [r7, #4]
 5869 0078 0022     		movs	r2, #0
 5870 007a 83F83C20 		strb	r2, [r3, #60]
 5871 007e 0023     		movs	r3, #0
 5872 0080 1846     		mov	r0, r3
 5873 0082 0837     		adds	r7, r7, #8
 5874 0084 BD46     		mov	sp, r7
 5875              		@ sp needed
 5876 0086 80BD     		pop	{r7, pc}
 5878              		.section	.text.HAL_TIM_OnePulse_MspInit,"ax",%progbits
 5879              		.align	1
 5880              		.weak	HAL_TIM_OnePulse_MspInit
 5881              		.syntax unified
 5882              		.thumb
 5883              		.thumb_func
 5885              	HAL_TIM_OnePulse_MspInit:
 5886              		@ args = 0, pretend = 0, frame = 8
 5887              		@ frame_needed = 1, uses_anonymous_args = 0
 5888              		@ link register save eliminated.
 5889 0000 80B4     		push	{r7}
 5890 0002 83B0     		sub	sp, sp, #12
 5891 0004 00AF     		add	r7, sp, #0
 5892 0006 7860     		str	r0, [r7, #4]
 5893 0008 00BF     		nop
 5894 000a 0C37     		adds	r7, r7, #12
 5895 000c BD46     		mov	sp, r7
 5896              		@ sp needed
 5897 000e 5DF8047B 		ldr	r7, [sp], #4
 5898 0012 7047     		bx	lr
 5900              		.section	.text.HAL_TIM_OnePulse_MspDeInit,"ax",%progbits
ARM GAS  C:\Users\user\AppData\Local\Temp\ccrDHgJ5.s 			page 103


 5901              		.align	1
 5902              		.weak	HAL_TIM_OnePulse_MspDeInit
 5903              		.syntax unified
 5904              		.thumb
 5905              		.thumb_func
 5907              	HAL_TIM_OnePulse_MspDeInit:
 5908              		@ args = 0, pretend = 0, frame = 8
 5909              		@ frame_needed = 1, uses_anonymous_args = 0
 5910              		@ link register save eliminated.
 5911 0000 80B4     		push	{r7}
 5912 0002 83B0     		sub	sp, sp, #12
 5913 0004 00AF     		add	r7, sp, #0
 5914 0006 7860     		str	r0, [r7, #4]
 5915 0008 00BF     		nop
 5916 000a 0C37     		adds	r7, r7, #12
 5917 000c BD46     		mov	sp, r7
 5918              		@ sp needed
 5919 000e 5DF8047B 		ldr	r7, [sp], #4
 5920 0012 7047     		bx	lr
 5922              		.section	.text.HAL_TIM_OnePulse_Start,"ax",%progbits
 5923              		.align	1
 5924              		.global	HAL_TIM_OnePulse_Start
 5925              		.syntax unified
 5926              		.thumb
 5927              		.thumb_func
 5929              	HAL_TIM_OnePulse_Start:
 5930              		@ args = 0, pretend = 0, frame = 16
 5931              		@ frame_needed = 1, uses_anonymous_args = 0
 5932 0000 80B5     		push	{r7, lr}
 5933 0002 84B0     		sub	sp, sp, #16
 5934 0004 00AF     		add	r7, sp, #0
 5935 0006 7860     		str	r0, [r7, #4]
 5936 0008 3960     		str	r1, [r7]
 5937 000a 7B68     		ldr	r3, [r7, #4]
 5938 000c 93F83E30 		ldrb	r3, [r3, #62]
 5939 0010 FB73     		strb	r3, [r7, #15]
 5940 0012 7B68     		ldr	r3, [r7, #4]
 5941 0014 93F83F30 		ldrb	r3, [r3, #63]
 5942 0018 BB73     		strb	r3, [r7, #14]
 5943 001a 7B68     		ldr	r3, [r7, #4]
 5944 001c 93F84230 		ldrb	r3, [r3, #66]
 5945 0020 7B73     		strb	r3, [r7, #13]
 5946 0022 7B68     		ldr	r3, [r7, #4]
 5947 0024 93F84330 		ldrb	r3, [r3, #67]
 5948 0028 3B73     		strb	r3, [r7, #12]
 5949 002a FB7B     		ldrb	r3, [r7, #15]	@ zero_extendqisi2
 5950 002c 012B     		cmp	r3, #1
 5951 002e 08D1     		bne	.L590
 5952 0030 BB7B     		ldrb	r3, [r7, #14]	@ zero_extendqisi2
 5953 0032 012B     		cmp	r3, #1
 5954 0034 05D1     		bne	.L590
 5955 0036 7B7B     		ldrb	r3, [r7, #13]	@ zero_extendqisi2
 5956 0038 012B     		cmp	r3, #1
 5957 003a 02D1     		bne	.L590
 5958 003c 3B7B     		ldrb	r3, [r7, #12]	@ zero_extendqisi2
 5959 003e 012B     		cmp	r3, #1
 5960 0040 01D0     		beq	.L591
ARM GAS  C:\Users\user\AppData\Local\Temp\ccrDHgJ5.s 			page 104


 5961              	.L590:
 5962 0042 0123     		movs	r3, #1
 5963 0044 35E0     		b	.L592
 5964              	.L591:
 5965 0046 7B68     		ldr	r3, [r7, #4]
 5966 0048 0222     		movs	r2, #2
 5967 004a 83F83E20 		strb	r2, [r3, #62]
 5968 004e 7B68     		ldr	r3, [r7, #4]
 5969 0050 0222     		movs	r2, #2
 5970 0052 83F83F20 		strb	r2, [r3, #63]
 5971 0056 7B68     		ldr	r3, [r7, #4]
 5972 0058 0222     		movs	r2, #2
 5973 005a 83F84220 		strb	r2, [r3, #66]
 5974 005e 7B68     		ldr	r3, [r7, #4]
 5975 0060 0222     		movs	r2, #2
 5976 0062 83F84320 		strb	r2, [r3, #67]
 5977 0066 7B68     		ldr	r3, [r7, #4]
 5978 0068 1B68     		ldr	r3, [r3]
 5979 006a 0122     		movs	r2, #1
 5980 006c 0021     		movs	r1, #0
 5981 006e 1846     		mov	r0, r3
 5982 0070 FFF7FEFF 		bl	TIM_CCxChannelCmd
 5983 0074 7B68     		ldr	r3, [r7, #4]
 5984 0076 1B68     		ldr	r3, [r3]
 5985 0078 0122     		movs	r2, #1
 5986 007a 0421     		movs	r1, #4
 5987 007c 1846     		mov	r0, r3
 5988 007e FFF7FEFF 		bl	TIM_CCxChannelCmd
 5989 0082 7B68     		ldr	r3, [r7, #4]
 5990 0084 1B68     		ldr	r3, [r3]
 5991 0086 0D4A     		ldr	r2, .L597
 5992 0088 9342     		cmp	r3, r2
 5993 008a 04D0     		beq	.L593
 5994 008c 7B68     		ldr	r3, [r7, #4]
 5995 008e 1B68     		ldr	r3, [r3]
 5996 0090 0B4A     		ldr	r2, .L597+4
 5997 0092 9342     		cmp	r3, r2
 5998 0094 01D1     		bne	.L594
 5999              	.L593:
 6000 0096 0123     		movs	r3, #1
 6001 0098 00E0     		b	.L595
 6002              	.L594:
 6003 009a 0023     		movs	r3, #0
 6004              	.L595:
 6005 009c 002B     		cmp	r3, #0
 6006 009e 07D0     		beq	.L596
 6007 00a0 7B68     		ldr	r3, [r7, #4]
 6008 00a2 1B68     		ldr	r3, [r3]
 6009 00a4 5A6C     		ldr	r2, [r3, #68]
 6010 00a6 7B68     		ldr	r3, [r7, #4]
 6011 00a8 1B68     		ldr	r3, [r3]
 6012 00aa 42F40042 		orr	r2, r2, #32768
 6013 00ae 5A64     		str	r2, [r3, #68]
 6014              	.L596:
 6015 00b0 0023     		movs	r3, #0
 6016              	.L592:
 6017 00b2 1846     		mov	r0, r3
ARM GAS  C:\Users\user\AppData\Local\Temp\ccrDHgJ5.s 			page 105


 6018 00b4 1037     		adds	r7, r7, #16
 6019 00b6 BD46     		mov	sp, r7
 6020              		@ sp needed
 6021 00b8 80BD     		pop	{r7, pc}
 6022              	.L598:
 6023 00ba 00BF     		.align	2
 6024              	.L597:
 6025 00bc 00000140 		.word	1073807360
 6026 00c0 00040140 		.word	1073808384
 6028              		.section	.text.HAL_TIM_OnePulse_Stop,"ax",%progbits
 6029              		.align	1
 6030              		.global	HAL_TIM_OnePulse_Stop
 6031              		.syntax unified
 6032              		.thumb
 6033              		.thumb_func
 6035              	HAL_TIM_OnePulse_Stop:
 6036              		@ args = 0, pretend = 0, frame = 8
 6037              		@ frame_needed = 1, uses_anonymous_args = 0
 6038 0000 80B5     		push	{r7, lr}
 6039 0002 82B0     		sub	sp, sp, #8
 6040 0004 00AF     		add	r7, sp, #0
 6041 0006 7860     		str	r0, [r7, #4]
 6042 0008 3960     		str	r1, [r7]
 6043 000a 7B68     		ldr	r3, [r7, #4]
 6044 000c 1B68     		ldr	r3, [r3]
 6045 000e 0022     		movs	r2, #0
 6046 0010 0021     		movs	r1, #0
 6047 0012 1846     		mov	r0, r3
 6048 0014 FFF7FEFF 		bl	TIM_CCxChannelCmd
 6049 0018 7B68     		ldr	r3, [r7, #4]
 6050 001a 1B68     		ldr	r3, [r3]
 6051 001c 0022     		movs	r2, #0
 6052 001e 0421     		movs	r1, #4
 6053 0020 1846     		mov	r0, r3
 6054 0022 FFF7FEFF 		bl	TIM_CCxChannelCmd
 6055 0026 7B68     		ldr	r3, [r7, #4]
 6056 0028 1B68     		ldr	r3, [r3]
 6057 002a 294A     		ldr	r2, .L606
 6058 002c 9342     		cmp	r3, r2
 6059 002e 04D0     		beq	.L600
 6060 0030 7B68     		ldr	r3, [r7, #4]
 6061 0032 1B68     		ldr	r3, [r3]
 6062 0034 274A     		ldr	r2, .L606+4
 6063 0036 9342     		cmp	r3, r2
 6064 0038 01D1     		bne	.L601
 6065              	.L600:
 6066 003a 0123     		movs	r3, #1
 6067 003c 00E0     		b	.L602
 6068              	.L601:
 6069 003e 0023     		movs	r3, #0
 6070              	.L602:
 6071 0040 002B     		cmp	r3, #0
 6072 0042 17D0     		beq	.L603
 6073 0044 7B68     		ldr	r3, [r7, #4]
 6074 0046 1B68     		ldr	r3, [r3]
 6075 0048 1A6A     		ldr	r2, [r3, #32]
 6076 004a 41F21113 		movw	r3, #4369
ARM GAS  C:\Users\user\AppData\Local\Temp\ccrDHgJ5.s 			page 106


 6077 004e 1340     		ands	r3, r3, r2
 6078 0050 002B     		cmp	r3, #0
 6079 0052 0FD1     		bne	.L603
 6080 0054 7B68     		ldr	r3, [r7, #4]
 6081 0056 1B68     		ldr	r3, [r3]
 6082 0058 1A6A     		ldr	r2, [r3, #32]
 6083 005a 40F24443 		movw	r3, #1092
 6084 005e 1340     		ands	r3, r3, r2
 6085 0060 002B     		cmp	r3, #0
 6086 0062 07D1     		bne	.L603
 6087 0064 7B68     		ldr	r3, [r7, #4]
 6088 0066 1B68     		ldr	r3, [r3]
 6089 0068 5A6C     		ldr	r2, [r3, #68]
 6090 006a 7B68     		ldr	r3, [r7, #4]
 6091 006c 1B68     		ldr	r3, [r3]
 6092 006e 22F40042 		bic	r2, r2, #32768
 6093 0072 5A64     		str	r2, [r3, #68]
 6094              	.L603:
 6095 0074 7B68     		ldr	r3, [r7, #4]
 6096 0076 1B68     		ldr	r3, [r3]
 6097 0078 1A6A     		ldr	r2, [r3, #32]
 6098 007a 41F21113 		movw	r3, #4369
 6099 007e 1340     		ands	r3, r3, r2
 6100 0080 002B     		cmp	r3, #0
 6101 0082 0FD1     		bne	.L604
 6102 0084 7B68     		ldr	r3, [r7, #4]
 6103 0086 1B68     		ldr	r3, [r3]
 6104 0088 1A6A     		ldr	r2, [r3, #32]
 6105 008a 40F24443 		movw	r3, #1092
 6106 008e 1340     		ands	r3, r3, r2
 6107 0090 002B     		cmp	r3, #0
 6108 0092 07D1     		bne	.L604
 6109 0094 7B68     		ldr	r3, [r7, #4]
 6110 0096 1B68     		ldr	r3, [r3]
 6111 0098 1A68     		ldr	r2, [r3]
 6112 009a 7B68     		ldr	r3, [r7, #4]
 6113 009c 1B68     		ldr	r3, [r3]
 6114 009e 22F00102 		bic	r2, r2, #1
 6115 00a2 1A60     		str	r2, [r3]
 6116              	.L604:
 6117 00a4 7B68     		ldr	r3, [r7, #4]
 6118 00a6 0122     		movs	r2, #1
 6119 00a8 83F83E20 		strb	r2, [r3, #62]
 6120 00ac 7B68     		ldr	r3, [r7, #4]
 6121 00ae 0122     		movs	r2, #1
 6122 00b0 83F83F20 		strb	r2, [r3, #63]
 6123 00b4 7B68     		ldr	r3, [r7, #4]
 6124 00b6 0122     		movs	r2, #1
 6125 00b8 83F84220 		strb	r2, [r3, #66]
 6126 00bc 7B68     		ldr	r3, [r7, #4]
 6127 00be 0122     		movs	r2, #1
 6128 00c0 83F84320 		strb	r2, [r3, #67]
 6129 00c4 0023     		movs	r3, #0
 6130 00c6 1846     		mov	r0, r3
 6131 00c8 0837     		adds	r7, r7, #8
 6132 00ca BD46     		mov	sp, r7
 6133              		@ sp needed
ARM GAS  C:\Users\user\AppData\Local\Temp\ccrDHgJ5.s 			page 107


 6134 00cc 80BD     		pop	{r7, pc}
 6135              	.L607:
 6136 00ce 00BF     		.align	2
 6137              	.L606:
 6138 00d0 00000140 		.word	1073807360
 6139 00d4 00040140 		.word	1073808384
 6141              		.section	.text.HAL_TIM_OnePulse_Start_IT,"ax",%progbits
 6142              		.align	1
 6143              		.global	HAL_TIM_OnePulse_Start_IT
 6144              		.syntax unified
 6145              		.thumb
 6146              		.thumb_func
 6148              	HAL_TIM_OnePulse_Start_IT:
 6149              		@ args = 0, pretend = 0, frame = 16
 6150              		@ frame_needed = 1, uses_anonymous_args = 0
 6151 0000 80B5     		push	{r7, lr}
 6152 0002 84B0     		sub	sp, sp, #16
 6153 0004 00AF     		add	r7, sp, #0
 6154 0006 7860     		str	r0, [r7, #4]
 6155 0008 3960     		str	r1, [r7]
 6156 000a 7B68     		ldr	r3, [r7, #4]
 6157 000c 93F83E30 		ldrb	r3, [r3, #62]
 6158 0010 FB73     		strb	r3, [r7, #15]
 6159 0012 7B68     		ldr	r3, [r7, #4]
 6160 0014 93F83F30 		ldrb	r3, [r3, #63]
 6161 0018 BB73     		strb	r3, [r7, #14]
 6162 001a 7B68     		ldr	r3, [r7, #4]
 6163 001c 93F84230 		ldrb	r3, [r3, #66]
 6164 0020 7B73     		strb	r3, [r7, #13]
 6165 0022 7B68     		ldr	r3, [r7, #4]
 6166 0024 93F84330 		ldrb	r3, [r3, #67]
 6167 0028 3B73     		strb	r3, [r7, #12]
 6168 002a FB7B     		ldrb	r3, [r7, #15]	@ zero_extendqisi2
 6169 002c 012B     		cmp	r3, #1
 6170 002e 08D1     		bne	.L609
 6171 0030 BB7B     		ldrb	r3, [r7, #14]	@ zero_extendqisi2
 6172 0032 012B     		cmp	r3, #1
 6173 0034 05D1     		bne	.L609
 6174 0036 7B7B     		ldrb	r3, [r7, #13]	@ zero_extendqisi2
 6175 0038 012B     		cmp	r3, #1
 6176 003a 02D1     		bne	.L609
 6177 003c 3B7B     		ldrb	r3, [r7, #12]	@ zero_extendqisi2
 6178 003e 012B     		cmp	r3, #1
 6179 0040 01D0     		beq	.L610
 6180              	.L609:
 6181 0042 0123     		movs	r3, #1
 6182 0044 45E0     		b	.L611
 6183              	.L610:
 6184 0046 7B68     		ldr	r3, [r7, #4]
 6185 0048 0222     		movs	r2, #2
 6186 004a 83F83E20 		strb	r2, [r3, #62]
 6187 004e 7B68     		ldr	r3, [r7, #4]
 6188 0050 0222     		movs	r2, #2
 6189 0052 83F83F20 		strb	r2, [r3, #63]
 6190 0056 7B68     		ldr	r3, [r7, #4]
 6191 0058 0222     		movs	r2, #2
 6192 005a 83F84220 		strb	r2, [r3, #66]
ARM GAS  C:\Users\user\AppData\Local\Temp\ccrDHgJ5.s 			page 108


 6193 005e 7B68     		ldr	r3, [r7, #4]
 6194 0060 0222     		movs	r2, #2
 6195 0062 83F84320 		strb	r2, [r3, #67]
 6196 0066 7B68     		ldr	r3, [r7, #4]
 6197 0068 1B68     		ldr	r3, [r3]
 6198 006a DA68     		ldr	r2, [r3, #12]
 6199 006c 7B68     		ldr	r3, [r7, #4]
 6200 006e 1B68     		ldr	r3, [r3]
 6201 0070 42F00202 		orr	r2, r2, #2
 6202 0074 DA60     		str	r2, [r3, #12]
 6203 0076 7B68     		ldr	r3, [r7, #4]
 6204 0078 1B68     		ldr	r3, [r3]
 6205 007a DA68     		ldr	r2, [r3, #12]
 6206 007c 7B68     		ldr	r3, [r7, #4]
 6207 007e 1B68     		ldr	r3, [r3]
 6208 0080 42F00402 		orr	r2, r2, #4
 6209 0084 DA60     		str	r2, [r3, #12]
 6210 0086 7B68     		ldr	r3, [r7, #4]
 6211 0088 1B68     		ldr	r3, [r3]
 6212 008a 0122     		movs	r2, #1
 6213 008c 0021     		movs	r1, #0
 6214 008e 1846     		mov	r0, r3
 6215 0090 FFF7FEFF 		bl	TIM_CCxChannelCmd
 6216 0094 7B68     		ldr	r3, [r7, #4]
 6217 0096 1B68     		ldr	r3, [r3]
 6218 0098 0122     		movs	r2, #1
 6219 009a 0421     		movs	r1, #4
 6220 009c 1846     		mov	r0, r3
 6221 009e FFF7FEFF 		bl	TIM_CCxChannelCmd
 6222 00a2 7B68     		ldr	r3, [r7, #4]
 6223 00a4 1B68     		ldr	r3, [r3]
 6224 00a6 0D4A     		ldr	r2, .L616
 6225 00a8 9342     		cmp	r3, r2
 6226 00aa 04D0     		beq	.L612
 6227 00ac 7B68     		ldr	r3, [r7, #4]
 6228 00ae 1B68     		ldr	r3, [r3]
 6229 00b0 0B4A     		ldr	r2, .L616+4
 6230 00b2 9342     		cmp	r3, r2
 6231 00b4 01D1     		bne	.L613
 6232              	.L612:
 6233 00b6 0123     		movs	r3, #1
 6234 00b8 00E0     		b	.L614
 6235              	.L613:
 6236 00ba 0023     		movs	r3, #0
 6237              	.L614:
 6238 00bc 002B     		cmp	r3, #0
 6239 00be 07D0     		beq	.L615
 6240 00c0 7B68     		ldr	r3, [r7, #4]
 6241 00c2 1B68     		ldr	r3, [r3]
 6242 00c4 5A6C     		ldr	r2, [r3, #68]
 6243 00c6 7B68     		ldr	r3, [r7, #4]
 6244 00c8 1B68     		ldr	r3, [r3]
 6245 00ca 42F40042 		orr	r2, r2, #32768
 6246 00ce 5A64     		str	r2, [r3, #68]
 6247              	.L615:
 6248 00d0 0023     		movs	r3, #0
 6249              	.L611:
ARM GAS  C:\Users\user\AppData\Local\Temp\ccrDHgJ5.s 			page 109


 6250 00d2 1846     		mov	r0, r3
 6251 00d4 1037     		adds	r7, r7, #16
 6252 00d6 BD46     		mov	sp, r7
 6253              		@ sp needed
 6254 00d8 80BD     		pop	{r7, pc}
 6255              	.L617:
 6256 00da 00BF     		.align	2
 6257              	.L616:
 6258 00dc 00000140 		.word	1073807360
 6259 00e0 00040140 		.word	1073808384
 6261              		.section	.text.HAL_TIM_OnePulse_Stop_IT,"ax",%progbits
 6262              		.align	1
 6263              		.global	HAL_TIM_OnePulse_Stop_IT
 6264              		.syntax unified
 6265              		.thumb
 6266              		.thumb_func
 6268              	HAL_TIM_OnePulse_Stop_IT:
 6269              		@ args = 0, pretend = 0, frame = 8
 6270              		@ frame_needed = 1, uses_anonymous_args = 0
 6271 0000 80B5     		push	{r7, lr}
 6272 0002 82B0     		sub	sp, sp, #8
 6273 0004 00AF     		add	r7, sp, #0
 6274 0006 7860     		str	r0, [r7, #4]
 6275 0008 3960     		str	r1, [r7]
 6276 000a 7B68     		ldr	r3, [r7, #4]
 6277 000c 1B68     		ldr	r3, [r3]
 6278 000e DA68     		ldr	r2, [r3, #12]
 6279 0010 7B68     		ldr	r3, [r7, #4]
 6280 0012 1B68     		ldr	r3, [r3]
 6281 0014 22F00202 		bic	r2, r2, #2
 6282 0018 DA60     		str	r2, [r3, #12]
 6283 001a 7B68     		ldr	r3, [r7, #4]
 6284 001c 1B68     		ldr	r3, [r3]
 6285 001e DA68     		ldr	r2, [r3, #12]
 6286 0020 7B68     		ldr	r3, [r7, #4]
 6287 0022 1B68     		ldr	r3, [r3]
 6288 0024 22F00402 		bic	r2, r2, #4
 6289 0028 DA60     		str	r2, [r3, #12]
 6290 002a 7B68     		ldr	r3, [r7, #4]
 6291 002c 1B68     		ldr	r3, [r3]
 6292 002e 0022     		movs	r2, #0
 6293 0030 0021     		movs	r1, #0
 6294 0032 1846     		mov	r0, r3
 6295 0034 FFF7FEFF 		bl	TIM_CCxChannelCmd
 6296 0038 7B68     		ldr	r3, [r7, #4]
 6297 003a 1B68     		ldr	r3, [r3]
 6298 003c 0022     		movs	r2, #0
 6299 003e 0421     		movs	r1, #4
 6300 0040 1846     		mov	r0, r3
 6301 0042 FFF7FEFF 		bl	TIM_CCxChannelCmd
 6302 0046 7B68     		ldr	r3, [r7, #4]
 6303 0048 1B68     		ldr	r3, [r3]
 6304 004a 294A     		ldr	r2, .L625
 6305 004c 9342     		cmp	r3, r2
 6306 004e 04D0     		beq	.L619
 6307 0050 7B68     		ldr	r3, [r7, #4]
 6308 0052 1B68     		ldr	r3, [r3]
ARM GAS  C:\Users\user\AppData\Local\Temp\ccrDHgJ5.s 			page 110


 6309 0054 274A     		ldr	r2, .L625+4
 6310 0056 9342     		cmp	r3, r2
 6311 0058 01D1     		bne	.L620
 6312              	.L619:
 6313 005a 0123     		movs	r3, #1
 6314 005c 00E0     		b	.L621
 6315              	.L620:
 6316 005e 0023     		movs	r3, #0
 6317              	.L621:
 6318 0060 002B     		cmp	r3, #0
 6319 0062 17D0     		beq	.L622
 6320 0064 7B68     		ldr	r3, [r7, #4]
 6321 0066 1B68     		ldr	r3, [r3]
 6322 0068 1A6A     		ldr	r2, [r3, #32]
 6323 006a 41F21113 		movw	r3, #4369
 6324 006e 1340     		ands	r3, r3, r2
 6325 0070 002B     		cmp	r3, #0
 6326 0072 0FD1     		bne	.L622
 6327 0074 7B68     		ldr	r3, [r7, #4]
 6328 0076 1B68     		ldr	r3, [r3]
 6329 0078 1A6A     		ldr	r2, [r3, #32]
 6330 007a 40F24443 		movw	r3, #1092
 6331 007e 1340     		ands	r3, r3, r2
 6332 0080 002B     		cmp	r3, #0
 6333 0082 07D1     		bne	.L622
 6334 0084 7B68     		ldr	r3, [r7, #4]
 6335 0086 1B68     		ldr	r3, [r3]
 6336 0088 5A6C     		ldr	r2, [r3, #68]
 6337 008a 7B68     		ldr	r3, [r7, #4]
 6338 008c 1B68     		ldr	r3, [r3]
 6339 008e 22F40042 		bic	r2, r2, #32768
 6340 0092 5A64     		str	r2, [r3, #68]
 6341              	.L622:
 6342 0094 7B68     		ldr	r3, [r7, #4]
 6343 0096 1B68     		ldr	r3, [r3]
 6344 0098 1A6A     		ldr	r2, [r3, #32]
 6345 009a 41F21113 		movw	r3, #4369
 6346 009e 1340     		ands	r3, r3, r2
 6347 00a0 002B     		cmp	r3, #0
 6348 00a2 0FD1     		bne	.L623
 6349 00a4 7B68     		ldr	r3, [r7, #4]
 6350 00a6 1B68     		ldr	r3, [r3]
 6351 00a8 1A6A     		ldr	r2, [r3, #32]
 6352 00aa 40F24443 		movw	r3, #1092
 6353 00ae 1340     		ands	r3, r3, r2
 6354 00b0 002B     		cmp	r3, #0
 6355 00b2 07D1     		bne	.L623
 6356 00b4 7B68     		ldr	r3, [r7, #4]
 6357 00b6 1B68     		ldr	r3, [r3]
 6358 00b8 1A68     		ldr	r2, [r3]
 6359 00ba 7B68     		ldr	r3, [r7, #4]
 6360 00bc 1B68     		ldr	r3, [r3]
 6361 00be 22F00102 		bic	r2, r2, #1
 6362 00c2 1A60     		str	r2, [r3]
 6363              	.L623:
 6364 00c4 7B68     		ldr	r3, [r7, #4]
 6365 00c6 0122     		movs	r2, #1
ARM GAS  C:\Users\user\AppData\Local\Temp\ccrDHgJ5.s 			page 111


 6366 00c8 83F83E20 		strb	r2, [r3, #62]
 6367 00cc 7B68     		ldr	r3, [r7, #4]
 6368 00ce 0122     		movs	r2, #1
 6369 00d0 83F83F20 		strb	r2, [r3, #63]
 6370 00d4 7B68     		ldr	r3, [r7, #4]
 6371 00d6 0122     		movs	r2, #1
 6372 00d8 83F84220 		strb	r2, [r3, #66]
 6373 00dc 7B68     		ldr	r3, [r7, #4]
 6374 00de 0122     		movs	r2, #1
 6375 00e0 83F84320 		strb	r2, [r3, #67]
 6376 00e4 0023     		movs	r3, #0
 6377 00e6 1846     		mov	r0, r3
 6378 00e8 0837     		adds	r7, r7, #8
 6379 00ea BD46     		mov	sp, r7
 6380              		@ sp needed
 6381 00ec 80BD     		pop	{r7, pc}
 6382              	.L626:
 6383 00ee 00BF     		.align	2
 6384              	.L625:
 6385 00f0 00000140 		.word	1073807360
 6386 00f4 00040140 		.word	1073808384
 6388              		.section	.text.HAL_TIM_Encoder_Init,"ax",%progbits
 6389              		.align	1
 6390              		.global	HAL_TIM_Encoder_Init
 6391              		.syntax unified
 6392              		.thumb
 6393              		.thumb_func
 6395              	HAL_TIM_Encoder_Init:
 6396              		@ args = 0, pretend = 0, frame = 24
 6397              		@ frame_needed = 1, uses_anonymous_args = 0
 6398 0000 80B5     		push	{r7, lr}
 6399 0002 86B0     		sub	sp, sp, #24
 6400 0004 00AF     		add	r7, sp, #0
 6401 0006 7860     		str	r0, [r7, #4]
 6402 0008 3960     		str	r1, [r7]
 6403 000a 7B68     		ldr	r3, [r7, #4]
 6404 000c 002B     		cmp	r3, #0
 6405 000e 01D1     		bne	.L628
 6406 0010 0123     		movs	r3, #1
 6407 0012 97E0     		b	.L629
 6408              	.L628:
 6409 0014 7B68     		ldr	r3, [r7, #4]
 6410 0016 93F83D30 		ldrb	r3, [r3, #61]
 6411 001a DBB2     		uxtb	r3, r3
 6412 001c 002B     		cmp	r3, #0
 6413 001e 06D1     		bne	.L630
 6414 0020 7B68     		ldr	r3, [r7, #4]
 6415 0022 0022     		movs	r2, #0
 6416 0024 83F83C20 		strb	r2, [r3, #60]
 6417 0028 7868     		ldr	r0, [r7, #4]
 6418 002a FFF7FEFF 		bl	HAL_TIM_Encoder_MspInit
 6419              	.L630:
 6420 002e 7B68     		ldr	r3, [r7, #4]
 6421 0030 0222     		movs	r2, #2
 6422 0032 83F83D20 		strb	r2, [r3, #61]
 6423 0036 7B68     		ldr	r3, [r7, #4]
 6424 0038 1B68     		ldr	r3, [r3]
ARM GAS  C:\Users\user\AppData\Local\Temp\ccrDHgJ5.s 			page 112


 6425 003a 9B68     		ldr	r3, [r3, #8]
 6426 003c 7A68     		ldr	r2, [r7, #4]
 6427 003e 1268     		ldr	r2, [r2]
 6428 0040 23F48043 		bic	r3, r3, #16384
 6429 0044 23F00703 		bic	r3, r3, #7
 6430 0048 9360     		str	r3, [r2, #8]
 6431 004a 7B68     		ldr	r3, [r7, #4]
 6432 004c 1A68     		ldr	r2, [r3]
 6433 004e 7B68     		ldr	r3, [r7, #4]
 6434 0050 0433     		adds	r3, r3, #4
 6435 0052 1946     		mov	r1, r3
 6436 0054 1046     		mov	r0, r2
 6437 0056 FFF7FEFF 		bl	TIM_Base_SetConfig
 6438 005a 7B68     		ldr	r3, [r7, #4]
 6439 005c 1B68     		ldr	r3, [r3]
 6440 005e 9B68     		ldr	r3, [r3, #8]
 6441 0060 7B61     		str	r3, [r7, #20]
 6442 0062 7B68     		ldr	r3, [r7, #4]
 6443 0064 1B68     		ldr	r3, [r3]
 6444 0066 9B69     		ldr	r3, [r3, #24]
 6445 0068 3B61     		str	r3, [r7, #16]
 6446 006a 7B68     		ldr	r3, [r7, #4]
 6447 006c 1B68     		ldr	r3, [r3]
 6448 006e 1B6A     		ldr	r3, [r3, #32]
 6449 0070 FB60     		str	r3, [r7, #12]
 6450 0072 3B68     		ldr	r3, [r7]
 6451 0074 1B68     		ldr	r3, [r3]
 6452 0076 7A69     		ldr	r2, [r7, #20]
 6453 0078 1343     		orrs	r3, r3, r2
 6454 007a 7B61     		str	r3, [r7, #20]
 6455 007c 3B69     		ldr	r3, [r7, #16]
 6456 007e 23F44073 		bic	r3, r3, #768
 6457 0082 23F00303 		bic	r3, r3, #3
 6458 0086 3B61     		str	r3, [r7, #16]
 6459 0088 3B68     		ldr	r3, [r7]
 6460 008a 9A68     		ldr	r2, [r3, #8]
 6461 008c 3B68     		ldr	r3, [r7]
 6462 008e 9B69     		ldr	r3, [r3, #24]
 6463 0090 1B02     		lsls	r3, r3, #8
 6464 0092 1343     		orrs	r3, r3, r2
 6465 0094 3A69     		ldr	r2, [r7, #16]
 6466 0096 1343     		orrs	r3, r3, r2
 6467 0098 3B61     		str	r3, [r7, #16]
 6468 009a 3B69     		ldr	r3, [r7, #16]
 6469 009c 23F44063 		bic	r3, r3, #3072
 6470 00a0 23F00C03 		bic	r3, r3, #12
 6471 00a4 3B61     		str	r3, [r7, #16]
 6472 00a6 3B69     		ldr	r3, [r7, #16]
 6473 00a8 23F47043 		bic	r3, r3, #61440
 6474 00ac 23F0F003 		bic	r3, r3, #240
 6475 00b0 3B61     		str	r3, [r7, #16]
 6476 00b2 3B68     		ldr	r3, [r7]
 6477 00b4 DA68     		ldr	r2, [r3, #12]
 6478 00b6 3B68     		ldr	r3, [r7]
 6479 00b8 DB69     		ldr	r3, [r3, #28]
 6480 00ba 1B02     		lsls	r3, r3, #8
 6481 00bc 1343     		orrs	r3, r3, r2
ARM GAS  C:\Users\user\AppData\Local\Temp\ccrDHgJ5.s 			page 113


 6482 00be 3A69     		ldr	r2, [r7, #16]
 6483 00c0 1343     		orrs	r3, r3, r2
 6484 00c2 3B61     		str	r3, [r7, #16]
 6485 00c4 3B68     		ldr	r3, [r7]
 6486 00c6 1B69     		ldr	r3, [r3, #16]
 6487 00c8 1A01     		lsls	r2, r3, #4
 6488 00ca 3B68     		ldr	r3, [r7]
 6489 00cc 1B6A     		ldr	r3, [r3, #32]
 6490 00ce 1B03     		lsls	r3, r3, #12
 6491 00d0 1343     		orrs	r3, r3, r2
 6492 00d2 3A69     		ldr	r2, [r7, #16]
 6493 00d4 1343     		orrs	r3, r3, r2
 6494 00d6 3B61     		str	r3, [r7, #16]
 6495 00d8 FB68     		ldr	r3, [r7, #12]
 6496 00da 23F02203 		bic	r3, r3, #34
 6497 00de FB60     		str	r3, [r7, #12]
 6498 00e0 FB68     		ldr	r3, [r7, #12]
 6499 00e2 23F08803 		bic	r3, r3, #136
 6500 00e6 FB60     		str	r3, [r7, #12]
 6501 00e8 3B68     		ldr	r3, [r7]
 6502 00ea 5A68     		ldr	r2, [r3, #4]
 6503 00ec 3B68     		ldr	r3, [r7]
 6504 00ee 5B69     		ldr	r3, [r3, #20]
 6505 00f0 1B01     		lsls	r3, r3, #4
 6506 00f2 1343     		orrs	r3, r3, r2
 6507 00f4 FA68     		ldr	r2, [r7, #12]
 6508 00f6 1343     		orrs	r3, r3, r2
 6509 00f8 FB60     		str	r3, [r7, #12]
 6510 00fa 7B68     		ldr	r3, [r7, #4]
 6511 00fc 1B68     		ldr	r3, [r3]
 6512 00fe 7A69     		ldr	r2, [r7, #20]
 6513 0100 9A60     		str	r2, [r3, #8]
 6514 0102 7B68     		ldr	r3, [r7, #4]
 6515 0104 1B68     		ldr	r3, [r3]
 6516 0106 3A69     		ldr	r2, [r7, #16]
 6517 0108 9A61     		str	r2, [r3, #24]
 6518 010a 7B68     		ldr	r3, [r7, #4]
 6519 010c 1B68     		ldr	r3, [r3]
 6520 010e FA68     		ldr	r2, [r7, #12]
 6521 0110 1A62     		str	r2, [r3, #32]
 6522 0112 7B68     		ldr	r3, [r7, #4]
 6523 0114 0122     		movs	r2, #1
 6524 0116 83F84620 		strb	r2, [r3, #70]
 6525 011a 7B68     		ldr	r3, [r7, #4]
 6526 011c 0122     		movs	r2, #1
 6527 011e 83F83E20 		strb	r2, [r3, #62]
 6528 0122 7B68     		ldr	r3, [r7, #4]
 6529 0124 0122     		movs	r2, #1
 6530 0126 83F83F20 		strb	r2, [r3, #63]
 6531 012a 7B68     		ldr	r3, [r7, #4]
 6532 012c 0122     		movs	r2, #1
 6533 012e 83F84220 		strb	r2, [r3, #66]
 6534 0132 7B68     		ldr	r3, [r7, #4]
 6535 0134 0122     		movs	r2, #1
 6536 0136 83F84320 		strb	r2, [r3, #67]
 6537 013a 7B68     		ldr	r3, [r7, #4]
 6538 013c 0122     		movs	r2, #1
ARM GAS  C:\Users\user\AppData\Local\Temp\ccrDHgJ5.s 			page 114


 6539 013e 83F83D20 		strb	r2, [r3, #61]
 6540 0142 0023     		movs	r3, #0
 6541              	.L629:
 6542 0144 1846     		mov	r0, r3
 6543 0146 1837     		adds	r7, r7, #24
 6544 0148 BD46     		mov	sp, r7
 6545              		@ sp needed
 6546 014a 80BD     		pop	{r7, pc}
 6548              		.section	.text.HAL_TIM_Encoder_DeInit,"ax",%progbits
 6549              		.align	1
 6550              		.global	HAL_TIM_Encoder_DeInit
 6551              		.syntax unified
 6552              		.thumb
 6553              		.thumb_func
 6555              	HAL_TIM_Encoder_DeInit:
 6556              		@ args = 0, pretend = 0, frame = 8
 6557              		@ frame_needed = 1, uses_anonymous_args = 0
 6558 0000 80B5     		push	{r7, lr}
 6559 0002 82B0     		sub	sp, sp, #8
 6560 0004 00AF     		add	r7, sp, #0
 6561 0006 7860     		str	r0, [r7, #4]
 6562 0008 7B68     		ldr	r3, [r7, #4]
 6563 000a 0222     		movs	r2, #2
 6564 000c 83F83D20 		strb	r2, [r3, #61]
 6565 0010 7B68     		ldr	r3, [r7, #4]
 6566 0012 1B68     		ldr	r3, [r3]
 6567 0014 1A6A     		ldr	r2, [r3, #32]
 6568 0016 41F21113 		movw	r3, #4369
 6569 001a 1340     		ands	r3, r3, r2
 6570 001c 002B     		cmp	r3, #0
 6571 001e 0FD1     		bne	.L632
 6572 0020 7B68     		ldr	r3, [r7, #4]
 6573 0022 1B68     		ldr	r3, [r3]
 6574 0024 1A6A     		ldr	r2, [r3, #32]
 6575 0026 40F24443 		movw	r3, #1092
 6576 002a 1340     		ands	r3, r3, r2
 6577 002c 002B     		cmp	r3, #0
 6578 002e 07D1     		bne	.L632
 6579 0030 7B68     		ldr	r3, [r7, #4]
 6580 0032 1B68     		ldr	r3, [r3]
 6581 0034 1A68     		ldr	r2, [r3]
 6582 0036 7B68     		ldr	r3, [r7, #4]
 6583 0038 1B68     		ldr	r3, [r3]
 6584 003a 22F00102 		bic	r2, r2, #1
 6585 003e 1A60     		str	r2, [r3]
 6586              	.L632:
 6587 0040 7868     		ldr	r0, [r7, #4]
 6588 0042 FFF7FEFF 		bl	HAL_TIM_Encoder_MspDeInit
 6589 0046 7B68     		ldr	r3, [r7, #4]
 6590 0048 0022     		movs	r2, #0
 6591 004a 83F84620 		strb	r2, [r3, #70]
 6592 004e 7B68     		ldr	r3, [r7, #4]
 6593 0050 0022     		movs	r2, #0
 6594 0052 83F83E20 		strb	r2, [r3, #62]
 6595 0056 7B68     		ldr	r3, [r7, #4]
 6596 0058 0022     		movs	r2, #0
 6597 005a 83F83F20 		strb	r2, [r3, #63]
ARM GAS  C:\Users\user\AppData\Local\Temp\ccrDHgJ5.s 			page 115


 6598 005e 7B68     		ldr	r3, [r7, #4]
 6599 0060 0022     		movs	r2, #0
 6600 0062 83F84220 		strb	r2, [r3, #66]
 6601 0066 7B68     		ldr	r3, [r7, #4]
 6602 0068 0022     		movs	r2, #0
 6603 006a 83F84320 		strb	r2, [r3, #67]
 6604 006e 7B68     		ldr	r3, [r7, #4]
 6605 0070 0022     		movs	r2, #0
 6606 0072 83F83D20 		strb	r2, [r3, #61]
 6607 0076 7B68     		ldr	r3, [r7, #4]
 6608 0078 0022     		movs	r2, #0
 6609 007a 83F83C20 		strb	r2, [r3, #60]
 6610 007e 0023     		movs	r3, #0
 6611 0080 1846     		mov	r0, r3
 6612 0082 0837     		adds	r7, r7, #8
 6613 0084 BD46     		mov	sp, r7
 6614              		@ sp needed
 6615 0086 80BD     		pop	{r7, pc}
 6617              		.section	.text.HAL_TIM_Encoder_MspInit,"ax",%progbits
 6618              		.align	1
 6619              		.weak	HAL_TIM_Encoder_MspInit
 6620              		.syntax unified
 6621              		.thumb
 6622              		.thumb_func
 6624              	HAL_TIM_Encoder_MspInit:
 6625              		@ args = 0, pretend = 0, frame = 8
 6626              		@ frame_needed = 1, uses_anonymous_args = 0
 6627              		@ link register save eliminated.
 6628 0000 80B4     		push	{r7}
 6629 0002 83B0     		sub	sp, sp, #12
 6630 0004 00AF     		add	r7, sp, #0
 6631 0006 7860     		str	r0, [r7, #4]
 6632 0008 00BF     		nop
 6633 000a 0C37     		adds	r7, r7, #12
 6634 000c BD46     		mov	sp, r7
 6635              		@ sp needed
 6636 000e 5DF8047B 		ldr	r7, [sp], #4
 6637 0012 7047     		bx	lr
 6639              		.section	.text.HAL_TIM_Encoder_MspDeInit,"ax",%progbits
 6640              		.align	1
 6641              		.weak	HAL_TIM_Encoder_MspDeInit
 6642              		.syntax unified
 6643              		.thumb
 6644              		.thumb_func
 6646              	HAL_TIM_Encoder_MspDeInit:
 6647              		@ args = 0, pretend = 0, frame = 8
 6648              		@ frame_needed = 1, uses_anonymous_args = 0
 6649              		@ link register save eliminated.
 6650 0000 80B4     		push	{r7}
 6651 0002 83B0     		sub	sp, sp, #12
 6652 0004 00AF     		add	r7, sp, #0
 6653 0006 7860     		str	r0, [r7, #4]
 6654 0008 00BF     		nop
 6655 000a 0C37     		adds	r7, r7, #12
 6656 000c BD46     		mov	sp, r7
 6657              		@ sp needed
 6658 000e 5DF8047B 		ldr	r7, [sp], #4
ARM GAS  C:\Users\user\AppData\Local\Temp\ccrDHgJ5.s 			page 116


 6659 0012 7047     		bx	lr
 6661              		.section	.text.HAL_TIM_Encoder_Start,"ax",%progbits
 6662              		.align	1
 6663              		.global	HAL_TIM_Encoder_Start
 6664              		.syntax unified
 6665              		.thumb
 6666              		.thumb_func
 6668              	HAL_TIM_Encoder_Start:
 6669              		@ args = 0, pretend = 0, frame = 16
 6670              		@ frame_needed = 1, uses_anonymous_args = 0
 6671 0000 80B5     		push	{r7, lr}
 6672 0002 84B0     		sub	sp, sp, #16
 6673 0004 00AF     		add	r7, sp, #0
 6674 0006 7860     		str	r0, [r7, #4]
 6675 0008 3960     		str	r1, [r7]
 6676 000a 7B68     		ldr	r3, [r7, #4]
 6677 000c 93F83E30 		ldrb	r3, [r3, #62]
 6678 0010 FB73     		strb	r3, [r7, #15]
 6679 0012 7B68     		ldr	r3, [r7, #4]
 6680 0014 93F83F30 		ldrb	r3, [r3, #63]
 6681 0018 BB73     		strb	r3, [r7, #14]
 6682 001a 7B68     		ldr	r3, [r7, #4]
 6683 001c 93F84230 		ldrb	r3, [r3, #66]
 6684 0020 7B73     		strb	r3, [r7, #13]
 6685 0022 7B68     		ldr	r3, [r7, #4]
 6686 0024 93F84330 		ldrb	r3, [r3, #67]
 6687 0028 3B73     		strb	r3, [r7, #12]
 6688 002a 3B68     		ldr	r3, [r7]
 6689 002c 002B     		cmp	r3, #0
 6690 002e 10D1     		bne	.L637
 6691 0030 FB7B     		ldrb	r3, [r7, #15]	@ zero_extendqisi2
 6692 0032 012B     		cmp	r3, #1
 6693 0034 02D1     		bne	.L638
 6694 0036 7B7B     		ldrb	r3, [r7, #13]	@ zero_extendqisi2
 6695 0038 012B     		cmp	r3, #1
 6696 003a 01D0     		beq	.L639
 6697              	.L638:
 6698 003c 0123     		movs	r3, #1
 6699 003e 69E0     		b	.L640
 6700              	.L639:
 6701 0040 7B68     		ldr	r3, [r7, #4]
 6702 0042 0222     		movs	r2, #2
 6703 0044 83F83E20 		strb	r2, [r3, #62]
 6704 0048 7B68     		ldr	r3, [r7, #4]
 6705 004a 0222     		movs	r2, #2
 6706 004c 83F84220 		strb	r2, [r3, #66]
 6707 0050 31E0     		b	.L641
 6708              	.L637:
 6709 0052 3B68     		ldr	r3, [r7]
 6710 0054 042B     		cmp	r3, #4
 6711 0056 10D1     		bne	.L642
 6712 0058 BB7B     		ldrb	r3, [r7, #14]	@ zero_extendqisi2
 6713 005a 012B     		cmp	r3, #1
 6714 005c 02D1     		bne	.L643
 6715 005e 3B7B     		ldrb	r3, [r7, #12]	@ zero_extendqisi2
 6716 0060 012B     		cmp	r3, #1
 6717 0062 01D0     		beq	.L644
ARM GAS  C:\Users\user\AppData\Local\Temp\ccrDHgJ5.s 			page 117


 6718              	.L643:
 6719 0064 0123     		movs	r3, #1
 6720 0066 55E0     		b	.L640
 6721              	.L644:
 6722 0068 7B68     		ldr	r3, [r7, #4]
 6723 006a 0222     		movs	r2, #2
 6724 006c 83F83F20 		strb	r2, [r3, #63]
 6725 0070 7B68     		ldr	r3, [r7, #4]
 6726 0072 0222     		movs	r2, #2
 6727 0074 83F84320 		strb	r2, [r3, #67]
 6728 0078 1DE0     		b	.L641
 6729              	.L642:
 6730 007a FB7B     		ldrb	r3, [r7, #15]	@ zero_extendqisi2
 6731 007c 012B     		cmp	r3, #1
 6732 007e 08D1     		bne	.L645
 6733 0080 BB7B     		ldrb	r3, [r7, #14]	@ zero_extendqisi2
 6734 0082 012B     		cmp	r3, #1
 6735 0084 05D1     		bne	.L645
 6736 0086 7B7B     		ldrb	r3, [r7, #13]	@ zero_extendqisi2
 6737 0088 012B     		cmp	r3, #1
 6738 008a 02D1     		bne	.L645
 6739 008c 3B7B     		ldrb	r3, [r7, #12]	@ zero_extendqisi2
 6740 008e 012B     		cmp	r3, #1
 6741 0090 01D0     		beq	.L646
 6742              	.L645:
 6743 0092 0123     		movs	r3, #1
 6744 0094 3EE0     		b	.L640
 6745              	.L646:
 6746 0096 7B68     		ldr	r3, [r7, #4]
 6747 0098 0222     		movs	r2, #2
 6748 009a 83F83E20 		strb	r2, [r3, #62]
 6749 009e 7B68     		ldr	r3, [r7, #4]
 6750 00a0 0222     		movs	r2, #2
 6751 00a2 83F83F20 		strb	r2, [r3, #63]
 6752 00a6 7B68     		ldr	r3, [r7, #4]
 6753 00a8 0222     		movs	r2, #2
 6754 00aa 83F84220 		strb	r2, [r3, #66]
 6755 00ae 7B68     		ldr	r3, [r7, #4]
 6756 00b0 0222     		movs	r2, #2
 6757 00b2 83F84320 		strb	r2, [r3, #67]
 6758              	.L641:
 6759 00b6 3B68     		ldr	r3, [r7]
 6760 00b8 002B     		cmp	r3, #0
 6761 00ba 03D0     		beq	.L647
 6762 00bc 3B68     		ldr	r3, [r7]
 6763 00be 042B     		cmp	r3, #4
 6764 00c0 08D0     		beq	.L648
 6765 00c2 0FE0     		b	.L651
 6766              	.L647:
 6767 00c4 7B68     		ldr	r3, [r7, #4]
 6768 00c6 1B68     		ldr	r3, [r3]
 6769 00c8 0122     		movs	r2, #1
 6770 00ca 0021     		movs	r1, #0
 6771 00cc 1846     		mov	r0, r3
 6772 00ce FFF7FEFF 		bl	TIM_CCxChannelCmd
 6773 00d2 16E0     		b	.L650
 6774              	.L648:
ARM GAS  C:\Users\user\AppData\Local\Temp\ccrDHgJ5.s 			page 118


 6775 00d4 7B68     		ldr	r3, [r7, #4]
 6776 00d6 1B68     		ldr	r3, [r3]
 6777 00d8 0122     		movs	r2, #1
 6778 00da 0421     		movs	r1, #4
 6779 00dc 1846     		mov	r0, r3
 6780 00de FFF7FEFF 		bl	TIM_CCxChannelCmd
 6781 00e2 0EE0     		b	.L650
 6782              	.L651:
 6783 00e4 7B68     		ldr	r3, [r7, #4]
 6784 00e6 1B68     		ldr	r3, [r3]
 6785 00e8 0122     		movs	r2, #1
 6786 00ea 0021     		movs	r1, #0
 6787 00ec 1846     		mov	r0, r3
 6788 00ee FFF7FEFF 		bl	TIM_CCxChannelCmd
 6789 00f2 7B68     		ldr	r3, [r7, #4]
 6790 00f4 1B68     		ldr	r3, [r3]
 6791 00f6 0122     		movs	r2, #1
 6792 00f8 0421     		movs	r1, #4
 6793 00fa 1846     		mov	r0, r3
 6794 00fc FFF7FEFF 		bl	TIM_CCxChannelCmd
 6795 0100 00BF     		nop
 6796              	.L650:
 6797 0102 7B68     		ldr	r3, [r7, #4]
 6798 0104 1B68     		ldr	r3, [r3]
 6799 0106 1A68     		ldr	r2, [r3]
 6800 0108 7B68     		ldr	r3, [r7, #4]
 6801 010a 1B68     		ldr	r3, [r3]
 6802 010c 42F00102 		orr	r2, r2, #1
 6803 0110 1A60     		str	r2, [r3]
 6804 0112 0023     		movs	r3, #0
 6805              	.L640:
 6806 0114 1846     		mov	r0, r3
 6807 0116 1037     		adds	r7, r7, #16
 6808 0118 BD46     		mov	sp, r7
 6809              		@ sp needed
 6810 011a 80BD     		pop	{r7, pc}
 6812              		.section	.text.HAL_TIM_Encoder_Stop,"ax",%progbits
 6813              		.align	1
 6814              		.global	HAL_TIM_Encoder_Stop
 6815              		.syntax unified
 6816              		.thumb
 6817              		.thumb_func
 6819              	HAL_TIM_Encoder_Stop:
 6820              		@ args = 0, pretend = 0, frame = 8
 6821              		@ frame_needed = 1, uses_anonymous_args = 0
 6822 0000 80B5     		push	{r7, lr}
 6823 0002 82B0     		sub	sp, sp, #8
 6824 0004 00AF     		add	r7, sp, #0
 6825 0006 7860     		str	r0, [r7, #4]
 6826 0008 3960     		str	r1, [r7]
 6827 000a 3B68     		ldr	r3, [r7]
 6828 000c 002B     		cmp	r3, #0
 6829 000e 03D0     		beq	.L653
 6830 0010 3B68     		ldr	r3, [r7]
 6831 0012 042B     		cmp	r3, #4
 6832 0014 08D0     		beq	.L654
 6833 0016 0FE0     		b	.L674
ARM GAS  C:\Users\user\AppData\Local\Temp\ccrDHgJ5.s 			page 119


 6834              	.L653:
 6835 0018 7B68     		ldr	r3, [r7, #4]
 6836 001a 1B68     		ldr	r3, [r3]
 6837 001c 0022     		movs	r2, #0
 6838 001e 0021     		movs	r1, #0
 6839 0020 1846     		mov	r0, r3
 6840 0022 FFF7FEFF 		bl	TIM_CCxChannelCmd
 6841 0026 16E0     		b	.L656
 6842              	.L654:
 6843 0028 7B68     		ldr	r3, [r7, #4]
 6844 002a 1B68     		ldr	r3, [r3]
 6845 002c 0022     		movs	r2, #0
 6846 002e 0421     		movs	r1, #4
 6847 0030 1846     		mov	r0, r3
 6848 0032 FFF7FEFF 		bl	TIM_CCxChannelCmd
 6849 0036 0EE0     		b	.L656
 6850              	.L674:
 6851 0038 7B68     		ldr	r3, [r7, #4]
 6852 003a 1B68     		ldr	r3, [r3]
 6853 003c 0022     		movs	r2, #0
 6854 003e 0021     		movs	r1, #0
 6855 0040 1846     		mov	r0, r3
 6856 0042 FFF7FEFF 		bl	TIM_CCxChannelCmd
 6857 0046 7B68     		ldr	r3, [r7, #4]
 6858 0048 1B68     		ldr	r3, [r3]
 6859 004a 0022     		movs	r2, #0
 6860 004c 0421     		movs	r1, #4
 6861 004e 1846     		mov	r0, r3
 6862 0050 FFF7FEFF 		bl	TIM_CCxChannelCmd
 6863 0054 00BF     		nop
 6864              	.L656:
 6865 0056 7B68     		ldr	r3, [r7, #4]
 6866 0058 1B68     		ldr	r3, [r3]
 6867 005a 1A6A     		ldr	r2, [r3, #32]
 6868 005c 41F21113 		movw	r3, #4369
 6869 0060 1340     		ands	r3, r3, r2
 6870 0062 002B     		cmp	r3, #0
 6871 0064 0FD1     		bne	.L657
 6872 0066 7B68     		ldr	r3, [r7, #4]
 6873 0068 1B68     		ldr	r3, [r3]
 6874 006a 1A6A     		ldr	r2, [r3, #32]
 6875 006c 40F24443 		movw	r3, #1092
 6876 0070 1340     		ands	r3, r3, r2
 6877 0072 002B     		cmp	r3, #0
 6878 0074 07D1     		bne	.L657
 6879 0076 7B68     		ldr	r3, [r7, #4]
 6880 0078 1B68     		ldr	r3, [r3]
 6881 007a 1A68     		ldr	r2, [r3]
 6882 007c 7B68     		ldr	r3, [r7, #4]
 6883 007e 1B68     		ldr	r3, [r3]
 6884 0080 22F00102 		bic	r2, r2, #1
 6885 0084 1A60     		str	r2, [r3]
 6886              	.L657:
 6887 0086 3B68     		ldr	r3, [r7]
 6888 0088 002B     		cmp	r3, #0
 6889 008a 02D0     		beq	.L658
 6890 008c 3B68     		ldr	r3, [r7]
ARM GAS  C:\Users\user\AppData\Local\Temp\ccrDHgJ5.s 			page 120


 6891 008e 042B     		cmp	r3, #4
 6892 0090 38D1     		bne	.L659
 6893              	.L658:
 6894 0092 3B68     		ldr	r3, [r7]
 6895 0094 002B     		cmp	r3, #0
 6896 0096 04D1     		bne	.L660
 6897 0098 7B68     		ldr	r3, [r7, #4]
 6898 009a 0122     		movs	r2, #1
 6899 009c 83F83E20 		strb	r2, [r3, #62]
 6900 00a0 13E0     		b	.L661
 6901              	.L660:
 6902 00a2 3B68     		ldr	r3, [r7]
 6903 00a4 042B     		cmp	r3, #4
 6904 00a6 04D1     		bne	.L662
 6905 00a8 7B68     		ldr	r3, [r7, #4]
 6906 00aa 0122     		movs	r2, #1
 6907 00ac 83F83F20 		strb	r2, [r3, #63]
 6908 00b0 0BE0     		b	.L661
 6909              	.L662:
 6910 00b2 3B68     		ldr	r3, [r7]
 6911 00b4 082B     		cmp	r3, #8
 6912 00b6 04D1     		bne	.L664
 6913 00b8 7B68     		ldr	r3, [r7, #4]
 6914 00ba 0122     		movs	r2, #1
 6915 00bc 83F84020 		strb	r2, [r3, #64]
 6916 00c0 03E0     		b	.L661
 6917              	.L664:
 6918 00c2 7B68     		ldr	r3, [r7, #4]
 6919 00c4 0122     		movs	r2, #1
 6920 00c6 83F84120 		strb	r2, [r3, #65]
 6921              	.L661:
 6922 00ca 3B68     		ldr	r3, [r7]
 6923 00cc 002B     		cmp	r3, #0
 6924 00ce 04D1     		bne	.L666
 6925 00d0 7B68     		ldr	r3, [r7, #4]
 6926 00d2 0122     		movs	r2, #1
 6927 00d4 83F84220 		strb	r2, [r3, #66]
 6928 00d8 24E0     		b	.L672
 6929              	.L666:
 6930 00da 3B68     		ldr	r3, [r7]
 6931 00dc 042B     		cmp	r3, #4
 6932 00de 04D1     		bne	.L668
 6933 00e0 7B68     		ldr	r3, [r7, #4]
 6934 00e2 0122     		movs	r2, #1
 6935 00e4 83F84320 		strb	r2, [r3, #67]
 6936 00e8 1CE0     		b	.L672
 6937              	.L668:
 6938 00ea 3B68     		ldr	r3, [r7]
 6939 00ec 082B     		cmp	r3, #8
 6940 00ee 04D1     		bne	.L670
 6941 00f0 7B68     		ldr	r3, [r7, #4]
 6942 00f2 0122     		movs	r2, #1
 6943 00f4 83F84420 		strb	r2, [r3, #68]
 6944 00f8 14E0     		b	.L672
 6945              	.L670:
 6946 00fa 7B68     		ldr	r3, [r7, #4]
 6947 00fc 0122     		movs	r2, #1
ARM GAS  C:\Users\user\AppData\Local\Temp\ccrDHgJ5.s 			page 121


 6948 00fe 83F84520 		strb	r2, [r3, #69]
 6949 0102 0FE0     		b	.L672
 6950              	.L659:
 6951 0104 7B68     		ldr	r3, [r7, #4]
 6952 0106 0122     		movs	r2, #1
 6953 0108 83F83E20 		strb	r2, [r3, #62]
 6954 010c 7B68     		ldr	r3, [r7, #4]
 6955 010e 0122     		movs	r2, #1
 6956 0110 83F83F20 		strb	r2, [r3, #63]
 6957 0114 7B68     		ldr	r3, [r7, #4]
 6958 0116 0122     		movs	r2, #1
 6959 0118 83F84220 		strb	r2, [r3, #66]
 6960 011c 7B68     		ldr	r3, [r7, #4]
 6961 011e 0122     		movs	r2, #1
 6962 0120 83F84320 		strb	r2, [r3, #67]
 6963              	.L672:
 6964 0124 0023     		movs	r3, #0
 6965 0126 1846     		mov	r0, r3
 6966 0128 0837     		adds	r7, r7, #8
 6967 012a BD46     		mov	sp, r7
 6968              		@ sp needed
 6969 012c 80BD     		pop	{r7, pc}
 6971              		.section	.text.HAL_TIM_Encoder_Start_IT,"ax",%progbits
 6972              		.align	1
 6973              		.global	HAL_TIM_Encoder_Start_IT
 6974              		.syntax unified
 6975              		.thumb
 6976              		.thumb_func
 6978              	HAL_TIM_Encoder_Start_IT:
 6979              		@ args = 0, pretend = 0, frame = 16
 6980              		@ frame_needed = 1, uses_anonymous_args = 0
 6981 0000 80B5     		push	{r7, lr}
 6982 0002 84B0     		sub	sp, sp, #16
 6983 0004 00AF     		add	r7, sp, #0
 6984 0006 7860     		str	r0, [r7, #4]
 6985 0008 3960     		str	r1, [r7]
 6986 000a 7B68     		ldr	r3, [r7, #4]
 6987 000c 93F83E30 		ldrb	r3, [r3, #62]
 6988 0010 FB73     		strb	r3, [r7, #15]
 6989 0012 7B68     		ldr	r3, [r7, #4]
 6990 0014 93F83F30 		ldrb	r3, [r3, #63]
 6991 0018 BB73     		strb	r3, [r7, #14]
 6992 001a 7B68     		ldr	r3, [r7, #4]
 6993 001c 93F84230 		ldrb	r3, [r3, #66]
 6994 0020 7B73     		strb	r3, [r7, #13]
 6995 0022 7B68     		ldr	r3, [r7, #4]
 6996 0024 93F84330 		ldrb	r3, [r3, #67]
 6997 0028 3B73     		strb	r3, [r7, #12]
 6998 002a 3B68     		ldr	r3, [r7]
 6999 002c 002B     		cmp	r3, #0
 7000 002e 10D1     		bne	.L676
 7001 0030 FB7B     		ldrb	r3, [r7, #15]	@ zero_extendqisi2
 7002 0032 012B     		cmp	r3, #1
 7003 0034 02D1     		bne	.L677
 7004 0036 7B7B     		ldrb	r3, [r7, #13]	@ zero_extendqisi2
 7005 0038 012B     		cmp	r3, #1
 7006 003a 01D0     		beq	.L678
ARM GAS  C:\Users\user\AppData\Local\Temp\ccrDHgJ5.s 			page 122


 7007              	.L677:
 7008 003c 0123     		movs	r3, #1
 7009 003e 89E0     		b	.L679
 7010              	.L678:
 7011 0040 7B68     		ldr	r3, [r7, #4]
 7012 0042 0222     		movs	r2, #2
 7013 0044 83F83E20 		strb	r2, [r3, #62]
 7014 0048 7B68     		ldr	r3, [r7, #4]
 7015 004a 0222     		movs	r2, #2
 7016 004c 83F84220 		strb	r2, [r3, #66]
 7017 0050 31E0     		b	.L680
 7018              	.L676:
 7019 0052 3B68     		ldr	r3, [r7]
 7020 0054 042B     		cmp	r3, #4
 7021 0056 10D1     		bne	.L681
 7022 0058 BB7B     		ldrb	r3, [r7, #14]	@ zero_extendqisi2
 7023 005a 012B     		cmp	r3, #1
 7024 005c 02D1     		bne	.L682
 7025 005e 3B7B     		ldrb	r3, [r7, #12]	@ zero_extendqisi2
 7026 0060 012B     		cmp	r3, #1
 7027 0062 01D0     		beq	.L683
 7028              	.L682:
 7029 0064 0123     		movs	r3, #1
 7030 0066 75E0     		b	.L679
 7031              	.L683:
 7032 0068 7B68     		ldr	r3, [r7, #4]
 7033 006a 0222     		movs	r2, #2
 7034 006c 83F83F20 		strb	r2, [r3, #63]
 7035 0070 7B68     		ldr	r3, [r7, #4]
 7036 0072 0222     		movs	r2, #2
 7037 0074 83F84320 		strb	r2, [r3, #67]
 7038 0078 1DE0     		b	.L680
 7039              	.L681:
 7040 007a FB7B     		ldrb	r3, [r7, #15]	@ zero_extendqisi2
 7041 007c 012B     		cmp	r3, #1
 7042 007e 08D1     		bne	.L684
 7043 0080 BB7B     		ldrb	r3, [r7, #14]	@ zero_extendqisi2
 7044 0082 012B     		cmp	r3, #1
 7045 0084 05D1     		bne	.L684
 7046 0086 7B7B     		ldrb	r3, [r7, #13]	@ zero_extendqisi2
 7047 0088 012B     		cmp	r3, #1
 7048 008a 02D1     		bne	.L684
 7049 008c 3B7B     		ldrb	r3, [r7, #12]	@ zero_extendqisi2
 7050 008e 012B     		cmp	r3, #1
 7051 0090 01D0     		beq	.L685
 7052              	.L684:
 7053 0092 0123     		movs	r3, #1
 7054 0094 5EE0     		b	.L679
 7055              	.L685:
 7056 0096 7B68     		ldr	r3, [r7, #4]
 7057 0098 0222     		movs	r2, #2
 7058 009a 83F83E20 		strb	r2, [r3, #62]
 7059 009e 7B68     		ldr	r3, [r7, #4]
 7060 00a0 0222     		movs	r2, #2
 7061 00a2 83F83F20 		strb	r2, [r3, #63]
 7062 00a6 7B68     		ldr	r3, [r7, #4]
 7063 00a8 0222     		movs	r2, #2
ARM GAS  C:\Users\user\AppData\Local\Temp\ccrDHgJ5.s 			page 123


 7064 00aa 83F84220 		strb	r2, [r3, #66]
 7065 00ae 7B68     		ldr	r3, [r7, #4]
 7066 00b0 0222     		movs	r2, #2
 7067 00b2 83F84320 		strb	r2, [r3, #67]
 7068              	.L680:
 7069 00b6 3B68     		ldr	r3, [r7]
 7070 00b8 002B     		cmp	r3, #0
 7071 00ba 03D0     		beq	.L686
 7072 00bc 3B68     		ldr	r3, [r7]
 7073 00be 042B     		cmp	r3, #4
 7074 00c0 10D0     		beq	.L687
 7075 00c2 1FE0     		b	.L690
 7076              	.L686:
 7077 00c4 7B68     		ldr	r3, [r7, #4]
 7078 00c6 1B68     		ldr	r3, [r3]
 7079 00c8 0122     		movs	r2, #1
 7080 00ca 0021     		movs	r1, #0
 7081 00cc 1846     		mov	r0, r3
 7082 00ce FFF7FEFF 		bl	TIM_CCxChannelCmd
 7083 00d2 7B68     		ldr	r3, [r7, #4]
 7084 00d4 1B68     		ldr	r3, [r3]
 7085 00d6 DA68     		ldr	r2, [r3, #12]
 7086 00d8 7B68     		ldr	r3, [r7, #4]
 7087 00da 1B68     		ldr	r3, [r3]
 7088 00dc 42F00202 		orr	r2, r2, #2
 7089 00e0 DA60     		str	r2, [r3, #12]
 7090 00e2 2EE0     		b	.L689
 7091              	.L687:
 7092 00e4 7B68     		ldr	r3, [r7, #4]
 7093 00e6 1B68     		ldr	r3, [r3]
 7094 00e8 0122     		movs	r2, #1
 7095 00ea 0421     		movs	r1, #4
 7096 00ec 1846     		mov	r0, r3
 7097 00ee FFF7FEFF 		bl	TIM_CCxChannelCmd
 7098 00f2 7B68     		ldr	r3, [r7, #4]
 7099 00f4 1B68     		ldr	r3, [r3]
 7100 00f6 DA68     		ldr	r2, [r3, #12]
 7101 00f8 7B68     		ldr	r3, [r7, #4]
 7102 00fa 1B68     		ldr	r3, [r3]
 7103 00fc 42F00402 		orr	r2, r2, #4
 7104 0100 DA60     		str	r2, [r3, #12]
 7105 0102 1EE0     		b	.L689
 7106              	.L690:
 7107 0104 7B68     		ldr	r3, [r7, #4]
 7108 0106 1B68     		ldr	r3, [r3]
 7109 0108 0122     		movs	r2, #1
 7110 010a 0021     		movs	r1, #0
 7111 010c 1846     		mov	r0, r3
 7112 010e FFF7FEFF 		bl	TIM_CCxChannelCmd
 7113 0112 7B68     		ldr	r3, [r7, #4]
 7114 0114 1B68     		ldr	r3, [r3]
 7115 0116 0122     		movs	r2, #1
 7116 0118 0421     		movs	r1, #4
 7117 011a 1846     		mov	r0, r3
 7118 011c FFF7FEFF 		bl	TIM_CCxChannelCmd
 7119 0120 7B68     		ldr	r3, [r7, #4]
 7120 0122 1B68     		ldr	r3, [r3]
ARM GAS  C:\Users\user\AppData\Local\Temp\ccrDHgJ5.s 			page 124


 7121 0124 DA68     		ldr	r2, [r3, #12]
 7122 0126 7B68     		ldr	r3, [r7, #4]
 7123 0128 1B68     		ldr	r3, [r3]
 7124 012a 42F00202 		orr	r2, r2, #2
 7125 012e DA60     		str	r2, [r3, #12]
 7126 0130 7B68     		ldr	r3, [r7, #4]
 7127 0132 1B68     		ldr	r3, [r3]
 7128 0134 DA68     		ldr	r2, [r3, #12]
 7129 0136 7B68     		ldr	r3, [r7, #4]
 7130 0138 1B68     		ldr	r3, [r3]
 7131 013a 42F00402 		orr	r2, r2, #4
 7132 013e DA60     		str	r2, [r3, #12]
 7133 0140 00BF     		nop
 7134              	.L689:
 7135 0142 7B68     		ldr	r3, [r7, #4]
 7136 0144 1B68     		ldr	r3, [r3]
 7137 0146 1A68     		ldr	r2, [r3]
 7138 0148 7B68     		ldr	r3, [r7, #4]
 7139 014a 1B68     		ldr	r3, [r3]
 7140 014c 42F00102 		orr	r2, r2, #1
 7141 0150 1A60     		str	r2, [r3]
 7142 0152 0023     		movs	r3, #0
 7143              	.L679:
 7144 0154 1846     		mov	r0, r3
 7145 0156 1037     		adds	r7, r7, #16
 7146 0158 BD46     		mov	sp, r7
 7147              		@ sp needed
 7148 015a 80BD     		pop	{r7, pc}
 7150              		.section	.text.HAL_TIM_Encoder_Stop_IT,"ax",%progbits
 7151              		.align	1
 7152              		.global	HAL_TIM_Encoder_Stop_IT
 7153              		.syntax unified
 7154              		.thumb
 7155              		.thumb_func
 7157              	HAL_TIM_Encoder_Stop_IT:
 7158              		@ args = 0, pretend = 0, frame = 8
 7159              		@ frame_needed = 1, uses_anonymous_args = 0
 7160 0000 80B5     		push	{r7, lr}
 7161 0002 82B0     		sub	sp, sp, #8
 7162 0004 00AF     		add	r7, sp, #0
 7163 0006 7860     		str	r0, [r7, #4]
 7164 0008 3960     		str	r1, [r7]
 7165 000a 3B68     		ldr	r3, [r7]
 7166 000c 002B     		cmp	r3, #0
 7167 000e 0FD1     		bne	.L692
 7168 0010 7B68     		ldr	r3, [r7, #4]
 7169 0012 1B68     		ldr	r3, [r3]
 7170 0014 0022     		movs	r2, #0
 7171 0016 0021     		movs	r1, #0
 7172 0018 1846     		mov	r0, r3
 7173 001a FFF7FEFF 		bl	TIM_CCxChannelCmd
 7174 001e 7B68     		ldr	r3, [r7, #4]
 7175 0020 1B68     		ldr	r3, [r3]
 7176 0022 DA68     		ldr	r2, [r3, #12]
 7177 0024 7B68     		ldr	r3, [r7, #4]
 7178 0026 1B68     		ldr	r3, [r3]
 7179 0028 22F00202 		bic	r2, r2, #2
ARM GAS  C:\Users\user\AppData\Local\Temp\ccrDHgJ5.s 			page 125


 7180 002c DA60     		str	r2, [r3, #12]
 7181 002e 30E0     		b	.L693
 7182              	.L692:
 7183 0030 3B68     		ldr	r3, [r7]
 7184 0032 042B     		cmp	r3, #4
 7185 0034 0FD1     		bne	.L694
 7186 0036 7B68     		ldr	r3, [r7, #4]
 7187 0038 1B68     		ldr	r3, [r3]
 7188 003a 0022     		movs	r2, #0
 7189 003c 0421     		movs	r1, #4
 7190 003e 1846     		mov	r0, r3
 7191 0040 FFF7FEFF 		bl	TIM_CCxChannelCmd
 7192 0044 7B68     		ldr	r3, [r7, #4]
 7193 0046 1B68     		ldr	r3, [r3]
 7194 0048 DA68     		ldr	r2, [r3, #12]
 7195 004a 7B68     		ldr	r3, [r7, #4]
 7196 004c 1B68     		ldr	r3, [r3]
 7197 004e 22F00402 		bic	r2, r2, #4
 7198 0052 DA60     		str	r2, [r3, #12]
 7199 0054 1DE0     		b	.L693
 7200              	.L694:
 7201 0056 7B68     		ldr	r3, [r7, #4]
 7202 0058 1B68     		ldr	r3, [r3]
 7203 005a 0022     		movs	r2, #0
 7204 005c 0021     		movs	r1, #0
 7205 005e 1846     		mov	r0, r3
 7206 0060 FFF7FEFF 		bl	TIM_CCxChannelCmd
 7207 0064 7B68     		ldr	r3, [r7, #4]
 7208 0066 1B68     		ldr	r3, [r3]
 7209 0068 0022     		movs	r2, #0
 7210 006a 0421     		movs	r1, #4
 7211 006c 1846     		mov	r0, r3
 7212 006e FFF7FEFF 		bl	TIM_CCxChannelCmd
 7213 0072 7B68     		ldr	r3, [r7, #4]
 7214 0074 1B68     		ldr	r3, [r3]
 7215 0076 DA68     		ldr	r2, [r3, #12]
 7216 0078 7B68     		ldr	r3, [r7, #4]
 7217 007a 1B68     		ldr	r3, [r3]
 7218 007c 22F00202 		bic	r2, r2, #2
 7219 0080 DA60     		str	r2, [r3, #12]
 7220 0082 7B68     		ldr	r3, [r7, #4]
 7221 0084 1B68     		ldr	r3, [r3]
 7222 0086 DA68     		ldr	r2, [r3, #12]
 7223 0088 7B68     		ldr	r3, [r7, #4]
 7224 008a 1B68     		ldr	r3, [r3]
 7225 008c 22F00402 		bic	r2, r2, #4
 7226 0090 DA60     		str	r2, [r3, #12]
 7227              	.L693:
 7228 0092 7B68     		ldr	r3, [r7, #4]
 7229 0094 1B68     		ldr	r3, [r3]
 7230 0096 1A6A     		ldr	r2, [r3, #32]
 7231 0098 41F21113 		movw	r3, #4369
 7232 009c 1340     		ands	r3, r3, r2
 7233 009e 002B     		cmp	r3, #0
 7234 00a0 0FD1     		bne	.L695
 7235 00a2 7B68     		ldr	r3, [r7, #4]
 7236 00a4 1B68     		ldr	r3, [r3]
ARM GAS  C:\Users\user\AppData\Local\Temp\ccrDHgJ5.s 			page 126


 7237 00a6 1A6A     		ldr	r2, [r3, #32]
 7238 00a8 40F24443 		movw	r3, #1092
 7239 00ac 1340     		ands	r3, r3, r2
 7240 00ae 002B     		cmp	r3, #0
 7241 00b0 07D1     		bne	.L695
 7242 00b2 7B68     		ldr	r3, [r7, #4]
 7243 00b4 1B68     		ldr	r3, [r3]
 7244 00b6 1A68     		ldr	r2, [r3]
 7245 00b8 7B68     		ldr	r3, [r7, #4]
 7246 00ba 1B68     		ldr	r3, [r3]
 7247 00bc 22F00102 		bic	r2, r2, #1
 7248 00c0 1A60     		str	r2, [r3]
 7249              	.L695:
 7250 00c2 3B68     		ldr	r3, [r7]
 7251 00c4 002B     		cmp	r3, #0
 7252 00c6 02D0     		beq	.L696
 7253 00c8 3B68     		ldr	r3, [r7]
 7254 00ca 042B     		cmp	r3, #4
 7255 00cc 38D1     		bne	.L697
 7256              	.L696:
 7257 00ce 3B68     		ldr	r3, [r7]
 7258 00d0 002B     		cmp	r3, #0
 7259 00d2 04D1     		bne	.L698
 7260 00d4 7B68     		ldr	r3, [r7, #4]
 7261 00d6 0122     		movs	r2, #1
 7262 00d8 83F83E20 		strb	r2, [r3, #62]
 7263 00dc 13E0     		b	.L699
 7264              	.L698:
 7265 00de 3B68     		ldr	r3, [r7]
 7266 00e0 042B     		cmp	r3, #4
 7267 00e2 04D1     		bne	.L700
 7268 00e4 7B68     		ldr	r3, [r7, #4]
 7269 00e6 0122     		movs	r2, #1
 7270 00e8 83F83F20 		strb	r2, [r3, #63]
 7271 00ec 0BE0     		b	.L699
 7272              	.L700:
 7273 00ee 3B68     		ldr	r3, [r7]
 7274 00f0 082B     		cmp	r3, #8
 7275 00f2 04D1     		bne	.L702
 7276 00f4 7B68     		ldr	r3, [r7, #4]
 7277 00f6 0122     		movs	r2, #1
 7278 00f8 83F84020 		strb	r2, [r3, #64]
 7279 00fc 03E0     		b	.L699
 7280              	.L702:
 7281 00fe 7B68     		ldr	r3, [r7, #4]
 7282 0100 0122     		movs	r2, #1
 7283 0102 83F84120 		strb	r2, [r3, #65]
 7284              	.L699:
 7285 0106 3B68     		ldr	r3, [r7]
 7286 0108 002B     		cmp	r3, #0
 7287 010a 04D1     		bne	.L704
 7288 010c 7B68     		ldr	r3, [r7, #4]
 7289 010e 0122     		movs	r2, #1
 7290 0110 83F84220 		strb	r2, [r3, #66]
 7291 0114 24E0     		b	.L710
 7292              	.L704:
 7293 0116 3B68     		ldr	r3, [r7]
ARM GAS  C:\Users\user\AppData\Local\Temp\ccrDHgJ5.s 			page 127


 7294 0118 042B     		cmp	r3, #4
 7295 011a 04D1     		bne	.L706
 7296 011c 7B68     		ldr	r3, [r7, #4]
 7297 011e 0122     		movs	r2, #1
 7298 0120 83F84320 		strb	r2, [r3, #67]
 7299 0124 1CE0     		b	.L710
 7300              	.L706:
 7301 0126 3B68     		ldr	r3, [r7]
 7302 0128 082B     		cmp	r3, #8
 7303 012a 04D1     		bne	.L708
 7304 012c 7B68     		ldr	r3, [r7, #4]
 7305 012e 0122     		movs	r2, #1
 7306 0130 83F84420 		strb	r2, [r3, #68]
 7307 0134 14E0     		b	.L710
 7308              	.L708:
 7309 0136 7B68     		ldr	r3, [r7, #4]
 7310 0138 0122     		movs	r2, #1
 7311 013a 83F84520 		strb	r2, [r3, #69]
 7312 013e 0FE0     		b	.L710
 7313              	.L697:
 7314 0140 7B68     		ldr	r3, [r7, #4]
 7315 0142 0122     		movs	r2, #1
 7316 0144 83F83E20 		strb	r2, [r3, #62]
 7317 0148 7B68     		ldr	r3, [r7, #4]
 7318 014a 0122     		movs	r2, #1
 7319 014c 83F83F20 		strb	r2, [r3, #63]
 7320 0150 7B68     		ldr	r3, [r7, #4]
 7321 0152 0122     		movs	r2, #1
 7322 0154 83F84220 		strb	r2, [r3, #66]
 7323 0158 7B68     		ldr	r3, [r7, #4]
 7324 015a 0122     		movs	r2, #1
 7325 015c 83F84320 		strb	r2, [r3, #67]
 7326              	.L710:
 7327 0160 0023     		movs	r3, #0
 7328 0162 1846     		mov	r0, r3
 7329 0164 0837     		adds	r7, r7, #8
 7330 0166 BD46     		mov	sp, r7
 7331              		@ sp needed
 7332 0168 80BD     		pop	{r7, pc}
 7334              		.section	.text.HAL_TIM_Encoder_Start_DMA,"ax",%progbits
 7335              		.align	1
 7336              		.global	HAL_TIM_Encoder_Start_DMA
 7337              		.syntax unified
 7338              		.thumb
 7339              		.thumb_func
 7341              	HAL_TIM_Encoder_Start_DMA:
 7342              		@ args = 4, pretend = 0, frame = 24
 7343              		@ frame_needed = 1, uses_anonymous_args = 0
 7344 0000 80B5     		push	{r7, lr}
 7345 0002 86B0     		sub	sp, sp, #24
 7346 0004 00AF     		add	r7, sp, #0
 7347 0006 F860     		str	r0, [r7, #12]
 7348 0008 B960     		str	r1, [r7, #8]
 7349 000a 7A60     		str	r2, [r7, #4]
 7350 000c 3B60     		str	r3, [r7]
 7351 000e FB68     		ldr	r3, [r7, #12]
 7352 0010 93F83E30 		ldrb	r3, [r3, #62]
ARM GAS  C:\Users\user\AppData\Local\Temp\ccrDHgJ5.s 			page 128


 7353 0014 FB75     		strb	r3, [r7, #23]
 7354 0016 FB68     		ldr	r3, [r7, #12]
 7355 0018 93F83F30 		ldrb	r3, [r3, #63]
 7356 001c BB75     		strb	r3, [r7, #22]
 7357 001e FB68     		ldr	r3, [r7, #12]
 7358 0020 93F84230 		ldrb	r3, [r3, #66]
 7359 0024 7B75     		strb	r3, [r7, #21]
 7360 0026 FB68     		ldr	r3, [r7, #12]
 7361 0028 93F84330 		ldrb	r3, [r3, #67]
 7362 002c 3B75     		strb	r3, [r7, #20]
 7363 002e BB68     		ldr	r3, [r7, #8]
 7364 0030 002B     		cmp	r3, #0
 7365 0032 20D1     		bne	.L713
 7366 0034 FB7D     		ldrb	r3, [r7, #23]	@ zero_extendqisi2
 7367 0036 022B     		cmp	r3, #2
 7368 0038 02D0     		beq	.L714
 7369 003a 7B7D     		ldrb	r3, [r7, #21]	@ zero_extendqisi2
 7370 003c 022B     		cmp	r3, #2
 7371 003e 01D1     		bne	.L715
 7372              	.L714:
 7373 0040 0223     		movs	r3, #2
 7374 0042 3FE1     		b	.L716
 7375              	.L715:
 7376 0044 FB7D     		ldrb	r3, [r7, #23]	@ zero_extendqisi2
 7377 0046 012B     		cmp	r3, #1
 7378 0048 13D1     		bne	.L717
 7379 004a 7B7D     		ldrb	r3, [r7, #21]	@ zero_extendqisi2
 7380 004c 012B     		cmp	r3, #1
 7381 004e 10D1     		bne	.L717
 7382 0050 7B68     		ldr	r3, [r7, #4]
 7383 0052 002B     		cmp	r3, #0
 7384 0054 04D1     		bne	.L718
 7385 0056 3B8C     		ldrh	r3, [r7, #32]
 7386 0058 002B     		cmp	r3, #0
 7387 005a 01D0     		beq	.L718
 7388 005c 0123     		movs	r3, #1
 7389 005e 31E1     		b	.L716
 7390              	.L718:
 7391 0060 FB68     		ldr	r3, [r7, #12]
 7392 0062 0222     		movs	r2, #2
 7393 0064 83F83E20 		strb	r2, [r3, #62]
 7394 0068 FB68     		ldr	r3, [r7, #12]
 7395 006a 0222     		movs	r2, #2
 7396 006c 83F84220 		strb	r2, [r3, #66]
 7397 0070 5DE0     		b	.L720
 7398              	.L717:
 7399 0072 0123     		movs	r3, #1
 7400 0074 26E1     		b	.L716
 7401              	.L713:
 7402 0076 BB68     		ldr	r3, [r7, #8]
 7403 0078 042B     		cmp	r3, #4
 7404 007a 20D1     		bne	.L721
 7405 007c BB7D     		ldrb	r3, [r7, #22]	@ zero_extendqisi2
 7406 007e 022B     		cmp	r3, #2
 7407 0080 02D0     		beq	.L722
 7408 0082 3B7D     		ldrb	r3, [r7, #20]	@ zero_extendqisi2
 7409 0084 022B     		cmp	r3, #2
ARM GAS  C:\Users\user\AppData\Local\Temp\ccrDHgJ5.s 			page 129


 7410 0086 01D1     		bne	.L723
 7411              	.L722:
 7412 0088 0223     		movs	r3, #2
 7413 008a 1BE1     		b	.L716
 7414              	.L723:
 7415 008c BB7D     		ldrb	r3, [r7, #22]	@ zero_extendqisi2
 7416 008e 012B     		cmp	r3, #1
 7417 0090 13D1     		bne	.L724
 7418 0092 3B7D     		ldrb	r3, [r7, #20]	@ zero_extendqisi2
 7419 0094 012B     		cmp	r3, #1
 7420 0096 10D1     		bne	.L724
 7421 0098 3B68     		ldr	r3, [r7]
 7422 009a 002B     		cmp	r3, #0
 7423 009c 04D1     		bne	.L725
 7424 009e 3B8C     		ldrh	r3, [r7, #32]
 7425 00a0 002B     		cmp	r3, #0
 7426 00a2 01D0     		beq	.L725
 7427 00a4 0123     		movs	r3, #1
 7428 00a6 0DE1     		b	.L716
 7429              	.L725:
 7430 00a8 FB68     		ldr	r3, [r7, #12]
 7431 00aa 0222     		movs	r2, #2
 7432 00ac 83F83F20 		strb	r2, [r3, #63]
 7433 00b0 FB68     		ldr	r3, [r7, #12]
 7434 00b2 0222     		movs	r2, #2
 7435 00b4 83F84320 		strb	r2, [r3, #67]
 7436 00b8 39E0     		b	.L720
 7437              	.L724:
 7438 00ba 0123     		movs	r3, #1
 7439 00bc 02E1     		b	.L716
 7440              	.L721:
 7441 00be FB7D     		ldrb	r3, [r7, #23]	@ zero_extendqisi2
 7442 00c0 022B     		cmp	r3, #2
 7443 00c2 08D0     		beq	.L727
 7444 00c4 BB7D     		ldrb	r3, [r7, #22]	@ zero_extendqisi2
 7445 00c6 022B     		cmp	r3, #2
 7446 00c8 05D0     		beq	.L727
 7447 00ca 7B7D     		ldrb	r3, [r7, #21]	@ zero_extendqisi2
 7448 00cc 022B     		cmp	r3, #2
 7449 00ce 02D0     		beq	.L727
 7450 00d0 3B7D     		ldrb	r3, [r7, #20]	@ zero_extendqisi2
 7451 00d2 022B     		cmp	r3, #2
 7452 00d4 01D1     		bne	.L728
 7453              	.L727:
 7454 00d6 0223     		movs	r3, #2
 7455 00d8 F4E0     		b	.L716
 7456              	.L728:
 7457 00da FB7D     		ldrb	r3, [r7, #23]	@ zero_extendqisi2
 7458 00dc 012B     		cmp	r3, #1
 7459 00de 24D1     		bne	.L729
 7460 00e0 BB7D     		ldrb	r3, [r7, #22]	@ zero_extendqisi2
 7461 00e2 012B     		cmp	r3, #1
 7462 00e4 21D1     		bne	.L729
 7463 00e6 7B7D     		ldrb	r3, [r7, #21]	@ zero_extendqisi2
 7464 00e8 012B     		cmp	r3, #1
 7465 00ea 1ED1     		bne	.L729
 7466 00ec 3B7D     		ldrb	r3, [r7, #20]	@ zero_extendqisi2
ARM GAS  C:\Users\user\AppData\Local\Temp\ccrDHgJ5.s 			page 130


 7467 00ee 012B     		cmp	r3, #1
 7468 00f0 1BD1     		bne	.L729
 7469 00f2 7B68     		ldr	r3, [r7, #4]
 7470 00f4 002B     		cmp	r3, #0
 7471 00f6 02D0     		beq	.L730
 7472 00f8 3B68     		ldr	r3, [r7]
 7473 00fa 002B     		cmp	r3, #0
 7474 00fc 04D1     		bne	.L731
 7475              	.L730:
 7476 00fe 3B8C     		ldrh	r3, [r7, #32]
 7477 0100 002B     		cmp	r3, #0
 7478 0102 01D0     		beq	.L731
 7479 0104 0123     		movs	r3, #1
 7480 0106 DDE0     		b	.L716
 7481              	.L731:
 7482 0108 FB68     		ldr	r3, [r7, #12]
 7483 010a 0222     		movs	r2, #2
 7484 010c 83F83E20 		strb	r2, [r3, #62]
 7485 0110 FB68     		ldr	r3, [r7, #12]
 7486 0112 0222     		movs	r2, #2
 7487 0114 83F83F20 		strb	r2, [r3, #63]
 7488 0118 FB68     		ldr	r3, [r7, #12]
 7489 011a 0222     		movs	r2, #2
 7490 011c 83F84220 		strb	r2, [r3, #66]
 7491 0120 FB68     		ldr	r3, [r7, #12]
 7492 0122 0222     		movs	r2, #2
 7493 0124 83F84320 		strb	r2, [r3, #67]
 7494 0128 01E0     		b	.L720
 7495              	.L729:
 7496 012a 0123     		movs	r3, #1
 7497 012c CAE0     		b	.L716
 7498              	.L720:
 7499 012e BB68     		ldr	r3, [r7, #8]
 7500 0130 002B     		cmp	r3, #0
 7501 0132 03D0     		beq	.L732
 7502 0134 BB68     		ldr	r3, [r7, #8]
 7503 0136 042B     		cmp	r3, #4
 7504 0138 33D0     		beq	.L733
 7505 013a 65E0     		b	.L740
 7506              	.L732:
 7507 013c FB68     		ldr	r3, [r7, #12]
 7508 013e 5B6A     		ldr	r3, [r3, #36]
 7509 0140 624A     		ldr	r2, .L741
 7510 0142 DA63     		str	r2, [r3, #60]
 7511 0144 FB68     		ldr	r3, [r7, #12]
 7512 0146 5B6A     		ldr	r3, [r3, #36]
 7513 0148 614A     		ldr	r2, .L741+4
 7514 014a 1A64     		str	r2, [r3, #64]
 7515 014c FB68     		ldr	r3, [r7, #12]
 7516 014e 5B6A     		ldr	r3, [r3, #36]
 7517 0150 604A     		ldr	r2, .L741+8
 7518 0152 DA64     		str	r2, [r3, #76]
 7519 0154 FB68     		ldr	r3, [r7, #12]
 7520 0156 586A     		ldr	r0, [r3, #36]
 7521 0158 FB68     		ldr	r3, [r7, #12]
 7522 015a 1B68     		ldr	r3, [r3]
 7523 015c 3433     		adds	r3, r3, #52
ARM GAS  C:\Users\user\AppData\Local\Temp\ccrDHgJ5.s 			page 131


 7524 015e 1946     		mov	r1, r3
 7525 0160 7A68     		ldr	r2, [r7, #4]
 7526 0162 3B8C     		ldrh	r3, [r7, #32]
 7527 0164 FFF7FEFF 		bl	HAL_DMA_Start_IT
 7528 0168 0346     		mov	r3, r0
 7529 016a 002B     		cmp	r3, #0
 7530 016c 01D0     		beq	.L735
 7531 016e 0123     		movs	r3, #1
 7532 0170 A8E0     		b	.L716
 7533              	.L735:
 7534 0172 FB68     		ldr	r3, [r7, #12]
 7535 0174 1B68     		ldr	r3, [r3]
 7536 0176 DA68     		ldr	r2, [r3, #12]
 7537 0178 FB68     		ldr	r3, [r7, #12]
 7538 017a 1B68     		ldr	r3, [r3]
 7539 017c 42F40072 		orr	r2, r2, #512
 7540 0180 DA60     		str	r2, [r3, #12]
 7541 0182 FB68     		ldr	r3, [r7, #12]
 7542 0184 1B68     		ldr	r3, [r3]
 7543 0186 0122     		movs	r2, #1
 7544 0188 0021     		movs	r1, #0
 7545 018a 1846     		mov	r0, r3
 7546 018c FFF7FEFF 		bl	TIM_CCxChannelCmd
 7547 0190 FB68     		ldr	r3, [r7, #12]
 7548 0192 1B68     		ldr	r3, [r3]
 7549 0194 1A68     		ldr	r2, [r3]
 7550 0196 FB68     		ldr	r3, [r7, #12]
 7551 0198 1B68     		ldr	r3, [r3]
 7552 019a 42F00102 		orr	r2, r2, #1
 7553 019e 1A60     		str	r2, [r3]
 7554 01a0 8FE0     		b	.L736
 7555              	.L733:
 7556 01a2 FB68     		ldr	r3, [r7, #12]
 7557 01a4 9B6A     		ldr	r3, [r3, #40]
 7558 01a6 494A     		ldr	r2, .L741
 7559 01a8 DA63     		str	r2, [r3, #60]
 7560 01aa FB68     		ldr	r3, [r7, #12]
 7561 01ac 9B6A     		ldr	r3, [r3, #40]
 7562 01ae 484A     		ldr	r2, .L741+4
 7563 01b0 1A64     		str	r2, [r3, #64]
 7564 01b2 FB68     		ldr	r3, [r7, #12]
 7565 01b4 9B6A     		ldr	r3, [r3, #40]
 7566 01b6 474A     		ldr	r2, .L741+8
 7567 01b8 DA64     		str	r2, [r3, #76]
 7568 01ba FB68     		ldr	r3, [r7, #12]
 7569 01bc 986A     		ldr	r0, [r3, #40]
 7570 01be FB68     		ldr	r3, [r7, #12]
 7571 01c0 1B68     		ldr	r3, [r3]
 7572 01c2 3833     		adds	r3, r3, #56
 7573 01c4 1946     		mov	r1, r3
 7574 01c6 3A68     		ldr	r2, [r7]
 7575 01c8 3B8C     		ldrh	r3, [r7, #32]
 7576 01ca FFF7FEFF 		bl	HAL_DMA_Start_IT
 7577 01ce 0346     		mov	r3, r0
 7578 01d0 002B     		cmp	r3, #0
 7579 01d2 01D0     		beq	.L737
 7580 01d4 0123     		movs	r3, #1
ARM GAS  C:\Users\user\AppData\Local\Temp\ccrDHgJ5.s 			page 132


 7581 01d6 75E0     		b	.L716
 7582              	.L737:
 7583 01d8 FB68     		ldr	r3, [r7, #12]
 7584 01da 1B68     		ldr	r3, [r3]
 7585 01dc DA68     		ldr	r2, [r3, #12]
 7586 01de FB68     		ldr	r3, [r7, #12]
 7587 01e0 1B68     		ldr	r3, [r3]
 7588 01e2 42F48062 		orr	r2, r2, #1024
 7589 01e6 DA60     		str	r2, [r3, #12]
 7590 01e8 FB68     		ldr	r3, [r7, #12]
 7591 01ea 1B68     		ldr	r3, [r3]
 7592 01ec 0122     		movs	r2, #1
 7593 01ee 0421     		movs	r1, #4
 7594 01f0 1846     		mov	r0, r3
 7595 01f2 FFF7FEFF 		bl	TIM_CCxChannelCmd
 7596 01f6 FB68     		ldr	r3, [r7, #12]
 7597 01f8 1B68     		ldr	r3, [r3]
 7598 01fa 1A68     		ldr	r2, [r3]
 7599 01fc FB68     		ldr	r3, [r7, #12]
 7600 01fe 1B68     		ldr	r3, [r3]
 7601 0200 42F00102 		orr	r2, r2, #1
 7602 0204 1A60     		str	r2, [r3]
 7603 0206 5CE0     		b	.L736
 7604              	.L740:
 7605 0208 FB68     		ldr	r3, [r7, #12]
 7606 020a 5B6A     		ldr	r3, [r3, #36]
 7607 020c 2F4A     		ldr	r2, .L741
 7608 020e DA63     		str	r2, [r3, #60]
 7609 0210 FB68     		ldr	r3, [r7, #12]
 7610 0212 5B6A     		ldr	r3, [r3, #36]
 7611 0214 2E4A     		ldr	r2, .L741+4
 7612 0216 1A64     		str	r2, [r3, #64]
 7613 0218 FB68     		ldr	r3, [r7, #12]
 7614 021a 5B6A     		ldr	r3, [r3, #36]
 7615 021c 2D4A     		ldr	r2, .L741+8
 7616 021e DA64     		str	r2, [r3, #76]
 7617 0220 FB68     		ldr	r3, [r7, #12]
 7618 0222 586A     		ldr	r0, [r3, #36]
 7619 0224 FB68     		ldr	r3, [r7, #12]
 7620 0226 1B68     		ldr	r3, [r3]
 7621 0228 3433     		adds	r3, r3, #52
 7622 022a 1946     		mov	r1, r3
 7623 022c 7A68     		ldr	r2, [r7, #4]
 7624 022e 3B8C     		ldrh	r3, [r7, #32]
 7625 0230 FFF7FEFF 		bl	HAL_DMA_Start_IT
 7626 0234 0346     		mov	r3, r0
 7627 0236 002B     		cmp	r3, #0
 7628 0238 01D0     		beq	.L738
 7629 023a 0123     		movs	r3, #1
 7630 023c 42E0     		b	.L716
 7631              	.L738:
 7632 023e FB68     		ldr	r3, [r7, #12]
 7633 0240 9B6A     		ldr	r3, [r3, #40]
 7634 0242 224A     		ldr	r2, .L741
 7635 0244 DA63     		str	r2, [r3, #60]
 7636 0246 FB68     		ldr	r3, [r7, #12]
 7637 0248 9B6A     		ldr	r3, [r3, #40]
ARM GAS  C:\Users\user\AppData\Local\Temp\ccrDHgJ5.s 			page 133


 7638 024a 214A     		ldr	r2, .L741+4
 7639 024c 1A64     		str	r2, [r3, #64]
 7640 024e FB68     		ldr	r3, [r7, #12]
 7641 0250 9B6A     		ldr	r3, [r3, #40]
 7642 0252 204A     		ldr	r2, .L741+8
 7643 0254 DA64     		str	r2, [r3, #76]
 7644 0256 FB68     		ldr	r3, [r7, #12]
 7645 0258 986A     		ldr	r0, [r3, #40]
 7646 025a FB68     		ldr	r3, [r7, #12]
 7647 025c 1B68     		ldr	r3, [r3]
 7648 025e 3833     		adds	r3, r3, #56
 7649 0260 1946     		mov	r1, r3
 7650 0262 3A68     		ldr	r2, [r7]
 7651 0264 3B8C     		ldrh	r3, [r7, #32]
 7652 0266 FFF7FEFF 		bl	HAL_DMA_Start_IT
 7653 026a 0346     		mov	r3, r0
 7654 026c 002B     		cmp	r3, #0
 7655 026e 01D0     		beq	.L739
 7656 0270 0123     		movs	r3, #1
 7657 0272 27E0     		b	.L716
 7658              	.L739:
 7659 0274 FB68     		ldr	r3, [r7, #12]
 7660 0276 1B68     		ldr	r3, [r3]
 7661 0278 DA68     		ldr	r2, [r3, #12]
 7662 027a FB68     		ldr	r3, [r7, #12]
 7663 027c 1B68     		ldr	r3, [r3]
 7664 027e 42F40072 		orr	r2, r2, #512
 7665 0282 DA60     		str	r2, [r3, #12]
 7666 0284 FB68     		ldr	r3, [r7, #12]
 7667 0286 1B68     		ldr	r3, [r3]
 7668 0288 DA68     		ldr	r2, [r3, #12]
 7669 028a FB68     		ldr	r3, [r7, #12]
 7670 028c 1B68     		ldr	r3, [r3]
 7671 028e 42F48062 		orr	r2, r2, #1024
 7672 0292 DA60     		str	r2, [r3, #12]
 7673 0294 FB68     		ldr	r3, [r7, #12]
 7674 0296 1B68     		ldr	r3, [r3]
 7675 0298 0122     		movs	r2, #1
 7676 029a 0021     		movs	r1, #0
 7677 029c 1846     		mov	r0, r3
 7678 029e FFF7FEFF 		bl	TIM_CCxChannelCmd
 7679 02a2 FB68     		ldr	r3, [r7, #12]
 7680 02a4 1B68     		ldr	r3, [r3]
 7681 02a6 0122     		movs	r2, #1
 7682 02a8 0421     		movs	r1, #4
 7683 02aa 1846     		mov	r0, r3
 7684 02ac FFF7FEFF 		bl	TIM_CCxChannelCmd
 7685 02b0 FB68     		ldr	r3, [r7, #12]
 7686 02b2 1B68     		ldr	r3, [r3]
 7687 02b4 1A68     		ldr	r2, [r3]
 7688 02b6 FB68     		ldr	r3, [r7, #12]
 7689 02b8 1B68     		ldr	r3, [r3]
 7690 02ba 42F00102 		orr	r2, r2, #1
 7691 02be 1A60     		str	r2, [r3]
 7692 02c0 00BF     		nop
 7693              	.L736:
 7694 02c2 0023     		movs	r3, #0
ARM GAS  C:\Users\user\AppData\Local\Temp\ccrDHgJ5.s 			page 134


 7695              	.L716:
 7696 02c4 1846     		mov	r0, r3
 7697 02c6 1837     		adds	r7, r7, #24
 7698 02c8 BD46     		mov	sp, r7
 7699              		@ sp needed
 7700 02ca 80BD     		pop	{r7, pc}
 7701              	.L742:
 7702              		.align	2
 7703              	.L741:
 7704 02cc 00000000 		.word	TIM_DMACaptureCplt
 7705 02d0 00000000 		.word	TIM_DMACaptureHalfCplt
 7706 02d4 00000000 		.word	TIM_DMAError
 7708              		.section	.text.HAL_TIM_Encoder_Stop_DMA,"ax",%progbits
 7709              		.align	1
 7710              		.global	HAL_TIM_Encoder_Stop_DMA
 7711              		.syntax unified
 7712              		.thumb
 7713              		.thumb_func
 7715              	HAL_TIM_Encoder_Stop_DMA:
 7716              		@ args = 0, pretend = 0, frame = 8
 7717              		@ frame_needed = 1, uses_anonymous_args = 0
 7718 0000 80B5     		push	{r7, lr}
 7719 0002 82B0     		sub	sp, sp, #8
 7720 0004 00AF     		add	r7, sp, #0
 7721 0006 7860     		str	r0, [r7, #4]
 7722 0008 3960     		str	r1, [r7]
 7723 000a 3B68     		ldr	r3, [r7]
 7724 000c 002B     		cmp	r3, #0
 7725 000e 14D1     		bne	.L744
 7726 0010 7B68     		ldr	r3, [r7, #4]
 7727 0012 1B68     		ldr	r3, [r3]
 7728 0014 0022     		movs	r2, #0
 7729 0016 0021     		movs	r1, #0
 7730 0018 1846     		mov	r0, r3
 7731 001a FFF7FEFF 		bl	TIM_CCxChannelCmd
 7732 001e 7B68     		ldr	r3, [r7, #4]
 7733 0020 1B68     		ldr	r3, [r3]
 7734 0022 DA68     		ldr	r2, [r3, #12]
 7735 0024 7B68     		ldr	r3, [r7, #4]
 7736 0026 1B68     		ldr	r3, [r3]
 7737 0028 22F40072 		bic	r2, r2, #512
 7738 002c DA60     		str	r2, [r3, #12]
 7739 002e 7B68     		ldr	r3, [r7, #4]
 7740 0030 5B6A     		ldr	r3, [r3, #36]
 7741 0032 1846     		mov	r0, r3
 7742 0034 FFF7FEFF 		bl	HAL_DMA_Abort_IT
 7743 0038 3FE0     		b	.L745
 7744              	.L744:
 7745 003a 3B68     		ldr	r3, [r7]
 7746 003c 042B     		cmp	r3, #4
 7747 003e 14D1     		bne	.L746
 7748 0040 7B68     		ldr	r3, [r7, #4]
 7749 0042 1B68     		ldr	r3, [r3]
 7750 0044 0022     		movs	r2, #0
 7751 0046 0421     		movs	r1, #4
 7752 0048 1846     		mov	r0, r3
 7753 004a FFF7FEFF 		bl	TIM_CCxChannelCmd
ARM GAS  C:\Users\user\AppData\Local\Temp\ccrDHgJ5.s 			page 135


 7754 004e 7B68     		ldr	r3, [r7, #4]
 7755 0050 1B68     		ldr	r3, [r3]
 7756 0052 DA68     		ldr	r2, [r3, #12]
 7757 0054 7B68     		ldr	r3, [r7, #4]
 7758 0056 1B68     		ldr	r3, [r3]
 7759 0058 22F48062 		bic	r2, r2, #1024
 7760 005c DA60     		str	r2, [r3, #12]
 7761 005e 7B68     		ldr	r3, [r7, #4]
 7762 0060 9B6A     		ldr	r3, [r3, #40]
 7763 0062 1846     		mov	r0, r3
 7764 0064 FFF7FEFF 		bl	HAL_DMA_Abort_IT
 7765 0068 27E0     		b	.L745
 7766              	.L746:
 7767 006a 7B68     		ldr	r3, [r7, #4]
 7768 006c 1B68     		ldr	r3, [r3]
 7769 006e 0022     		movs	r2, #0
 7770 0070 0021     		movs	r1, #0
 7771 0072 1846     		mov	r0, r3
 7772 0074 FFF7FEFF 		bl	TIM_CCxChannelCmd
 7773 0078 7B68     		ldr	r3, [r7, #4]
 7774 007a 1B68     		ldr	r3, [r3]
 7775 007c 0022     		movs	r2, #0
 7776 007e 0421     		movs	r1, #4
 7777 0080 1846     		mov	r0, r3
 7778 0082 FFF7FEFF 		bl	TIM_CCxChannelCmd
 7779 0086 7B68     		ldr	r3, [r7, #4]
 7780 0088 1B68     		ldr	r3, [r3]
 7781 008a DA68     		ldr	r2, [r3, #12]
 7782 008c 7B68     		ldr	r3, [r7, #4]
 7783 008e 1B68     		ldr	r3, [r3]
 7784 0090 22F40072 		bic	r2, r2, #512
 7785 0094 DA60     		str	r2, [r3, #12]
 7786 0096 7B68     		ldr	r3, [r7, #4]
 7787 0098 1B68     		ldr	r3, [r3]
 7788 009a DA68     		ldr	r2, [r3, #12]
 7789 009c 7B68     		ldr	r3, [r7, #4]
 7790 009e 1B68     		ldr	r3, [r3]
 7791 00a0 22F48062 		bic	r2, r2, #1024
 7792 00a4 DA60     		str	r2, [r3, #12]
 7793 00a6 7B68     		ldr	r3, [r7, #4]
 7794 00a8 5B6A     		ldr	r3, [r3, #36]
 7795 00aa 1846     		mov	r0, r3
 7796 00ac FFF7FEFF 		bl	HAL_DMA_Abort_IT
 7797 00b0 7B68     		ldr	r3, [r7, #4]
 7798 00b2 9B6A     		ldr	r3, [r3, #40]
 7799 00b4 1846     		mov	r0, r3
 7800 00b6 FFF7FEFF 		bl	HAL_DMA_Abort_IT
 7801              	.L745:
 7802 00ba 7B68     		ldr	r3, [r7, #4]
 7803 00bc 1B68     		ldr	r3, [r3]
 7804 00be 1A6A     		ldr	r2, [r3, #32]
 7805 00c0 41F21113 		movw	r3, #4369
 7806 00c4 1340     		ands	r3, r3, r2
 7807 00c6 002B     		cmp	r3, #0
 7808 00c8 0FD1     		bne	.L747
 7809 00ca 7B68     		ldr	r3, [r7, #4]
 7810 00cc 1B68     		ldr	r3, [r3]
ARM GAS  C:\Users\user\AppData\Local\Temp\ccrDHgJ5.s 			page 136


 7811 00ce 1A6A     		ldr	r2, [r3, #32]
 7812 00d0 40F24443 		movw	r3, #1092
 7813 00d4 1340     		ands	r3, r3, r2
 7814 00d6 002B     		cmp	r3, #0
 7815 00d8 07D1     		bne	.L747
 7816 00da 7B68     		ldr	r3, [r7, #4]
 7817 00dc 1B68     		ldr	r3, [r3]
 7818 00de 1A68     		ldr	r2, [r3]
 7819 00e0 7B68     		ldr	r3, [r7, #4]
 7820 00e2 1B68     		ldr	r3, [r3]
 7821 00e4 22F00102 		bic	r2, r2, #1
 7822 00e8 1A60     		str	r2, [r3]
 7823              	.L747:
 7824 00ea 3B68     		ldr	r3, [r7]
 7825 00ec 002B     		cmp	r3, #0
 7826 00ee 02D0     		beq	.L748
 7827 00f0 3B68     		ldr	r3, [r7]
 7828 00f2 042B     		cmp	r3, #4
 7829 00f4 38D1     		bne	.L749
 7830              	.L748:
 7831 00f6 3B68     		ldr	r3, [r7]
 7832 00f8 002B     		cmp	r3, #0
 7833 00fa 04D1     		bne	.L750
 7834 00fc 7B68     		ldr	r3, [r7, #4]
 7835 00fe 0122     		movs	r2, #1
 7836 0100 83F83E20 		strb	r2, [r3, #62]
 7837 0104 13E0     		b	.L751
 7838              	.L750:
 7839 0106 3B68     		ldr	r3, [r7]
 7840 0108 042B     		cmp	r3, #4
 7841 010a 04D1     		bne	.L752
 7842 010c 7B68     		ldr	r3, [r7, #4]
 7843 010e 0122     		movs	r2, #1
 7844 0110 83F83F20 		strb	r2, [r3, #63]
 7845 0114 0BE0     		b	.L751
 7846              	.L752:
 7847 0116 3B68     		ldr	r3, [r7]
 7848 0118 082B     		cmp	r3, #8
 7849 011a 04D1     		bne	.L754
 7850 011c 7B68     		ldr	r3, [r7, #4]
 7851 011e 0122     		movs	r2, #1
 7852 0120 83F84020 		strb	r2, [r3, #64]
 7853 0124 03E0     		b	.L751
 7854              	.L754:
 7855 0126 7B68     		ldr	r3, [r7, #4]
 7856 0128 0122     		movs	r2, #1
 7857 012a 83F84120 		strb	r2, [r3, #65]
 7858              	.L751:
 7859 012e 3B68     		ldr	r3, [r7]
 7860 0130 002B     		cmp	r3, #0
 7861 0132 04D1     		bne	.L756
 7862 0134 7B68     		ldr	r3, [r7, #4]
 7863 0136 0122     		movs	r2, #1
 7864 0138 83F84220 		strb	r2, [r3, #66]
 7865 013c 24E0     		b	.L762
 7866              	.L756:
 7867 013e 3B68     		ldr	r3, [r7]
ARM GAS  C:\Users\user\AppData\Local\Temp\ccrDHgJ5.s 			page 137


 7868 0140 042B     		cmp	r3, #4
 7869 0142 04D1     		bne	.L758
 7870 0144 7B68     		ldr	r3, [r7, #4]
 7871 0146 0122     		movs	r2, #1
 7872 0148 83F84320 		strb	r2, [r3, #67]
 7873 014c 1CE0     		b	.L762
 7874              	.L758:
 7875 014e 3B68     		ldr	r3, [r7]
 7876 0150 082B     		cmp	r3, #8
 7877 0152 04D1     		bne	.L760
 7878 0154 7B68     		ldr	r3, [r7, #4]
 7879 0156 0122     		movs	r2, #1
 7880 0158 83F84420 		strb	r2, [r3, #68]
 7881 015c 14E0     		b	.L762
 7882              	.L760:
 7883 015e 7B68     		ldr	r3, [r7, #4]
 7884 0160 0122     		movs	r2, #1
 7885 0162 83F84520 		strb	r2, [r3, #69]
 7886 0166 0FE0     		b	.L762
 7887              	.L749:
 7888 0168 7B68     		ldr	r3, [r7, #4]
 7889 016a 0122     		movs	r2, #1
 7890 016c 83F83E20 		strb	r2, [r3, #62]
 7891 0170 7B68     		ldr	r3, [r7, #4]
 7892 0172 0122     		movs	r2, #1
 7893 0174 83F83F20 		strb	r2, [r3, #63]
 7894 0178 7B68     		ldr	r3, [r7, #4]
 7895 017a 0122     		movs	r2, #1
 7896 017c 83F84220 		strb	r2, [r3, #66]
 7897 0180 7B68     		ldr	r3, [r7, #4]
 7898 0182 0122     		movs	r2, #1
 7899 0184 83F84320 		strb	r2, [r3, #67]
 7900              	.L762:
 7901 0188 0023     		movs	r3, #0
 7902 018a 1846     		mov	r0, r3
 7903 018c 0837     		adds	r7, r7, #8
 7904 018e BD46     		mov	sp, r7
 7905              		@ sp needed
 7906 0190 80BD     		pop	{r7, pc}
 7908              		.section	.text.HAL_TIM_IRQHandler,"ax",%progbits
 7909              		.align	1
 7910              		.global	HAL_TIM_IRQHandler
 7911              		.syntax unified
 7912              		.thumb
 7913              		.thumb_func
 7915              	HAL_TIM_IRQHandler:
 7916              		@ args = 0, pretend = 0, frame = 8
 7917              		@ frame_needed = 1, uses_anonymous_args = 0
 7918 0000 80B5     		push	{r7, lr}
 7919 0002 82B0     		sub	sp, sp, #8
 7920 0004 00AF     		add	r7, sp, #0
 7921 0006 7860     		str	r0, [r7, #4]
 7922 0008 7B68     		ldr	r3, [r7, #4]
 7923 000a 1B68     		ldr	r3, [r3]
 7924 000c 1B69     		ldr	r3, [r3, #16]
 7925 000e 03F00203 		and	r3, r3, #2
 7926 0012 022B     		cmp	r3, #2
ARM GAS  C:\Users\user\AppData\Local\Temp\ccrDHgJ5.s 			page 138


 7927 0014 22D1     		bne	.L765
 7928 0016 7B68     		ldr	r3, [r7, #4]
 7929 0018 1B68     		ldr	r3, [r3]
 7930 001a DB68     		ldr	r3, [r3, #12]
 7931 001c 03F00203 		and	r3, r3, #2
 7932 0020 022B     		cmp	r3, #2
 7933 0022 1BD1     		bne	.L765
 7934 0024 7B68     		ldr	r3, [r7, #4]
 7935 0026 1B68     		ldr	r3, [r3]
 7936 0028 6FF00202 		mvn	r2, #2
 7937 002c 1A61     		str	r2, [r3, #16]
 7938 002e 7B68     		ldr	r3, [r7, #4]
 7939 0030 0122     		movs	r2, #1
 7940 0032 1A77     		strb	r2, [r3, #28]
 7941 0034 7B68     		ldr	r3, [r7, #4]
 7942 0036 1B68     		ldr	r3, [r3]
 7943 0038 9B69     		ldr	r3, [r3, #24]
 7944 003a 03F00303 		and	r3, r3, #3
 7945 003e 002B     		cmp	r3, #0
 7946 0040 03D0     		beq	.L766
 7947 0042 7868     		ldr	r0, [r7, #4]
 7948 0044 FFF7FEFF 		bl	HAL_TIM_IC_CaptureCallback
 7949 0048 05E0     		b	.L767
 7950              	.L766:
 7951 004a 7868     		ldr	r0, [r7, #4]
 7952 004c FFF7FEFF 		bl	HAL_TIM_OC_DelayElapsedCallback
 7953 0050 7868     		ldr	r0, [r7, #4]
 7954 0052 FFF7FEFF 		bl	HAL_TIM_PWM_PulseFinishedCallback
 7955              	.L767:
 7956 0056 7B68     		ldr	r3, [r7, #4]
 7957 0058 0022     		movs	r2, #0
 7958 005a 1A77     		strb	r2, [r3, #28]
 7959              	.L765:
 7960 005c 7B68     		ldr	r3, [r7, #4]
 7961 005e 1B68     		ldr	r3, [r3]
 7962 0060 1B69     		ldr	r3, [r3, #16]
 7963 0062 03F00403 		and	r3, r3, #4
 7964 0066 042B     		cmp	r3, #4
 7965 0068 22D1     		bne	.L768
 7966 006a 7B68     		ldr	r3, [r7, #4]
 7967 006c 1B68     		ldr	r3, [r3]
 7968 006e DB68     		ldr	r3, [r3, #12]
 7969 0070 03F00403 		and	r3, r3, #4
 7970 0074 042B     		cmp	r3, #4
 7971 0076 1BD1     		bne	.L768
 7972 0078 7B68     		ldr	r3, [r7, #4]
 7973 007a 1B68     		ldr	r3, [r3]
 7974 007c 6FF00402 		mvn	r2, #4
 7975 0080 1A61     		str	r2, [r3, #16]
 7976 0082 7B68     		ldr	r3, [r7, #4]
 7977 0084 0222     		movs	r2, #2
 7978 0086 1A77     		strb	r2, [r3, #28]
 7979 0088 7B68     		ldr	r3, [r7, #4]
 7980 008a 1B68     		ldr	r3, [r3]
 7981 008c 9B69     		ldr	r3, [r3, #24]
 7982 008e 03F44073 		and	r3, r3, #768
 7983 0092 002B     		cmp	r3, #0
ARM GAS  C:\Users\user\AppData\Local\Temp\ccrDHgJ5.s 			page 139


 7984 0094 03D0     		beq	.L769
 7985 0096 7868     		ldr	r0, [r7, #4]
 7986 0098 FFF7FEFF 		bl	HAL_TIM_IC_CaptureCallback
 7987 009c 05E0     		b	.L770
 7988              	.L769:
 7989 009e 7868     		ldr	r0, [r7, #4]
 7990 00a0 FFF7FEFF 		bl	HAL_TIM_OC_DelayElapsedCallback
 7991 00a4 7868     		ldr	r0, [r7, #4]
 7992 00a6 FFF7FEFF 		bl	HAL_TIM_PWM_PulseFinishedCallback
 7993              	.L770:
 7994 00aa 7B68     		ldr	r3, [r7, #4]
 7995 00ac 0022     		movs	r2, #0
 7996 00ae 1A77     		strb	r2, [r3, #28]
 7997              	.L768:
 7998 00b0 7B68     		ldr	r3, [r7, #4]
 7999 00b2 1B68     		ldr	r3, [r3]
 8000 00b4 1B69     		ldr	r3, [r3, #16]
 8001 00b6 03F00803 		and	r3, r3, #8
 8002 00ba 082B     		cmp	r3, #8
 8003 00bc 22D1     		bne	.L771
 8004 00be 7B68     		ldr	r3, [r7, #4]
 8005 00c0 1B68     		ldr	r3, [r3]
 8006 00c2 DB68     		ldr	r3, [r3, #12]
 8007 00c4 03F00803 		and	r3, r3, #8
 8008 00c8 082B     		cmp	r3, #8
 8009 00ca 1BD1     		bne	.L771
 8010 00cc 7B68     		ldr	r3, [r7, #4]
 8011 00ce 1B68     		ldr	r3, [r3]
 8012 00d0 6FF00802 		mvn	r2, #8
 8013 00d4 1A61     		str	r2, [r3, #16]
 8014 00d6 7B68     		ldr	r3, [r7, #4]
 8015 00d8 0422     		movs	r2, #4
 8016 00da 1A77     		strb	r2, [r3, #28]
 8017 00dc 7B68     		ldr	r3, [r7, #4]
 8018 00de 1B68     		ldr	r3, [r3]
 8019 00e0 DB69     		ldr	r3, [r3, #28]
 8020 00e2 03F00303 		and	r3, r3, #3
 8021 00e6 002B     		cmp	r3, #0
 8022 00e8 03D0     		beq	.L772
 8023 00ea 7868     		ldr	r0, [r7, #4]
 8024 00ec FFF7FEFF 		bl	HAL_TIM_IC_CaptureCallback
 8025 00f0 05E0     		b	.L773
 8026              	.L772:
 8027 00f2 7868     		ldr	r0, [r7, #4]
 8028 00f4 FFF7FEFF 		bl	HAL_TIM_OC_DelayElapsedCallback
 8029 00f8 7868     		ldr	r0, [r7, #4]
 8030 00fa FFF7FEFF 		bl	HAL_TIM_PWM_PulseFinishedCallback
 8031              	.L773:
 8032 00fe 7B68     		ldr	r3, [r7, #4]
 8033 0100 0022     		movs	r2, #0
 8034 0102 1A77     		strb	r2, [r3, #28]
 8035              	.L771:
 8036 0104 7B68     		ldr	r3, [r7, #4]
 8037 0106 1B68     		ldr	r3, [r3]
 8038 0108 1B69     		ldr	r3, [r3, #16]
 8039 010a 03F01003 		and	r3, r3, #16
 8040 010e 102B     		cmp	r3, #16
ARM GAS  C:\Users\user\AppData\Local\Temp\ccrDHgJ5.s 			page 140


 8041 0110 22D1     		bne	.L774
 8042 0112 7B68     		ldr	r3, [r7, #4]
 8043 0114 1B68     		ldr	r3, [r3]
 8044 0116 DB68     		ldr	r3, [r3, #12]
 8045 0118 03F01003 		and	r3, r3, #16
 8046 011c 102B     		cmp	r3, #16
 8047 011e 1BD1     		bne	.L774
 8048 0120 7B68     		ldr	r3, [r7, #4]
 8049 0122 1B68     		ldr	r3, [r3]
 8050 0124 6FF01002 		mvn	r2, #16
 8051 0128 1A61     		str	r2, [r3, #16]
 8052 012a 7B68     		ldr	r3, [r7, #4]
 8053 012c 0822     		movs	r2, #8
 8054 012e 1A77     		strb	r2, [r3, #28]
 8055 0130 7B68     		ldr	r3, [r7, #4]
 8056 0132 1B68     		ldr	r3, [r3]
 8057 0134 DB69     		ldr	r3, [r3, #28]
 8058 0136 03F44073 		and	r3, r3, #768
 8059 013a 002B     		cmp	r3, #0
 8060 013c 03D0     		beq	.L775
 8061 013e 7868     		ldr	r0, [r7, #4]
 8062 0140 FFF7FEFF 		bl	HAL_TIM_IC_CaptureCallback
 8063 0144 05E0     		b	.L776
 8064              	.L775:
 8065 0146 7868     		ldr	r0, [r7, #4]
 8066 0148 FFF7FEFF 		bl	HAL_TIM_OC_DelayElapsedCallback
 8067 014c 7868     		ldr	r0, [r7, #4]
 8068 014e FFF7FEFF 		bl	HAL_TIM_PWM_PulseFinishedCallback
 8069              	.L776:
 8070 0152 7B68     		ldr	r3, [r7, #4]
 8071 0154 0022     		movs	r2, #0
 8072 0156 1A77     		strb	r2, [r3, #28]
 8073              	.L774:
 8074 0158 7B68     		ldr	r3, [r7, #4]
 8075 015a 1B68     		ldr	r3, [r3]
 8076 015c 1B69     		ldr	r3, [r3, #16]
 8077 015e 03F00103 		and	r3, r3, #1
 8078 0162 012B     		cmp	r3, #1
 8079 0164 0ED1     		bne	.L777
 8080 0166 7B68     		ldr	r3, [r7, #4]
 8081 0168 1B68     		ldr	r3, [r3]
 8082 016a DB68     		ldr	r3, [r3, #12]
 8083 016c 03F00103 		and	r3, r3, #1
 8084 0170 012B     		cmp	r3, #1
 8085 0172 07D1     		bne	.L777
 8086 0174 7B68     		ldr	r3, [r7, #4]
 8087 0176 1B68     		ldr	r3, [r3]
 8088 0178 6FF00102 		mvn	r2, #1
 8089 017c 1A61     		str	r2, [r3, #16]
 8090 017e 7868     		ldr	r0, [r7, #4]
 8091 0180 FFF7FEFF 		bl	HAL_TIM_PeriodElapsedCallback
 8092              	.L777:
 8093 0184 7B68     		ldr	r3, [r7, #4]
 8094 0186 1B68     		ldr	r3, [r3]
 8095 0188 1B69     		ldr	r3, [r3, #16]
 8096 018a 03F08003 		and	r3, r3, #128
 8097 018e 802B     		cmp	r3, #128
ARM GAS  C:\Users\user\AppData\Local\Temp\ccrDHgJ5.s 			page 141


 8098 0190 0ED1     		bne	.L778
 8099 0192 7B68     		ldr	r3, [r7, #4]
 8100 0194 1B68     		ldr	r3, [r3]
 8101 0196 DB68     		ldr	r3, [r3, #12]
 8102 0198 03F08003 		and	r3, r3, #128
 8103 019c 802B     		cmp	r3, #128
 8104 019e 07D1     		bne	.L778
 8105 01a0 7B68     		ldr	r3, [r7, #4]
 8106 01a2 1B68     		ldr	r3, [r3]
 8107 01a4 6FF08002 		mvn	r2, #128
 8108 01a8 1A61     		str	r2, [r3, #16]
 8109 01aa 7868     		ldr	r0, [r7, #4]
 8110 01ac FFF7FEFF 		bl	HAL_TIMEx_BreakCallback
 8111              	.L778:
 8112 01b0 7B68     		ldr	r3, [r7, #4]
 8113 01b2 1B68     		ldr	r3, [r3]
 8114 01b4 1B69     		ldr	r3, [r3, #16]
 8115 01b6 03F04003 		and	r3, r3, #64
 8116 01ba 402B     		cmp	r3, #64
 8117 01bc 0ED1     		bne	.L779
 8118 01be 7B68     		ldr	r3, [r7, #4]
 8119 01c0 1B68     		ldr	r3, [r3]
 8120 01c2 DB68     		ldr	r3, [r3, #12]
 8121 01c4 03F04003 		and	r3, r3, #64
 8122 01c8 402B     		cmp	r3, #64
 8123 01ca 07D1     		bne	.L779
 8124 01cc 7B68     		ldr	r3, [r7, #4]
 8125 01ce 1B68     		ldr	r3, [r3]
 8126 01d0 6FF04002 		mvn	r2, #64
 8127 01d4 1A61     		str	r2, [r3, #16]
 8128 01d6 7868     		ldr	r0, [r7, #4]
 8129 01d8 FFF7FEFF 		bl	HAL_TIM_TriggerCallback
 8130              	.L779:
 8131 01dc 7B68     		ldr	r3, [r7, #4]
 8132 01de 1B68     		ldr	r3, [r3]
 8133 01e0 1B69     		ldr	r3, [r3, #16]
 8134 01e2 03F02003 		and	r3, r3, #32
 8135 01e6 202B     		cmp	r3, #32
 8136 01e8 0ED1     		bne	.L781
 8137 01ea 7B68     		ldr	r3, [r7, #4]
 8138 01ec 1B68     		ldr	r3, [r3]
 8139 01ee DB68     		ldr	r3, [r3, #12]
 8140 01f0 03F02003 		and	r3, r3, #32
 8141 01f4 202B     		cmp	r3, #32
 8142 01f6 07D1     		bne	.L781
 8143 01f8 7B68     		ldr	r3, [r7, #4]
 8144 01fa 1B68     		ldr	r3, [r3]
 8145 01fc 6FF02002 		mvn	r2, #32
 8146 0200 1A61     		str	r2, [r3, #16]
 8147 0202 7868     		ldr	r0, [r7, #4]
 8148 0204 FFF7FEFF 		bl	HAL_TIMEx_CommutCallback
 8149              	.L781:
 8150 0208 00BF     		nop
 8151 020a 0837     		adds	r7, r7, #8
 8152 020c BD46     		mov	sp, r7
 8153              		@ sp needed
 8154 020e 80BD     		pop	{r7, pc}
ARM GAS  C:\Users\user\AppData\Local\Temp\ccrDHgJ5.s 			page 142


 8156              		.section	.text.HAL_TIM_OC_ConfigChannel,"ax",%progbits
 8157              		.align	1
 8158              		.global	HAL_TIM_OC_ConfigChannel
 8159              		.syntax unified
 8160              		.thumb
 8161              		.thumb_func
 8163              	HAL_TIM_OC_ConfigChannel:
 8164              		@ args = 0, pretend = 0, frame = 24
 8165              		@ frame_needed = 1, uses_anonymous_args = 0
 8166 0000 80B5     		push	{r7, lr}
 8167 0002 86B0     		sub	sp, sp, #24
 8168 0004 00AF     		add	r7, sp, #0
 8169 0006 F860     		str	r0, [r7, #12]
 8170 0008 B960     		str	r1, [r7, #8]
 8171 000a 7A60     		str	r2, [r7, #4]
 8172 000c 0023     		movs	r3, #0
 8173 000e FB75     		strb	r3, [r7, #23]
 8174 0010 FB68     		ldr	r3, [r7, #12]
 8175 0012 93F83C30 		ldrb	r3, [r3, #60]	@ zero_extendqisi2
 8176 0016 012B     		cmp	r3, #1
 8177 0018 01D1     		bne	.L783
 8178 001a 0223     		movs	r3, #2
 8179 001c 48E0     		b	.L784
 8180              	.L783:
 8181 001e FB68     		ldr	r3, [r7, #12]
 8182 0020 0122     		movs	r2, #1
 8183 0022 83F83C20 		strb	r2, [r3, #60]
 8184 0026 7B68     		ldr	r3, [r7, #4]
 8185 0028 0C2B     		cmp	r3, #12
 8186 002a 39D8     		bhi	.L785
 8187 002c 01A2     		adr	r2, .L787
 8188 002e 52F823F0 		ldr	pc, [r2, r3, lsl #2]
 8189 0032 00BF     		.p2align 2
 8190              	.L787:
 8191 0034 69000000 		.word	.L790+1
 8192 0038 A1000000 		.word	.L785+1
 8193 003c A1000000 		.word	.L785+1
 8194 0040 A1000000 		.word	.L785+1
 8195 0044 77000000 		.word	.L789+1
 8196 0048 A1000000 		.word	.L785+1
 8197 004c A1000000 		.word	.L785+1
 8198 0050 A1000000 		.word	.L785+1
 8199 0054 85000000 		.word	.L788+1
 8200 0058 A1000000 		.word	.L785+1
 8201 005c A1000000 		.word	.L785+1
 8202 0060 A1000000 		.word	.L785+1
 8203 0064 93000000 		.word	.L786+1
 8204              		.p2align 1
 8205              	.L790:
 8206 0068 FB68     		ldr	r3, [r7, #12]
 8207 006a 1B68     		ldr	r3, [r3]
 8208 006c B968     		ldr	r1, [r7, #8]
 8209 006e 1846     		mov	r0, r3
 8210 0070 FFF7FEFF 		bl	TIM_OC1_SetConfig
 8211 0074 17E0     		b	.L791
 8212              	.L789:
 8213 0076 FB68     		ldr	r3, [r7, #12]
ARM GAS  C:\Users\user\AppData\Local\Temp\ccrDHgJ5.s 			page 143


 8214 0078 1B68     		ldr	r3, [r3]
 8215 007a B968     		ldr	r1, [r7, #8]
 8216 007c 1846     		mov	r0, r3
 8217 007e FFF7FEFF 		bl	TIM_OC2_SetConfig
 8218 0082 10E0     		b	.L791
 8219              	.L788:
 8220 0084 FB68     		ldr	r3, [r7, #12]
 8221 0086 1B68     		ldr	r3, [r3]
 8222 0088 B968     		ldr	r1, [r7, #8]
 8223 008a 1846     		mov	r0, r3
 8224 008c FFF7FEFF 		bl	TIM_OC3_SetConfig
 8225 0090 09E0     		b	.L791
 8226              	.L786:
 8227 0092 FB68     		ldr	r3, [r7, #12]
 8228 0094 1B68     		ldr	r3, [r3]
 8229 0096 B968     		ldr	r1, [r7, #8]
 8230 0098 1846     		mov	r0, r3
 8231 009a FFF7FEFF 		bl	TIM_OC4_SetConfig
 8232 009e 02E0     		b	.L791
 8233              	.L785:
 8234 00a0 0123     		movs	r3, #1
 8235 00a2 FB75     		strb	r3, [r7, #23]
 8236 00a4 00BF     		nop
 8237              	.L791:
 8238 00a6 FB68     		ldr	r3, [r7, #12]
 8239 00a8 0022     		movs	r2, #0
 8240 00aa 83F83C20 		strb	r2, [r3, #60]
 8241 00ae FB7D     		ldrb	r3, [r7, #23]	@ zero_extendqisi2
 8242              	.L784:
 8243 00b0 1846     		mov	r0, r3
 8244 00b2 1837     		adds	r7, r7, #24
 8245 00b4 BD46     		mov	sp, r7
 8246              		@ sp needed
 8247 00b6 80BD     		pop	{r7, pc}
 8249              		.section	.text.HAL_TIM_IC_ConfigChannel,"ax",%progbits
 8250              		.align	1
 8251              		.global	HAL_TIM_IC_ConfigChannel
 8252              		.syntax unified
 8253              		.thumb
 8254              		.thumb_func
 8256              	HAL_TIM_IC_ConfigChannel:
 8257              		@ args = 0, pretend = 0, frame = 24
 8258              		@ frame_needed = 1, uses_anonymous_args = 0
 8259 0000 80B5     		push	{r7, lr}
 8260 0002 86B0     		sub	sp, sp, #24
 8261 0004 00AF     		add	r7, sp, #0
 8262 0006 F860     		str	r0, [r7, #12]
 8263 0008 B960     		str	r1, [r7, #8]
 8264 000a 7A60     		str	r2, [r7, #4]
 8265 000c 0023     		movs	r3, #0
 8266 000e FB75     		strb	r3, [r7, #23]
 8267 0010 FB68     		ldr	r3, [r7, #12]
 8268 0012 93F83C30 		ldrb	r3, [r3, #60]	@ zero_extendqisi2
 8269 0016 012B     		cmp	r3, #1
 8270 0018 01D1     		bne	.L793
 8271 001a 0223     		movs	r3, #2
 8272 001c 88E0     		b	.L794
ARM GAS  C:\Users\user\AppData\Local\Temp\ccrDHgJ5.s 			page 144


 8273              	.L793:
 8274 001e FB68     		ldr	r3, [r7, #12]
 8275 0020 0122     		movs	r2, #1
 8276 0022 83F83C20 		strb	r2, [r3, #60]
 8277 0026 7B68     		ldr	r3, [r7, #4]
 8278 0028 002B     		cmp	r3, #0
 8279 002a 1BD1     		bne	.L795
 8280 002c FB68     		ldr	r3, [r7, #12]
 8281 002e 1868     		ldr	r0, [r3]
 8282 0030 BB68     		ldr	r3, [r7, #8]
 8283 0032 1968     		ldr	r1, [r3]
 8284 0034 BB68     		ldr	r3, [r7, #8]
 8285 0036 5A68     		ldr	r2, [r3, #4]
 8286 0038 BB68     		ldr	r3, [r7, #8]
 8287 003a DB68     		ldr	r3, [r3, #12]
 8288 003c FFF7FEFF 		bl	TIM_TI1_SetConfig
 8289 0040 FB68     		ldr	r3, [r7, #12]
 8290 0042 1B68     		ldr	r3, [r3]
 8291 0044 9A69     		ldr	r2, [r3, #24]
 8292 0046 FB68     		ldr	r3, [r7, #12]
 8293 0048 1B68     		ldr	r3, [r3]
 8294 004a 22F00C02 		bic	r2, r2, #12
 8295 004e 9A61     		str	r2, [r3, #24]
 8296 0050 FB68     		ldr	r3, [r7, #12]
 8297 0052 1B68     		ldr	r3, [r3]
 8298 0054 9969     		ldr	r1, [r3, #24]
 8299 0056 BB68     		ldr	r3, [r7, #8]
 8300 0058 9A68     		ldr	r2, [r3, #8]
 8301 005a FB68     		ldr	r3, [r7, #12]
 8302 005c 1B68     		ldr	r3, [r3]
 8303 005e 0A43     		orrs	r2, r2, r1
 8304 0060 9A61     		str	r2, [r3, #24]
 8305 0062 60E0     		b	.L796
 8306              	.L795:
 8307 0064 7B68     		ldr	r3, [r7, #4]
 8308 0066 042B     		cmp	r3, #4
 8309 0068 1CD1     		bne	.L797
 8310 006a FB68     		ldr	r3, [r7, #12]
 8311 006c 1868     		ldr	r0, [r3]
 8312 006e BB68     		ldr	r3, [r7, #8]
 8313 0070 1968     		ldr	r1, [r3]
 8314 0072 BB68     		ldr	r3, [r7, #8]
 8315 0074 5A68     		ldr	r2, [r3, #4]
 8316 0076 BB68     		ldr	r3, [r7, #8]
 8317 0078 DB68     		ldr	r3, [r3, #12]
 8318 007a FFF7FEFF 		bl	TIM_TI2_SetConfig
 8319 007e FB68     		ldr	r3, [r7, #12]
 8320 0080 1B68     		ldr	r3, [r3]
 8321 0082 9A69     		ldr	r2, [r3, #24]
 8322 0084 FB68     		ldr	r3, [r7, #12]
 8323 0086 1B68     		ldr	r3, [r3]
 8324 0088 22F44062 		bic	r2, r2, #3072
 8325 008c 9A61     		str	r2, [r3, #24]
 8326 008e FB68     		ldr	r3, [r7, #12]
 8327 0090 1B68     		ldr	r3, [r3]
 8328 0092 9969     		ldr	r1, [r3, #24]
 8329 0094 BB68     		ldr	r3, [r7, #8]
ARM GAS  C:\Users\user\AppData\Local\Temp\ccrDHgJ5.s 			page 145


 8330 0096 9B68     		ldr	r3, [r3, #8]
 8331 0098 1A02     		lsls	r2, r3, #8
 8332 009a FB68     		ldr	r3, [r7, #12]
 8333 009c 1B68     		ldr	r3, [r3]
 8334 009e 0A43     		orrs	r2, r2, r1
 8335 00a0 9A61     		str	r2, [r3, #24]
 8336 00a2 40E0     		b	.L796
 8337              	.L797:
 8338 00a4 7B68     		ldr	r3, [r7, #4]
 8339 00a6 082B     		cmp	r3, #8
 8340 00a8 1BD1     		bne	.L798
 8341 00aa FB68     		ldr	r3, [r7, #12]
 8342 00ac 1868     		ldr	r0, [r3]
 8343 00ae BB68     		ldr	r3, [r7, #8]
 8344 00b0 1968     		ldr	r1, [r3]
 8345 00b2 BB68     		ldr	r3, [r7, #8]
 8346 00b4 5A68     		ldr	r2, [r3, #4]
 8347 00b6 BB68     		ldr	r3, [r7, #8]
 8348 00b8 DB68     		ldr	r3, [r3, #12]
 8349 00ba FFF7FEFF 		bl	TIM_TI3_SetConfig
 8350 00be FB68     		ldr	r3, [r7, #12]
 8351 00c0 1B68     		ldr	r3, [r3]
 8352 00c2 DA69     		ldr	r2, [r3, #28]
 8353 00c4 FB68     		ldr	r3, [r7, #12]
 8354 00c6 1B68     		ldr	r3, [r3]
 8355 00c8 22F00C02 		bic	r2, r2, #12
 8356 00cc DA61     		str	r2, [r3, #28]
 8357 00ce FB68     		ldr	r3, [r7, #12]
 8358 00d0 1B68     		ldr	r3, [r3]
 8359 00d2 D969     		ldr	r1, [r3, #28]
 8360 00d4 BB68     		ldr	r3, [r7, #8]
 8361 00d6 9A68     		ldr	r2, [r3, #8]
 8362 00d8 FB68     		ldr	r3, [r7, #12]
 8363 00da 1B68     		ldr	r3, [r3]
 8364 00dc 0A43     		orrs	r2, r2, r1
 8365 00de DA61     		str	r2, [r3, #28]
 8366 00e0 21E0     		b	.L796
 8367              	.L798:
 8368 00e2 7B68     		ldr	r3, [r7, #4]
 8369 00e4 0C2B     		cmp	r3, #12
 8370 00e6 1CD1     		bne	.L799
 8371 00e8 FB68     		ldr	r3, [r7, #12]
 8372 00ea 1868     		ldr	r0, [r3]
 8373 00ec BB68     		ldr	r3, [r7, #8]
 8374 00ee 1968     		ldr	r1, [r3]
 8375 00f0 BB68     		ldr	r3, [r7, #8]
 8376 00f2 5A68     		ldr	r2, [r3, #4]
 8377 00f4 BB68     		ldr	r3, [r7, #8]
 8378 00f6 DB68     		ldr	r3, [r3, #12]
 8379 00f8 FFF7FEFF 		bl	TIM_TI4_SetConfig
 8380 00fc FB68     		ldr	r3, [r7, #12]
 8381 00fe 1B68     		ldr	r3, [r3]
 8382 0100 DA69     		ldr	r2, [r3, #28]
 8383 0102 FB68     		ldr	r3, [r7, #12]
 8384 0104 1B68     		ldr	r3, [r3]
 8385 0106 22F44062 		bic	r2, r2, #3072
 8386 010a DA61     		str	r2, [r3, #28]
ARM GAS  C:\Users\user\AppData\Local\Temp\ccrDHgJ5.s 			page 146


 8387 010c FB68     		ldr	r3, [r7, #12]
 8388 010e 1B68     		ldr	r3, [r3]
 8389 0110 D969     		ldr	r1, [r3, #28]
 8390 0112 BB68     		ldr	r3, [r7, #8]
 8391 0114 9B68     		ldr	r3, [r3, #8]
 8392 0116 1A02     		lsls	r2, r3, #8
 8393 0118 FB68     		ldr	r3, [r7, #12]
 8394 011a 1B68     		ldr	r3, [r3]
 8395 011c 0A43     		orrs	r2, r2, r1
 8396 011e DA61     		str	r2, [r3, #28]
 8397 0120 01E0     		b	.L796
 8398              	.L799:
 8399 0122 0123     		movs	r3, #1
 8400 0124 FB75     		strb	r3, [r7, #23]
 8401              	.L796:
 8402 0126 FB68     		ldr	r3, [r7, #12]
 8403 0128 0022     		movs	r2, #0
 8404 012a 83F83C20 		strb	r2, [r3, #60]
 8405 012e FB7D     		ldrb	r3, [r7, #23]	@ zero_extendqisi2
 8406              	.L794:
 8407 0130 1846     		mov	r0, r3
 8408 0132 1837     		adds	r7, r7, #24
 8409 0134 BD46     		mov	sp, r7
 8410              		@ sp needed
 8411 0136 80BD     		pop	{r7, pc}
 8413              		.section	.text.HAL_TIM_PWM_ConfigChannel,"ax",%progbits
 8414              		.align	1
 8415              		.global	HAL_TIM_PWM_ConfigChannel
 8416              		.syntax unified
 8417              		.thumb
 8418              		.thumb_func
 8420              	HAL_TIM_PWM_ConfigChannel:
 8421              		@ args = 0, pretend = 0, frame = 24
 8422              		@ frame_needed = 1, uses_anonymous_args = 0
 8423 0000 80B5     		push	{r7, lr}
 8424 0002 86B0     		sub	sp, sp, #24
 8425 0004 00AF     		add	r7, sp, #0
 8426 0006 F860     		str	r0, [r7, #12]
 8427 0008 B960     		str	r1, [r7, #8]
 8428 000a 7A60     		str	r2, [r7, #4]
 8429 000c 0023     		movs	r3, #0
 8430 000e FB75     		strb	r3, [r7, #23]
 8431 0010 FB68     		ldr	r3, [r7, #12]
 8432 0012 93F83C30 		ldrb	r3, [r3, #60]	@ zero_extendqisi2
 8433 0016 012B     		cmp	r3, #1
 8434 0018 01D1     		bne	.L801
 8435 001a 0223     		movs	r3, #2
 8436 001c AEE0     		b	.L802
 8437              	.L801:
 8438 001e FB68     		ldr	r3, [r7, #12]
 8439 0020 0122     		movs	r2, #1
 8440 0022 83F83C20 		strb	r2, [r3, #60]
 8441 0026 7B68     		ldr	r3, [r7, #4]
 8442 0028 0C2B     		cmp	r3, #12
 8443 002a 00F29F80 		bhi	.L803
 8444 002e 01A2     		adr	r2, .L805
 8445 0030 52F823F0 		ldr	pc, [r2, r3, lsl #2]
ARM GAS  C:\Users\user\AppData\Local\Temp\ccrDHgJ5.s 			page 147


 8446              		.p2align 2
 8447              	.L805:
 8448 0034 69000000 		.word	.L808+1
 8449 0038 6D010000 		.word	.L803+1
 8450 003c 6D010000 		.word	.L803+1
 8451 0040 6D010000 		.word	.L803+1
 8452 0044 A9000000 		.word	.L807+1
 8453 0048 6D010000 		.word	.L803+1
 8454 004c 6D010000 		.word	.L803+1
 8455 0050 6D010000 		.word	.L803+1
 8456 0054 EB000000 		.word	.L806+1
 8457 0058 6D010000 		.word	.L803+1
 8458 005c 6D010000 		.word	.L803+1
 8459 0060 6D010000 		.word	.L803+1
 8460 0064 2B010000 		.word	.L804+1
 8461              		.p2align 1
 8462              	.L808:
 8463 0068 FB68     		ldr	r3, [r7, #12]
 8464 006a 1B68     		ldr	r3, [r3]
 8465 006c B968     		ldr	r1, [r7, #8]
 8466 006e 1846     		mov	r0, r3
 8467 0070 FFF7FEFF 		bl	TIM_OC1_SetConfig
 8468 0074 FB68     		ldr	r3, [r7, #12]
 8469 0076 1B68     		ldr	r3, [r3]
 8470 0078 9A69     		ldr	r2, [r3, #24]
 8471 007a FB68     		ldr	r3, [r7, #12]
 8472 007c 1B68     		ldr	r3, [r3]
 8473 007e 42F00802 		orr	r2, r2, #8
 8474 0082 9A61     		str	r2, [r3, #24]
 8475 0084 FB68     		ldr	r3, [r7, #12]
 8476 0086 1B68     		ldr	r3, [r3]
 8477 0088 9A69     		ldr	r2, [r3, #24]
 8478 008a FB68     		ldr	r3, [r7, #12]
 8479 008c 1B68     		ldr	r3, [r3]
 8480 008e 22F00402 		bic	r2, r2, #4
 8481 0092 9A61     		str	r2, [r3, #24]
 8482 0094 FB68     		ldr	r3, [r7, #12]
 8483 0096 1B68     		ldr	r3, [r3]
 8484 0098 9969     		ldr	r1, [r3, #24]
 8485 009a BB68     		ldr	r3, [r7, #8]
 8486 009c 1A69     		ldr	r2, [r3, #16]
 8487 009e FB68     		ldr	r3, [r7, #12]
 8488 00a0 1B68     		ldr	r3, [r3]
 8489 00a2 0A43     		orrs	r2, r2, r1
 8490 00a4 9A61     		str	r2, [r3, #24]
 8491 00a6 64E0     		b	.L809
 8492              	.L807:
 8493 00a8 FB68     		ldr	r3, [r7, #12]
 8494 00aa 1B68     		ldr	r3, [r3]
 8495 00ac B968     		ldr	r1, [r7, #8]
 8496 00ae 1846     		mov	r0, r3
 8497 00b0 FFF7FEFF 		bl	TIM_OC2_SetConfig
 8498 00b4 FB68     		ldr	r3, [r7, #12]
 8499 00b6 1B68     		ldr	r3, [r3]
 8500 00b8 9A69     		ldr	r2, [r3, #24]
 8501 00ba FB68     		ldr	r3, [r7, #12]
 8502 00bc 1B68     		ldr	r3, [r3]
ARM GAS  C:\Users\user\AppData\Local\Temp\ccrDHgJ5.s 			page 148


 8503 00be 42F40062 		orr	r2, r2, #2048
 8504 00c2 9A61     		str	r2, [r3, #24]
 8505 00c4 FB68     		ldr	r3, [r7, #12]
 8506 00c6 1B68     		ldr	r3, [r3]
 8507 00c8 9A69     		ldr	r2, [r3, #24]
 8508 00ca FB68     		ldr	r3, [r7, #12]
 8509 00cc 1B68     		ldr	r3, [r3]
 8510 00ce 22F48062 		bic	r2, r2, #1024
 8511 00d2 9A61     		str	r2, [r3, #24]
 8512 00d4 FB68     		ldr	r3, [r7, #12]
 8513 00d6 1B68     		ldr	r3, [r3]
 8514 00d8 9969     		ldr	r1, [r3, #24]
 8515 00da BB68     		ldr	r3, [r7, #8]
 8516 00dc 1B69     		ldr	r3, [r3, #16]
 8517 00de 1A02     		lsls	r2, r3, #8
 8518 00e0 FB68     		ldr	r3, [r7, #12]
 8519 00e2 1B68     		ldr	r3, [r3]
 8520 00e4 0A43     		orrs	r2, r2, r1
 8521 00e6 9A61     		str	r2, [r3, #24]
 8522 00e8 43E0     		b	.L809
 8523              	.L806:
 8524 00ea FB68     		ldr	r3, [r7, #12]
 8525 00ec 1B68     		ldr	r3, [r3]
 8526 00ee B968     		ldr	r1, [r7, #8]
 8527 00f0 1846     		mov	r0, r3
 8528 00f2 FFF7FEFF 		bl	TIM_OC3_SetConfig
 8529 00f6 FB68     		ldr	r3, [r7, #12]
 8530 00f8 1B68     		ldr	r3, [r3]
 8531 00fa DA69     		ldr	r2, [r3, #28]
 8532 00fc FB68     		ldr	r3, [r7, #12]
 8533 00fe 1B68     		ldr	r3, [r3]
 8534 0100 42F00802 		orr	r2, r2, #8
 8535 0104 DA61     		str	r2, [r3, #28]
 8536 0106 FB68     		ldr	r3, [r7, #12]
 8537 0108 1B68     		ldr	r3, [r3]
 8538 010a DA69     		ldr	r2, [r3, #28]
 8539 010c FB68     		ldr	r3, [r7, #12]
 8540 010e 1B68     		ldr	r3, [r3]
 8541 0110 22F00402 		bic	r2, r2, #4
 8542 0114 DA61     		str	r2, [r3, #28]
 8543 0116 FB68     		ldr	r3, [r7, #12]
 8544 0118 1B68     		ldr	r3, [r3]
 8545 011a D969     		ldr	r1, [r3, #28]
 8546 011c BB68     		ldr	r3, [r7, #8]
 8547 011e 1A69     		ldr	r2, [r3, #16]
 8548 0120 FB68     		ldr	r3, [r7, #12]
 8549 0122 1B68     		ldr	r3, [r3]
 8550 0124 0A43     		orrs	r2, r2, r1
 8551 0126 DA61     		str	r2, [r3, #28]
 8552 0128 23E0     		b	.L809
 8553              	.L804:
 8554 012a FB68     		ldr	r3, [r7, #12]
 8555 012c 1B68     		ldr	r3, [r3]
 8556 012e B968     		ldr	r1, [r7, #8]
 8557 0130 1846     		mov	r0, r3
 8558 0132 FFF7FEFF 		bl	TIM_OC4_SetConfig
 8559 0136 FB68     		ldr	r3, [r7, #12]
ARM GAS  C:\Users\user\AppData\Local\Temp\ccrDHgJ5.s 			page 149


 8560 0138 1B68     		ldr	r3, [r3]
 8561 013a DA69     		ldr	r2, [r3, #28]
 8562 013c FB68     		ldr	r3, [r7, #12]
 8563 013e 1B68     		ldr	r3, [r3]
 8564 0140 42F40062 		orr	r2, r2, #2048
 8565 0144 DA61     		str	r2, [r3, #28]
 8566 0146 FB68     		ldr	r3, [r7, #12]
 8567 0148 1B68     		ldr	r3, [r3]
 8568 014a DA69     		ldr	r2, [r3, #28]
 8569 014c FB68     		ldr	r3, [r7, #12]
 8570 014e 1B68     		ldr	r3, [r3]
 8571 0150 22F48062 		bic	r2, r2, #1024
 8572 0154 DA61     		str	r2, [r3, #28]
 8573 0156 FB68     		ldr	r3, [r7, #12]
 8574 0158 1B68     		ldr	r3, [r3]
 8575 015a D969     		ldr	r1, [r3, #28]
 8576 015c BB68     		ldr	r3, [r7, #8]
 8577 015e 1B69     		ldr	r3, [r3, #16]
 8578 0160 1A02     		lsls	r2, r3, #8
 8579 0162 FB68     		ldr	r3, [r7, #12]
 8580 0164 1B68     		ldr	r3, [r3]
 8581 0166 0A43     		orrs	r2, r2, r1
 8582 0168 DA61     		str	r2, [r3, #28]
 8583 016a 02E0     		b	.L809
 8584              	.L803:
 8585 016c 0123     		movs	r3, #1
 8586 016e FB75     		strb	r3, [r7, #23]
 8587 0170 00BF     		nop
 8588              	.L809:
 8589 0172 FB68     		ldr	r3, [r7, #12]
 8590 0174 0022     		movs	r2, #0
 8591 0176 83F83C20 		strb	r2, [r3, #60]
 8592 017a FB7D     		ldrb	r3, [r7, #23]	@ zero_extendqisi2
 8593              	.L802:
 8594 017c 1846     		mov	r0, r3
 8595 017e 1837     		adds	r7, r7, #24
 8596 0180 BD46     		mov	sp, r7
 8597              		@ sp needed
 8598 0182 80BD     		pop	{r7, pc}
 8600              		.section	.text.HAL_TIM_OnePulse_ConfigChannel,"ax",%progbits
 8601              		.align	1
 8602              		.global	HAL_TIM_OnePulse_ConfigChannel
 8603              		.syntax unified
 8604              		.thumb
 8605              		.thumb_func
 8607              	HAL_TIM_OnePulse_ConfigChannel:
 8608              		@ args = 0, pretend = 0, frame = 48
 8609              		@ frame_needed = 1, uses_anonymous_args = 0
 8610 0000 80B5     		push	{r7, lr}
 8611 0002 8CB0     		sub	sp, sp, #48
 8612 0004 00AF     		add	r7, sp, #0
 8613 0006 F860     		str	r0, [r7, #12]
 8614 0008 B960     		str	r1, [r7, #8]
 8615 000a 7A60     		str	r2, [r7, #4]
 8616 000c 3B60     		str	r3, [r7]
 8617 000e 0023     		movs	r3, #0
 8618 0010 87F82F30 		strb	r3, [r7, #47]
ARM GAS  C:\Users\user\AppData\Local\Temp\ccrDHgJ5.s 			page 150


 8619 0014 7A68     		ldr	r2, [r7, #4]
 8620 0016 3B68     		ldr	r3, [r7]
 8621 0018 9A42     		cmp	r2, r3
 8622 001a 00F0BE80 		beq	.L811
 8623 001e FB68     		ldr	r3, [r7, #12]
 8624 0020 93F83C30 		ldrb	r3, [r3, #60]	@ zero_extendqisi2
 8625 0024 012B     		cmp	r3, #1
 8626 0026 01D1     		bne	.L812
 8627 0028 0223     		movs	r3, #2
 8628 002a B7E0     		b	.L822
 8629              	.L812:
 8630 002c FB68     		ldr	r3, [r7, #12]
 8631 002e 0122     		movs	r2, #1
 8632 0030 83F83C20 		strb	r2, [r3, #60]
 8633 0034 FB68     		ldr	r3, [r7, #12]
 8634 0036 0222     		movs	r2, #2
 8635 0038 83F83D20 		strb	r2, [r3, #61]
 8636 003c BB68     		ldr	r3, [r7, #8]
 8637 003e 1B68     		ldr	r3, [r3]
 8638 0040 3B61     		str	r3, [r7, #16]
 8639 0042 BB68     		ldr	r3, [r7, #8]
 8640 0044 5B68     		ldr	r3, [r3, #4]
 8641 0046 7B61     		str	r3, [r7, #20]
 8642 0048 BB68     		ldr	r3, [r7, #8]
 8643 004a 9B68     		ldr	r3, [r3, #8]
 8644 004c BB61     		str	r3, [r7, #24]
 8645 004e BB68     		ldr	r3, [r7, #8]
 8646 0050 DB68     		ldr	r3, [r3, #12]
 8647 0052 FB61     		str	r3, [r7, #28]
 8648 0054 BB68     		ldr	r3, [r7, #8]
 8649 0056 1B69     		ldr	r3, [r3, #16]
 8650 0058 7B62     		str	r3, [r7, #36]
 8651 005a BB68     		ldr	r3, [r7, #8]
 8652 005c 5B69     		ldr	r3, [r3, #20]
 8653 005e BB62     		str	r3, [r7, #40]
 8654 0060 7B68     		ldr	r3, [r7, #4]
 8655 0062 002B     		cmp	r3, #0
 8656 0064 03D0     		beq	.L814
 8657 0066 7B68     		ldr	r3, [r7, #4]
 8658 0068 042B     		cmp	r3, #4
 8659 006a 09D0     		beq	.L815
 8660 006c 11E0     		b	.L823
 8661              	.L814:
 8662 006e FB68     		ldr	r3, [r7, #12]
 8663 0070 1B68     		ldr	r3, [r3]
 8664 0072 07F11002 		add	r2, r7, #16
 8665 0076 1146     		mov	r1, r2
 8666 0078 1846     		mov	r0, r3
 8667 007a FFF7FEFF 		bl	TIM_OC1_SetConfig
 8668 007e 0CE0     		b	.L817
 8669              	.L815:
 8670 0080 FB68     		ldr	r3, [r7, #12]
 8671 0082 1B68     		ldr	r3, [r3]
 8672 0084 07F11002 		add	r2, r7, #16
 8673 0088 1146     		mov	r1, r2
 8674 008a 1846     		mov	r0, r3
 8675 008c FFF7FEFF 		bl	TIM_OC2_SetConfig
ARM GAS  C:\Users\user\AppData\Local\Temp\ccrDHgJ5.s 			page 151


 8676 0090 03E0     		b	.L817
 8677              	.L823:
 8678 0092 0123     		movs	r3, #1
 8679 0094 87F82F30 		strb	r3, [r7, #47]
 8680 0098 00BF     		nop
 8681              	.L817:
 8682 009a 97F82F30 		ldrb	r3, [r7, #47]	@ zero_extendqisi2
 8683 009e 002B     		cmp	r3, #0
 8684 00a0 70D1     		bne	.L818
 8685 00a2 3B68     		ldr	r3, [r7]
 8686 00a4 002B     		cmp	r3, #0
 8687 00a6 03D0     		beq	.L819
 8688 00a8 3B68     		ldr	r3, [r7]
 8689 00aa 042B     		cmp	r3, #4
 8690 00ac 33D0     		beq	.L820
 8691 00ae 65E0     		b	.L824
 8692              	.L819:
 8693 00b0 FB68     		ldr	r3, [r7, #12]
 8694 00b2 1868     		ldr	r0, [r3]
 8695 00b4 BB68     		ldr	r3, [r7, #8]
 8696 00b6 9969     		ldr	r1, [r3, #24]
 8697 00b8 BB68     		ldr	r3, [r7, #8]
 8698 00ba DA69     		ldr	r2, [r3, #28]
 8699 00bc BB68     		ldr	r3, [r7, #8]
 8700 00be 1B6A     		ldr	r3, [r3, #32]
 8701 00c0 FFF7FEFF 		bl	TIM_TI1_SetConfig
 8702 00c4 FB68     		ldr	r3, [r7, #12]
 8703 00c6 1B68     		ldr	r3, [r3]
 8704 00c8 9A69     		ldr	r2, [r3, #24]
 8705 00ca FB68     		ldr	r3, [r7, #12]
 8706 00cc 1B68     		ldr	r3, [r3]
 8707 00ce 22F00C02 		bic	r2, r2, #12
 8708 00d2 9A61     		str	r2, [r3, #24]
 8709 00d4 FB68     		ldr	r3, [r7, #12]
 8710 00d6 1B68     		ldr	r3, [r3]
 8711 00d8 9A68     		ldr	r2, [r3, #8]
 8712 00da FB68     		ldr	r3, [r7, #12]
 8713 00dc 1B68     		ldr	r3, [r3]
 8714 00de 22F07002 		bic	r2, r2, #112
 8715 00e2 9A60     		str	r2, [r3, #8]
 8716 00e4 FB68     		ldr	r3, [r7, #12]
 8717 00e6 1B68     		ldr	r3, [r3]
 8718 00e8 9A68     		ldr	r2, [r3, #8]
 8719 00ea FB68     		ldr	r3, [r7, #12]
 8720 00ec 1B68     		ldr	r3, [r3]
 8721 00ee 42F05002 		orr	r2, r2, #80
 8722 00f2 9A60     		str	r2, [r3, #8]
 8723 00f4 FB68     		ldr	r3, [r7, #12]
 8724 00f6 1B68     		ldr	r3, [r3]
 8725 00f8 9A68     		ldr	r2, [r3, #8]
 8726 00fa FB68     		ldr	r3, [r7, #12]
 8727 00fc 1B68     		ldr	r3, [r3]
 8728 00fe 22F00702 		bic	r2, r2, #7
 8729 0102 9A60     		str	r2, [r3, #8]
 8730 0104 FB68     		ldr	r3, [r7, #12]
 8731 0106 1B68     		ldr	r3, [r3]
 8732 0108 9A68     		ldr	r2, [r3, #8]
ARM GAS  C:\Users\user\AppData\Local\Temp\ccrDHgJ5.s 			page 152


 8733 010a FB68     		ldr	r3, [r7, #12]
 8734 010c 1B68     		ldr	r3, [r3]
 8735 010e 42F00602 		orr	r2, r2, #6
 8736 0112 9A60     		str	r2, [r3, #8]
 8737 0114 36E0     		b	.L818
 8738              	.L820:
 8739 0116 FB68     		ldr	r3, [r7, #12]
 8740 0118 1868     		ldr	r0, [r3]
 8741 011a BB68     		ldr	r3, [r7, #8]
 8742 011c 9969     		ldr	r1, [r3, #24]
 8743 011e BB68     		ldr	r3, [r7, #8]
 8744 0120 DA69     		ldr	r2, [r3, #28]
 8745 0122 BB68     		ldr	r3, [r7, #8]
 8746 0124 1B6A     		ldr	r3, [r3, #32]
 8747 0126 FFF7FEFF 		bl	TIM_TI2_SetConfig
 8748 012a FB68     		ldr	r3, [r7, #12]
 8749 012c 1B68     		ldr	r3, [r3]
 8750 012e 9A69     		ldr	r2, [r3, #24]
 8751 0130 FB68     		ldr	r3, [r7, #12]
 8752 0132 1B68     		ldr	r3, [r3]
 8753 0134 22F44062 		bic	r2, r2, #3072
 8754 0138 9A61     		str	r2, [r3, #24]
 8755 013a FB68     		ldr	r3, [r7, #12]
 8756 013c 1B68     		ldr	r3, [r3]
 8757 013e 9A68     		ldr	r2, [r3, #8]
 8758 0140 FB68     		ldr	r3, [r7, #12]
 8759 0142 1B68     		ldr	r3, [r3]
 8760 0144 22F07002 		bic	r2, r2, #112
 8761 0148 9A60     		str	r2, [r3, #8]
 8762 014a FB68     		ldr	r3, [r7, #12]
 8763 014c 1B68     		ldr	r3, [r3]
 8764 014e 9A68     		ldr	r2, [r3, #8]
 8765 0150 FB68     		ldr	r3, [r7, #12]
 8766 0152 1B68     		ldr	r3, [r3]
 8767 0154 42F06002 		orr	r2, r2, #96
 8768 0158 9A60     		str	r2, [r3, #8]
 8769 015a FB68     		ldr	r3, [r7, #12]
 8770 015c 1B68     		ldr	r3, [r3]
 8771 015e 9A68     		ldr	r2, [r3, #8]
 8772 0160 FB68     		ldr	r3, [r7, #12]
 8773 0162 1B68     		ldr	r3, [r3]
 8774 0164 22F00702 		bic	r2, r2, #7
 8775 0168 9A60     		str	r2, [r3, #8]
 8776 016a FB68     		ldr	r3, [r7, #12]
 8777 016c 1B68     		ldr	r3, [r3]
 8778 016e 9A68     		ldr	r2, [r3, #8]
 8779 0170 FB68     		ldr	r3, [r7, #12]
 8780 0172 1B68     		ldr	r3, [r3]
 8781 0174 42F00602 		orr	r2, r2, #6
 8782 0178 9A60     		str	r2, [r3, #8]
 8783 017a 03E0     		b	.L818
 8784              	.L824:
 8785 017c 0123     		movs	r3, #1
 8786 017e 87F82F30 		strb	r3, [r7, #47]
 8787 0182 00BF     		nop
 8788              	.L818:
 8789 0184 FB68     		ldr	r3, [r7, #12]
ARM GAS  C:\Users\user\AppData\Local\Temp\ccrDHgJ5.s 			page 153


 8790 0186 0122     		movs	r2, #1
 8791 0188 83F83D20 		strb	r2, [r3, #61]
 8792 018c FB68     		ldr	r3, [r7, #12]
 8793 018e 0022     		movs	r2, #0
 8794 0190 83F83C20 		strb	r2, [r3, #60]
 8795 0194 97F82F30 		ldrb	r3, [r7, #47]	@ zero_extendqisi2
 8796 0198 00E0     		b	.L822
 8797              	.L811:
 8798 019a 0123     		movs	r3, #1
 8799              	.L822:
 8800 019c 1846     		mov	r0, r3
 8801 019e 3037     		adds	r7, r7, #48
 8802 01a0 BD46     		mov	sp, r7
 8803              		@ sp needed
 8804 01a2 80BD     		pop	{r7, pc}
 8806              		.section	.text.HAL_TIM_DMABurst_WriteStart,"ax",%progbits
 8807              		.align	1
 8808              		.global	HAL_TIM_DMABurst_WriteStart
 8809              		.syntax unified
 8810              		.thumb
 8811              		.thumb_func
 8813              	HAL_TIM_DMABurst_WriteStart:
 8814              		@ args = 4, pretend = 0, frame = 24
 8815              		@ frame_needed = 1, uses_anonymous_args = 0
 8816 0000 80B5     		push	{r7, lr}
 8817 0002 88B0     		sub	sp, sp, #32
 8818 0004 02AF     		add	r7, sp, #8
 8819 0006 F860     		str	r0, [r7, #12]
 8820 0008 B960     		str	r1, [r7, #8]
 8821 000a 7A60     		str	r2, [r7, #4]
 8822 000c 3B60     		str	r3, [r7]
 8823 000e 3B6A     		ldr	r3, [r7, #32]
 8824 0010 1B0A     		lsrs	r3, r3, #8
 8825 0012 0133     		adds	r3, r3, #1
 8826 0014 0193     		str	r3, [sp, #4]
 8827 0016 3B6A     		ldr	r3, [r7, #32]
 8828 0018 0093     		str	r3, [sp]
 8829 001a 3B68     		ldr	r3, [r7]
 8830 001c 7A68     		ldr	r2, [r7, #4]
 8831 001e B968     		ldr	r1, [r7, #8]
 8832 0020 F868     		ldr	r0, [r7, #12]
 8833 0022 FFF7FEFF 		bl	HAL_TIM_DMABurst_MultiWriteStart
 8834 0026 0346     		mov	r3, r0
 8835 0028 FB75     		strb	r3, [r7, #23]
 8836 002a FB7D     		ldrb	r3, [r7, #23]	@ zero_extendqisi2
 8837 002c 1846     		mov	r0, r3
 8838 002e 1837     		adds	r7, r7, #24
 8839 0030 BD46     		mov	sp, r7
 8840              		@ sp needed
 8841 0032 80BD     		pop	{r7, pc}
 8843              		.section	.text.HAL_TIM_DMABurst_MultiWriteStart,"ax",%progbits
 8844              		.align	1
 8845              		.global	HAL_TIM_DMABurst_MultiWriteStart
 8846              		.syntax unified
 8847              		.thumb
 8848              		.thumb_func
 8850              	HAL_TIM_DMABurst_MultiWriteStart:
ARM GAS  C:\Users\user\AppData\Local\Temp\ccrDHgJ5.s 			page 154


 8851              		@ args = 8, pretend = 0, frame = 24
 8852              		@ frame_needed = 1, uses_anonymous_args = 0
 8853 0000 80B5     		push	{r7, lr}
 8854 0002 86B0     		sub	sp, sp, #24
 8855 0004 00AF     		add	r7, sp, #0
 8856 0006 F860     		str	r0, [r7, #12]
 8857 0008 B960     		str	r1, [r7, #8]
 8858 000a 7A60     		str	r2, [r7, #4]
 8859 000c 3B60     		str	r3, [r7]
 8860 000e 0023     		movs	r3, #0
 8861 0010 FB75     		strb	r3, [r7, #23]
 8862 0012 FB68     		ldr	r3, [r7, #12]
 8863 0014 93F84630 		ldrb	r3, [r3, #70]
 8864 0018 DBB2     		uxtb	r3, r3
 8865 001a 022B     		cmp	r3, #2
 8866 001c 01D1     		bne	.L828
 8867 001e 0223     		movs	r3, #2
 8868 0020 2BE1     		b	.L829
 8869              	.L828:
 8870 0022 FB68     		ldr	r3, [r7, #12]
 8871 0024 93F84630 		ldrb	r3, [r3, #70]
 8872 0028 DBB2     		uxtb	r3, r3
 8873 002a 012B     		cmp	r3, #1
 8874 002c 0BD1     		bne	.L830
 8875 002e 3B68     		ldr	r3, [r7]
 8876 0030 002B     		cmp	r3, #0
 8877 0032 04D1     		bne	.L831
 8878 0034 3B6A     		ldr	r3, [r7, #32]
 8879 0036 002B     		cmp	r3, #0
 8880 0038 01D0     		beq	.L831
 8881 003a 0123     		movs	r3, #1
 8882 003c 1DE1     		b	.L829
 8883              	.L831:
 8884 003e FB68     		ldr	r3, [r7, #12]
 8885 0040 0222     		movs	r2, #2
 8886 0042 83F84620 		strb	r2, [r3, #70]
 8887              	.L830:
 8888 0046 7B68     		ldr	r3, [r7, #4]
 8889 0048 B3F5804F 		cmp	r3, #16384
 8890 004c 00F0D880 		beq	.L832
 8891 0050 7B68     		ldr	r3, [r7, #4]
 8892 0052 B3F5804F 		cmp	r3, #16384
 8893 0056 00F2EE80 		bhi	.L833
 8894 005a 7B68     		ldr	r3, [r7, #4]
 8895 005c B3F5005F 		cmp	r3, #8192
 8896 0060 00F0B380 		beq	.L834
 8897 0064 7B68     		ldr	r3, [r7, #4]
 8898 0066 B3F5005F 		cmp	r3, #8192
 8899 006a 00F2E480 		bhi	.L833
 8900 006e 7B68     		ldr	r3, [r7, #4]
 8901 0070 B3F5805F 		cmp	r3, #4096
 8902 0074 00F08E80 		beq	.L835
 8903 0078 7B68     		ldr	r3, [r7, #4]
 8904 007a B3F5805F 		cmp	r3, #4096
 8905 007e 00F2DA80 		bhi	.L833
 8906 0082 7B68     		ldr	r3, [r7, #4]
 8907 0084 B3F5006F 		cmp	r3, #2048
ARM GAS  C:\Users\user\AppData\Local\Temp\ccrDHgJ5.s 			page 155


 8908 0088 69D0     		beq	.L836
 8909 008a 7B68     		ldr	r3, [r7, #4]
 8910 008c B3F5006F 		cmp	r3, #2048
 8911 0090 00F2D180 		bhi	.L833
 8912 0094 7B68     		ldr	r3, [r7, #4]
 8913 0096 B3F5806F 		cmp	r3, #1024
 8914 009a 45D0     		beq	.L837
 8915 009c 7B68     		ldr	r3, [r7, #4]
 8916 009e B3F5806F 		cmp	r3, #1024
 8917 00a2 00F2C880 		bhi	.L833
 8918 00a6 7B68     		ldr	r3, [r7, #4]
 8919 00a8 B3F5807F 		cmp	r3, #256
 8920 00ac 04D0     		beq	.L838
 8921 00ae 7B68     		ldr	r3, [r7, #4]
 8922 00b0 B3F5007F 		cmp	r3, #512
 8923 00b4 1CD0     		beq	.L839
 8924 00b6 BEE0     		b	.L833
 8925              	.L838:
 8926 00b8 FB68     		ldr	r3, [r7, #12]
 8927 00ba 1B6A     		ldr	r3, [r3, #32]
 8928 00bc 714A     		ldr	r2, .L856
 8929 00be DA63     		str	r2, [r3, #60]
 8930 00c0 FB68     		ldr	r3, [r7, #12]
 8931 00c2 1B6A     		ldr	r3, [r3, #32]
 8932 00c4 704A     		ldr	r2, .L856+4
 8933 00c6 1A64     		str	r2, [r3, #64]
 8934 00c8 FB68     		ldr	r3, [r7, #12]
 8935 00ca 1B6A     		ldr	r3, [r3, #32]
 8936 00cc 6F4A     		ldr	r2, .L856+8
 8937 00ce DA64     		str	r2, [r3, #76]
 8938 00d0 FB68     		ldr	r3, [r7, #12]
 8939 00d2 186A     		ldr	r0, [r3, #32]
 8940 00d4 3968     		ldr	r1, [r7]
 8941 00d6 FB68     		ldr	r3, [r7, #12]
 8942 00d8 1B68     		ldr	r3, [r3]
 8943 00da 4C33     		adds	r3, r3, #76
 8944 00dc 1A46     		mov	r2, r3
 8945 00de 7B6A     		ldr	r3, [r7, #36]
 8946 00e0 FFF7FEFF 		bl	HAL_DMA_Start_IT
 8947 00e4 0346     		mov	r3, r0
 8948 00e6 002B     		cmp	r3, #0
 8949 00e8 00F0A880 		beq	.L849
 8950 00ec 0123     		movs	r3, #1
 8951 00ee C4E0     		b	.L829
 8952              	.L839:
 8953 00f0 FB68     		ldr	r3, [r7, #12]
 8954 00f2 5B6A     		ldr	r3, [r3, #36]
 8955 00f4 664A     		ldr	r2, .L856+12
 8956 00f6 DA63     		str	r2, [r3, #60]
 8957 00f8 FB68     		ldr	r3, [r7, #12]
 8958 00fa 5B6A     		ldr	r3, [r3, #36]
 8959 00fc 654A     		ldr	r2, .L856+16
 8960 00fe 1A64     		str	r2, [r3, #64]
 8961 0100 FB68     		ldr	r3, [r7, #12]
 8962 0102 5B6A     		ldr	r3, [r3, #36]
 8963 0104 614A     		ldr	r2, .L856+8
 8964 0106 DA64     		str	r2, [r3, #76]
ARM GAS  C:\Users\user\AppData\Local\Temp\ccrDHgJ5.s 			page 156


 8965 0108 FB68     		ldr	r3, [r7, #12]
 8966 010a 586A     		ldr	r0, [r3, #36]
 8967 010c 3968     		ldr	r1, [r7]
 8968 010e FB68     		ldr	r3, [r7, #12]
 8969 0110 1B68     		ldr	r3, [r3]
 8970 0112 4C33     		adds	r3, r3, #76
 8971 0114 1A46     		mov	r2, r3
 8972 0116 7B6A     		ldr	r3, [r7, #36]
 8973 0118 FFF7FEFF 		bl	HAL_DMA_Start_IT
 8974 011c 0346     		mov	r3, r0
 8975 011e 002B     		cmp	r3, #0
 8976 0120 00F08E80 		beq	.L850
 8977 0124 0123     		movs	r3, #1
 8978 0126 A8E0     		b	.L829
 8979              	.L837:
 8980 0128 FB68     		ldr	r3, [r7, #12]
 8981 012a 9B6A     		ldr	r3, [r3, #40]
 8982 012c 584A     		ldr	r2, .L856+12
 8983 012e DA63     		str	r2, [r3, #60]
 8984 0130 FB68     		ldr	r3, [r7, #12]
 8985 0132 9B6A     		ldr	r3, [r3, #40]
 8986 0134 574A     		ldr	r2, .L856+16
 8987 0136 1A64     		str	r2, [r3, #64]
 8988 0138 FB68     		ldr	r3, [r7, #12]
 8989 013a 9B6A     		ldr	r3, [r3, #40]
 8990 013c 534A     		ldr	r2, .L856+8
 8991 013e DA64     		str	r2, [r3, #76]
 8992 0140 FB68     		ldr	r3, [r7, #12]
 8993 0142 986A     		ldr	r0, [r3, #40]
 8994 0144 3968     		ldr	r1, [r7]
 8995 0146 FB68     		ldr	r3, [r7, #12]
 8996 0148 1B68     		ldr	r3, [r3]
 8997 014a 4C33     		adds	r3, r3, #76
 8998 014c 1A46     		mov	r2, r3
 8999 014e 7B6A     		ldr	r3, [r7, #36]
 9000 0150 FFF7FEFF 		bl	HAL_DMA_Start_IT
 9001 0154 0346     		mov	r3, r0
 9002 0156 002B     		cmp	r3, #0
 9003 0158 74D0     		beq	.L851
 9004 015a 0123     		movs	r3, #1
 9005 015c 8DE0     		b	.L829
 9006              	.L836:
 9007 015e FB68     		ldr	r3, [r7, #12]
 9008 0160 DB6A     		ldr	r3, [r3, #44]
 9009 0162 4B4A     		ldr	r2, .L856+12
 9010 0164 DA63     		str	r2, [r3, #60]
 9011 0166 FB68     		ldr	r3, [r7, #12]
 9012 0168 DB6A     		ldr	r3, [r3, #44]
 9013 016a 4A4A     		ldr	r2, .L856+16
 9014 016c 1A64     		str	r2, [r3, #64]
 9015 016e FB68     		ldr	r3, [r7, #12]
 9016 0170 DB6A     		ldr	r3, [r3, #44]
 9017 0172 464A     		ldr	r2, .L856+8
 9018 0174 DA64     		str	r2, [r3, #76]
 9019 0176 FB68     		ldr	r3, [r7, #12]
 9020 0178 D86A     		ldr	r0, [r3, #44]
 9021 017a 3968     		ldr	r1, [r7]
ARM GAS  C:\Users\user\AppData\Local\Temp\ccrDHgJ5.s 			page 157


 9022 017c FB68     		ldr	r3, [r7, #12]
 9023 017e 1B68     		ldr	r3, [r3]
 9024 0180 4C33     		adds	r3, r3, #76
 9025 0182 1A46     		mov	r2, r3
 9026 0184 7B6A     		ldr	r3, [r7, #36]
 9027 0186 FFF7FEFF 		bl	HAL_DMA_Start_IT
 9028 018a 0346     		mov	r3, r0
 9029 018c 002B     		cmp	r3, #0
 9030 018e 5BD0     		beq	.L852
 9031 0190 0123     		movs	r3, #1
 9032 0192 72E0     		b	.L829
 9033              	.L835:
 9034 0194 FB68     		ldr	r3, [r7, #12]
 9035 0196 1B6B     		ldr	r3, [r3, #48]
 9036 0198 3D4A     		ldr	r2, .L856+12
 9037 019a DA63     		str	r2, [r3, #60]
 9038 019c FB68     		ldr	r3, [r7, #12]
 9039 019e 1B6B     		ldr	r3, [r3, #48]
 9040 01a0 3C4A     		ldr	r2, .L856+16
 9041 01a2 1A64     		str	r2, [r3, #64]
 9042 01a4 FB68     		ldr	r3, [r7, #12]
 9043 01a6 1B6B     		ldr	r3, [r3, #48]
 9044 01a8 384A     		ldr	r2, .L856+8
 9045 01aa DA64     		str	r2, [r3, #76]
 9046 01ac FB68     		ldr	r3, [r7, #12]
 9047 01ae 186B     		ldr	r0, [r3, #48]
 9048 01b0 3968     		ldr	r1, [r7]
 9049 01b2 FB68     		ldr	r3, [r7, #12]
 9050 01b4 1B68     		ldr	r3, [r3]
 9051 01b6 4C33     		adds	r3, r3, #76
 9052 01b8 1A46     		mov	r2, r3
 9053 01ba 7B6A     		ldr	r3, [r7, #36]
 9054 01bc FFF7FEFF 		bl	HAL_DMA_Start_IT
 9055 01c0 0346     		mov	r3, r0
 9056 01c2 002B     		cmp	r3, #0
 9057 01c4 42D0     		beq	.L853
 9058 01c6 0123     		movs	r3, #1
 9059 01c8 57E0     		b	.L829
 9060              	.L834:
 9061 01ca FB68     		ldr	r3, [r7, #12]
 9062 01cc 5B6B     		ldr	r3, [r3, #52]
 9063 01ce 324A     		ldr	r2, .L856+20
 9064 01d0 DA63     		str	r2, [r3, #60]
 9065 01d2 FB68     		ldr	r3, [r7, #12]
 9066 01d4 5B6B     		ldr	r3, [r3, #52]
 9067 01d6 314A     		ldr	r2, .L856+24
 9068 01d8 1A64     		str	r2, [r3, #64]
 9069 01da FB68     		ldr	r3, [r7, #12]
 9070 01dc 5B6B     		ldr	r3, [r3, #52]
 9071 01de 2B4A     		ldr	r2, .L856+8
 9072 01e0 DA64     		str	r2, [r3, #76]
 9073 01e2 FB68     		ldr	r3, [r7, #12]
 9074 01e4 586B     		ldr	r0, [r3, #52]
 9075 01e6 3968     		ldr	r1, [r7]
 9076 01e8 FB68     		ldr	r3, [r7, #12]
 9077 01ea 1B68     		ldr	r3, [r3]
 9078 01ec 4C33     		adds	r3, r3, #76
ARM GAS  C:\Users\user\AppData\Local\Temp\ccrDHgJ5.s 			page 158


 9079 01ee 1A46     		mov	r2, r3
 9080 01f0 7B6A     		ldr	r3, [r7, #36]
 9081 01f2 FFF7FEFF 		bl	HAL_DMA_Start_IT
 9082 01f6 0346     		mov	r3, r0
 9083 01f8 002B     		cmp	r3, #0
 9084 01fa 29D0     		beq	.L854
 9085 01fc 0123     		movs	r3, #1
 9086 01fe 3CE0     		b	.L829
 9087              	.L832:
 9088 0200 FB68     		ldr	r3, [r7, #12]
 9089 0202 9B6B     		ldr	r3, [r3, #56]
 9090 0204 264A     		ldr	r2, .L856+28
 9091 0206 DA63     		str	r2, [r3, #60]
 9092 0208 FB68     		ldr	r3, [r7, #12]
 9093 020a 9B6B     		ldr	r3, [r3, #56]
 9094 020c 254A     		ldr	r2, .L856+32
 9095 020e 1A64     		str	r2, [r3, #64]
 9096 0210 FB68     		ldr	r3, [r7, #12]
 9097 0212 9B6B     		ldr	r3, [r3, #56]
 9098 0214 1D4A     		ldr	r2, .L856+8
 9099 0216 DA64     		str	r2, [r3, #76]
 9100 0218 FB68     		ldr	r3, [r7, #12]
 9101 021a 986B     		ldr	r0, [r3, #56]
 9102 021c 3968     		ldr	r1, [r7]
 9103 021e FB68     		ldr	r3, [r7, #12]
 9104 0220 1B68     		ldr	r3, [r3]
 9105 0222 4C33     		adds	r3, r3, #76
 9106 0224 1A46     		mov	r2, r3
 9107 0226 7B6A     		ldr	r3, [r7, #36]
 9108 0228 FFF7FEFF 		bl	HAL_DMA_Start_IT
 9109 022c 0346     		mov	r3, r0
 9110 022e 002B     		cmp	r3, #0
 9111 0230 10D0     		beq	.L855
 9112 0232 0123     		movs	r3, #1
 9113 0234 21E0     		b	.L829
 9114              	.L833:
 9115 0236 0123     		movs	r3, #1
 9116 0238 FB75     		strb	r3, [r7, #23]
 9117 023a 0CE0     		b	.L841
 9118              	.L849:
 9119 023c 00BF     		nop
 9120 023e 0AE0     		b	.L841
 9121              	.L850:
 9122 0240 00BF     		nop
 9123 0242 08E0     		b	.L841
 9124              	.L851:
 9125 0244 00BF     		nop
 9126 0246 06E0     		b	.L841
 9127              	.L852:
 9128 0248 00BF     		nop
 9129 024a 04E0     		b	.L841
 9130              	.L853:
 9131 024c 00BF     		nop
 9132 024e 02E0     		b	.L841
 9133              	.L854:
 9134 0250 00BF     		nop
 9135 0252 00E0     		b	.L841
ARM GAS  C:\Users\user\AppData\Local\Temp\ccrDHgJ5.s 			page 159


 9136              	.L855:
 9137 0254 00BF     		nop
 9138              	.L841:
 9139 0256 FB7D     		ldrb	r3, [r7, #23]	@ zero_extendqisi2
 9140 0258 002B     		cmp	r3, #0
 9141 025a 0DD1     		bne	.L848
 9142 025c FB68     		ldr	r3, [r7, #12]
 9143 025e 1B68     		ldr	r3, [r3]
 9144 0260 B968     		ldr	r1, [r7, #8]
 9145 0262 3A6A     		ldr	r2, [r7, #32]
 9146 0264 0A43     		orrs	r2, r2, r1
 9147 0266 9A64     		str	r2, [r3, #72]
 9148 0268 FB68     		ldr	r3, [r7, #12]
 9149 026a 1B68     		ldr	r3, [r3]
 9150 026c D968     		ldr	r1, [r3, #12]
 9151 026e FB68     		ldr	r3, [r7, #12]
 9152 0270 1B68     		ldr	r3, [r3]
 9153 0272 7A68     		ldr	r2, [r7, #4]
 9154 0274 0A43     		orrs	r2, r2, r1
 9155 0276 DA60     		str	r2, [r3, #12]
 9156              	.L848:
 9157 0278 FB7D     		ldrb	r3, [r7, #23]	@ zero_extendqisi2
 9158              	.L829:
 9159 027a 1846     		mov	r0, r3
 9160 027c 1837     		adds	r7, r7, #24
 9161 027e BD46     		mov	sp, r7
 9162              		@ sp needed
 9163 0280 80BD     		pop	{r7, pc}
 9164              	.L857:
 9165 0282 00BF     		.align	2
 9166              	.L856:
 9167 0284 00000000 		.word	TIM_DMAPeriodElapsedCplt
 9168 0288 00000000 		.word	TIM_DMAPeriodElapsedHalfCplt
 9169 028c 00000000 		.word	TIM_DMAError
 9170 0290 00000000 		.word	TIM_DMADelayPulseCplt
 9171 0294 00000000 		.word	TIM_DMADelayPulseHalfCplt
 9172 0298 00000000 		.word	TIMEx_DMACommutationCplt
 9173 029c 00000000 		.word	TIMEx_DMACommutationHalfCplt
 9174 02a0 00000000 		.word	TIM_DMATriggerCplt
 9175 02a4 00000000 		.word	TIM_DMATriggerHalfCplt
 9177              		.section	.text.HAL_TIM_DMABurst_WriteStop,"ax",%progbits
 9178              		.align	1
 9179              		.global	HAL_TIM_DMABurst_WriteStop
 9180              		.syntax unified
 9181              		.thumb
 9182              		.thumb_func
 9184              	HAL_TIM_DMABurst_WriteStop:
 9185              		@ args = 0, pretend = 0, frame = 16
 9186              		@ frame_needed = 1, uses_anonymous_args = 0
 9187 0000 80B5     		push	{r7, lr}
 9188 0002 84B0     		sub	sp, sp, #16
 9189 0004 00AF     		add	r7, sp, #0
 9190 0006 7860     		str	r0, [r7, #4]
 9191 0008 3960     		str	r1, [r7]
 9192 000a 0023     		movs	r3, #0
 9193 000c FB73     		strb	r3, [r7, #15]
 9194 000e 3B68     		ldr	r3, [r7]
ARM GAS  C:\Users\user\AppData\Local\Temp\ccrDHgJ5.s 			page 160


 9195 0010 B3F5804F 		cmp	r3, #16384
 9196 0014 50D0     		beq	.L859
 9197 0016 3B68     		ldr	r3, [r7]
 9198 0018 B3F5804F 		cmp	r3, #16384
 9199 001c 52D8     		bhi	.L860
 9200 001e 3B68     		ldr	r3, [r7]
 9201 0020 B3F5005F 		cmp	r3, #8192
 9202 0024 42D0     		beq	.L861
 9203 0026 3B68     		ldr	r3, [r7]
 9204 0028 B3F5005F 		cmp	r3, #8192
 9205 002c 4AD8     		bhi	.L860
 9206 002e 3B68     		ldr	r3, [r7]
 9207 0030 B3F5805F 		cmp	r3, #4096
 9208 0034 34D0     		beq	.L862
 9209 0036 3B68     		ldr	r3, [r7]
 9210 0038 B3F5805F 		cmp	r3, #4096
 9211 003c 42D8     		bhi	.L860
 9212 003e 3B68     		ldr	r3, [r7]
 9213 0040 B3F5006F 		cmp	r3, #2048
 9214 0044 26D0     		beq	.L863
 9215 0046 3B68     		ldr	r3, [r7]
 9216 0048 B3F5006F 		cmp	r3, #2048
 9217 004c 3AD8     		bhi	.L860
 9218 004e 3B68     		ldr	r3, [r7]
 9219 0050 B3F5806F 		cmp	r3, #1024
 9220 0054 18D0     		beq	.L864
 9221 0056 3B68     		ldr	r3, [r7]
 9222 0058 B3F5806F 		cmp	r3, #1024
 9223 005c 32D8     		bhi	.L860
 9224 005e 3B68     		ldr	r3, [r7]
 9225 0060 B3F5807F 		cmp	r3, #256
 9226 0064 04D0     		beq	.L865
 9227 0066 3B68     		ldr	r3, [r7]
 9228 0068 B3F5007F 		cmp	r3, #512
 9229 006c 06D0     		beq	.L866
 9230 006e 29E0     		b	.L860
 9231              	.L865:
 9232 0070 7B68     		ldr	r3, [r7, #4]
 9233 0072 1B6A     		ldr	r3, [r3, #32]
 9234 0074 1846     		mov	r0, r3
 9235 0076 FFF7FEFF 		bl	HAL_DMA_Abort_IT
 9236 007a 26E0     		b	.L867
 9237              	.L866:
 9238 007c 7B68     		ldr	r3, [r7, #4]
 9239 007e 5B6A     		ldr	r3, [r3, #36]
 9240 0080 1846     		mov	r0, r3
 9241 0082 FFF7FEFF 		bl	HAL_DMA_Abort_IT
 9242 0086 20E0     		b	.L867
 9243              	.L864:
 9244 0088 7B68     		ldr	r3, [r7, #4]
 9245 008a 9B6A     		ldr	r3, [r3, #40]
 9246 008c 1846     		mov	r0, r3
 9247 008e FFF7FEFF 		bl	HAL_DMA_Abort_IT
 9248 0092 1AE0     		b	.L867
 9249              	.L863:
 9250 0094 7B68     		ldr	r3, [r7, #4]
 9251 0096 DB6A     		ldr	r3, [r3, #44]
ARM GAS  C:\Users\user\AppData\Local\Temp\ccrDHgJ5.s 			page 161


 9252 0098 1846     		mov	r0, r3
 9253 009a FFF7FEFF 		bl	HAL_DMA_Abort_IT
 9254 009e 14E0     		b	.L867
 9255              	.L862:
 9256 00a0 7B68     		ldr	r3, [r7, #4]
 9257 00a2 1B6B     		ldr	r3, [r3, #48]
 9258 00a4 1846     		mov	r0, r3
 9259 00a6 FFF7FEFF 		bl	HAL_DMA_Abort_IT
 9260 00aa 0EE0     		b	.L867
 9261              	.L861:
 9262 00ac 7B68     		ldr	r3, [r7, #4]
 9263 00ae 5B6B     		ldr	r3, [r3, #52]
 9264 00b0 1846     		mov	r0, r3
 9265 00b2 FFF7FEFF 		bl	HAL_DMA_Abort_IT
 9266 00b6 08E0     		b	.L867
 9267              	.L859:
 9268 00b8 7B68     		ldr	r3, [r7, #4]
 9269 00ba 9B6B     		ldr	r3, [r3, #56]
 9270 00bc 1846     		mov	r0, r3
 9271 00be FFF7FEFF 		bl	HAL_DMA_Abort_IT
 9272 00c2 02E0     		b	.L867
 9273              	.L860:
 9274 00c4 0123     		movs	r3, #1
 9275 00c6 FB73     		strb	r3, [r7, #15]
 9276 00c8 00BF     		nop
 9277              	.L867:
 9278 00ca FB7B     		ldrb	r3, [r7, #15]	@ zero_extendqisi2
 9279 00cc 002B     		cmp	r3, #0
 9280 00ce 0CD1     		bne	.L868
 9281 00d0 7B68     		ldr	r3, [r7, #4]
 9282 00d2 1B68     		ldr	r3, [r3]
 9283 00d4 D968     		ldr	r1, [r3, #12]
 9284 00d6 3B68     		ldr	r3, [r7]
 9285 00d8 DA43     		mvns	r2, r3
 9286 00da 7B68     		ldr	r3, [r7, #4]
 9287 00dc 1B68     		ldr	r3, [r3]
 9288 00de 0A40     		ands	r2, r2, r1
 9289 00e0 DA60     		str	r2, [r3, #12]
 9290 00e2 7B68     		ldr	r3, [r7, #4]
 9291 00e4 0122     		movs	r2, #1
 9292 00e6 83F84620 		strb	r2, [r3, #70]
 9293              	.L868:
 9294 00ea FB7B     		ldrb	r3, [r7, #15]	@ zero_extendqisi2
 9295 00ec 1846     		mov	r0, r3
 9296 00ee 1037     		adds	r7, r7, #16
 9297 00f0 BD46     		mov	sp, r7
 9298              		@ sp needed
 9299 00f2 80BD     		pop	{r7, pc}
 9301              		.section	.text.HAL_TIM_DMABurst_ReadStart,"ax",%progbits
 9302              		.align	1
 9303              		.global	HAL_TIM_DMABurst_ReadStart
 9304              		.syntax unified
 9305              		.thumb
 9306              		.thumb_func
 9308              	HAL_TIM_DMABurst_ReadStart:
 9309              		@ args = 4, pretend = 0, frame = 24
 9310              		@ frame_needed = 1, uses_anonymous_args = 0
ARM GAS  C:\Users\user\AppData\Local\Temp\ccrDHgJ5.s 			page 162


 9311 0000 80B5     		push	{r7, lr}
 9312 0002 88B0     		sub	sp, sp, #32
 9313 0004 02AF     		add	r7, sp, #8
 9314 0006 F860     		str	r0, [r7, #12]
 9315 0008 B960     		str	r1, [r7, #8]
 9316 000a 7A60     		str	r2, [r7, #4]
 9317 000c 3B60     		str	r3, [r7]
 9318 000e 3B6A     		ldr	r3, [r7, #32]
 9319 0010 1B0A     		lsrs	r3, r3, #8
 9320 0012 0133     		adds	r3, r3, #1
 9321 0014 0193     		str	r3, [sp, #4]
 9322 0016 3B6A     		ldr	r3, [r7, #32]
 9323 0018 0093     		str	r3, [sp]
 9324 001a 3B68     		ldr	r3, [r7]
 9325 001c 7A68     		ldr	r2, [r7, #4]
 9326 001e B968     		ldr	r1, [r7, #8]
 9327 0020 F868     		ldr	r0, [r7, #12]
 9328 0022 FFF7FEFF 		bl	HAL_TIM_DMABurst_MultiReadStart
 9329 0026 0346     		mov	r3, r0
 9330 0028 FB75     		strb	r3, [r7, #23]
 9331 002a FB7D     		ldrb	r3, [r7, #23]	@ zero_extendqisi2
 9332 002c 1846     		mov	r0, r3
 9333 002e 1837     		adds	r7, r7, #24
 9334 0030 BD46     		mov	sp, r7
 9335              		@ sp needed
 9336 0032 80BD     		pop	{r7, pc}
 9338              		.section	.text.HAL_TIM_DMABurst_MultiReadStart,"ax",%progbits
 9339              		.align	1
 9340              		.global	HAL_TIM_DMABurst_MultiReadStart
 9341              		.syntax unified
 9342              		.thumb
 9343              		.thumb_func
 9345              	HAL_TIM_DMABurst_MultiReadStart:
 9346              		@ args = 8, pretend = 0, frame = 24
 9347              		@ frame_needed = 1, uses_anonymous_args = 0
 9348 0000 80B5     		push	{r7, lr}
 9349 0002 86B0     		sub	sp, sp, #24
 9350 0004 00AF     		add	r7, sp, #0
 9351 0006 F860     		str	r0, [r7, #12]
 9352 0008 B960     		str	r1, [r7, #8]
 9353 000a 7A60     		str	r2, [r7, #4]
 9354 000c 3B60     		str	r3, [r7]
 9355 000e 0023     		movs	r3, #0
 9356 0010 FB75     		strb	r3, [r7, #23]
 9357 0012 FB68     		ldr	r3, [r7, #12]
 9358 0014 93F84630 		ldrb	r3, [r3, #70]
 9359 0018 DBB2     		uxtb	r3, r3
 9360 001a 022B     		cmp	r3, #2
 9361 001c 01D1     		bne	.L873
 9362 001e 0223     		movs	r3, #2
 9363 0020 2BE1     		b	.L874
 9364              	.L873:
 9365 0022 FB68     		ldr	r3, [r7, #12]
 9366 0024 93F84630 		ldrb	r3, [r3, #70]
 9367 0028 DBB2     		uxtb	r3, r3
 9368 002a 012B     		cmp	r3, #1
 9369 002c 0BD1     		bne	.L875
ARM GAS  C:\Users\user\AppData\Local\Temp\ccrDHgJ5.s 			page 163


 9370 002e 3B68     		ldr	r3, [r7]
 9371 0030 002B     		cmp	r3, #0
 9372 0032 04D1     		bne	.L876
 9373 0034 3B6A     		ldr	r3, [r7, #32]
 9374 0036 002B     		cmp	r3, #0
 9375 0038 01D0     		beq	.L876
 9376 003a 0123     		movs	r3, #1
 9377 003c 1DE1     		b	.L874
 9378              	.L876:
 9379 003e FB68     		ldr	r3, [r7, #12]
 9380 0040 0222     		movs	r2, #2
 9381 0042 83F84620 		strb	r2, [r3, #70]
 9382              	.L875:
 9383 0046 7B68     		ldr	r3, [r7, #4]
 9384 0048 B3F5804F 		cmp	r3, #16384
 9385 004c 00F0D880 		beq	.L877
 9386 0050 7B68     		ldr	r3, [r7, #4]
 9387 0052 B3F5804F 		cmp	r3, #16384
 9388 0056 00F2EE80 		bhi	.L878
 9389 005a 7B68     		ldr	r3, [r7, #4]
 9390 005c B3F5005F 		cmp	r3, #8192
 9391 0060 00F0B380 		beq	.L879
 9392 0064 7B68     		ldr	r3, [r7, #4]
 9393 0066 B3F5005F 		cmp	r3, #8192
 9394 006a 00F2E480 		bhi	.L878
 9395 006e 7B68     		ldr	r3, [r7, #4]
 9396 0070 B3F5805F 		cmp	r3, #4096
 9397 0074 00F08E80 		beq	.L880
 9398 0078 7B68     		ldr	r3, [r7, #4]
 9399 007a B3F5805F 		cmp	r3, #4096
 9400 007e 00F2DA80 		bhi	.L878
 9401 0082 7B68     		ldr	r3, [r7, #4]
 9402 0084 B3F5006F 		cmp	r3, #2048
 9403 0088 69D0     		beq	.L881
 9404 008a 7B68     		ldr	r3, [r7, #4]
 9405 008c B3F5006F 		cmp	r3, #2048
 9406 0090 00F2D180 		bhi	.L878
 9407 0094 7B68     		ldr	r3, [r7, #4]
 9408 0096 B3F5806F 		cmp	r3, #1024
 9409 009a 45D0     		beq	.L882
 9410 009c 7B68     		ldr	r3, [r7, #4]
 9411 009e B3F5806F 		cmp	r3, #1024
 9412 00a2 00F2C880 		bhi	.L878
 9413 00a6 7B68     		ldr	r3, [r7, #4]
 9414 00a8 B3F5807F 		cmp	r3, #256
 9415 00ac 04D0     		beq	.L883
 9416 00ae 7B68     		ldr	r3, [r7, #4]
 9417 00b0 B3F5007F 		cmp	r3, #512
 9418 00b4 1CD0     		beq	.L884
 9419 00b6 BEE0     		b	.L878
 9420              	.L883:
 9421 00b8 FB68     		ldr	r3, [r7, #12]
 9422 00ba 1B6A     		ldr	r3, [r3, #32]
 9423 00bc 714A     		ldr	r2, .L901
 9424 00be DA63     		str	r2, [r3, #60]
 9425 00c0 FB68     		ldr	r3, [r7, #12]
 9426 00c2 1B6A     		ldr	r3, [r3, #32]
ARM GAS  C:\Users\user\AppData\Local\Temp\ccrDHgJ5.s 			page 164


 9427 00c4 704A     		ldr	r2, .L901+4
 9428 00c6 1A64     		str	r2, [r3, #64]
 9429 00c8 FB68     		ldr	r3, [r7, #12]
 9430 00ca 1B6A     		ldr	r3, [r3, #32]
 9431 00cc 6F4A     		ldr	r2, .L901+8
 9432 00ce DA64     		str	r2, [r3, #76]
 9433 00d0 FB68     		ldr	r3, [r7, #12]
 9434 00d2 186A     		ldr	r0, [r3, #32]
 9435 00d4 FB68     		ldr	r3, [r7, #12]
 9436 00d6 1B68     		ldr	r3, [r3]
 9437 00d8 4C33     		adds	r3, r3, #76
 9438 00da 1946     		mov	r1, r3
 9439 00dc 3A68     		ldr	r2, [r7]
 9440 00de 7B6A     		ldr	r3, [r7, #36]
 9441 00e0 FFF7FEFF 		bl	HAL_DMA_Start_IT
 9442 00e4 0346     		mov	r3, r0
 9443 00e6 002B     		cmp	r3, #0
 9444 00e8 00F0A880 		beq	.L894
 9445 00ec 0123     		movs	r3, #1
 9446 00ee C4E0     		b	.L874
 9447              	.L884:
 9448 00f0 FB68     		ldr	r3, [r7, #12]
 9449 00f2 5B6A     		ldr	r3, [r3, #36]
 9450 00f4 664A     		ldr	r2, .L901+12
 9451 00f6 DA63     		str	r2, [r3, #60]
 9452 00f8 FB68     		ldr	r3, [r7, #12]
 9453 00fa 5B6A     		ldr	r3, [r3, #36]
 9454 00fc 654A     		ldr	r2, .L901+16
 9455 00fe 1A64     		str	r2, [r3, #64]
 9456 0100 FB68     		ldr	r3, [r7, #12]
 9457 0102 5B6A     		ldr	r3, [r3, #36]
 9458 0104 614A     		ldr	r2, .L901+8
 9459 0106 DA64     		str	r2, [r3, #76]
 9460 0108 FB68     		ldr	r3, [r7, #12]
 9461 010a 586A     		ldr	r0, [r3, #36]
 9462 010c FB68     		ldr	r3, [r7, #12]
 9463 010e 1B68     		ldr	r3, [r3]
 9464 0110 4C33     		adds	r3, r3, #76
 9465 0112 1946     		mov	r1, r3
 9466 0114 3A68     		ldr	r2, [r7]
 9467 0116 7B6A     		ldr	r3, [r7, #36]
 9468 0118 FFF7FEFF 		bl	HAL_DMA_Start_IT
 9469 011c 0346     		mov	r3, r0
 9470 011e 002B     		cmp	r3, #0
 9471 0120 00F08E80 		beq	.L895
 9472 0124 0123     		movs	r3, #1
 9473 0126 A8E0     		b	.L874
 9474              	.L882:
 9475 0128 FB68     		ldr	r3, [r7, #12]
 9476 012a 9B6A     		ldr	r3, [r3, #40]
 9477 012c 584A     		ldr	r2, .L901+12
 9478 012e DA63     		str	r2, [r3, #60]
 9479 0130 FB68     		ldr	r3, [r7, #12]
 9480 0132 9B6A     		ldr	r3, [r3, #40]
 9481 0134 574A     		ldr	r2, .L901+16
 9482 0136 1A64     		str	r2, [r3, #64]
 9483 0138 FB68     		ldr	r3, [r7, #12]
ARM GAS  C:\Users\user\AppData\Local\Temp\ccrDHgJ5.s 			page 165


 9484 013a 9B6A     		ldr	r3, [r3, #40]
 9485 013c 534A     		ldr	r2, .L901+8
 9486 013e DA64     		str	r2, [r3, #76]
 9487 0140 FB68     		ldr	r3, [r7, #12]
 9488 0142 986A     		ldr	r0, [r3, #40]
 9489 0144 FB68     		ldr	r3, [r7, #12]
 9490 0146 1B68     		ldr	r3, [r3]
 9491 0148 4C33     		adds	r3, r3, #76
 9492 014a 1946     		mov	r1, r3
 9493 014c 3A68     		ldr	r2, [r7]
 9494 014e 7B6A     		ldr	r3, [r7, #36]
 9495 0150 FFF7FEFF 		bl	HAL_DMA_Start_IT
 9496 0154 0346     		mov	r3, r0
 9497 0156 002B     		cmp	r3, #0
 9498 0158 74D0     		beq	.L896
 9499 015a 0123     		movs	r3, #1
 9500 015c 8DE0     		b	.L874
 9501              	.L881:
 9502 015e FB68     		ldr	r3, [r7, #12]
 9503 0160 DB6A     		ldr	r3, [r3, #44]
 9504 0162 4B4A     		ldr	r2, .L901+12
 9505 0164 DA63     		str	r2, [r3, #60]
 9506 0166 FB68     		ldr	r3, [r7, #12]
 9507 0168 DB6A     		ldr	r3, [r3, #44]
 9508 016a 4A4A     		ldr	r2, .L901+16
 9509 016c 1A64     		str	r2, [r3, #64]
 9510 016e FB68     		ldr	r3, [r7, #12]
 9511 0170 DB6A     		ldr	r3, [r3, #44]
 9512 0172 464A     		ldr	r2, .L901+8
 9513 0174 DA64     		str	r2, [r3, #76]
 9514 0176 FB68     		ldr	r3, [r7, #12]
 9515 0178 D86A     		ldr	r0, [r3, #44]
 9516 017a FB68     		ldr	r3, [r7, #12]
 9517 017c 1B68     		ldr	r3, [r3]
 9518 017e 4C33     		adds	r3, r3, #76
 9519 0180 1946     		mov	r1, r3
 9520 0182 3A68     		ldr	r2, [r7]
 9521 0184 7B6A     		ldr	r3, [r7, #36]
 9522 0186 FFF7FEFF 		bl	HAL_DMA_Start_IT
 9523 018a 0346     		mov	r3, r0
 9524 018c 002B     		cmp	r3, #0
 9525 018e 5BD0     		beq	.L897
 9526 0190 0123     		movs	r3, #1
 9527 0192 72E0     		b	.L874
 9528              	.L880:
 9529 0194 FB68     		ldr	r3, [r7, #12]
 9530 0196 1B6B     		ldr	r3, [r3, #48]
 9531 0198 3D4A     		ldr	r2, .L901+12
 9532 019a DA63     		str	r2, [r3, #60]
 9533 019c FB68     		ldr	r3, [r7, #12]
 9534 019e 1B6B     		ldr	r3, [r3, #48]
 9535 01a0 3C4A     		ldr	r2, .L901+16
 9536 01a2 1A64     		str	r2, [r3, #64]
 9537 01a4 FB68     		ldr	r3, [r7, #12]
 9538 01a6 1B6B     		ldr	r3, [r3, #48]
 9539 01a8 384A     		ldr	r2, .L901+8
 9540 01aa DA64     		str	r2, [r3, #76]
ARM GAS  C:\Users\user\AppData\Local\Temp\ccrDHgJ5.s 			page 166


 9541 01ac FB68     		ldr	r3, [r7, #12]
 9542 01ae 186B     		ldr	r0, [r3, #48]
 9543 01b0 FB68     		ldr	r3, [r7, #12]
 9544 01b2 1B68     		ldr	r3, [r3]
 9545 01b4 4C33     		adds	r3, r3, #76
 9546 01b6 1946     		mov	r1, r3
 9547 01b8 3A68     		ldr	r2, [r7]
 9548 01ba 7B6A     		ldr	r3, [r7, #36]
 9549 01bc FFF7FEFF 		bl	HAL_DMA_Start_IT
 9550 01c0 0346     		mov	r3, r0
 9551 01c2 002B     		cmp	r3, #0
 9552 01c4 42D0     		beq	.L898
 9553 01c6 0123     		movs	r3, #1
 9554 01c8 57E0     		b	.L874
 9555              	.L879:
 9556 01ca FB68     		ldr	r3, [r7, #12]
 9557 01cc 5B6B     		ldr	r3, [r3, #52]
 9558 01ce 324A     		ldr	r2, .L901+20
 9559 01d0 DA63     		str	r2, [r3, #60]
 9560 01d2 FB68     		ldr	r3, [r7, #12]
 9561 01d4 5B6B     		ldr	r3, [r3, #52]
 9562 01d6 314A     		ldr	r2, .L901+24
 9563 01d8 1A64     		str	r2, [r3, #64]
 9564 01da FB68     		ldr	r3, [r7, #12]
 9565 01dc 5B6B     		ldr	r3, [r3, #52]
 9566 01de 2B4A     		ldr	r2, .L901+8
 9567 01e0 DA64     		str	r2, [r3, #76]
 9568 01e2 FB68     		ldr	r3, [r7, #12]
 9569 01e4 586B     		ldr	r0, [r3, #52]
 9570 01e6 FB68     		ldr	r3, [r7, #12]
 9571 01e8 1B68     		ldr	r3, [r3]
 9572 01ea 4C33     		adds	r3, r3, #76
 9573 01ec 1946     		mov	r1, r3
 9574 01ee 3A68     		ldr	r2, [r7]
 9575 01f0 7B6A     		ldr	r3, [r7, #36]
 9576 01f2 FFF7FEFF 		bl	HAL_DMA_Start_IT
 9577 01f6 0346     		mov	r3, r0
 9578 01f8 002B     		cmp	r3, #0
 9579 01fa 29D0     		beq	.L899
 9580 01fc 0123     		movs	r3, #1
 9581 01fe 3CE0     		b	.L874
 9582              	.L877:
 9583 0200 FB68     		ldr	r3, [r7, #12]
 9584 0202 9B6B     		ldr	r3, [r3, #56]
 9585 0204 264A     		ldr	r2, .L901+28
 9586 0206 DA63     		str	r2, [r3, #60]
 9587 0208 FB68     		ldr	r3, [r7, #12]
 9588 020a 9B6B     		ldr	r3, [r3, #56]
 9589 020c 254A     		ldr	r2, .L901+32
 9590 020e 1A64     		str	r2, [r3, #64]
 9591 0210 FB68     		ldr	r3, [r7, #12]
 9592 0212 9B6B     		ldr	r3, [r3, #56]
 9593 0214 1D4A     		ldr	r2, .L901+8
 9594 0216 DA64     		str	r2, [r3, #76]
 9595 0218 FB68     		ldr	r3, [r7, #12]
 9596 021a 986B     		ldr	r0, [r3, #56]
 9597 021c FB68     		ldr	r3, [r7, #12]
ARM GAS  C:\Users\user\AppData\Local\Temp\ccrDHgJ5.s 			page 167


 9598 021e 1B68     		ldr	r3, [r3]
 9599 0220 4C33     		adds	r3, r3, #76
 9600 0222 1946     		mov	r1, r3
 9601 0224 3A68     		ldr	r2, [r7]
 9602 0226 7B6A     		ldr	r3, [r7, #36]
 9603 0228 FFF7FEFF 		bl	HAL_DMA_Start_IT
 9604 022c 0346     		mov	r3, r0
 9605 022e 002B     		cmp	r3, #0
 9606 0230 10D0     		beq	.L900
 9607 0232 0123     		movs	r3, #1
 9608 0234 21E0     		b	.L874
 9609              	.L878:
 9610 0236 0123     		movs	r3, #1
 9611 0238 FB75     		strb	r3, [r7, #23]
 9612 023a 0CE0     		b	.L886
 9613              	.L894:
 9614 023c 00BF     		nop
 9615 023e 0AE0     		b	.L886
 9616              	.L895:
 9617 0240 00BF     		nop
 9618 0242 08E0     		b	.L886
 9619              	.L896:
 9620 0244 00BF     		nop
 9621 0246 06E0     		b	.L886
 9622              	.L897:
 9623 0248 00BF     		nop
 9624 024a 04E0     		b	.L886
 9625              	.L898:
 9626 024c 00BF     		nop
 9627 024e 02E0     		b	.L886
 9628              	.L899:
 9629 0250 00BF     		nop
 9630 0252 00E0     		b	.L886
 9631              	.L900:
 9632 0254 00BF     		nop
 9633              	.L886:
 9634 0256 FB7D     		ldrb	r3, [r7, #23]	@ zero_extendqisi2
 9635 0258 002B     		cmp	r3, #0
 9636 025a 0DD1     		bne	.L893
 9637 025c FB68     		ldr	r3, [r7, #12]
 9638 025e 1B68     		ldr	r3, [r3]
 9639 0260 B968     		ldr	r1, [r7, #8]
 9640 0262 3A6A     		ldr	r2, [r7, #32]
 9641 0264 0A43     		orrs	r2, r2, r1
 9642 0266 9A64     		str	r2, [r3, #72]
 9643 0268 FB68     		ldr	r3, [r7, #12]
 9644 026a 1B68     		ldr	r3, [r3]
 9645 026c D968     		ldr	r1, [r3, #12]
 9646 026e FB68     		ldr	r3, [r7, #12]
 9647 0270 1B68     		ldr	r3, [r3]
 9648 0272 7A68     		ldr	r2, [r7, #4]
 9649 0274 0A43     		orrs	r2, r2, r1
 9650 0276 DA60     		str	r2, [r3, #12]
 9651              	.L893:
 9652 0278 FB7D     		ldrb	r3, [r7, #23]	@ zero_extendqisi2
 9653              	.L874:
 9654 027a 1846     		mov	r0, r3
ARM GAS  C:\Users\user\AppData\Local\Temp\ccrDHgJ5.s 			page 168


 9655 027c 1837     		adds	r7, r7, #24
 9656 027e BD46     		mov	sp, r7
 9657              		@ sp needed
 9658 0280 80BD     		pop	{r7, pc}
 9659              	.L902:
 9660 0282 00BF     		.align	2
 9661              	.L901:
 9662 0284 00000000 		.word	TIM_DMAPeriodElapsedCplt
 9663 0288 00000000 		.word	TIM_DMAPeriodElapsedHalfCplt
 9664 028c 00000000 		.word	TIM_DMAError
 9665 0290 00000000 		.word	TIM_DMACaptureCplt
 9666 0294 00000000 		.word	TIM_DMACaptureHalfCplt
 9667 0298 00000000 		.word	TIMEx_DMACommutationCplt
 9668 029c 00000000 		.word	TIMEx_DMACommutationHalfCplt
 9669 02a0 00000000 		.word	TIM_DMATriggerCplt
 9670 02a4 00000000 		.word	TIM_DMATriggerHalfCplt
 9672              		.section	.text.HAL_TIM_DMABurst_ReadStop,"ax",%progbits
 9673              		.align	1
 9674              		.global	HAL_TIM_DMABurst_ReadStop
 9675              		.syntax unified
 9676              		.thumb
 9677              		.thumb_func
 9679              	HAL_TIM_DMABurst_ReadStop:
 9680              		@ args = 0, pretend = 0, frame = 16
 9681              		@ frame_needed = 1, uses_anonymous_args = 0
 9682 0000 80B5     		push	{r7, lr}
 9683 0002 84B0     		sub	sp, sp, #16
 9684 0004 00AF     		add	r7, sp, #0
 9685 0006 7860     		str	r0, [r7, #4]
 9686 0008 3960     		str	r1, [r7]
 9687 000a 0023     		movs	r3, #0
 9688 000c FB73     		strb	r3, [r7, #15]
 9689 000e 3B68     		ldr	r3, [r7]
 9690 0010 B3F5804F 		cmp	r3, #16384
 9691 0014 50D0     		beq	.L904
 9692 0016 3B68     		ldr	r3, [r7]
 9693 0018 B3F5804F 		cmp	r3, #16384
 9694 001c 52D8     		bhi	.L905
 9695 001e 3B68     		ldr	r3, [r7]
 9696 0020 B3F5005F 		cmp	r3, #8192
 9697 0024 42D0     		beq	.L906
 9698 0026 3B68     		ldr	r3, [r7]
 9699 0028 B3F5005F 		cmp	r3, #8192
 9700 002c 4AD8     		bhi	.L905
 9701 002e 3B68     		ldr	r3, [r7]
 9702 0030 B3F5805F 		cmp	r3, #4096
 9703 0034 34D0     		beq	.L907
 9704 0036 3B68     		ldr	r3, [r7]
 9705 0038 B3F5805F 		cmp	r3, #4096
 9706 003c 42D8     		bhi	.L905
 9707 003e 3B68     		ldr	r3, [r7]
 9708 0040 B3F5006F 		cmp	r3, #2048
 9709 0044 26D0     		beq	.L908
 9710 0046 3B68     		ldr	r3, [r7]
 9711 0048 B3F5006F 		cmp	r3, #2048
 9712 004c 3AD8     		bhi	.L905
 9713 004e 3B68     		ldr	r3, [r7]
ARM GAS  C:\Users\user\AppData\Local\Temp\ccrDHgJ5.s 			page 169


 9714 0050 B3F5806F 		cmp	r3, #1024
 9715 0054 18D0     		beq	.L909
 9716 0056 3B68     		ldr	r3, [r7]
 9717 0058 B3F5806F 		cmp	r3, #1024
 9718 005c 32D8     		bhi	.L905
 9719 005e 3B68     		ldr	r3, [r7]
 9720 0060 B3F5807F 		cmp	r3, #256
 9721 0064 04D0     		beq	.L910
 9722 0066 3B68     		ldr	r3, [r7]
 9723 0068 B3F5007F 		cmp	r3, #512
 9724 006c 06D0     		beq	.L911
 9725 006e 29E0     		b	.L905
 9726              	.L910:
 9727 0070 7B68     		ldr	r3, [r7, #4]
 9728 0072 1B6A     		ldr	r3, [r3, #32]
 9729 0074 1846     		mov	r0, r3
 9730 0076 FFF7FEFF 		bl	HAL_DMA_Abort_IT
 9731 007a 26E0     		b	.L912
 9732              	.L911:
 9733 007c 7B68     		ldr	r3, [r7, #4]
 9734 007e 5B6A     		ldr	r3, [r3, #36]
 9735 0080 1846     		mov	r0, r3
 9736 0082 FFF7FEFF 		bl	HAL_DMA_Abort_IT
 9737 0086 20E0     		b	.L912
 9738              	.L909:
 9739 0088 7B68     		ldr	r3, [r7, #4]
 9740 008a 9B6A     		ldr	r3, [r3, #40]
 9741 008c 1846     		mov	r0, r3
 9742 008e FFF7FEFF 		bl	HAL_DMA_Abort_IT
 9743 0092 1AE0     		b	.L912
 9744              	.L908:
 9745 0094 7B68     		ldr	r3, [r7, #4]
 9746 0096 DB6A     		ldr	r3, [r3, #44]
 9747 0098 1846     		mov	r0, r3
 9748 009a FFF7FEFF 		bl	HAL_DMA_Abort_IT
 9749 009e 14E0     		b	.L912
 9750              	.L907:
 9751 00a0 7B68     		ldr	r3, [r7, #4]
 9752 00a2 1B6B     		ldr	r3, [r3, #48]
 9753 00a4 1846     		mov	r0, r3
 9754 00a6 FFF7FEFF 		bl	HAL_DMA_Abort_IT
 9755 00aa 0EE0     		b	.L912
 9756              	.L906:
 9757 00ac 7B68     		ldr	r3, [r7, #4]
 9758 00ae 5B6B     		ldr	r3, [r3, #52]
 9759 00b0 1846     		mov	r0, r3
 9760 00b2 FFF7FEFF 		bl	HAL_DMA_Abort_IT
 9761 00b6 08E0     		b	.L912
 9762              	.L904:
 9763 00b8 7B68     		ldr	r3, [r7, #4]
 9764 00ba 9B6B     		ldr	r3, [r3, #56]
 9765 00bc 1846     		mov	r0, r3
 9766 00be FFF7FEFF 		bl	HAL_DMA_Abort_IT
 9767 00c2 02E0     		b	.L912
 9768              	.L905:
 9769 00c4 0123     		movs	r3, #1
 9770 00c6 FB73     		strb	r3, [r7, #15]
ARM GAS  C:\Users\user\AppData\Local\Temp\ccrDHgJ5.s 			page 170


 9771 00c8 00BF     		nop
 9772              	.L912:
 9773 00ca FB7B     		ldrb	r3, [r7, #15]	@ zero_extendqisi2
 9774 00cc 002B     		cmp	r3, #0
 9775 00ce 0CD1     		bne	.L913
 9776 00d0 7B68     		ldr	r3, [r7, #4]
 9777 00d2 1B68     		ldr	r3, [r3]
 9778 00d4 D968     		ldr	r1, [r3, #12]
 9779 00d6 3B68     		ldr	r3, [r7]
 9780 00d8 DA43     		mvns	r2, r3
 9781 00da 7B68     		ldr	r3, [r7, #4]
 9782 00dc 1B68     		ldr	r3, [r3]
 9783 00de 0A40     		ands	r2, r2, r1
 9784 00e0 DA60     		str	r2, [r3, #12]
 9785 00e2 7B68     		ldr	r3, [r7, #4]
 9786 00e4 0122     		movs	r2, #1
 9787 00e6 83F84620 		strb	r2, [r3, #70]
 9788              	.L913:
 9789 00ea FB7B     		ldrb	r3, [r7, #15]	@ zero_extendqisi2
 9790 00ec 1846     		mov	r0, r3
 9791 00ee 1037     		adds	r7, r7, #16
 9792 00f0 BD46     		mov	sp, r7
 9793              		@ sp needed
 9794 00f2 80BD     		pop	{r7, pc}
 9796              		.section	.text.HAL_TIM_GenerateEvent,"ax",%progbits
 9797              		.align	1
 9798              		.global	HAL_TIM_GenerateEvent
 9799              		.syntax unified
 9800              		.thumb
 9801              		.thumb_func
 9803              	HAL_TIM_GenerateEvent:
 9804              		@ args = 0, pretend = 0, frame = 8
 9805              		@ frame_needed = 1, uses_anonymous_args = 0
 9806              		@ link register save eliminated.
 9807 0000 80B4     		push	{r7}
 9808 0002 83B0     		sub	sp, sp, #12
 9809 0004 00AF     		add	r7, sp, #0
 9810 0006 7860     		str	r0, [r7, #4]
 9811 0008 3960     		str	r1, [r7]
 9812 000a 7B68     		ldr	r3, [r7, #4]
 9813 000c 93F83C30 		ldrb	r3, [r3, #60]	@ zero_extendqisi2
 9814 0010 012B     		cmp	r3, #1
 9815 0012 01D1     		bne	.L916
 9816 0014 0223     		movs	r3, #2
 9817 0016 14E0     		b	.L917
 9818              	.L916:
 9819 0018 7B68     		ldr	r3, [r7, #4]
 9820 001a 0122     		movs	r2, #1
 9821 001c 83F83C20 		strb	r2, [r3, #60]
 9822 0020 7B68     		ldr	r3, [r7, #4]
 9823 0022 0222     		movs	r2, #2
 9824 0024 83F83D20 		strb	r2, [r3, #61]
 9825 0028 7B68     		ldr	r3, [r7, #4]
 9826 002a 1B68     		ldr	r3, [r3]
 9827 002c 3A68     		ldr	r2, [r7]
 9828 002e 5A61     		str	r2, [r3, #20]
 9829 0030 7B68     		ldr	r3, [r7, #4]
ARM GAS  C:\Users\user\AppData\Local\Temp\ccrDHgJ5.s 			page 171


 9830 0032 0122     		movs	r2, #1
 9831 0034 83F83D20 		strb	r2, [r3, #61]
 9832 0038 7B68     		ldr	r3, [r7, #4]
 9833 003a 0022     		movs	r2, #0
 9834 003c 83F83C20 		strb	r2, [r3, #60]
 9835 0040 0023     		movs	r3, #0
 9836              	.L917:
 9837 0042 1846     		mov	r0, r3
 9838 0044 0C37     		adds	r7, r7, #12
 9839 0046 BD46     		mov	sp, r7
 9840              		@ sp needed
 9841 0048 5DF8047B 		ldr	r7, [sp], #4
 9842 004c 7047     		bx	lr
 9844              		.section	.text.HAL_TIM_ConfigOCrefClear,"ax",%progbits
 9845              		.align	1
 9846              		.global	HAL_TIM_ConfigOCrefClear
 9847              		.syntax unified
 9848              		.thumb
 9849              		.thumb_func
 9851              	HAL_TIM_ConfigOCrefClear:
 9852              		@ args = 0, pretend = 0, frame = 24
 9853              		@ frame_needed = 1, uses_anonymous_args = 0
 9854 0000 80B5     		push	{r7, lr}
 9855 0002 86B0     		sub	sp, sp, #24
 9856 0004 00AF     		add	r7, sp, #0
 9857 0006 F860     		str	r0, [r7, #12]
 9858 0008 B960     		str	r1, [r7, #8]
 9859 000a 7A60     		str	r2, [r7, #4]
 9860 000c 0023     		movs	r3, #0
 9861 000e FB75     		strb	r3, [r7, #23]
 9862 0010 FB68     		ldr	r3, [r7, #12]
 9863 0012 93F83C30 		ldrb	r3, [r3, #60]	@ zero_extendqisi2
 9864 0016 012B     		cmp	r3, #1
 9865 0018 01D1     		bne	.L919
 9866 001a 0223     		movs	r3, #2
 9867 001c B8E0     		b	.L920
 9868              	.L919:
 9869 001e FB68     		ldr	r3, [r7, #12]
 9870 0020 0122     		movs	r2, #1
 9871 0022 83F83C20 		strb	r2, [r3, #60]
 9872 0026 FB68     		ldr	r3, [r7, #12]
 9873 0028 0222     		movs	r2, #2
 9874 002a 83F83D20 		strb	r2, [r3, #61]
 9875 002e BB68     		ldr	r3, [r7, #8]
 9876 0030 5B68     		ldr	r3, [r3, #4]
 9877 0032 002B     		cmp	r3, #0
 9878 0034 02D0     		beq	.L921
 9879 0036 012B     		cmp	r3, #1
 9880 0038 09D0     		beq	.L922
 9881 003a 21E0     		b	.L941
 9882              	.L921:
 9883 003c FB68     		ldr	r3, [r7, #12]
 9884 003e 1B68     		ldr	r3, [r3]
 9885 0040 9A68     		ldr	r2, [r3, #8]
 9886 0042 FB68     		ldr	r3, [r7, #12]
 9887 0044 1B68     		ldr	r3, [r3]
 9888 0046 22F47F42 		bic	r2, r2, #65280
ARM GAS  C:\Users\user\AppData\Local\Temp\ccrDHgJ5.s 			page 172


 9889 004a 9A60     		str	r2, [r3, #8]
 9890 004c 1BE0     		b	.L924
 9891              	.L922:
 9892 004e BB68     		ldr	r3, [r7, #8]
 9893 0050 DB68     		ldr	r3, [r3, #12]
 9894 0052 002B     		cmp	r3, #0
 9895 0054 09D0     		beq	.L925
 9896 0056 FB68     		ldr	r3, [r7, #12]
 9897 0058 0122     		movs	r2, #1
 9898 005a 83F83D20 		strb	r2, [r3, #61]
 9899 005e FB68     		ldr	r3, [r7, #12]
 9900 0060 0022     		movs	r2, #0
 9901 0062 83F83C20 		strb	r2, [r3, #60]
 9902 0066 0123     		movs	r3, #1
 9903 0068 92E0     		b	.L920
 9904              	.L925:
 9905 006a FB68     		ldr	r3, [r7, #12]
 9906 006c 1868     		ldr	r0, [r3]
 9907 006e BB68     		ldr	r3, [r7, #8]
 9908 0070 D968     		ldr	r1, [r3, #12]
 9909 0072 BB68     		ldr	r3, [r7, #8]
 9910 0074 9A68     		ldr	r2, [r3, #8]
 9911 0076 BB68     		ldr	r3, [r7, #8]
 9912 0078 1B69     		ldr	r3, [r3, #16]
 9913 007a FFF7FEFF 		bl	TIM_ETR_SetConfig
 9914 007e 02E0     		b	.L924
 9915              	.L941:
 9916 0080 0123     		movs	r3, #1
 9917 0082 FB75     		strb	r3, [r7, #23]
 9918 0084 00BF     		nop
 9919              	.L924:
 9920 0086 FB7D     		ldrb	r3, [r7, #23]	@ zero_extendqisi2
 9921 0088 002B     		cmp	r3, #0
 9922 008a 78D1     		bne	.L926
 9923 008c 7B68     		ldr	r3, [r7, #4]
 9924 008e 0C2B     		cmp	r3, #12
 9925 0090 74D8     		bhi	.L942
 9926 0092 01A2     		adr	r2, .L929
 9927 0094 52F823F0 		ldr	pc, [r2, r3, lsl #2]
 9928              		.p2align 2
 9929              	.L929:
 9930 0098 CD000000 		.word	.L932+1
 9931 009c 7D010000 		.word	.L942+1
 9932 00a0 7D010000 		.word	.L942+1
 9933 00a4 7D010000 		.word	.L942+1
 9934 00a8 F9000000 		.word	.L931+1
 9935 00ac 7D010000 		.word	.L942+1
 9936 00b0 7D010000 		.word	.L942+1
 9937 00b4 7D010000 		.word	.L942+1
 9938 00b8 25010000 		.word	.L930+1
 9939 00bc 7D010000 		.word	.L942+1
 9940 00c0 7D010000 		.word	.L942+1
 9941 00c4 7D010000 		.word	.L942+1
 9942 00c8 51010000 		.word	.L928+1
 9943              		.p2align 1
 9944              	.L932:
 9945 00cc BB68     		ldr	r3, [r7, #8]
ARM GAS  C:\Users\user\AppData\Local\Temp\ccrDHgJ5.s 			page 173


 9946 00ce 1B68     		ldr	r3, [r3]
 9947 00d0 002B     		cmp	r3, #0
 9948 00d2 08D0     		beq	.L933
 9949 00d4 FB68     		ldr	r3, [r7, #12]
 9950 00d6 1B68     		ldr	r3, [r3]
 9951 00d8 9A69     		ldr	r2, [r3, #24]
 9952 00da FB68     		ldr	r3, [r7, #12]
 9953 00dc 1B68     		ldr	r3, [r3]
 9954 00de 42F08002 		orr	r2, r2, #128
 9955 00e2 9A61     		str	r2, [r3, #24]
 9956 00e4 4BE0     		b	.L926
 9957              	.L933:
 9958 00e6 FB68     		ldr	r3, [r7, #12]
 9959 00e8 1B68     		ldr	r3, [r3]
 9960 00ea 9A69     		ldr	r2, [r3, #24]
 9961 00ec FB68     		ldr	r3, [r7, #12]
 9962 00ee 1B68     		ldr	r3, [r3]
 9963 00f0 22F08002 		bic	r2, r2, #128
 9964 00f4 9A61     		str	r2, [r3, #24]
 9965 00f6 42E0     		b	.L926
 9966              	.L931:
 9967 00f8 BB68     		ldr	r3, [r7, #8]
 9968 00fa 1B68     		ldr	r3, [r3]
 9969 00fc 002B     		cmp	r3, #0
 9970 00fe 08D0     		beq	.L935
 9971 0100 FB68     		ldr	r3, [r7, #12]
 9972 0102 1B68     		ldr	r3, [r3]
 9973 0104 9A69     		ldr	r2, [r3, #24]
 9974 0106 FB68     		ldr	r3, [r7, #12]
 9975 0108 1B68     		ldr	r3, [r3]
 9976 010a 42F40042 		orr	r2, r2, #32768
 9977 010e 9A61     		str	r2, [r3, #24]
 9978 0110 35E0     		b	.L926
 9979              	.L935:
 9980 0112 FB68     		ldr	r3, [r7, #12]
 9981 0114 1B68     		ldr	r3, [r3]
 9982 0116 9A69     		ldr	r2, [r3, #24]
 9983 0118 FB68     		ldr	r3, [r7, #12]
 9984 011a 1B68     		ldr	r3, [r3]
 9985 011c 22F40042 		bic	r2, r2, #32768
 9986 0120 9A61     		str	r2, [r3, #24]
 9987 0122 2CE0     		b	.L926
 9988              	.L930:
 9989 0124 BB68     		ldr	r3, [r7, #8]
 9990 0126 1B68     		ldr	r3, [r3]
 9991 0128 002B     		cmp	r3, #0
 9992 012a 08D0     		beq	.L937
 9993 012c FB68     		ldr	r3, [r7, #12]
 9994 012e 1B68     		ldr	r3, [r3]
 9995 0130 DA69     		ldr	r2, [r3, #28]
 9996 0132 FB68     		ldr	r3, [r7, #12]
 9997 0134 1B68     		ldr	r3, [r3]
 9998 0136 42F08002 		orr	r2, r2, #128
 9999 013a DA61     		str	r2, [r3, #28]
 10000 013c 1FE0     		b	.L926
 10001              	.L937:
 10002 013e FB68     		ldr	r3, [r7, #12]
ARM GAS  C:\Users\user\AppData\Local\Temp\ccrDHgJ5.s 			page 174


 10003 0140 1B68     		ldr	r3, [r3]
 10004 0142 DA69     		ldr	r2, [r3, #28]
 10005 0144 FB68     		ldr	r3, [r7, #12]
 10006 0146 1B68     		ldr	r3, [r3]
 10007 0148 22F08002 		bic	r2, r2, #128
 10008 014c DA61     		str	r2, [r3, #28]
 10009 014e 16E0     		b	.L926
 10010              	.L928:
 10011 0150 BB68     		ldr	r3, [r7, #8]
 10012 0152 1B68     		ldr	r3, [r3]
 10013 0154 002B     		cmp	r3, #0
 10014 0156 08D0     		beq	.L939
 10015 0158 FB68     		ldr	r3, [r7, #12]
 10016 015a 1B68     		ldr	r3, [r3]
 10017 015c DA69     		ldr	r2, [r3, #28]
 10018 015e FB68     		ldr	r3, [r7, #12]
 10019 0160 1B68     		ldr	r3, [r3]
 10020 0162 42F40042 		orr	r2, r2, #32768
 10021 0166 DA61     		str	r2, [r3, #28]
 10022 0168 09E0     		b	.L926
 10023              	.L939:
 10024 016a FB68     		ldr	r3, [r7, #12]
 10025 016c 1B68     		ldr	r3, [r3]
 10026 016e DA69     		ldr	r2, [r3, #28]
 10027 0170 FB68     		ldr	r3, [r7, #12]
 10028 0172 1B68     		ldr	r3, [r3]
 10029 0174 22F40042 		bic	r2, r2, #32768
 10030 0178 DA61     		str	r2, [r3, #28]
 10031 017a 00E0     		b	.L926
 10032              	.L942:
 10033 017c 00BF     		nop
 10034              	.L926:
 10035 017e FB68     		ldr	r3, [r7, #12]
 10036 0180 0122     		movs	r2, #1
 10037 0182 83F83D20 		strb	r2, [r3, #61]
 10038 0186 FB68     		ldr	r3, [r7, #12]
 10039 0188 0022     		movs	r2, #0
 10040 018a 83F83C20 		strb	r2, [r3, #60]
 10041 018e FB7D     		ldrb	r3, [r7, #23]	@ zero_extendqisi2
 10042              	.L920:
 10043 0190 1846     		mov	r0, r3
 10044 0192 1837     		adds	r7, r7, #24
 10045 0194 BD46     		mov	sp, r7
 10046              		@ sp needed
 10047 0196 80BD     		pop	{r7, pc}
 10049              		.section	.text.HAL_TIM_ConfigClockSource,"ax",%progbits
 10050              		.align	1
 10051              		.global	HAL_TIM_ConfigClockSource
 10052              		.syntax unified
 10053              		.thumb
 10054              		.thumb_func
 10056              	HAL_TIM_ConfigClockSource:
 10057              		@ args = 0, pretend = 0, frame = 16
 10058              		@ frame_needed = 1, uses_anonymous_args = 0
 10059 0000 80B5     		push	{r7, lr}
 10060 0002 84B0     		sub	sp, sp, #16
 10061 0004 00AF     		add	r7, sp, #0
ARM GAS  C:\Users\user\AppData\Local\Temp\ccrDHgJ5.s 			page 175


 10062 0006 7860     		str	r0, [r7, #4]
 10063 0008 3960     		str	r1, [r7]
 10064 000a 0023     		movs	r3, #0
 10065 000c FB73     		strb	r3, [r7, #15]
 10066 000e 7B68     		ldr	r3, [r7, #4]
 10067 0010 93F83C30 		ldrb	r3, [r3, #60]	@ zero_extendqisi2
 10068 0014 012B     		cmp	r3, #1
 10069 0016 01D1     		bne	.L944
 10070 0018 0223     		movs	r3, #2
 10071 001a B4E0     		b	.L945
 10072              	.L944:
 10073 001c 7B68     		ldr	r3, [r7, #4]
 10074 001e 0122     		movs	r2, #1
 10075 0020 83F83C20 		strb	r2, [r3, #60]
 10076 0024 7B68     		ldr	r3, [r7, #4]
 10077 0026 0222     		movs	r2, #2
 10078 0028 83F83D20 		strb	r2, [r3, #61]
 10079 002c 7B68     		ldr	r3, [r7, #4]
 10080 002e 1B68     		ldr	r3, [r3]
 10081 0030 9B68     		ldr	r3, [r3, #8]
 10082 0032 BB60     		str	r3, [r7, #8]
 10083 0034 BB68     		ldr	r3, [r7, #8]
 10084 0036 23F07703 		bic	r3, r3, #119
 10085 003a BB60     		str	r3, [r7, #8]
 10086 003c BB68     		ldr	r3, [r7, #8]
 10087 003e 23F47F43 		bic	r3, r3, #65280
 10088 0042 BB60     		str	r3, [r7, #8]
 10089 0044 7B68     		ldr	r3, [r7, #4]
 10090 0046 1B68     		ldr	r3, [r3]
 10091 0048 BA68     		ldr	r2, [r7, #8]
 10092 004a 9A60     		str	r2, [r3, #8]
 10093 004c 3B68     		ldr	r3, [r7]
 10094 004e 1B68     		ldr	r3, [r3]
 10095 0050 B3F5005F 		cmp	r3, #8192
 10096 0054 3ED0     		beq	.L946
 10097 0056 B3F5005F 		cmp	r3, #8192
 10098 005a 00F28780 		bhi	.L947
 10099 005e B3F5805F 		cmp	r3, #4096
 10100 0062 00F08680 		beq	.L955
 10101 0066 B3F5805F 		cmp	r3, #4096
 10102 006a 7FD8     		bhi	.L947
 10103 006c 702B     		cmp	r3, #112
 10104 006e 1AD0     		beq	.L949
 10105 0070 702B     		cmp	r3, #112
 10106 0072 7BD8     		bhi	.L947
 10107 0074 602B     		cmp	r3, #96
 10108 0076 50D0     		beq	.L950
 10109 0078 602B     		cmp	r3, #96
 10110 007a 77D8     		bhi	.L947
 10111 007c 502B     		cmp	r3, #80
 10112 007e 3CD0     		beq	.L951
 10113 0080 502B     		cmp	r3, #80
 10114 0082 73D8     		bhi	.L947
 10115 0084 402B     		cmp	r3, #64
 10116 0086 58D0     		beq	.L952
 10117 0088 402B     		cmp	r3, #64
 10118 008a 6FD8     		bhi	.L947
ARM GAS  C:\Users\user\AppData\Local\Temp\ccrDHgJ5.s 			page 176


 10119 008c 302B     		cmp	r3, #48
 10120 008e 64D0     		beq	.L953
 10121 0090 302B     		cmp	r3, #48
 10122 0092 6BD8     		bhi	.L947
 10123 0094 202B     		cmp	r3, #32
 10124 0096 60D0     		beq	.L953
 10125 0098 202B     		cmp	r3, #32
 10126 009a 67D8     		bhi	.L947
 10127 009c 002B     		cmp	r3, #0
 10128 009e 5CD0     		beq	.L953
 10129 00a0 102B     		cmp	r3, #16
 10130 00a2 5AD0     		beq	.L953
 10131 00a4 62E0     		b	.L947
 10132              	.L949:
 10133 00a6 7B68     		ldr	r3, [r7, #4]
 10134 00a8 1868     		ldr	r0, [r3]
 10135 00aa 3B68     		ldr	r3, [r7]
 10136 00ac 9968     		ldr	r1, [r3, #8]
 10137 00ae 3B68     		ldr	r3, [r7]
 10138 00b0 5A68     		ldr	r2, [r3, #4]
 10139 00b2 3B68     		ldr	r3, [r7]
 10140 00b4 DB68     		ldr	r3, [r3, #12]
 10141 00b6 FFF7FEFF 		bl	TIM_ETR_SetConfig
 10142 00ba 7B68     		ldr	r3, [r7, #4]
 10143 00bc 1B68     		ldr	r3, [r3]
 10144 00be 9B68     		ldr	r3, [r3, #8]
 10145 00c0 BB60     		str	r3, [r7, #8]
 10146 00c2 BB68     		ldr	r3, [r7, #8]
 10147 00c4 43F07703 		orr	r3, r3, #119
 10148 00c8 BB60     		str	r3, [r7, #8]
 10149 00ca 7B68     		ldr	r3, [r7, #4]
 10150 00cc 1B68     		ldr	r3, [r3]
 10151 00ce BA68     		ldr	r2, [r7, #8]
 10152 00d0 9A60     		str	r2, [r3, #8]
 10153 00d2 4FE0     		b	.L954
 10154              	.L946:
 10155 00d4 7B68     		ldr	r3, [r7, #4]
 10156 00d6 1868     		ldr	r0, [r3]
 10157 00d8 3B68     		ldr	r3, [r7]
 10158 00da 9968     		ldr	r1, [r3, #8]
 10159 00dc 3B68     		ldr	r3, [r7]
 10160 00de 5A68     		ldr	r2, [r3, #4]
 10161 00e0 3B68     		ldr	r3, [r7]
 10162 00e2 DB68     		ldr	r3, [r3, #12]
 10163 00e4 FFF7FEFF 		bl	TIM_ETR_SetConfig
 10164 00e8 7B68     		ldr	r3, [r7, #4]
 10165 00ea 1B68     		ldr	r3, [r3]
 10166 00ec 9A68     		ldr	r2, [r3, #8]
 10167 00ee 7B68     		ldr	r3, [r7, #4]
 10168 00f0 1B68     		ldr	r3, [r3]
 10169 00f2 42F48042 		orr	r2, r2, #16384
 10170 00f6 9A60     		str	r2, [r3, #8]
 10171 00f8 3CE0     		b	.L954
 10172              	.L951:
 10173 00fa 7B68     		ldr	r3, [r7, #4]
 10174 00fc 1868     		ldr	r0, [r3]
 10175 00fe 3B68     		ldr	r3, [r7]
ARM GAS  C:\Users\user\AppData\Local\Temp\ccrDHgJ5.s 			page 177


 10176 0100 5968     		ldr	r1, [r3, #4]
 10177 0102 3B68     		ldr	r3, [r7]
 10178 0104 DB68     		ldr	r3, [r3, #12]
 10179 0106 1A46     		mov	r2, r3
 10180 0108 FFF7FEFF 		bl	TIM_TI1_ConfigInputStage
 10181 010c 7B68     		ldr	r3, [r7, #4]
 10182 010e 1B68     		ldr	r3, [r3]
 10183 0110 5021     		movs	r1, #80
 10184 0112 1846     		mov	r0, r3
 10185 0114 FFF7FEFF 		bl	TIM_ITRx_SetConfig
 10186 0118 2CE0     		b	.L954
 10187              	.L950:
 10188 011a 7B68     		ldr	r3, [r7, #4]
 10189 011c 1868     		ldr	r0, [r3]
 10190 011e 3B68     		ldr	r3, [r7]
 10191 0120 5968     		ldr	r1, [r3, #4]
 10192 0122 3B68     		ldr	r3, [r7]
 10193 0124 DB68     		ldr	r3, [r3, #12]
 10194 0126 1A46     		mov	r2, r3
 10195 0128 FFF7FEFF 		bl	TIM_TI2_ConfigInputStage
 10196 012c 7B68     		ldr	r3, [r7, #4]
 10197 012e 1B68     		ldr	r3, [r3]
 10198 0130 6021     		movs	r1, #96
 10199 0132 1846     		mov	r0, r3
 10200 0134 FFF7FEFF 		bl	TIM_ITRx_SetConfig
 10201 0138 1CE0     		b	.L954
 10202              	.L952:
 10203 013a 7B68     		ldr	r3, [r7, #4]
 10204 013c 1868     		ldr	r0, [r3]
 10205 013e 3B68     		ldr	r3, [r7]
 10206 0140 5968     		ldr	r1, [r3, #4]
 10207 0142 3B68     		ldr	r3, [r7]
 10208 0144 DB68     		ldr	r3, [r3, #12]
 10209 0146 1A46     		mov	r2, r3
 10210 0148 FFF7FEFF 		bl	TIM_TI1_ConfigInputStage
 10211 014c 7B68     		ldr	r3, [r7, #4]
 10212 014e 1B68     		ldr	r3, [r3]
 10213 0150 4021     		movs	r1, #64
 10214 0152 1846     		mov	r0, r3
 10215 0154 FFF7FEFF 		bl	TIM_ITRx_SetConfig
 10216 0158 0CE0     		b	.L954
 10217              	.L953:
 10218 015a 7B68     		ldr	r3, [r7, #4]
 10219 015c 1A68     		ldr	r2, [r3]
 10220 015e 3B68     		ldr	r3, [r7]
 10221 0160 1B68     		ldr	r3, [r3]
 10222 0162 1946     		mov	r1, r3
 10223 0164 1046     		mov	r0, r2
 10224 0166 FFF7FEFF 		bl	TIM_ITRx_SetConfig
 10225 016a 03E0     		b	.L954
 10226              	.L947:
 10227 016c 0123     		movs	r3, #1
 10228 016e FB73     		strb	r3, [r7, #15]
 10229 0170 00E0     		b	.L954
 10230              	.L955:
 10231 0172 00BF     		nop
 10232              	.L954:
ARM GAS  C:\Users\user\AppData\Local\Temp\ccrDHgJ5.s 			page 178


 10233 0174 7B68     		ldr	r3, [r7, #4]
 10234 0176 0122     		movs	r2, #1
 10235 0178 83F83D20 		strb	r2, [r3, #61]
 10236 017c 7B68     		ldr	r3, [r7, #4]
 10237 017e 0022     		movs	r2, #0
 10238 0180 83F83C20 		strb	r2, [r3, #60]
 10239 0184 FB7B     		ldrb	r3, [r7, #15]	@ zero_extendqisi2
 10240              	.L945:
 10241 0186 1846     		mov	r0, r3
 10242 0188 1037     		adds	r7, r7, #16
 10243 018a BD46     		mov	sp, r7
 10244              		@ sp needed
 10245 018c 80BD     		pop	{r7, pc}
 10247              		.section	.text.HAL_TIM_ConfigTI1Input,"ax",%progbits
 10248              		.align	1
 10249              		.global	HAL_TIM_ConfigTI1Input
 10250              		.syntax unified
 10251              		.thumb
 10252              		.thumb_func
 10254              	HAL_TIM_ConfigTI1Input:
 10255              		@ args = 0, pretend = 0, frame = 16
 10256              		@ frame_needed = 1, uses_anonymous_args = 0
 10257              		@ link register save eliminated.
 10258 0000 80B4     		push	{r7}
 10259 0002 85B0     		sub	sp, sp, #20
 10260 0004 00AF     		add	r7, sp, #0
 10261 0006 7860     		str	r0, [r7, #4]
 10262 0008 3960     		str	r1, [r7]
 10263 000a 7B68     		ldr	r3, [r7, #4]
 10264 000c 1B68     		ldr	r3, [r3]
 10265 000e 5B68     		ldr	r3, [r3, #4]
 10266 0010 FB60     		str	r3, [r7, #12]
 10267 0012 FB68     		ldr	r3, [r7, #12]
 10268 0014 23F08003 		bic	r3, r3, #128
 10269 0018 FB60     		str	r3, [r7, #12]
 10270 001a FA68     		ldr	r2, [r7, #12]
 10271 001c 3B68     		ldr	r3, [r7]
 10272 001e 1343     		orrs	r3, r3, r2
 10273 0020 FB60     		str	r3, [r7, #12]
 10274 0022 7B68     		ldr	r3, [r7, #4]
 10275 0024 1B68     		ldr	r3, [r3]
 10276 0026 FA68     		ldr	r2, [r7, #12]
 10277 0028 5A60     		str	r2, [r3, #4]
 10278 002a 0023     		movs	r3, #0
 10279 002c 1846     		mov	r0, r3
 10280 002e 1437     		adds	r7, r7, #20
 10281 0030 BD46     		mov	sp, r7
 10282              		@ sp needed
 10283 0032 5DF8047B 		ldr	r7, [sp], #4
 10284 0036 7047     		bx	lr
 10286              		.section	.text.HAL_TIM_SlaveConfigSynchro,"ax",%progbits
 10287              		.align	1
 10288              		.global	HAL_TIM_SlaveConfigSynchro
 10289              		.syntax unified
 10290              		.thumb
 10291              		.thumb_func
 10293              	HAL_TIM_SlaveConfigSynchro:
ARM GAS  C:\Users\user\AppData\Local\Temp\ccrDHgJ5.s 			page 179


 10294              		@ args = 0, pretend = 0, frame = 8
 10295              		@ frame_needed = 1, uses_anonymous_args = 0
 10296 0000 80B5     		push	{r7, lr}
 10297 0002 82B0     		sub	sp, sp, #8
 10298 0004 00AF     		add	r7, sp, #0
 10299 0006 7860     		str	r0, [r7, #4]
 10300 0008 3960     		str	r1, [r7]
 10301 000a 7B68     		ldr	r3, [r7, #4]
 10302 000c 93F83C30 		ldrb	r3, [r3, #60]	@ zero_extendqisi2
 10303 0010 012B     		cmp	r3, #1
 10304 0012 01D1     		bne	.L959
 10305 0014 0223     		movs	r3, #2
 10306 0016 31E0     		b	.L960
 10307              	.L959:
 10308 0018 7B68     		ldr	r3, [r7, #4]
 10309 001a 0122     		movs	r2, #1
 10310 001c 83F83C20 		strb	r2, [r3, #60]
 10311 0020 7B68     		ldr	r3, [r7, #4]
 10312 0022 0222     		movs	r2, #2
 10313 0024 83F83D20 		strb	r2, [r3, #61]
 10314 0028 3968     		ldr	r1, [r7]
 10315 002a 7868     		ldr	r0, [r7, #4]
 10316 002c FFF7FEFF 		bl	TIM_SlaveTimer_SetConfig
 10317 0030 0346     		mov	r3, r0
 10318 0032 002B     		cmp	r3, #0
 10319 0034 09D0     		beq	.L961
 10320 0036 7B68     		ldr	r3, [r7, #4]
 10321 0038 0122     		movs	r2, #1
 10322 003a 83F83D20 		strb	r2, [r3, #61]
 10323 003e 7B68     		ldr	r3, [r7, #4]
 10324 0040 0022     		movs	r2, #0
 10325 0042 83F83C20 		strb	r2, [r3, #60]
 10326 0046 0123     		movs	r3, #1
 10327 0048 18E0     		b	.L960
 10328              	.L961:
 10329 004a 7B68     		ldr	r3, [r7, #4]
 10330 004c 1B68     		ldr	r3, [r3]
 10331 004e DA68     		ldr	r2, [r3, #12]
 10332 0050 7B68     		ldr	r3, [r7, #4]
 10333 0052 1B68     		ldr	r3, [r3]
 10334 0054 22F04002 		bic	r2, r2, #64
 10335 0058 DA60     		str	r2, [r3, #12]
 10336 005a 7B68     		ldr	r3, [r7, #4]
 10337 005c 1B68     		ldr	r3, [r3]
 10338 005e DA68     		ldr	r2, [r3, #12]
 10339 0060 7B68     		ldr	r3, [r7, #4]
 10340 0062 1B68     		ldr	r3, [r3]
 10341 0064 22F48042 		bic	r2, r2, #16384
 10342 0068 DA60     		str	r2, [r3, #12]
 10343 006a 7B68     		ldr	r3, [r7, #4]
 10344 006c 0122     		movs	r2, #1
 10345 006e 83F83D20 		strb	r2, [r3, #61]
 10346 0072 7B68     		ldr	r3, [r7, #4]
 10347 0074 0022     		movs	r2, #0
 10348 0076 83F83C20 		strb	r2, [r3, #60]
 10349 007a 0023     		movs	r3, #0
 10350              	.L960:
ARM GAS  C:\Users\user\AppData\Local\Temp\ccrDHgJ5.s 			page 180


 10351 007c 1846     		mov	r0, r3
 10352 007e 0837     		adds	r7, r7, #8
 10353 0080 BD46     		mov	sp, r7
 10354              		@ sp needed
 10355 0082 80BD     		pop	{r7, pc}
 10357              		.section	.text.HAL_TIM_SlaveConfigSynchro_IT,"ax",%progbits
 10358              		.align	1
 10359              		.global	HAL_TIM_SlaveConfigSynchro_IT
 10360              		.syntax unified
 10361              		.thumb
 10362              		.thumb_func
 10364              	HAL_TIM_SlaveConfigSynchro_IT:
 10365              		@ args = 0, pretend = 0, frame = 8
 10366              		@ frame_needed = 1, uses_anonymous_args = 0
 10367 0000 80B5     		push	{r7, lr}
 10368 0002 82B0     		sub	sp, sp, #8
 10369 0004 00AF     		add	r7, sp, #0
 10370 0006 7860     		str	r0, [r7, #4]
 10371 0008 3960     		str	r1, [r7]
 10372 000a 7B68     		ldr	r3, [r7, #4]
 10373 000c 93F83C30 		ldrb	r3, [r3, #60]	@ zero_extendqisi2
 10374 0010 012B     		cmp	r3, #1
 10375 0012 01D1     		bne	.L963
 10376 0014 0223     		movs	r3, #2
 10377 0016 31E0     		b	.L964
 10378              	.L963:
 10379 0018 7B68     		ldr	r3, [r7, #4]
 10380 001a 0122     		movs	r2, #1
 10381 001c 83F83C20 		strb	r2, [r3, #60]
 10382 0020 7B68     		ldr	r3, [r7, #4]
 10383 0022 0222     		movs	r2, #2
 10384 0024 83F83D20 		strb	r2, [r3, #61]
 10385 0028 3968     		ldr	r1, [r7]
 10386 002a 7868     		ldr	r0, [r7, #4]
 10387 002c FFF7FEFF 		bl	TIM_SlaveTimer_SetConfig
 10388 0030 0346     		mov	r3, r0
 10389 0032 002B     		cmp	r3, #0
 10390 0034 09D0     		beq	.L965
 10391 0036 7B68     		ldr	r3, [r7, #4]
 10392 0038 0122     		movs	r2, #1
 10393 003a 83F83D20 		strb	r2, [r3, #61]
 10394 003e 7B68     		ldr	r3, [r7, #4]
 10395 0040 0022     		movs	r2, #0
 10396 0042 83F83C20 		strb	r2, [r3, #60]
 10397 0046 0123     		movs	r3, #1
 10398 0048 18E0     		b	.L964
 10399              	.L965:
 10400 004a 7B68     		ldr	r3, [r7, #4]
 10401 004c 1B68     		ldr	r3, [r3]
 10402 004e DA68     		ldr	r2, [r3, #12]
 10403 0050 7B68     		ldr	r3, [r7, #4]
 10404 0052 1B68     		ldr	r3, [r3]
 10405 0054 42F04002 		orr	r2, r2, #64
 10406 0058 DA60     		str	r2, [r3, #12]
 10407 005a 7B68     		ldr	r3, [r7, #4]
 10408 005c 1B68     		ldr	r3, [r3]
 10409 005e DA68     		ldr	r2, [r3, #12]
ARM GAS  C:\Users\user\AppData\Local\Temp\ccrDHgJ5.s 			page 181


 10410 0060 7B68     		ldr	r3, [r7, #4]
 10411 0062 1B68     		ldr	r3, [r3]
 10412 0064 22F48042 		bic	r2, r2, #16384
 10413 0068 DA60     		str	r2, [r3, #12]
 10414 006a 7B68     		ldr	r3, [r7, #4]
 10415 006c 0122     		movs	r2, #1
 10416 006e 83F83D20 		strb	r2, [r3, #61]
 10417 0072 7B68     		ldr	r3, [r7, #4]
 10418 0074 0022     		movs	r2, #0
 10419 0076 83F83C20 		strb	r2, [r3, #60]
 10420 007a 0023     		movs	r3, #0
 10421              	.L964:
 10422 007c 1846     		mov	r0, r3
 10423 007e 0837     		adds	r7, r7, #8
 10424 0080 BD46     		mov	sp, r7
 10425              		@ sp needed
 10426 0082 80BD     		pop	{r7, pc}
 10428              		.section	.text.HAL_TIM_ReadCapturedValue,"ax",%progbits
 10429              		.align	1
 10430              		.global	HAL_TIM_ReadCapturedValue
 10431              		.syntax unified
 10432              		.thumb
 10433              		.thumb_func
 10435              	HAL_TIM_ReadCapturedValue:
 10436              		@ args = 0, pretend = 0, frame = 16
 10437              		@ frame_needed = 1, uses_anonymous_args = 0
 10438              		@ link register save eliminated.
 10439 0000 80B4     		push	{r7}
 10440 0002 85B0     		sub	sp, sp, #20
 10441 0004 00AF     		add	r7, sp, #0
 10442 0006 7860     		str	r0, [r7, #4]
 10443 0008 3960     		str	r1, [r7]
 10444 000a 0023     		movs	r3, #0
 10445 000c FB60     		str	r3, [r7, #12]
 10446 000e 3B68     		ldr	r3, [r7]
 10447 0010 0C2B     		cmp	r3, #12
 10448 0012 31D8     		bhi	.L975
 10449 0014 01A2     		adr	r2, .L969
 10450 0016 52F823F0 		ldr	pc, [r2, r3, lsl #2]
 10451 001a 00BF     		.p2align 2
 10452              	.L969:
 10453 001c 51000000 		.word	.L972+1
 10454 0020 79000000 		.word	.L975+1
 10455 0024 79000000 		.word	.L975+1
 10456 0028 79000000 		.word	.L975+1
 10457 002c 5B000000 		.word	.L971+1
 10458 0030 79000000 		.word	.L975+1
 10459 0034 79000000 		.word	.L975+1
 10460 0038 79000000 		.word	.L975+1
 10461 003c 65000000 		.word	.L970+1
 10462 0040 79000000 		.word	.L975+1
 10463 0044 79000000 		.word	.L975+1
 10464 0048 79000000 		.word	.L975+1
 10465 004c 6F000000 		.word	.L968+1
 10466              		.p2align 1
 10467              	.L972:
 10468 0050 7B68     		ldr	r3, [r7, #4]
ARM GAS  C:\Users\user\AppData\Local\Temp\ccrDHgJ5.s 			page 182


 10469 0052 1B68     		ldr	r3, [r3]
 10470 0054 5B6B     		ldr	r3, [r3, #52]
 10471 0056 FB60     		str	r3, [r7, #12]
 10472 0058 0FE0     		b	.L973
 10473              	.L971:
 10474 005a 7B68     		ldr	r3, [r7, #4]
 10475 005c 1B68     		ldr	r3, [r3]
 10476 005e 9B6B     		ldr	r3, [r3, #56]
 10477 0060 FB60     		str	r3, [r7, #12]
 10478 0062 0AE0     		b	.L973
 10479              	.L970:
 10480 0064 7B68     		ldr	r3, [r7, #4]
 10481 0066 1B68     		ldr	r3, [r3]
 10482 0068 DB6B     		ldr	r3, [r3, #60]
 10483 006a FB60     		str	r3, [r7, #12]
 10484 006c 05E0     		b	.L973
 10485              	.L968:
 10486 006e 7B68     		ldr	r3, [r7, #4]
 10487 0070 1B68     		ldr	r3, [r3]
 10488 0072 1B6C     		ldr	r3, [r3, #64]
 10489 0074 FB60     		str	r3, [r7, #12]
 10490 0076 00E0     		b	.L973
 10491              	.L975:
 10492 0078 00BF     		nop
 10493              	.L973:
 10494 007a FB68     		ldr	r3, [r7, #12]
 10495 007c 1846     		mov	r0, r3
 10496 007e 1437     		adds	r7, r7, #20
 10497 0080 BD46     		mov	sp, r7
 10498              		@ sp needed
 10499 0082 5DF8047B 		ldr	r7, [sp], #4
 10500 0086 7047     		bx	lr
 10502              		.section	.text.HAL_TIM_PeriodElapsedCallback,"ax",%progbits
 10503              		.align	1
 10504              		.weak	HAL_TIM_PeriodElapsedCallback
 10505              		.syntax unified
 10506              		.thumb
 10507              		.thumb_func
 10509              	HAL_TIM_PeriodElapsedCallback:
 10510              		@ args = 0, pretend = 0, frame = 8
 10511              		@ frame_needed = 1, uses_anonymous_args = 0
 10512              		@ link register save eliminated.
 10513 0000 80B4     		push	{r7}
 10514 0002 83B0     		sub	sp, sp, #12
 10515 0004 00AF     		add	r7, sp, #0
 10516 0006 7860     		str	r0, [r7, #4]
 10517 0008 00BF     		nop
 10518 000a 0C37     		adds	r7, r7, #12
 10519 000c BD46     		mov	sp, r7
 10520              		@ sp needed
 10521 000e 5DF8047B 		ldr	r7, [sp], #4
 10522 0012 7047     		bx	lr
 10524              		.section	.text.HAL_TIM_PeriodElapsedHalfCpltCallback,"ax",%progbits
 10525              		.align	1
 10526              		.weak	HAL_TIM_PeriodElapsedHalfCpltCallback
 10527              		.syntax unified
 10528              		.thumb
ARM GAS  C:\Users\user\AppData\Local\Temp\ccrDHgJ5.s 			page 183


 10529              		.thumb_func
 10531              	HAL_TIM_PeriodElapsedHalfCpltCallback:
 10532              		@ args = 0, pretend = 0, frame = 8
 10533              		@ frame_needed = 1, uses_anonymous_args = 0
 10534              		@ link register save eliminated.
 10535 0000 80B4     		push	{r7}
 10536 0002 83B0     		sub	sp, sp, #12
 10537 0004 00AF     		add	r7, sp, #0
 10538 0006 7860     		str	r0, [r7, #4]
 10539 0008 00BF     		nop
 10540 000a 0C37     		adds	r7, r7, #12
 10541 000c BD46     		mov	sp, r7
 10542              		@ sp needed
 10543 000e 5DF8047B 		ldr	r7, [sp], #4
 10544 0012 7047     		bx	lr
 10546              		.section	.text.HAL_TIM_OC_DelayElapsedCallback,"ax",%progbits
 10547              		.align	1
 10548              		.weak	HAL_TIM_OC_DelayElapsedCallback
 10549              		.syntax unified
 10550              		.thumb
 10551              		.thumb_func
 10553              	HAL_TIM_OC_DelayElapsedCallback:
 10554              		@ args = 0, pretend = 0, frame = 8
 10555              		@ frame_needed = 1, uses_anonymous_args = 0
 10556              		@ link register save eliminated.
 10557 0000 80B4     		push	{r7}
 10558 0002 83B0     		sub	sp, sp, #12
 10559 0004 00AF     		add	r7, sp, #0
 10560 0006 7860     		str	r0, [r7, #4]
 10561 0008 00BF     		nop
 10562 000a 0C37     		adds	r7, r7, #12
 10563 000c BD46     		mov	sp, r7
 10564              		@ sp needed
 10565 000e 5DF8047B 		ldr	r7, [sp], #4
 10566 0012 7047     		bx	lr
 10568              		.section	.text.HAL_TIM_IC_CaptureCallback,"ax",%progbits
 10569              		.align	1
 10570              		.weak	HAL_TIM_IC_CaptureCallback
 10571              		.syntax unified
 10572              		.thumb
 10573              		.thumb_func
 10575              	HAL_TIM_IC_CaptureCallback:
 10576              		@ args = 0, pretend = 0, frame = 8
 10577              		@ frame_needed = 1, uses_anonymous_args = 0
 10578              		@ link register save eliminated.
 10579 0000 80B4     		push	{r7}
 10580 0002 83B0     		sub	sp, sp, #12
 10581 0004 00AF     		add	r7, sp, #0
 10582 0006 7860     		str	r0, [r7, #4]
 10583 0008 00BF     		nop
 10584 000a 0C37     		adds	r7, r7, #12
 10585 000c BD46     		mov	sp, r7
 10586              		@ sp needed
 10587 000e 5DF8047B 		ldr	r7, [sp], #4
 10588 0012 7047     		bx	lr
 10590              		.section	.text.HAL_TIM_IC_CaptureHalfCpltCallback,"ax",%progbits
 10591              		.align	1
ARM GAS  C:\Users\user\AppData\Local\Temp\ccrDHgJ5.s 			page 184


 10592              		.weak	HAL_TIM_IC_CaptureHalfCpltCallback
 10593              		.syntax unified
 10594              		.thumb
 10595              		.thumb_func
 10597              	HAL_TIM_IC_CaptureHalfCpltCallback:
 10598              		@ args = 0, pretend = 0, frame = 8
 10599              		@ frame_needed = 1, uses_anonymous_args = 0
 10600              		@ link register save eliminated.
 10601 0000 80B4     		push	{r7}
 10602 0002 83B0     		sub	sp, sp, #12
 10603 0004 00AF     		add	r7, sp, #0
 10604 0006 7860     		str	r0, [r7, #4]
 10605 0008 00BF     		nop
 10606 000a 0C37     		adds	r7, r7, #12
 10607 000c BD46     		mov	sp, r7
 10608              		@ sp needed
 10609 000e 5DF8047B 		ldr	r7, [sp], #4
 10610 0012 7047     		bx	lr
 10612              		.section	.text.HAL_TIM_PWM_PulseFinishedCallback,"ax",%progbits
 10613              		.align	1
 10614              		.weak	HAL_TIM_PWM_PulseFinishedCallback
 10615              		.syntax unified
 10616              		.thumb
 10617              		.thumb_func
 10619              	HAL_TIM_PWM_PulseFinishedCallback:
 10620              		@ args = 0, pretend = 0, frame = 8
 10621              		@ frame_needed = 1, uses_anonymous_args = 0
 10622              		@ link register save eliminated.
 10623 0000 80B4     		push	{r7}
 10624 0002 83B0     		sub	sp, sp, #12
 10625 0004 00AF     		add	r7, sp, #0
 10626 0006 7860     		str	r0, [r7, #4]
 10627 0008 00BF     		nop
 10628 000a 0C37     		adds	r7, r7, #12
 10629 000c BD46     		mov	sp, r7
 10630              		@ sp needed
 10631 000e 5DF8047B 		ldr	r7, [sp], #4
 10632 0012 7047     		bx	lr
 10634              		.section	.text.HAL_TIM_PWM_PulseFinishedHalfCpltCallback,"ax",%progbits
 10635              		.align	1
 10636              		.weak	HAL_TIM_PWM_PulseFinishedHalfCpltCallback
 10637              		.syntax unified
 10638              		.thumb
 10639              		.thumb_func
 10641              	HAL_TIM_PWM_PulseFinishedHalfCpltCallback:
 10642              		@ args = 0, pretend = 0, frame = 8
 10643              		@ frame_needed = 1, uses_anonymous_args = 0
 10644              		@ link register save eliminated.
 10645 0000 80B4     		push	{r7}
 10646 0002 83B0     		sub	sp, sp, #12
 10647 0004 00AF     		add	r7, sp, #0
 10648 0006 7860     		str	r0, [r7, #4]
 10649 0008 00BF     		nop
 10650 000a 0C37     		adds	r7, r7, #12
 10651 000c BD46     		mov	sp, r7
 10652              		@ sp needed
 10653 000e 5DF8047B 		ldr	r7, [sp], #4
ARM GAS  C:\Users\user\AppData\Local\Temp\ccrDHgJ5.s 			page 185


 10654 0012 7047     		bx	lr
 10656              		.section	.text.HAL_TIM_TriggerCallback,"ax",%progbits
 10657              		.align	1
 10658              		.weak	HAL_TIM_TriggerCallback
 10659              		.syntax unified
 10660              		.thumb
 10661              		.thumb_func
 10663              	HAL_TIM_TriggerCallback:
 10664              		@ args = 0, pretend = 0, frame = 8
 10665              		@ frame_needed = 1, uses_anonymous_args = 0
 10666              		@ link register save eliminated.
 10667 0000 80B4     		push	{r7}
 10668 0002 83B0     		sub	sp, sp, #12
 10669 0004 00AF     		add	r7, sp, #0
 10670 0006 7860     		str	r0, [r7, #4]
 10671 0008 00BF     		nop
 10672 000a 0C37     		adds	r7, r7, #12
 10673 000c BD46     		mov	sp, r7
 10674              		@ sp needed
 10675 000e 5DF8047B 		ldr	r7, [sp], #4
 10676 0012 7047     		bx	lr
 10678              		.section	.text.HAL_TIM_TriggerHalfCpltCallback,"ax",%progbits
 10679              		.align	1
 10680              		.weak	HAL_TIM_TriggerHalfCpltCallback
 10681              		.syntax unified
 10682              		.thumb
 10683              		.thumb_func
 10685              	HAL_TIM_TriggerHalfCpltCallback:
 10686              		@ args = 0, pretend = 0, frame = 8
 10687              		@ frame_needed = 1, uses_anonymous_args = 0
 10688              		@ link register save eliminated.
 10689 0000 80B4     		push	{r7}
 10690 0002 83B0     		sub	sp, sp, #12
 10691 0004 00AF     		add	r7, sp, #0
 10692 0006 7860     		str	r0, [r7, #4]
 10693 0008 00BF     		nop
 10694 000a 0C37     		adds	r7, r7, #12
 10695 000c BD46     		mov	sp, r7
 10696              		@ sp needed
 10697 000e 5DF8047B 		ldr	r7, [sp], #4
 10698 0012 7047     		bx	lr
 10700              		.section	.text.HAL_TIM_ErrorCallback,"ax",%progbits
 10701              		.align	1
 10702              		.weak	HAL_TIM_ErrorCallback
 10703              		.syntax unified
 10704              		.thumb
 10705              		.thumb_func
 10707              	HAL_TIM_ErrorCallback:
 10708              		@ args = 0, pretend = 0, frame = 8
 10709              		@ frame_needed = 1, uses_anonymous_args = 0
 10710              		@ link register save eliminated.
 10711 0000 80B4     		push	{r7}
 10712 0002 83B0     		sub	sp, sp, #12
 10713 0004 00AF     		add	r7, sp, #0
 10714 0006 7860     		str	r0, [r7, #4]
 10715 0008 00BF     		nop
 10716 000a 0C37     		adds	r7, r7, #12
ARM GAS  C:\Users\user\AppData\Local\Temp\ccrDHgJ5.s 			page 186


 10717 000c BD46     		mov	sp, r7
 10718              		@ sp needed
 10719 000e 5DF8047B 		ldr	r7, [sp], #4
 10720 0012 7047     		bx	lr
 10722              		.section	.text.HAL_TIM_Base_GetState,"ax",%progbits
 10723              		.align	1
 10724              		.global	HAL_TIM_Base_GetState
 10725              		.syntax unified
 10726              		.thumb
 10727              		.thumb_func
 10729              	HAL_TIM_Base_GetState:
 10730              		@ args = 0, pretend = 0, frame = 8
 10731              		@ frame_needed = 1, uses_anonymous_args = 0
 10732              		@ link register save eliminated.
 10733 0000 80B4     		push	{r7}
 10734 0002 83B0     		sub	sp, sp, #12
 10735 0004 00AF     		add	r7, sp, #0
 10736 0006 7860     		str	r0, [r7, #4]
 10737 0008 7B68     		ldr	r3, [r7, #4]
 10738 000a 93F83D30 		ldrb	r3, [r3, #61]
 10739 000e DBB2     		uxtb	r3, r3
 10740 0010 1846     		mov	r0, r3
 10741 0012 0C37     		adds	r7, r7, #12
 10742 0014 BD46     		mov	sp, r7
 10743              		@ sp needed
 10744 0016 5DF8047B 		ldr	r7, [sp], #4
 10745 001a 7047     		bx	lr
 10747              		.section	.text.HAL_TIM_OC_GetState,"ax",%progbits
 10748              		.align	1
 10749              		.global	HAL_TIM_OC_GetState
 10750              		.syntax unified
 10751              		.thumb
 10752              		.thumb_func
 10754              	HAL_TIM_OC_GetState:
 10755              		@ args = 0, pretend = 0, frame = 8
 10756              		@ frame_needed = 1, uses_anonymous_args = 0
 10757              		@ link register save eliminated.
 10758 0000 80B4     		push	{r7}
 10759 0002 83B0     		sub	sp, sp, #12
 10760 0004 00AF     		add	r7, sp, #0
 10761 0006 7860     		str	r0, [r7, #4]
 10762 0008 7B68     		ldr	r3, [r7, #4]
 10763 000a 93F83D30 		ldrb	r3, [r3, #61]
 10764 000e DBB2     		uxtb	r3, r3
 10765 0010 1846     		mov	r0, r3
 10766 0012 0C37     		adds	r7, r7, #12
 10767 0014 BD46     		mov	sp, r7
 10768              		@ sp needed
 10769 0016 5DF8047B 		ldr	r7, [sp], #4
 10770 001a 7047     		bx	lr
 10772              		.section	.text.HAL_TIM_PWM_GetState,"ax",%progbits
 10773              		.align	1
 10774              		.global	HAL_TIM_PWM_GetState
 10775              		.syntax unified
 10776              		.thumb
 10777              		.thumb_func
 10779              	HAL_TIM_PWM_GetState:
ARM GAS  C:\Users\user\AppData\Local\Temp\ccrDHgJ5.s 			page 187


 10780              		@ args = 0, pretend = 0, frame = 8
 10781              		@ frame_needed = 1, uses_anonymous_args = 0
 10782              		@ link register save eliminated.
 10783 0000 80B4     		push	{r7}
 10784 0002 83B0     		sub	sp, sp, #12
 10785 0004 00AF     		add	r7, sp, #0
 10786 0006 7860     		str	r0, [r7, #4]
 10787 0008 7B68     		ldr	r3, [r7, #4]
 10788 000a 93F83D30 		ldrb	r3, [r3, #61]
 10789 000e DBB2     		uxtb	r3, r3
 10790 0010 1846     		mov	r0, r3
 10791 0012 0C37     		adds	r7, r7, #12
 10792 0014 BD46     		mov	sp, r7
 10793              		@ sp needed
 10794 0016 5DF8047B 		ldr	r7, [sp], #4
 10795 001a 7047     		bx	lr
 10797              		.section	.text.HAL_TIM_IC_GetState,"ax",%progbits
 10798              		.align	1
 10799              		.global	HAL_TIM_IC_GetState
 10800              		.syntax unified
 10801              		.thumb
 10802              		.thumb_func
 10804              	HAL_TIM_IC_GetState:
 10805              		@ args = 0, pretend = 0, frame = 8
 10806              		@ frame_needed = 1, uses_anonymous_args = 0
 10807              		@ link register save eliminated.
 10808 0000 80B4     		push	{r7}
 10809 0002 83B0     		sub	sp, sp, #12
 10810 0004 00AF     		add	r7, sp, #0
 10811 0006 7860     		str	r0, [r7, #4]
 10812 0008 7B68     		ldr	r3, [r7, #4]
 10813 000a 93F83D30 		ldrb	r3, [r3, #61]
 10814 000e DBB2     		uxtb	r3, r3
 10815 0010 1846     		mov	r0, r3
 10816 0012 0C37     		adds	r7, r7, #12
 10817 0014 BD46     		mov	sp, r7
 10818              		@ sp needed
 10819 0016 5DF8047B 		ldr	r7, [sp], #4
 10820 001a 7047     		bx	lr
 10822              		.section	.text.HAL_TIM_OnePulse_GetState,"ax",%progbits
 10823              		.align	1
 10824              		.global	HAL_TIM_OnePulse_GetState
 10825              		.syntax unified
 10826              		.thumb
 10827              		.thumb_func
 10829              	HAL_TIM_OnePulse_GetState:
 10830              		@ args = 0, pretend = 0, frame = 8
 10831              		@ frame_needed = 1, uses_anonymous_args = 0
 10832              		@ link register save eliminated.
 10833 0000 80B4     		push	{r7}
 10834 0002 83B0     		sub	sp, sp, #12
 10835 0004 00AF     		add	r7, sp, #0
 10836 0006 7860     		str	r0, [r7, #4]
 10837 0008 7B68     		ldr	r3, [r7, #4]
 10838 000a 93F83D30 		ldrb	r3, [r3, #61]
 10839 000e DBB2     		uxtb	r3, r3
 10840 0010 1846     		mov	r0, r3
ARM GAS  C:\Users\user\AppData\Local\Temp\ccrDHgJ5.s 			page 188


 10841 0012 0C37     		adds	r7, r7, #12
 10842 0014 BD46     		mov	sp, r7
 10843              		@ sp needed
 10844 0016 5DF8047B 		ldr	r7, [sp], #4
 10845 001a 7047     		bx	lr
 10847              		.section	.text.HAL_TIM_Encoder_GetState,"ax",%progbits
 10848              		.align	1
 10849              		.global	HAL_TIM_Encoder_GetState
 10850              		.syntax unified
 10851              		.thumb
 10852              		.thumb_func
 10854              	HAL_TIM_Encoder_GetState:
 10855              		@ args = 0, pretend = 0, frame = 8
 10856              		@ frame_needed = 1, uses_anonymous_args = 0
 10857              		@ link register save eliminated.
 10858 0000 80B4     		push	{r7}
 10859 0002 83B0     		sub	sp, sp, #12
 10860 0004 00AF     		add	r7, sp, #0
 10861 0006 7860     		str	r0, [r7, #4]
 10862 0008 7B68     		ldr	r3, [r7, #4]
 10863 000a 93F83D30 		ldrb	r3, [r3, #61]
 10864 000e DBB2     		uxtb	r3, r3
 10865 0010 1846     		mov	r0, r3
 10866 0012 0C37     		adds	r7, r7, #12
 10867 0014 BD46     		mov	sp, r7
 10868              		@ sp needed
 10869 0016 5DF8047B 		ldr	r7, [sp], #4
 10870 001a 7047     		bx	lr
 10872              		.section	.text.HAL_TIM_GetActiveChannel,"ax",%progbits
 10873              		.align	1
 10874              		.global	HAL_TIM_GetActiveChannel
 10875              		.syntax unified
 10876              		.thumb
 10877              		.thumb_func
 10879              	HAL_TIM_GetActiveChannel:
 10880              		@ args = 0, pretend = 0, frame = 8
 10881              		@ frame_needed = 1, uses_anonymous_args = 0
 10882              		@ link register save eliminated.
 10883 0000 80B4     		push	{r7}
 10884 0002 83B0     		sub	sp, sp, #12
 10885 0004 00AF     		add	r7, sp, #0
 10886 0006 7860     		str	r0, [r7, #4]
 10887 0008 7B68     		ldr	r3, [r7, #4]
 10888 000a 1B7F     		ldrb	r3, [r3, #28]	@ zero_extendqisi2
 10889 000c 1846     		mov	r0, r3
 10890 000e 0C37     		adds	r7, r7, #12
 10891 0010 BD46     		mov	sp, r7
 10892              		@ sp needed
 10893 0012 5DF8047B 		ldr	r7, [sp], #4
 10894 0016 7047     		bx	lr
 10896              		.section	.text.HAL_TIM_GetChannelState,"ax",%progbits
 10897              		.align	1
 10898              		.global	HAL_TIM_GetChannelState
 10899              		.syntax unified
 10900              		.thumb
 10901              		.thumb_func
 10903              	HAL_TIM_GetChannelState:
ARM GAS  C:\Users\user\AppData\Local\Temp\ccrDHgJ5.s 			page 189


 10904              		@ args = 0, pretend = 0, frame = 16
 10905              		@ frame_needed = 1, uses_anonymous_args = 0
 10906              		@ link register save eliminated.
 10907 0000 80B4     		push	{r7}
 10908 0002 85B0     		sub	sp, sp, #20
 10909 0004 00AF     		add	r7, sp, #0
 10910 0006 7860     		str	r0, [r7, #4]
 10911 0008 3960     		str	r1, [r7]
 10912 000a 3B68     		ldr	r3, [r7]
 10913 000c 002B     		cmp	r3, #0
 10914 000e 04D1     		bne	.L1001
 10915 0010 7B68     		ldr	r3, [r7, #4]
 10916 0012 93F83E30 		ldrb	r3, [r3, #62]
 10917 0016 DBB2     		uxtb	r3, r3
 10918 0018 13E0     		b	.L1002
 10919              	.L1001:
 10920 001a 3B68     		ldr	r3, [r7]
 10921 001c 042B     		cmp	r3, #4
 10922 001e 04D1     		bne	.L1003
 10923 0020 7B68     		ldr	r3, [r7, #4]
 10924 0022 93F83F30 		ldrb	r3, [r3, #63]
 10925 0026 DBB2     		uxtb	r3, r3
 10926 0028 0BE0     		b	.L1002
 10927              	.L1003:
 10928 002a 3B68     		ldr	r3, [r7]
 10929 002c 082B     		cmp	r3, #8
 10930 002e 04D1     		bne	.L1005
 10931 0030 7B68     		ldr	r3, [r7, #4]
 10932 0032 93F84030 		ldrb	r3, [r3, #64]
 10933 0036 DBB2     		uxtb	r3, r3
 10934 0038 03E0     		b	.L1002
 10935              	.L1005:
 10936 003a 7B68     		ldr	r3, [r7, #4]
 10937 003c 93F84130 		ldrb	r3, [r3, #65]
 10938 0040 DBB2     		uxtb	r3, r3
 10939              	.L1002:
 10940 0042 FB73     		strb	r3, [r7, #15]
 10941 0044 FB7B     		ldrb	r3, [r7, #15]	@ zero_extendqisi2
 10942 0046 1846     		mov	r0, r3
 10943 0048 1437     		adds	r7, r7, #20
 10944 004a BD46     		mov	sp, r7
 10945              		@ sp needed
 10946 004c 5DF8047B 		ldr	r7, [sp], #4
 10947 0050 7047     		bx	lr
 10949              		.section	.text.HAL_TIM_DMABurstState,"ax",%progbits
 10950              		.align	1
 10951              		.global	HAL_TIM_DMABurstState
 10952              		.syntax unified
 10953              		.thumb
 10954              		.thumb_func
 10956              	HAL_TIM_DMABurstState:
 10957              		@ args = 0, pretend = 0, frame = 8
 10958              		@ frame_needed = 1, uses_anonymous_args = 0
 10959              		@ link register save eliminated.
 10960 0000 80B4     		push	{r7}
 10961 0002 83B0     		sub	sp, sp, #12
 10962 0004 00AF     		add	r7, sp, #0
ARM GAS  C:\Users\user\AppData\Local\Temp\ccrDHgJ5.s 			page 190


 10963 0006 7860     		str	r0, [r7, #4]
 10964 0008 7B68     		ldr	r3, [r7, #4]
 10965 000a 93F84630 		ldrb	r3, [r3, #70]
 10966 000e DBB2     		uxtb	r3, r3
 10967 0010 1846     		mov	r0, r3
 10968 0012 0C37     		adds	r7, r7, #12
 10969 0014 BD46     		mov	sp, r7
 10970              		@ sp needed
 10971 0016 5DF8047B 		ldr	r7, [sp], #4
 10972 001a 7047     		bx	lr
 10974              		.section	.text.TIM_DMAError,"ax",%progbits
 10975              		.align	1
 10976              		.global	TIM_DMAError
 10977              		.syntax unified
 10978              		.thumb
 10979              		.thumb_func
 10981              	TIM_DMAError:
 10982              		@ args = 0, pretend = 0, frame = 16
 10983              		@ frame_needed = 1, uses_anonymous_args = 0
 10984 0000 80B5     		push	{r7, lr}
 10985 0002 84B0     		sub	sp, sp, #16
 10986 0004 00AF     		add	r7, sp, #0
 10987 0006 7860     		str	r0, [r7, #4]
 10988 0008 7B68     		ldr	r3, [r7, #4]
 10989 000a 9B6B     		ldr	r3, [r3, #56]
 10990 000c FB60     		str	r3, [r7, #12]
 10991 000e FB68     		ldr	r3, [r7, #12]
 10992 0010 5B6A     		ldr	r3, [r3, #36]
 10993 0012 7A68     		ldr	r2, [r7, #4]
 10994 0014 9A42     		cmp	r2, r3
 10995 0016 07D1     		bne	.L1011
 10996 0018 FB68     		ldr	r3, [r7, #12]
 10997 001a 0122     		movs	r2, #1
 10998 001c 1A77     		strb	r2, [r3, #28]
 10999 001e FB68     		ldr	r3, [r7, #12]
 11000 0020 0122     		movs	r2, #1
 11001 0022 83F83E20 		strb	r2, [r3, #62]
 11002 0026 2AE0     		b	.L1012
 11003              	.L1011:
 11004 0028 FB68     		ldr	r3, [r7, #12]
 11005 002a 9B6A     		ldr	r3, [r3, #40]
 11006 002c 7A68     		ldr	r2, [r7, #4]
 11007 002e 9A42     		cmp	r2, r3
 11008 0030 07D1     		bne	.L1013
 11009 0032 FB68     		ldr	r3, [r7, #12]
 11010 0034 0222     		movs	r2, #2
 11011 0036 1A77     		strb	r2, [r3, #28]
 11012 0038 FB68     		ldr	r3, [r7, #12]
 11013 003a 0122     		movs	r2, #1
 11014 003c 83F83F20 		strb	r2, [r3, #63]
 11015 0040 1DE0     		b	.L1012
 11016              	.L1013:
 11017 0042 FB68     		ldr	r3, [r7, #12]
 11018 0044 DB6A     		ldr	r3, [r3, #44]
 11019 0046 7A68     		ldr	r2, [r7, #4]
 11020 0048 9A42     		cmp	r2, r3
 11021 004a 07D1     		bne	.L1014
ARM GAS  C:\Users\user\AppData\Local\Temp\ccrDHgJ5.s 			page 191


 11022 004c FB68     		ldr	r3, [r7, #12]
 11023 004e 0422     		movs	r2, #4
 11024 0050 1A77     		strb	r2, [r3, #28]
 11025 0052 FB68     		ldr	r3, [r7, #12]
 11026 0054 0122     		movs	r2, #1
 11027 0056 83F84020 		strb	r2, [r3, #64]
 11028 005a 10E0     		b	.L1012
 11029              	.L1014:
 11030 005c FB68     		ldr	r3, [r7, #12]
 11031 005e 1B6B     		ldr	r3, [r3, #48]
 11032 0060 7A68     		ldr	r2, [r7, #4]
 11033 0062 9A42     		cmp	r2, r3
 11034 0064 07D1     		bne	.L1015
 11035 0066 FB68     		ldr	r3, [r7, #12]
 11036 0068 0822     		movs	r2, #8
 11037 006a 1A77     		strb	r2, [r3, #28]
 11038 006c FB68     		ldr	r3, [r7, #12]
 11039 006e 0122     		movs	r2, #1
 11040 0070 83F84120 		strb	r2, [r3, #65]
 11041 0074 03E0     		b	.L1012
 11042              	.L1015:
 11043 0076 FB68     		ldr	r3, [r7, #12]
 11044 0078 0122     		movs	r2, #1
 11045 007a 83F83D20 		strb	r2, [r3, #61]
 11046              	.L1012:
 11047 007e F868     		ldr	r0, [r7, #12]
 11048 0080 FFF7FEFF 		bl	HAL_TIM_ErrorCallback
 11049 0084 FB68     		ldr	r3, [r7, #12]
 11050 0086 0022     		movs	r2, #0
 11051 0088 1A77     		strb	r2, [r3, #28]
 11052 008a 00BF     		nop
 11053 008c 1037     		adds	r7, r7, #16
 11054 008e BD46     		mov	sp, r7
 11055              		@ sp needed
 11056 0090 80BD     		pop	{r7, pc}
 11058              		.section	.text.TIM_DMADelayPulseCplt,"ax",%progbits
 11059              		.align	1
 11060              		.syntax unified
 11061              		.thumb
 11062              		.thumb_func
 11064              	TIM_DMADelayPulseCplt:
 11065              		@ args = 0, pretend = 0, frame = 16
 11066              		@ frame_needed = 1, uses_anonymous_args = 0
 11067 0000 80B5     		push	{r7, lr}
 11068 0002 84B0     		sub	sp, sp, #16
 11069 0004 00AF     		add	r7, sp, #0
 11070 0006 7860     		str	r0, [r7, #4]
 11071 0008 7B68     		ldr	r3, [r7, #4]
 11072 000a 9B6B     		ldr	r3, [r3, #56]
 11073 000c FB60     		str	r3, [r7, #12]
 11074 000e FB68     		ldr	r3, [r7, #12]
 11075 0010 5B6A     		ldr	r3, [r3, #36]
 11076 0012 7A68     		ldr	r2, [r7, #4]
 11077 0014 9A42     		cmp	r2, r3
 11078 0016 0BD1     		bne	.L1017
 11079 0018 FB68     		ldr	r3, [r7, #12]
 11080 001a 0122     		movs	r2, #1
ARM GAS  C:\Users\user\AppData\Local\Temp\ccrDHgJ5.s 			page 192


 11081 001c 1A77     		strb	r2, [r3, #28]
 11082 001e 7B68     		ldr	r3, [r7, #4]
 11083 0020 DB69     		ldr	r3, [r3, #28]
 11084 0022 002B     		cmp	r3, #0
 11085 0024 36D1     		bne	.L1018
 11086 0026 FB68     		ldr	r3, [r7, #12]
 11087 0028 0122     		movs	r2, #1
 11088 002a 83F83E20 		strb	r2, [r3, #62]
 11089 002e 31E0     		b	.L1018
 11090              	.L1017:
 11091 0030 FB68     		ldr	r3, [r7, #12]
 11092 0032 9B6A     		ldr	r3, [r3, #40]
 11093 0034 7A68     		ldr	r2, [r7, #4]
 11094 0036 9A42     		cmp	r2, r3
 11095 0038 0BD1     		bne	.L1019
 11096 003a FB68     		ldr	r3, [r7, #12]
 11097 003c 0222     		movs	r2, #2
 11098 003e 1A77     		strb	r2, [r3, #28]
 11099 0040 7B68     		ldr	r3, [r7, #4]
 11100 0042 DB69     		ldr	r3, [r3, #28]
 11101 0044 002B     		cmp	r3, #0
 11102 0046 25D1     		bne	.L1018
 11103 0048 FB68     		ldr	r3, [r7, #12]
 11104 004a 0122     		movs	r2, #1
 11105 004c 83F83F20 		strb	r2, [r3, #63]
 11106 0050 20E0     		b	.L1018
 11107              	.L1019:
 11108 0052 FB68     		ldr	r3, [r7, #12]
 11109 0054 DB6A     		ldr	r3, [r3, #44]
 11110 0056 7A68     		ldr	r2, [r7, #4]
 11111 0058 9A42     		cmp	r2, r3
 11112 005a 0BD1     		bne	.L1020
 11113 005c FB68     		ldr	r3, [r7, #12]
 11114 005e 0422     		movs	r2, #4
 11115 0060 1A77     		strb	r2, [r3, #28]
 11116 0062 7B68     		ldr	r3, [r7, #4]
 11117 0064 DB69     		ldr	r3, [r3, #28]
 11118 0066 002B     		cmp	r3, #0
 11119 0068 14D1     		bne	.L1018
 11120 006a FB68     		ldr	r3, [r7, #12]
 11121 006c 0122     		movs	r2, #1
 11122 006e 83F84020 		strb	r2, [r3, #64]
 11123 0072 0FE0     		b	.L1018
 11124              	.L1020:
 11125 0074 FB68     		ldr	r3, [r7, #12]
 11126 0076 1B6B     		ldr	r3, [r3, #48]
 11127 0078 7A68     		ldr	r2, [r7, #4]
 11128 007a 9A42     		cmp	r2, r3
 11129 007c 0AD1     		bne	.L1018
 11130 007e FB68     		ldr	r3, [r7, #12]
 11131 0080 0822     		movs	r2, #8
 11132 0082 1A77     		strb	r2, [r3, #28]
 11133 0084 7B68     		ldr	r3, [r7, #4]
 11134 0086 DB69     		ldr	r3, [r3, #28]
 11135 0088 002B     		cmp	r3, #0
 11136 008a 03D1     		bne	.L1018
 11137 008c FB68     		ldr	r3, [r7, #12]
ARM GAS  C:\Users\user\AppData\Local\Temp\ccrDHgJ5.s 			page 193


 11138 008e 0122     		movs	r2, #1
 11139 0090 83F84120 		strb	r2, [r3, #65]
 11140              	.L1018:
 11141 0094 F868     		ldr	r0, [r7, #12]
 11142 0096 FFF7FEFF 		bl	HAL_TIM_PWM_PulseFinishedCallback
 11143 009a FB68     		ldr	r3, [r7, #12]
 11144 009c 0022     		movs	r2, #0
 11145 009e 1A77     		strb	r2, [r3, #28]
 11146 00a0 00BF     		nop
 11147 00a2 1037     		adds	r7, r7, #16
 11148 00a4 BD46     		mov	sp, r7
 11149              		@ sp needed
 11150 00a6 80BD     		pop	{r7, pc}
 11152              		.section	.text.TIM_DMADelayPulseHalfCplt,"ax",%progbits
 11153              		.align	1
 11154              		.global	TIM_DMADelayPulseHalfCplt
 11155              		.syntax unified
 11156              		.thumb
 11157              		.thumb_func
 11159              	TIM_DMADelayPulseHalfCplt:
 11160              		@ args = 0, pretend = 0, frame = 16
 11161              		@ frame_needed = 1, uses_anonymous_args = 0
 11162 0000 80B5     		push	{r7, lr}
 11163 0002 84B0     		sub	sp, sp, #16
 11164 0004 00AF     		add	r7, sp, #0
 11165 0006 7860     		str	r0, [r7, #4]
 11166 0008 7B68     		ldr	r3, [r7, #4]
 11167 000a 9B6B     		ldr	r3, [r3, #56]
 11168 000c FB60     		str	r3, [r7, #12]
 11169 000e FB68     		ldr	r3, [r7, #12]
 11170 0010 5B6A     		ldr	r3, [r3, #36]
 11171 0012 7A68     		ldr	r2, [r7, #4]
 11172 0014 9A42     		cmp	r2, r3
 11173 0016 03D1     		bne	.L1022
 11174 0018 FB68     		ldr	r3, [r7, #12]
 11175 001a 0122     		movs	r2, #1
 11176 001c 1A77     		strb	r2, [r3, #28]
 11177 001e 19E0     		b	.L1023
 11178              	.L1022:
 11179 0020 FB68     		ldr	r3, [r7, #12]
 11180 0022 9B6A     		ldr	r3, [r3, #40]
 11181 0024 7A68     		ldr	r2, [r7, #4]
 11182 0026 9A42     		cmp	r2, r3
 11183 0028 03D1     		bne	.L1024
 11184 002a FB68     		ldr	r3, [r7, #12]
 11185 002c 0222     		movs	r2, #2
 11186 002e 1A77     		strb	r2, [r3, #28]
 11187 0030 10E0     		b	.L1023
 11188              	.L1024:
 11189 0032 FB68     		ldr	r3, [r7, #12]
 11190 0034 DB6A     		ldr	r3, [r3, #44]
 11191 0036 7A68     		ldr	r2, [r7, #4]
 11192 0038 9A42     		cmp	r2, r3
 11193 003a 03D1     		bne	.L1025
 11194 003c FB68     		ldr	r3, [r7, #12]
 11195 003e 0422     		movs	r2, #4
 11196 0040 1A77     		strb	r2, [r3, #28]
ARM GAS  C:\Users\user\AppData\Local\Temp\ccrDHgJ5.s 			page 194


 11197 0042 07E0     		b	.L1023
 11198              	.L1025:
 11199 0044 FB68     		ldr	r3, [r7, #12]
 11200 0046 1B6B     		ldr	r3, [r3, #48]
 11201 0048 7A68     		ldr	r2, [r7, #4]
 11202 004a 9A42     		cmp	r2, r3
 11203 004c 02D1     		bne	.L1023
 11204 004e FB68     		ldr	r3, [r7, #12]
 11205 0050 0822     		movs	r2, #8
 11206 0052 1A77     		strb	r2, [r3, #28]
 11207              	.L1023:
 11208 0054 F868     		ldr	r0, [r7, #12]
 11209 0056 FFF7FEFF 		bl	HAL_TIM_PWM_PulseFinishedHalfCpltCallback
 11210 005a FB68     		ldr	r3, [r7, #12]
 11211 005c 0022     		movs	r2, #0
 11212 005e 1A77     		strb	r2, [r3, #28]
 11213 0060 00BF     		nop
 11214 0062 1037     		adds	r7, r7, #16
 11215 0064 BD46     		mov	sp, r7
 11216              		@ sp needed
 11217 0066 80BD     		pop	{r7, pc}
 11219              		.section	.text.TIM_DMACaptureCplt,"ax",%progbits
 11220              		.align	1
 11221              		.global	TIM_DMACaptureCplt
 11222              		.syntax unified
 11223              		.thumb
 11224              		.thumb_func
 11226              	TIM_DMACaptureCplt:
 11227              		@ args = 0, pretend = 0, frame = 16
 11228              		@ frame_needed = 1, uses_anonymous_args = 0
 11229 0000 80B5     		push	{r7, lr}
 11230 0002 84B0     		sub	sp, sp, #16
 11231 0004 00AF     		add	r7, sp, #0
 11232 0006 7860     		str	r0, [r7, #4]
 11233 0008 7B68     		ldr	r3, [r7, #4]
 11234 000a 9B6B     		ldr	r3, [r3, #56]
 11235 000c FB60     		str	r3, [r7, #12]
 11236 000e FB68     		ldr	r3, [r7, #12]
 11237 0010 5B6A     		ldr	r3, [r3, #36]
 11238 0012 7A68     		ldr	r2, [r7, #4]
 11239 0014 9A42     		cmp	r2, r3
 11240 0016 0FD1     		bne	.L1027
 11241 0018 FB68     		ldr	r3, [r7, #12]
 11242 001a 0122     		movs	r2, #1
 11243 001c 1A77     		strb	r2, [r3, #28]
 11244 001e 7B68     		ldr	r3, [r7, #4]
 11245 0020 DB69     		ldr	r3, [r3, #28]
 11246 0022 002B     		cmp	r3, #0
 11247 0024 46D1     		bne	.L1028
 11248 0026 FB68     		ldr	r3, [r7, #12]
 11249 0028 0122     		movs	r2, #1
 11250 002a 83F83E20 		strb	r2, [r3, #62]
 11251 002e FB68     		ldr	r3, [r7, #12]
 11252 0030 0122     		movs	r2, #1
 11253 0032 83F84220 		strb	r2, [r3, #66]
 11254 0036 3DE0     		b	.L1028
 11255              	.L1027:
ARM GAS  C:\Users\user\AppData\Local\Temp\ccrDHgJ5.s 			page 195


 11256 0038 FB68     		ldr	r3, [r7, #12]
 11257 003a 9B6A     		ldr	r3, [r3, #40]
 11258 003c 7A68     		ldr	r2, [r7, #4]
 11259 003e 9A42     		cmp	r2, r3
 11260 0040 0FD1     		bne	.L1029
 11261 0042 FB68     		ldr	r3, [r7, #12]
 11262 0044 0222     		movs	r2, #2
 11263 0046 1A77     		strb	r2, [r3, #28]
 11264 0048 7B68     		ldr	r3, [r7, #4]
 11265 004a DB69     		ldr	r3, [r3, #28]
 11266 004c 002B     		cmp	r3, #0
 11267 004e 31D1     		bne	.L1028
 11268 0050 FB68     		ldr	r3, [r7, #12]
 11269 0052 0122     		movs	r2, #1
 11270 0054 83F83F20 		strb	r2, [r3, #63]
 11271 0058 FB68     		ldr	r3, [r7, #12]
 11272 005a 0122     		movs	r2, #1
 11273 005c 83F84320 		strb	r2, [r3, #67]
 11274 0060 28E0     		b	.L1028
 11275              	.L1029:
 11276 0062 FB68     		ldr	r3, [r7, #12]
 11277 0064 DB6A     		ldr	r3, [r3, #44]
 11278 0066 7A68     		ldr	r2, [r7, #4]
 11279 0068 9A42     		cmp	r2, r3
 11280 006a 0FD1     		bne	.L1030
 11281 006c FB68     		ldr	r3, [r7, #12]
 11282 006e 0422     		movs	r2, #4
 11283 0070 1A77     		strb	r2, [r3, #28]
 11284 0072 7B68     		ldr	r3, [r7, #4]
 11285 0074 DB69     		ldr	r3, [r3, #28]
 11286 0076 002B     		cmp	r3, #0
 11287 0078 1CD1     		bne	.L1028
 11288 007a FB68     		ldr	r3, [r7, #12]
 11289 007c 0122     		movs	r2, #1
 11290 007e 83F84020 		strb	r2, [r3, #64]
 11291 0082 FB68     		ldr	r3, [r7, #12]
 11292 0084 0122     		movs	r2, #1
 11293 0086 83F84420 		strb	r2, [r3, #68]
 11294 008a 13E0     		b	.L1028
 11295              	.L1030:
 11296 008c FB68     		ldr	r3, [r7, #12]
 11297 008e 1B6B     		ldr	r3, [r3, #48]
 11298 0090 7A68     		ldr	r2, [r7, #4]
 11299 0092 9A42     		cmp	r2, r3
 11300 0094 0ED1     		bne	.L1028
 11301 0096 FB68     		ldr	r3, [r7, #12]
 11302 0098 0822     		movs	r2, #8
 11303 009a 1A77     		strb	r2, [r3, #28]
 11304 009c 7B68     		ldr	r3, [r7, #4]
 11305 009e DB69     		ldr	r3, [r3, #28]
 11306 00a0 002B     		cmp	r3, #0
 11307 00a2 07D1     		bne	.L1028
 11308 00a4 FB68     		ldr	r3, [r7, #12]
 11309 00a6 0122     		movs	r2, #1
 11310 00a8 83F84120 		strb	r2, [r3, #65]
 11311 00ac FB68     		ldr	r3, [r7, #12]
 11312 00ae 0122     		movs	r2, #1
ARM GAS  C:\Users\user\AppData\Local\Temp\ccrDHgJ5.s 			page 196


 11313 00b0 83F84520 		strb	r2, [r3, #69]
 11314              	.L1028:
 11315 00b4 F868     		ldr	r0, [r7, #12]
 11316 00b6 FFF7FEFF 		bl	HAL_TIM_IC_CaptureCallback
 11317 00ba FB68     		ldr	r3, [r7, #12]
 11318 00bc 0022     		movs	r2, #0
 11319 00be 1A77     		strb	r2, [r3, #28]
 11320 00c0 00BF     		nop
 11321 00c2 1037     		adds	r7, r7, #16
 11322 00c4 BD46     		mov	sp, r7
 11323              		@ sp needed
 11324 00c6 80BD     		pop	{r7, pc}
 11326              		.section	.text.TIM_DMACaptureHalfCplt,"ax",%progbits
 11327              		.align	1
 11328              		.global	TIM_DMACaptureHalfCplt
 11329              		.syntax unified
 11330              		.thumb
 11331              		.thumb_func
 11333              	TIM_DMACaptureHalfCplt:
 11334              		@ args = 0, pretend = 0, frame = 16
 11335              		@ frame_needed = 1, uses_anonymous_args = 0
 11336 0000 80B5     		push	{r7, lr}
 11337 0002 84B0     		sub	sp, sp, #16
 11338 0004 00AF     		add	r7, sp, #0
 11339 0006 7860     		str	r0, [r7, #4]
 11340 0008 7B68     		ldr	r3, [r7, #4]
 11341 000a 9B6B     		ldr	r3, [r3, #56]
 11342 000c FB60     		str	r3, [r7, #12]
 11343 000e FB68     		ldr	r3, [r7, #12]
 11344 0010 5B6A     		ldr	r3, [r3, #36]
 11345 0012 7A68     		ldr	r2, [r7, #4]
 11346 0014 9A42     		cmp	r2, r3
 11347 0016 03D1     		bne	.L1032
 11348 0018 FB68     		ldr	r3, [r7, #12]
 11349 001a 0122     		movs	r2, #1
 11350 001c 1A77     		strb	r2, [r3, #28]
 11351 001e 19E0     		b	.L1033
 11352              	.L1032:
 11353 0020 FB68     		ldr	r3, [r7, #12]
 11354 0022 9B6A     		ldr	r3, [r3, #40]
 11355 0024 7A68     		ldr	r2, [r7, #4]
 11356 0026 9A42     		cmp	r2, r3
 11357 0028 03D1     		bne	.L1034
 11358 002a FB68     		ldr	r3, [r7, #12]
 11359 002c 0222     		movs	r2, #2
 11360 002e 1A77     		strb	r2, [r3, #28]
 11361 0030 10E0     		b	.L1033
 11362              	.L1034:
 11363 0032 FB68     		ldr	r3, [r7, #12]
 11364 0034 DB6A     		ldr	r3, [r3, #44]
 11365 0036 7A68     		ldr	r2, [r7, #4]
 11366 0038 9A42     		cmp	r2, r3
 11367 003a 03D1     		bne	.L1035
 11368 003c FB68     		ldr	r3, [r7, #12]
 11369 003e 0422     		movs	r2, #4
 11370 0040 1A77     		strb	r2, [r3, #28]
 11371 0042 07E0     		b	.L1033
ARM GAS  C:\Users\user\AppData\Local\Temp\ccrDHgJ5.s 			page 197


 11372              	.L1035:
 11373 0044 FB68     		ldr	r3, [r7, #12]
 11374 0046 1B6B     		ldr	r3, [r3, #48]
 11375 0048 7A68     		ldr	r2, [r7, #4]
 11376 004a 9A42     		cmp	r2, r3
 11377 004c 02D1     		bne	.L1033
 11378 004e FB68     		ldr	r3, [r7, #12]
 11379 0050 0822     		movs	r2, #8
 11380 0052 1A77     		strb	r2, [r3, #28]
 11381              	.L1033:
 11382 0054 F868     		ldr	r0, [r7, #12]
 11383 0056 FFF7FEFF 		bl	HAL_TIM_IC_CaptureHalfCpltCallback
 11384 005a FB68     		ldr	r3, [r7, #12]
 11385 005c 0022     		movs	r2, #0
 11386 005e 1A77     		strb	r2, [r3, #28]
 11387 0060 00BF     		nop
 11388 0062 1037     		adds	r7, r7, #16
 11389 0064 BD46     		mov	sp, r7
 11390              		@ sp needed
 11391 0066 80BD     		pop	{r7, pc}
 11393              		.section	.text.TIM_DMAPeriodElapsedCplt,"ax",%progbits
 11394              		.align	1
 11395              		.syntax unified
 11396              		.thumb
 11397              		.thumb_func
 11399              	TIM_DMAPeriodElapsedCplt:
 11400              		@ args = 0, pretend = 0, frame = 16
 11401              		@ frame_needed = 1, uses_anonymous_args = 0
 11402 0000 80B5     		push	{r7, lr}
 11403 0002 84B0     		sub	sp, sp, #16
 11404 0004 00AF     		add	r7, sp, #0
 11405 0006 7860     		str	r0, [r7, #4]
 11406 0008 7B68     		ldr	r3, [r7, #4]
 11407 000a 9B6B     		ldr	r3, [r3, #56]
 11408 000c FB60     		str	r3, [r7, #12]
 11409 000e FB68     		ldr	r3, [r7, #12]
 11410 0010 1B6A     		ldr	r3, [r3, #32]
 11411 0012 DB69     		ldr	r3, [r3, #28]
 11412 0014 002B     		cmp	r3, #0
 11413 0016 03D1     		bne	.L1037
 11414 0018 FB68     		ldr	r3, [r7, #12]
 11415 001a 0122     		movs	r2, #1
 11416 001c 83F83D20 		strb	r2, [r3, #61]
 11417              	.L1037:
 11418 0020 F868     		ldr	r0, [r7, #12]
 11419 0022 FFF7FEFF 		bl	HAL_TIM_PeriodElapsedCallback
 11420 0026 00BF     		nop
 11421 0028 1037     		adds	r7, r7, #16
 11422 002a BD46     		mov	sp, r7
 11423              		@ sp needed
 11424 002c 80BD     		pop	{r7, pc}
 11426              		.section	.text.TIM_DMAPeriodElapsedHalfCplt,"ax",%progbits
 11427              		.align	1
 11428              		.syntax unified
 11429              		.thumb
 11430              		.thumb_func
 11432              	TIM_DMAPeriodElapsedHalfCplt:
ARM GAS  C:\Users\user\AppData\Local\Temp\ccrDHgJ5.s 			page 198


 11433              		@ args = 0, pretend = 0, frame = 16
 11434              		@ frame_needed = 1, uses_anonymous_args = 0
 11435 0000 80B5     		push	{r7, lr}
 11436 0002 84B0     		sub	sp, sp, #16
 11437 0004 00AF     		add	r7, sp, #0
 11438 0006 7860     		str	r0, [r7, #4]
 11439 0008 7B68     		ldr	r3, [r7, #4]
 11440 000a 9B6B     		ldr	r3, [r3, #56]
 11441 000c FB60     		str	r3, [r7, #12]
 11442 000e F868     		ldr	r0, [r7, #12]
 11443 0010 FFF7FEFF 		bl	HAL_TIM_PeriodElapsedHalfCpltCallback
 11444 0014 00BF     		nop
 11445 0016 1037     		adds	r7, r7, #16
 11446 0018 BD46     		mov	sp, r7
 11447              		@ sp needed
 11448 001a 80BD     		pop	{r7, pc}
 11450              		.section	.text.TIM_DMATriggerCplt,"ax",%progbits
 11451              		.align	1
 11452              		.syntax unified
 11453              		.thumb
 11454              		.thumb_func
 11456              	TIM_DMATriggerCplt:
 11457              		@ args = 0, pretend = 0, frame = 16
 11458              		@ frame_needed = 1, uses_anonymous_args = 0
 11459 0000 80B5     		push	{r7, lr}
 11460 0002 84B0     		sub	sp, sp, #16
 11461 0004 00AF     		add	r7, sp, #0
 11462 0006 7860     		str	r0, [r7, #4]
 11463 0008 7B68     		ldr	r3, [r7, #4]
 11464 000a 9B6B     		ldr	r3, [r3, #56]
 11465 000c FB60     		str	r3, [r7, #12]
 11466 000e FB68     		ldr	r3, [r7, #12]
 11467 0010 9B6B     		ldr	r3, [r3, #56]
 11468 0012 DB69     		ldr	r3, [r3, #28]
 11469 0014 002B     		cmp	r3, #0
 11470 0016 03D1     		bne	.L1040
 11471 0018 FB68     		ldr	r3, [r7, #12]
 11472 001a 0122     		movs	r2, #1
 11473 001c 83F83D20 		strb	r2, [r3, #61]
 11474              	.L1040:
 11475 0020 F868     		ldr	r0, [r7, #12]
 11476 0022 FFF7FEFF 		bl	HAL_TIM_TriggerCallback
 11477 0026 00BF     		nop
 11478 0028 1037     		adds	r7, r7, #16
 11479 002a BD46     		mov	sp, r7
 11480              		@ sp needed
 11481 002c 80BD     		pop	{r7, pc}
 11483              		.section	.text.TIM_DMATriggerHalfCplt,"ax",%progbits
 11484              		.align	1
 11485              		.syntax unified
 11486              		.thumb
 11487              		.thumb_func
 11489              	TIM_DMATriggerHalfCplt:
 11490              		@ args = 0, pretend = 0, frame = 16
 11491              		@ frame_needed = 1, uses_anonymous_args = 0
 11492 0000 80B5     		push	{r7, lr}
 11493 0002 84B0     		sub	sp, sp, #16
ARM GAS  C:\Users\user\AppData\Local\Temp\ccrDHgJ5.s 			page 199


 11494 0004 00AF     		add	r7, sp, #0
 11495 0006 7860     		str	r0, [r7, #4]
 11496 0008 7B68     		ldr	r3, [r7, #4]
 11497 000a 9B6B     		ldr	r3, [r3, #56]
 11498 000c FB60     		str	r3, [r7, #12]
 11499 000e F868     		ldr	r0, [r7, #12]
 11500 0010 FFF7FEFF 		bl	HAL_TIM_TriggerHalfCpltCallback
 11501 0014 00BF     		nop
 11502 0016 1037     		adds	r7, r7, #16
 11503 0018 BD46     		mov	sp, r7
 11504              		@ sp needed
 11505 001a 80BD     		pop	{r7, pc}
 11507              		.section	.text.TIM_Base_SetConfig,"ax",%progbits
 11508              		.align	1
 11509              		.global	TIM_Base_SetConfig
 11510              		.syntax unified
 11511              		.thumb
 11512              		.thumb_func
 11514              	TIM_Base_SetConfig:
 11515              		@ args = 0, pretend = 0, frame = 16
 11516              		@ frame_needed = 1, uses_anonymous_args = 0
 11517              		@ link register save eliminated.
 11518 0000 80B4     		push	{r7}
 11519 0002 85B0     		sub	sp, sp, #20
 11520 0004 00AF     		add	r7, sp, #0
 11521 0006 7860     		str	r0, [r7, #4]
 11522 0008 3960     		str	r1, [r7]
 11523 000a 7B68     		ldr	r3, [r7, #4]
 11524 000c 1B68     		ldr	r3, [r3]
 11525 000e FB60     		str	r3, [r7, #12]
 11526 0010 7B68     		ldr	r3, [r7, #4]
 11527 0012 404A     		ldr	r2, .L1049
 11528 0014 9342     		cmp	r3, r2
 11529 0016 13D0     		beq	.L1043
 11530 0018 7B68     		ldr	r3, [r7, #4]
 11531 001a B3F1804F 		cmp	r3, #1073741824
 11532 001e 0FD0     		beq	.L1043
 11533 0020 7B68     		ldr	r3, [r7, #4]
 11534 0022 3D4A     		ldr	r2, .L1049+4
 11535 0024 9342     		cmp	r3, r2
 11536 0026 0BD0     		beq	.L1043
 11537 0028 7B68     		ldr	r3, [r7, #4]
 11538 002a 3C4A     		ldr	r2, .L1049+8
 11539 002c 9342     		cmp	r3, r2
 11540 002e 07D0     		beq	.L1043
 11541 0030 7B68     		ldr	r3, [r7, #4]
 11542 0032 3B4A     		ldr	r2, .L1049+12
 11543 0034 9342     		cmp	r3, r2
 11544 0036 03D0     		beq	.L1043
 11545 0038 7B68     		ldr	r3, [r7, #4]
 11546 003a 3A4A     		ldr	r2, .L1049+16
 11547 003c 9342     		cmp	r3, r2
 11548 003e 08D1     		bne	.L1044
 11549              	.L1043:
 11550 0040 FB68     		ldr	r3, [r7, #12]
 11551 0042 23F07003 		bic	r3, r3, #112
 11552 0046 FB60     		str	r3, [r7, #12]
ARM GAS  C:\Users\user\AppData\Local\Temp\ccrDHgJ5.s 			page 200


 11553 0048 3B68     		ldr	r3, [r7]
 11554 004a 5B68     		ldr	r3, [r3, #4]
 11555 004c FA68     		ldr	r2, [r7, #12]
 11556 004e 1343     		orrs	r3, r3, r2
 11557 0050 FB60     		str	r3, [r7, #12]
 11558              	.L1044:
 11559 0052 7B68     		ldr	r3, [r7, #4]
 11560 0054 2F4A     		ldr	r2, .L1049
 11561 0056 9342     		cmp	r3, r2
 11562 0058 2BD0     		beq	.L1045
 11563 005a 7B68     		ldr	r3, [r7, #4]
 11564 005c B3F1804F 		cmp	r3, #1073741824
 11565 0060 27D0     		beq	.L1045
 11566 0062 7B68     		ldr	r3, [r7, #4]
 11567 0064 2C4A     		ldr	r2, .L1049+4
 11568 0066 9342     		cmp	r3, r2
 11569 0068 23D0     		beq	.L1045
 11570 006a 7B68     		ldr	r3, [r7, #4]
 11571 006c 2B4A     		ldr	r2, .L1049+8
 11572 006e 9342     		cmp	r3, r2
 11573 0070 1FD0     		beq	.L1045
 11574 0072 7B68     		ldr	r3, [r7, #4]
 11575 0074 2A4A     		ldr	r2, .L1049+12
 11576 0076 9342     		cmp	r3, r2
 11577 0078 1BD0     		beq	.L1045
 11578 007a 7B68     		ldr	r3, [r7, #4]
 11579 007c 294A     		ldr	r2, .L1049+16
 11580 007e 9342     		cmp	r3, r2
 11581 0080 17D0     		beq	.L1045
 11582 0082 7B68     		ldr	r3, [r7, #4]
 11583 0084 284A     		ldr	r2, .L1049+20
 11584 0086 9342     		cmp	r3, r2
 11585 0088 13D0     		beq	.L1045
 11586 008a 7B68     		ldr	r3, [r7, #4]
 11587 008c 274A     		ldr	r2, .L1049+24
 11588 008e 9342     		cmp	r3, r2
 11589 0090 0FD0     		beq	.L1045
 11590 0092 7B68     		ldr	r3, [r7, #4]
 11591 0094 264A     		ldr	r2, .L1049+28
 11592 0096 9342     		cmp	r3, r2
 11593 0098 0BD0     		beq	.L1045
 11594 009a 7B68     		ldr	r3, [r7, #4]
 11595 009c 254A     		ldr	r2, .L1049+32
 11596 009e 9342     		cmp	r3, r2
 11597 00a0 07D0     		beq	.L1045
 11598 00a2 7B68     		ldr	r3, [r7, #4]
 11599 00a4 244A     		ldr	r2, .L1049+36
 11600 00a6 9342     		cmp	r3, r2
 11601 00a8 03D0     		beq	.L1045
 11602 00aa 7B68     		ldr	r3, [r7, #4]
 11603 00ac 234A     		ldr	r2, .L1049+40
 11604 00ae 9342     		cmp	r3, r2
 11605 00b0 08D1     		bne	.L1046
 11606              	.L1045:
 11607 00b2 FB68     		ldr	r3, [r7, #12]
 11608 00b4 23F44073 		bic	r3, r3, #768
 11609 00b8 FB60     		str	r3, [r7, #12]
ARM GAS  C:\Users\user\AppData\Local\Temp\ccrDHgJ5.s 			page 201


 11610 00ba 3B68     		ldr	r3, [r7]
 11611 00bc DB68     		ldr	r3, [r3, #12]
 11612 00be FA68     		ldr	r2, [r7, #12]
 11613 00c0 1343     		orrs	r3, r3, r2
 11614 00c2 FB60     		str	r3, [r7, #12]
 11615              	.L1046:
 11616 00c4 FB68     		ldr	r3, [r7, #12]
 11617 00c6 23F08002 		bic	r2, r3, #128
 11618 00ca 3B68     		ldr	r3, [r7]
 11619 00cc 5B69     		ldr	r3, [r3, #20]
 11620 00ce 1343     		orrs	r3, r3, r2
 11621 00d0 FB60     		str	r3, [r7, #12]
 11622 00d2 7B68     		ldr	r3, [r7, #4]
 11623 00d4 FA68     		ldr	r2, [r7, #12]
 11624 00d6 1A60     		str	r2, [r3]
 11625 00d8 3B68     		ldr	r3, [r7]
 11626 00da 9A68     		ldr	r2, [r3, #8]
 11627 00dc 7B68     		ldr	r3, [r7, #4]
 11628 00de DA62     		str	r2, [r3, #44]
 11629 00e0 3B68     		ldr	r3, [r7]
 11630 00e2 1A68     		ldr	r2, [r3]
 11631 00e4 7B68     		ldr	r3, [r7, #4]
 11632 00e6 9A62     		str	r2, [r3, #40]
 11633 00e8 7B68     		ldr	r3, [r7, #4]
 11634 00ea 0A4A     		ldr	r2, .L1049
 11635 00ec 9342     		cmp	r3, r2
 11636 00ee 03D0     		beq	.L1047
 11637 00f0 7B68     		ldr	r3, [r7, #4]
 11638 00f2 0C4A     		ldr	r2, .L1049+16
 11639 00f4 9342     		cmp	r3, r2
 11640 00f6 03D1     		bne	.L1048
 11641              	.L1047:
 11642 00f8 3B68     		ldr	r3, [r7]
 11643 00fa 1A69     		ldr	r2, [r3, #16]
 11644 00fc 7B68     		ldr	r3, [r7, #4]
 11645 00fe 1A63     		str	r2, [r3, #48]
 11646              	.L1048:
 11647 0100 7B68     		ldr	r3, [r7, #4]
 11648 0102 0122     		movs	r2, #1
 11649 0104 5A61     		str	r2, [r3, #20]
 11650 0106 00BF     		nop
 11651 0108 1437     		adds	r7, r7, #20
 11652 010a BD46     		mov	sp, r7
 11653              		@ sp needed
 11654 010c 5DF8047B 		ldr	r7, [sp], #4
 11655 0110 7047     		bx	lr
 11656              	.L1050:
 11657 0112 00BF     		.align	2
 11658              	.L1049:
 11659 0114 00000140 		.word	1073807360
 11660 0118 00040040 		.word	1073742848
 11661 011c 00080040 		.word	1073743872
 11662 0120 000C0040 		.word	1073744896
 11663 0124 00040140 		.word	1073808384
 11664 0128 00400140 		.word	1073823744
 11665 012c 00440140 		.word	1073824768
 11666 0130 00480140 		.word	1073825792
ARM GAS  C:\Users\user\AppData\Local\Temp\ccrDHgJ5.s 			page 202


 11667 0134 00180040 		.word	1073747968
 11668 0138 001C0040 		.word	1073748992
 11669 013c 00200040 		.word	1073750016
 11671              		.section	.text.TIM_OC1_SetConfig,"ax",%progbits
 11672              		.align	1
 11673              		.syntax unified
 11674              		.thumb
 11675              		.thumb_func
 11677              	TIM_OC1_SetConfig:
 11678              		@ args = 0, pretend = 0, frame = 24
 11679              		@ frame_needed = 1, uses_anonymous_args = 0
 11680              		@ link register save eliminated.
 11681 0000 80B4     		push	{r7}
 11682 0002 87B0     		sub	sp, sp, #28
 11683 0004 00AF     		add	r7, sp, #0
 11684 0006 7860     		str	r0, [r7, #4]
 11685 0008 3960     		str	r1, [r7]
 11686 000a 7B68     		ldr	r3, [r7, #4]
 11687 000c 1B6A     		ldr	r3, [r3, #32]
 11688 000e 23F00102 		bic	r2, r3, #1
 11689 0012 7B68     		ldr	r3, [r7, #4]
 11690 0014 1A62     		str	r2, [r3, #32]
 11691 0016 7B68     		ldr	r3, [r7, #4]
 11692 0018 1B6A     		ldr	r3, [r3, #32]
 11693 001a 7B61     		str	r3, [r7, #20]
 11694 001c 7B68     		ldr	r3, [r7, #4]
 11695 001e 5B68     		ldr	r3, [r3, #4]
 11696 0020 3B61     		str	r3, [r7, #16]
 11697 0022 7B68     		ldr	r3, [r7, #4]
 11698 0024 9B69     		ldr	r3, [r3, #24]
 11699 0026 FB60     		str	r3, [r7, #12]
 11700 0028 FB68     		ldr	r3, [r7, #12]
 11701 002a 23F07003 		bic	r3, r3, #112
 11702 002e FB60     		str	r3, [r7, #12]
 11703 0030 FB68     		ldr	r3, [r7, #12]
 11704 0032 23F00303 		bic	r3, r3, #3
 11705 0036 FB60     		str	r3, [r7, #12]
 11706 0038 3B68     		ldr	r3, [r7]
 11707 003a 1B68     		ldr	r3, [r3]
 11708 003c FA68     		ldr	r2, [r7, #12]
 11709 003e 1343     		orrs	r3, r3, r2
 11710 0040 FB60     		str	r3, [r7, #12]
 11711 0042 7B69     		ldr	r3, [r7, #20]
 11712 0044 23F00203 		bic	r3, r3, #2
 11713 0048 7B61     		str	r3, [r7, #20]
 11714 004a 3B68     		ldr	r3, [r7]
 11715 004c 9B68     		ldr	r3, [r3, #8]
 11716 004e 7A69     		ldr	r2, [r7, #20]
 11717 0050 1343     		orrs	r3, r3, r2
 11718 0052 7B61     		str	r3, [r7, #20]
 11719 0054 7B68     		ldr	r3, [r7, #4]
 11720 0056 204A     		ldr	r2, .L1056
 11721 0058 9342     		cmp	r3, r2
 11722 005a 03D0     		beq	.L1052
 11723 005c 7B68     		ldr	r3, [r7, #4]
 11724 005e 1F4A     		ldr	r2, .L1056+4
 11725 0060 9342     		cmp	r3, r2
ARM GAS  C:\Users\user\AppData\Local\Temp\ccrDHgJ5.s 			page 203


 11726 0062 0CD1     		bne	.L1053
 11727              	.L1052:
 11728 0064 7B69     		ldr	r3, [r7, #20]
 11729 0066 23F00803 		bic	r3, r3, #8
 11730 006a 7B61     		str	r3, [r7, #20]
 11731 006c 3B68     		ldr	r3, [r7]
 11732 006e DB68     		ldr	r3, [r3, #12]
 11733 0070 7A69     		ldr	r2, [r7, #20]
 11734 0072 1343     		orrs	r3, r3, r2
 11735 0074 7B61     		str	r3, [r7, #20]
 11736 0076 7B69     		ldr	r3, [r7, #20]
 11737 0078 23F00403 		bic	r3, r3, #4
 11738 007c 7B61     		str	r3, [r7, #20]
 11739              	.L1053:
 11740 007e 7B68     		ldr	r3, [r7, #4]
 11741 0080 154A     		ldr	r2, .L1056
 11742 0082 9342     		cmp	r3, r2
 11743 0084 03D0     		beq	.L1054
 11744 0086 7B68     		ldr	r3, [r7, #4]
 11745 0088 144A     		ldr	r2, .L1056+4
 11746 008a 9342     		cmp	r3, r2
 11747 008c 11D1     		bne	.L1055
 11748              	.L1054:
 11749 008e 3B69     		ldr	r3, [r7, #16]
 11750 0090 23F48073 		bic	r3, r3, #256
 11751 0094 3B61     		str	r3, [r7, #16]
 11752 0096 3B69     		ldr	r3, [r7, #16]
 11753 0098 23F40073 		bic	r3, r3, #512
 11754 009c 3B61     		str	r3, [r7, #16]
 11755 009e 3B68     		ldr	r3, [r7]
 11756 00a0 5B69     		ldr	r3, [r3, #20]
 11757 00a2 3A69     		ldr	r2, [r7, #16]
 11758 00a4 1343     		orrs	r3, r3, r2
 11759 00a6 3B61     		str	r3, [r7, #16]
 11760 00a8 3B68     		ldr	r3, [r7]
 11761 00aa 9B69     		ldr	r3, [r3, #24]
 11762 00ac 3A69     		ldr	r2, [r7, #16]
 11763 00ae 1343     		orrs	r3, r3, r2
 11764 00b0 3B61     		str	r3, [r7, #16]
 11765              	.L1055:
 11766 00b2 7B68     		ldr	r3, [r7, #4]
 11767 00b4 3A69     		ldr	r2, [r7, #16]
 11768 00b6 5A60     		str	r2, [r3, #4]
 11769 00b8 7B68     		ldr	r3, [r7, #4]
 11770 00ba FA68     		ldr	r2, [r7, #12]
 11771 00bc 9A61     		str	r2, [r3, #24]
 11772 00be 3B68     		ldr	r3, [r7]
 11773 00c0 5A68     		ldr	r2, [r3, #4]
 11774 00c2 7B68     		ldr	r3, [r7, #4]
 11775 00c4 5A63     		str	r2, [r3, #52]
 11776 00c6 7B68     		ldr	r3, [r7, #4]
 11777 00c8 7A69     		ldr	r2, [r7, #20]
 11778 00ca 1A62     		str	r2, [r3, #32]
 11779 00cc 00BF     		nop
 11780 00ce 1C37     		adds	r7, r7, #28
 11781 00d0 BD46     		mov	sp, r7
 11782              		@ sp needed
ARM GAS  C:\Users\user\AppData\Local\Temp\ccrDHgJ5.s 			page 204


 11783 00d2 5DF8047B 		ldr	r7, [sp], #4
 11784 00d6 7047     		bx	lr
 11785              	.L1057:
 11786              		.align	2
 11787              	.L1056:
 11788 00d8 00000140 		.word	1073807360
 11789 00dc 00040140 		.word	1073808384
 11791              		.section	.text.TIM_OC2_SetConfig,"ax",%progbits
 11792              		.align	1
 11793              		.global	TIM_OC2_SetConfig
 11794              		.syntax unified
 11795              		.thumb
 11796              		.thumb_func
 11798              	TIM_OC2_SetConfig:
 11799              		@ args = 0, pretend = 0, frame = 24
 11800              		@ frame_needed = 1, uses_anonymous_args = 0
 11801              		@ link register save eliminated.
 11802 0000 80B4     		push	{r7}
 11803 0002 87B0     		sub	sp, sp, #28
 11804 0004 00AF     		add	r7, sp, #0
 11805 0006 7860     		str	r0, [r7, #4]
 11806 0008 3960     		str	r1, [r7]
 11807 000a 7B68     		ldr	r3, [r7, #4]
 11808 000c 1B6A     		ldr	r3, [r3, #32]
 11809 000e 23F01002 		bic	r2, r3, #16
 11810 0012 7B68     		ldr	r3, [r7, #4]
 11811 0014 1A62     		str	r2, [r3, #32]
 11812 0016 7B68     		ldr	r3, [r7, #4]
 11813 0018 1B6A     		ldr	r3, [r3, #32]
 11814 001a 7B61     		str	r3, [r7, #20]
 11815 001c 7B68     		ldr	r3, [r7, #4]
 11816 001e 5B68     		ldr	r3, [r3, #4]
 11817 0020 3B61     		str	r3, [r7, #16]
 11818 0022 7B68     		ldr	r3, [r7, #4]
 11819 0024 9B69     		ldr	r3, [r3, #24]
 11820 0026 FB60     		str	r3, [r7, #12]
 11821 0028 FB68     		ldr	r3, [r7, #12]
 11822 002a 23F4E043 		bic	r3, r3, #28672
 11823 002e FB60     		str	r3, [r7, #12]
 11824 0030 FB68     		ldr	r3, [r7, #12]
 11825 0032 23F44073 		bic	r3, r3, #768
 11826 0036 FB60     		str	r3, [r7, #12]
 11827 0038 3B68     		ldr	r3, [r7]
 11828 003a 1B68     		ldr	r3, [r3]
 11829 003c 1B02     		lsls	r3, r3, #8
 11830 003e FA68     		ldr	r2, [r7, #12]
 11831 0040 1343     		orrs	r3, r3, r2
 11832 0042 FB60     		str	r3, [r7, #12]
 11833 0044 7B69     		ldr	r3, [r7, #20]
 11834 0046 23F02003 		bic	r3, r3, #32
 11835 004a 7B61     		str	r3, [r7, #20]
 11836 004c 3B68     		ldr	r3, [r7]
 11837 004e 9B68     		ldr	r3, [r3, #8]
 11838 0050 1B01     		lsls	r3, r3, #4
 11839 0052 7A69     		ldr	r2, [r7, #20]
 11840 0054 1343     		orrs	r3, r3, r2
 11841 0056 7B61     		str	r3, [r7, #20]
ARM GAS  C:\Users\user\AppData\Local\Temp\ccrDHgJ5.s 			page 205


 11842 0058 7B68     		ldr	r3, [r7, #4]
 11843 005a 224A     		ldr	r2, .L1063
 11844 005c 9342     		cmp	r3, r2
 11845 005e 03D0     		beq	.L1059
 11846 0060 7B68     		ldr	r3, [r7, #4]
 11847 0062 214A     		ldr	r2, .L1063+4
 11848 0064 9342     		cmp	r3, r2
 11849 0066 0DD1     		bne	.L1060
 11850              	.L1059:
 11851 0068 7B69     		ldr	r3, [r7, #20]
 11852 006a 23F08003 		bic	r3, r3, #128
 11853 006e 7B61     		str	r3, [r7, #20]
 11854 0070 3B68     		ldr	r3, [r7]
 11855 0072 DB68     		ldr	r3, [r3, #12]
 11856 0074 1B01     		lsls	r3, r3, #4
 11857 0076 7A69     		ldr	r2, [r7, #20]
 11858 0078 1343     		orrs	r3, r3, r2
 11859 007a 7B61     		str	r3, [r7, #20]
 11860 007c 7B69     		ldr	r3, [r7, #20]
 11861 007e 23F04003 		bic	r3, r3, #64
 11862 0082 7B61     		str	r3, [r7, #20]
 11863              	.L1060:
 11864 0084 7B68     		ldr	r3, [r7, #4]
 11865 0086 174A     		ldr	r2, .L1063
 11866 0088 9342     		cmp	r3, r2
 11867 008a 03D0     		beq	.L1061
 11868 008c 7B68     		ldr	r3, [r7, #4]
 11869 008e 164A     		ldr	r2, .L1063+4
 11870 0090 9342     		cmp	r3, r2
 11871 0092 13D1     		bne	.L1062
 11872              	.L1061:
 11873 0094 3B69     		ldr	r3, [r7, #16]
 11874 0096 23F48063 		bic	r3, r3, #1024
 11875 009a 3B61     		str	r3, [r7, #16]
 11876 009c 3B69     		ldr	r3, [r7, #16]
 11877 009e 23F40063 		bic	r3, r3, #2048
 11878 00a2 3B61     		str	r3, [r7, #16]
 11879 00a4 3B68     		ldr	r3, [r7]
 11880 00a6 5B69     		ldr	r3, [r3, #20]
 11881 00a8 9B00     		lsls	r3, r3, #2
 11882 00aa 3A69     		ldr	r2, [r7, #16]
 11883 00ac 1343     		orrs	r3, r3, r2
 11884 00ae 3B61     		str	r3, [r7, #16]
 11885 00b0 3B68     		ldr	r3, [r7]
 11886 00b2 9B69     		ldr	r3, [r3, #24]
 11887 00b4 9B00     		lsls	r3, r3, #2
 11888 00b6 3A69     		ldr	r2, [r7, #16]
 11889 00b8 1343     		orrs	r3, r3, r2
 11890 00ba 3B61     		str	r3, [r7, #16]
 11891              	.L1062:
 11892 00bc 7B68     		ldr	r3, [r7, #4]
 11893 00be 3A69     		ldr	r2, [r7, #16]
 11894 00c0 5A60     		str	r2, [r3, #4]
 11895 00c2 7B68     		ldr	r3, [r7, #4]
 11896 00c4 FA68     		ldr	r2, [r7, #12]
 11897 00c6 9A61     		str	r2, [r3, #24]
 11898 00c8 3B68     		ldr	r3, [r7]
ARM GAS  C:\Users\user\AppData\Local\Temp\ccrDHgJ5.s 			page 206


 11899 00ca 5A68     		ldr	r2, [r3, #4]
 11900 00cc 7B68     		ldr	r3, [r7, #4]
 11901 00ce 9A63     		str	r2, [r3, #56]
 11902 00d0 7B68     		ldr	r3, [r7, #4]
 11903 00d2 7A69     		ldr	r2, [r7, #20]
 11904 00d4 1A62     		str	r2, [r3, #32]
 11905 00d6 00BF     		nop
 11906 00d8 1C37     		adds	r7, r7, #28
 11907 00da BD46     		mov	sp, r7
 11908              		@ sp needed
 11909 00dc 5DF8047B 		ldr	r7, [sp], #4
 11910 00e0 7047     		bx	lr
 11911              	.L1064:
 11912 00e2 00BF     		.align	2
 11913              	.L1063:
 11914 00e4 00000140 		.word	1073807360
 11915 00e8 00040140 		.word	1073808384
 11917              		.section	.text.TIM_OC3_SetConfig,"ax",%progbits
 11918              		.align	1
 11919              		.syntax unified
 11920              		.thumb
 11921              		.thumb_func
 11923              	TIM_OC3_SetConfig:
 11924              		@ args = 0, pretend = 0, frame = 24
 11925              		@ frame_needed = 1, uses_anonymous_args = 0
 11926              		@ link register save eliminated.
 11927 0000 80B4     		push	{r7}
 11928 0002 87B0     		sub	sp, sp, #28
 11929 0004 00AF     		add	r7, sp, #0
 11930 0006 7860     		str	r0, [r7, #4]
 11931 0008 3960     		str	r1, [r7]
 11932 000a 7B68     		ldr	r3, [r7, #4]
 11933 000c 1B6A     		ldr	r3, [r3, #32]
 11934 000e 23F48072 		bic	r2, r3, #256
 11935 0012 7B68     		ldr	r3, [r7, #4]
 11936 0014 1A62     		str	r2, [r3, #32]
 11937 0016 7B68     		ldr	r3, [r7, #4]
 11938 0018 1B6A     		ldr	r3, [r3, #32]
 11939 001a 7B61     		str	r3, [r7, #20]
 11940 001c 7B68     		ldr	r3, [r7, #4]
 11941 001e 5B68     		ldr	r3, [r3, #4]
 11942 0020 3B61     		str	r3, [r7, #16]
 11943 0022 7B68     		ldr	r3, [r7, #4]
 11944 0024 DB69     		ldr	r3, [r3, #28]
 11945 0026 FB60     		str	r3, [r7, #12]
 11946 0028 FB68     		ldr	r3, [r7, #12]
 11947 002a 23F07003 		bic	r3, r3, #112
 11948 002e FB60     		str	r3, [r7, #12]
 11949 0030 FB68     		ldr	r3, [r7, #12]
 11950 0032 23F00303 		bic	r3, r3, #3
 11951 0036 FB60     		str	r3, [r7, #12]
 11952 0038 3B68     		ldr	r3, [r7]
 11953 003a 1B68     		ldr	r3, [r3]
 11954 003c FA68     		ldr	r2, [r7, #12]
 11955 003e 1343     		orrs	r3, r3, r2
 11956 0040 FB60     		str	r3, [r7, #12]
 11957 0042 7B69     		ldr	r3, [r7, #20]
ARM GAS  C:\Users\user\AppData\Local\Temp\ccrDHgJ5.s 			page 207


 11958 0044 23F40073 		bic	r3, r3, #512
 11959 0048 7B61     		str	r3, [r7, #20]
 11960 004a 3B68     		ldr	r3, [r7]
 11961 004c 9B68     		ldr	r3, [r3, #8]
 11962 004e 1B02     		lsls	r3, r3, #8
 11963 0050 7A69     		ldr	r2, [r7, #20]
 11964 0052 1343     		orrs	r3, r3, r2
 11965 0054 7B61     		str	r3, [r7, #20]
 11966 0056 7B68     		ldr	r3, [r7, #4]
 11967 0058 214A     		ldr	r2, .L1070
 11968 005a 9342     		cmp	r3, r2
 11969 005c 03D0     		beq	.L1066
 11970 005e 7B68     		ldr	r3, [r7, #4]
 11971 0060 204A     		ldr	r2, .L1070+4
 11972 0062 9342     		cmp	r3, r2
 11973 0064 0DD1     		bne	.L1067
 11974              	.L1066:
 11975 0066 7B69     		ldr	r3, [r7, #20]
 11976 0068 23F40063 		bic	r3, r3, #2048
 11977 006c 7B61     		str	r3, [r7, #20]
 11978 006e 3B68     		ldr	r3, [r7]
 11979 0070 DB68     		ldr	r3, [r3, #12]
 11980 0072 1B02     		lsls	r3, r3, #8
 11981 0074 7A69     		ldr	r2, [r7, #20]
 11982 0076 1343     		orrs	r3, r3, r2
 11983 0078 7B61     		str	r3, [r7, #20]
 11984 007a 7B69     		ldr	r3, [r7, #20]
 11985 007c 23F48063 		bic	r3, r3, #1024
 11986 0080 7B61     		str	r3, [r7, #20]
 11987              	.L1067:
 11988 0082 7B68     		ldr	r3, [r7, #4]
 11989 0084 164A     		ldr	r2, .L1070
 11990 0086 9342     		cmp	r3, r2
 11991 0088 03D0     		beq	.L1068
 11992 008a 7B68     		ldr	r3, [r7, #4]
 11993 008c 154A     		ldr	r2, .L1070+4
 11994 008e 9342     		cmp	r3, r2
 11995 0090 13D1     		bne	.L1069
 11996              	.L1068:
 11997 0092 3B69     		ldr	r3, [r7, #16]
 11998 0094 23F48053 		bic	r3, r3, #4096
 11999 0098 3B61     		str	r3, [r7, #16]
 12000 009a 3B69     		ldr	r3, [r7, #16]
 12001 009c 23F40053 		bic	r3, r3, #8192
 12002 00a0 3B61     		str	r3, [r7, #16]
 12003 00a2 3B68     		ldr	r3, [r7]
 12004 00a4 5B69     		ldr	r3, [r3, #20]
 12005 00a6 1B01     		lsls	r3, r3, #4
 12006 00a8 3A69     		ldr	r2, [r7, #16]
 12007 00aa 1343     		orrs	r3, r3, r2
 12008 00ac 3B61     		str	r3, [r7, #16]
 12009 00ae 3B68     		ldr	r3, [r7]
 12010 00b0 9B69     		ldr	r3, [r3, #24]
 12011 00b2 1B01     		lsls	r3, r3, #4
 12012 00b4 3A69     		ldr	r2, [r7, #16]
 12013 00b6 1343     		orrs	r3, r3, r2
 12014 00b8 3B61     		str	r3, [r7, #16]
ARM GAS  C:\Users\user\AppData\Local\Temp\ccrDHgJ5.s 			page 208


 12015              	.L1069:
 12016 00ba 7B68     		ldr	r3, [r7, #4]
 12017 00bc 3A69     		ldr	r2, [r7, #16]
 12018 00be 5A60     		str	r2, [r3, #4]
 12019 00c0 7B68     		ldr	r3, [r7, #4]
 12020 00c2 FA68     		ldr	r2, [r7, #12]
 12021 00c4 DA61     		str	r2, [r3, #28]
 12022 00c6 3B68     		ldr	r3, [r7]
 12023 00c8 5A68     		ldr	r2, [r3, #4]
 12024 00ca 7B68     		ldr	r3, [r7, #4]
 12025 00cc DA63     		str	r2, [r3, #60]
 12026 00ce 7B68     		ldr	r3, [r7, #4]
 12027 00d0 7A69     		ldr	r2, [r7, #20]
 12028 00d2 1A62     		str	r2, [r3, #32]
 12029 00d4 00BF     		nop
 12030 00d6 1C37     		adds	r7, r7, #28
 12031 00d8 BD46     		mov	sp, r7
 12032              		@ sp needed
 12033 00da 5DF8047B 		ldr	r7, [sp], #4
 12034 00de 7047     		bx	lr
 12035              	.L1071:
 12036              		.align	2
 12037              	.L1070:
 12038 00e0 00000140 		.word	1073807360
 12039 00e4 00040140 		.word	1073808384
 12041              		.section	.text.TIM_OC4_SetConfig,"ax",%progbits
 12042              		.align	1
 12043              		.syntax unified
 12044              		.thumb
 12045              		.thumb_func
 12047              	TIM_OC4_SetConfig:
 12048              		@ args = 0, pretend = 0, frame = 24
 12049              		@ frame_needed = 1, uses_anonymous_args = 0
 12050              		@ link register save eliminated.
 12051 0000 80B4     		push	{r7}
 12052 0002 87B0     		sub	sp, sp, #28
 12053 0004 00AF     		add	r7, sp, #0
 12054 0006 7860     		str	r0, [r7, #4]
 12055 0008 3960     		str	r1, [r7]
 12056 000a 7B68     		ldr	r3, [r7, #4]
 12057 000c 1B6A     		ldr	r3, [r3, #32]
 12058 000e 23F48052 		bic	r2, r3, #4096
 12059 0012 7B68     		ldr	r3, [r7, #4]
 12060 0014 1A62     		str	r2, [r3, #32]
 12061 0016 7B68     		ldr	r3, [r7, #4]
 12062 0018 1B6A     		ldr	r3, [r3, #32]
 12063 001a 3B61     		str	r3, [r7, #16]
 12064 001c 7B68     		ldr	r3, [r7, #4]
 12065 001e 5B68     		ldr	r3, [r3, #4]
 12066 0020 7B61     		str	r3, [r7, #20]
 12067 0022 7B68     		ldr	r3, [r7, #4]
 12068 0024 DB69     		ldr	r3, [r3, #28]
 12069 0026 FB60     		str	r3, [r7, #12]
 12070 0028 FB68     		ldr	r3, [r7, #12]
 12071 002a 23F4E043 		bic	r3, r3, #28672
 12072 002e FB60     		str	r3, [r7, #12]
 12073 0030 FB68     		ldr	r3, [r7, #12]
ARM GAS  C:\Users\user\AppData\Local\Temp\ccrDHgJ5.s 			page 209


 12074 0032 23F44073 		bic	r3, r3, #768
 12075 0036 FB60     		str	r3, [r7, #12]
 12076 0038 3B68     		ldr	r3, [r7]
 12077 003a 1B68     		ldr	r3, [r3]
 12078 003c 1B02     		lsls	r3, r3, #8
 12079 003e FA68     		ldr	r2, [r7, #12]
 12080 0040 1343     		orrs	r3, r3, r2
 12081 0042 FB60     		str	r3, [r7, #12]
 12082 0044 3B69     		ldr	r3, [r7, #16]
 12083 0046 23F40053 		bic	r3, r3, #8192
 12084 004a 3B61     		str	r3, [r7, #16]
 12085 004c 3B68     		ldr	r3, [r7]
 12086 004e 9B68     		ldr	r3, [r3, #8]
 12087 0050 1B03     		lsls	r3, r3, #12
 12088 0052 3A69     		ldr	r2, [r7, #16]
 12089 0054 1343     		orrs	r3, r3, r2
 12090 0056 3B61     		str	r3, [r7, #16]
 12091 0058 7B68     		ldr	r3, [r7, #4]
 12092 005a 124A     		ldr	r2, .L1075
 12093 005c 9342     		cmp	r3, r2
 12094 005e 03D0     		beq	.L1073
 12095 0060 7B68     		ldr	r3, [r7, #4]
 12096 0062 114A     		ldr	r2, .L1075+4
 12097 0064 9342     		cmp	r3, r2
 12098 0066 09D1     		bne	.L1074
 12099              	.L1073:
 12100 0068 7B69     		ldr	r3, [r7, #20]
 12101 006a 23F48043 		bic	r3, r3, #16384
 12102 006e 7B61     		str	r3, [r7, #20]
 12103 0070 3B68     		ldr	r3, [r7]
 12104 0072 5B69     		ldr	r3, [r3, #20]
 12105 0074 9B01     		lsls	r3, r3, #6
 12106 0076 7A69     		ldr	r2, [r7, #20]
 12107 0078 1343     		orrs	r3, r3, r2
 12108 007a 7B61     		str	r3, [r7, #20]
 12109              	.L1074:
 12110 007c 7B68     		ldr	r3, [r7, #4]
 12111 007e 7A69     		ldr	r2, [r7, #20]
 12112 0080 5A60     		str	r2, [r3, #4]
 12113 0082 7B68     		ldr	r3, [r7, #4]
 12114 0084 FA68     		ldr	r2, [r7, #12]
 12115 0086 DA61     		str	r2, [r3, #28]
 12116 0088 3B68     		ldr	r3, [r7]
 12117 008a 5A68     		ldr	r2, [r3, #4]
 12118 008c 7B68     		ldr	r3, [r7, #4]
 12119 008e 1A64     		str	r2, [r3, #64]
 12120 0090 7B68     		ldr	r3, [r7, #4]
 12121 0092 3A69     		ldr	r2, [r7, #16]
 12122 0094 1A62     		str	r2, [r3, #32]
 12123 0096 00BF     		nop
 12124 0098 1C37     		adds	r7, r7, #28
 12125 009a BD46     		mov	sp, r7
 12126              		@ sp needed
 12127 009c 5DF8047B 		ldr	r7, [sp], #4
 12128 00a0 7047     		bx	lr
 12129              	.L1076:
 12130 00a2 00BF     		.align	2
ARM GAS  C:\Users\user\AppData\Local\Temp\ccrDHgJ5.s 			page 210


 12131              	.L1075:
 12132 00a4 00000140 		.word	1073807360
 12133 00a8 00040140 		.word	1073808384
 12135              		.section	.text.TIM_SlaveTimer_SetConfig,"ax",%progbits
 12136              		.align	1
 12137              		.syntax unified
 12138              		.thumb
 12139              		.thumb_func
 12141              	TIM_SlaveTimer_SetConfig:
 12142              		@ args = 0, pretend = 0, frame = 24
 12143              		@ frame_needed = 1, uses_anonymous_args = 0
 12144 0000 80B5     		push	{r7, lr}
 12145 0002 86B0     		sub	sp, sp, #24
 12146 0004 00AF     		add	r7, sp, #0
 12147 0006 7860     		str	r0, [r7, #4]
 12148 0008 3960     		str	r1, [r7]
 12149 000a 0023     		movs	r3, #0
 12150 000c FB75     		strb	r3, [r7, #23]
 12151 000e 7B68     		ldr	r3, [r7, #4]
 12152 0010 1B68     		ldr	r3, [r3]
 12153 0012 9B68     		ldr	r3, [r3, #8]
 12154 0014 3B61     		str	r3, [r7, #16]
 12155 0016 3B69     		ldr	r3, [r7, #16]
 12156 0018 23F07003 		bic	r3, r3, #112
 12157 001c 3B61     		str	r3, [r7, #16]
 12158 001e 3B68     		ldr	r3, [r7]
 12159 0020 5B68     		ldr	r3, [r3, #4]
 12160 0022 3A69     		ldr	r2, [r7, #16]
 12161 0024 1343     		orrs	r3, r3, r2
 12162 0026 3B61     		str	r3, [r7, #16]
 12163 0028 3B69     		ldr	r3, [r7, #16]
 12164 002a 23F00703 		bic	r3, r3, #7
 12165 002e 3B61     		str	r3, [r7, #16]
 12166 0030 3B68     		ldr	r3, [r7]
 12167 0032 1B68     		ldr	r3, [r3]
 12168 0034 3A69     		ldr	r2, [r7, #16]
 12169 0036 1343     		orrs	r3, r3, r2
 12170 0038 3B61     		str	r3, [r7, #16]
 12171 003a 7B68     		ldr	r3, [r7, #4]
 12172 003c 1B68     		ldr	r3, [r3]
 12173 003e 3A69     		ldr	r2, [r7, #16]
 12174 0040 9A60     		str	r2, [r3, #8]
 12175 0042 3B68     		ldr	r3, [r7]
 12176 0044 5B68     		ldr	r3, [r3, #4]
 12177 0046 702B     		cmp	r3, #112
 12178 0048 1AD0     		beq	.L1078
 12179 004a 702B     		cmp	r3, #112
 12180 004c 60D8     		bhi	.L1079
 12181 004e 602B     		cmp	r3, #96
 12182 0050 54D0     		beq	.L1080
 12183 0052 602B     		cmp	r3, #96
 12184 0054 5CD8     		bhi	.L1079
 12185 0056 502B     		cmp	r3, #80
 12186 0058 46D0     		beq	.L1081
 12187 005a 502B     		cmp	r3, #80
 12188 005c 58D8     		bhi	.L1079
 12189 005e 402B     		cmp	r3, #64
ARM GAS  C:\Users\user\AppData\Local\Temp\ccrDHgJ5.s 			page 211


 12190 0060 19D0     		beq	.L1082
 12191 0062 402B     		cmp	r3, #64
 12192 0064 54D8     		bhi	.L1079
 12193 0066 302B     		cmp	r3, #48
 12194 0068 55D0     		beq	.L1087
 12195 006a 302B     		cmp	r3, #48
 12196 006c 50D8     		bhi	.L1079
 12197 006e 202B     		cmp	r3, #32
 12198 0070 51D0     		beq	.L1087
 12199 0072 202B     		cmp	r3, #32
 12200 0074 4CD8     		bhi	.L1079
 12201 0076 002B     		cmp	r3, #0
 12202 0078 4DD0     		beq	.L1087
 12203 007a 102B     		cmp	r3, #16
 12204 007c 4BD0     		beq	.L1087
 12205 007e 47E0     		b	.L1079
 12206              	.L1078:
 12207 0080 7B68     		ldr	r3, [r7, #4]
 12208 0082 1868     		ldr	r0, [r3]
 12209 0084 3B68     		ldr	r3, [r7]
 12210 0086 D968     		ldr	r1, [r3, #12]
 12211 0088 3B68     		ldr	r3, [r7]
 12212 008a 9A68     		ldr	r2, [r3, #8]
 12213 008c 3B68     		ldr	r3, [r7]
 12214 008e 1B69     		ldr	r3, [r3, #16]
 12215 0090 FFF7FEFF 		bl	TIM_ETR_SetConfig
 12216 0094 40E0     		b	.L1084
 12217              	.L1082:
 12218 0096 3B68     		ldr	r3, [r7]
 12219 0098 1B68     		ldr	r3, [r3]
 12220 009a 052B     		cmp	r3, #5
 12221 009c 01D1     		bne	.L1085
 12222 009e 0123     		movs	r3, #1
 12223 00a0 3BE0     		b	.L1086
 12224              	.L1085:
 12225 00a2 7B68     		ldr	r3, [r7, #4]
 12226 00a4 1B68     		ldr	r3, [r3]
 12227 00a6 1B6A     		ldr	r3, [r3, #32]
 12228 00a8 FB60     		str	r3, [r7, #12]
 12229 00aa 7B68     		ldr	r3, [r7, #4]
 12230 00ac 1B68     		ldr	r3, [r3]
 12231 00ae 1A6A     		ldr	r2, [r3, #32]
 12232 00b0 7B68     		ldr	r3, [r7, #4]
 12233 00b2 1B68     		ldr	r3, [r3]
 12234 00b4 22F00102 		bic	r2, r2, #1
 12235 00b8 1A62     		str	r2, [r3, #32]
 12236 00ba 7B68     		ldr	r3, [r7, #4]
 12237 00bc 1B68     		ldr	r3, [r3]
 12238 00be 9B69     		ldr	r3, [r3, #24]
 12239 00c0 BB60     		str	r3, [r7, #8]
 12240 00c2 BB68     		ldr	r3, [r7, #8]
 12241 00c4 23F0F003 		bic	r3, r3, #240
 12242 00c8 BB60     		str	r3, [r7, #8]
 12243 00ca 3B68     		ldr	r3, [r7]
 12244 00cc 1B69     		ldr	r3, [r3, #16]
 12245 00ce 1B01     		lsls	r3, r3, #4
 12246 00d0 BA68     		ldr	r2, [r7, #8]
ARM GAS  C:\Users\user\AppData\Local\Temp\ccrDHgJ5.s 			page 212


 12247 00d2 1343     		orrs	r3, r3, r2
 12248 00d4 BB60     		str	r3, [r7, #8]
 12249 00d6 7B68     		ldr	r3, [r7, #4]
 12250 00d8 1B68     		ldr	r3, [r3]
 12251 00da BA68     		ldr	r2, [r7, #8]
 12252 00dc 9A61     		str	r2, [r3, #24]
 12253 00de 7B68     		ldr	r3, [r7, #4]
 12254 00e0 1B68     		ldr	r3, [r3]
 12255 00e2 FA68     		ldr	r2, [r7, #12]
 12256 00e4 1A62     		str	r2, [r3, #32]
 12257 00e6 17E0     		b	.L1084
 12258              	.L1081:
 12259 00e8 7B68     		ldr	r3, [r7, #4]
 12260 00ea 1868     		ldr	r0, [r3]
 12261 00ec 3B68     		ldr	r3, [r7]
 12262 00ee 9968     		ldr	r1, [r3, #8]
 12263 00f0 3B68     		ldr	r3, [r7]
 12264 00f2 1B69     		ldr	r3, [r3, #16]
 12265 00f4 1A46     		mov	r2, r3
 12266 00f6 FFF7FEFF 		bl	TIM_TI1_ConfigInputStage
 12267 00fa 0DE0     		b	.L1084
 12268              	.L1080:
 12269 00fc 7B68     		ldr	r3, [r7, #4]
 12270 00fe 1868     		ldr	r0, [r3]
 12271 0100 3B68     		ldr	r3, [r7]
 12272 0102 9968     		ldr	r1, [r3, #8]
 12273 0104 3B68     		ldr	r3, [r7]
 12274 0106 1B69     		ldr	r3, [r3, #16]
 12275 0108 1A46     		mov	r2, r3
 12276 010a FFF7FEFF 		bl	TIM_TI2_ConfigInputStage
 12277 010e 03E0     		b	.L1084
 12278              	.L1079:
 12279 0110 0123     		movs	r3, #1
 12280 0112 FB75     		strb	r3, [r7, #23]
 12281 0114 00E0     		b	.L1084
 12282              	.L1087:
 12283 0116 00BF     		nop
 12284              	.L1084:
 12285 0118 FB7D     		ldrb	r3, [r7, #23]	@ zero_extendqisi2
 12286              	.L1086:
 12287 011a 1846     		mov	r0, r3
 12288 011c 1837     		adds	r7, r7, #24
 12289 011e BD46     		mov	sp, r7
 12290              		@ sp needed
 12291 0120 80BD     		pop	{r7, pc}
 12293              		.section	.text.TIM_TI1_SetConfig,"ax",%progbits
 12294              		.align	1
 12295              		.global	TIM_TI1_SetConfig
 12296              		.syntax unified
 12297              		.thumb
 12298              		.thumb_func
 12300              	TIM_TI1_SetConfig:
 12301              		@ args = 0, pretend = 0, frame = 24
 12302              		@ frame_needed = 1, uses_anonymous_args = 0
 12303              		@ link register save eliminated.
 12304 0000 80B4     		push	{r7}
 12305 0002 87B0     		sub	sp, sp, #28
ARM GAS  C:\Users\user\AppData\Local\Temp\ccrDHgJ5.s 			page 213


 12306 0004 00AF     		add	r7, sp, #0
 12307 0006 F860     		str	r0, [r7, #12]
 12308 0008 B960     		str	r1, [r7, #8]
 12309 000a 7A60     		str	r2, [r7, #4]
 12310 000c 3B60     		str	r3, [r7]
 12311 000e FB68     		ldr	r3, [r7, #12]
 12312 0010 1B6A     		ldr	r3, [r3, #32]
 12313 0012 23F00102 		bic	r2, r3, #1
 12314 0016 FB68     		ldr	r3, [r7, #12]
 12315 0018 1A62     		str	r2, [r3, #32]
 12316 001a FB68     		ldr	r3, [r7, #12]
 12317 001c 9B69     		ldr	r3, [r3, #24]
 12318 001e 7B61     		str	r3, [r7, #20]
 12319 0020 FB68     		ldr	r3, [r7, #12]
 12320 0022 1B6A     		ldr	r3, [r3, #32]
 12321 0024 3B61     		str	r3, [r7, #16]
 12322 0026 FB68     		ldr	r3, [r7, #12]
 12323 0028 284A     		ldr	r2, .L1094
 12324 002a 9342     		cmp	r3, r2
 12325 002c 1BD0     		beq	.L1089
 12326 002e FB68     		ldr	r3, [r7, #12]
 12327 0030 B3F1804F 		cmp	r3, #1073741824
 12328 0034 17D0     		beq	.L1089
 12329 0036 FB68     		ldr	r3, [r7, #12]
 12330 0038 254A     		ldr	r2, .L1094+4
 12331 003a 9342     		cmp	r3, r2
 12332 003c 13D0     		beq	.L1089
 12333 003e FB68     		ldr	r3, [r7, #12]
 12334 0040 244A     		ldr	r2, .L1094+8
 12335 0042 9342     		cmp	r3, r2
 12336 0044 0FD0     		beq	.L1089
 12337 0046 FB68     		ldr	r3, [r7, #12]
 12338 0048 234A     		ldr	r2, .L1094+12
 12339 004a 9342     		cmp	r3, r2
 12340 004c 0BD0     		beq	.L1089
 12341 004e FB68     		ldr	r3, [r7, #12]
 12342 0050 224A     		ldr	r2, .L1094+16
 12343 0052 9342     		cmp	r3, r2
 12344 0054 07D0     		beq	.L1089
 12345 0056 FB68     		ldr	r3, [r7, #12]
 12346 0058 214A     		ldr	r2, .L1094+20
 12347 005a 9342     		cmp	r3, r2
 12348 005c 03D0     		beq	.L1089
 12349 005e FB68     		ldr	r3, [r7, #12]
 12350 0060 204A     		ldr	r2, .L1094+24
 12351 0062 9342     		cmp	r3, r2
 12352 0064 01D1     		bne	.L1090
 12353              	.L1089:
 12354 0066 0123     		movs	r3, #1
 12355 0068 00E0     		b	.L1091
 12356              	.L1090:
 12357 006a 0023     		movs	r3, #0
 12358              	.L1091:
 12359 006c 002B     		cmp	r3, #0
 12360 006e 08D0     		beq	.L1092
 12361 0070 7B69     		ldr	r3, [r7, #20]
 12362 0072 23F00303 		bic	r3, r3, #3
ARM GAS  C:\Users\user\AppData\Local\Temp\ccrDHgJ5.s 			page 214


 12363 0076 7B61     		str	r3, [r7, #20]
 12364 0078 7A69     		ldr	r2, [r7, #20]
 12365 007a 7B68     		ldr	r3, [r7, #4]
 12366 007c 1343     		orrs	r3, r3, r2
 12367 007e 7B61     		str	r3, [r7, #20]
 12368 0080 03E0     		b	.L1093
 12369              	.L1092:
 12370 0082 7B69     		ldr	r3, [r7, #20]
 12371 0084 43F00103 		orr	r3, r3, #1
 12372 0088 7B61     		str	r3, [r7, #20]
 12373              	.L1093:
 12374 008a 7B69     		ldr	r3, [r7, #20]
 12375 008c 23F0F003 		bic	r3, r3, #240
 12376 0090 7B61     		str	r3, [r7, #20]
 12377 0092 3B68     		ldr	r3, [r7]
 12378 0094 1B01     		lsls	r3, r3, #4
 12379 0096 DBB2     		uxtb	r3, r3
 12380 0098 7A69     		ldr	r2, [r7, #20]
 12381 009a 1343     		orrs	r3, r3, r2
 12382 009c 7B61     		str	r3, [r7, #20]
 12383 009e 3B69     		ldr	r3, [r7, #16]
 12384 00a0 23F00A03 		bic	r3, r3, #10
 12385 00a4 3B61     		str	r3, [r7, #16]
 12386 00a6 BB68     		ldr	r3, [r7, #8]
 12387 00a8 03F00A03 		and	r3, r3, #10
 12388 00ac 3A69     		ldr	r2, [r7, #16]
 12389 00ae 1343     		orrs	r3, r3, r2
 12390 00b0 3B61     		str	r3, [r7, #16]
 12391 00b2 FB68     		ldr	r3, [r7, #12]
 12392 00b4 7A69     		ldr	r2, [r7, #20]
 12393 00b6 9A61     		str	r2, [r3, #24]
 12394 00b8 FB68     		ldr	r3, [r7, #12]
 12395 00ba 3A69     		ldr	r2, [r7, #16]
 12396 00bc 1A62     		str	r2, [r3, #32]
 12397 00be 00BF     		nop
 12398 00c0 1C37     		adds	r7, r7, #28
 12399 00c2 BD46     		mov	sp, r7
 12400              		@ sp needed
 12401 00c4 5DF8047B 		ldr	r7, [sp], #4
 12402 00c8 7047     		bx	lr
 12403              	.L1095:
 12404 00ca 00BF     		.align	2
 12405              	.L1094:
 12406 00cc 00000140 		.word	1073807360
 12407 00d0 00040040 		.word	1073742848
 12408 00d4 00080040 		.word	1073743872
 12409 00d8 000C0040 		.word	1073744896
 12410 00dc 00040140 		.word	1073808384
 12411 00e0 00400140 		.word	1073823744
 12412 00e4 00180040 		.word	1073747968
 12414              		.section	.text.TIM_TI1_ConfigInputStage,"ax",%progbits
 12415              		.align	1
 12416              		.syntax unified
 12417              		.thumb
 12418              		.thumb_func
 12420              	TIM_TI1_ConfigInputStage:
 12421              		@ args = 0, pretend = 0, frame = 24
ARM GAS  C:\Users\user\AppData\Local\Temp\ccrDHgJ5.s 			page 215


 12422              		@ frame_needed = 1, uses_anonymous_args = 0
 12423              		@ link register save eliminated.
 12424 0000 80B4     		push	{r7}
 12425 0002 87B0     		sub	sp, sp, #28
 12426 0004 00AF     		add	r7, sp, #0
 12427 0006 F860     		str	r0, [r7, #12]
 12428 0008 B960     		str	r1, [r7, #8]
 12429 000a 7A60     		str	r2, [r7, #4]
 12430 000c FB68     		ldr	r3, [r7, #12]
 12431 000e 1B6A     		ldr	r3, [r3, #32]
 12432 0010 7B61     		str	r3, [r7, #20]
 12433 0012 FB68     		ldr	r3, [r7, #12]
 12434 0014 1B6A     		ldr	r3, [r3, #32]
 12435 0016 23F00102 		bic	r2, r3, #1
 12436 001a FB68     		ldr	r3, [r7, #12]
 12437 001c 1A62     		str	r2, [r3, #32]
 12438 001e FB68     		ldr	r3, [r7, #12]
 12439 0020 9B69     		ldr	r3, [r3, #24]
 12440 0022 3B61     		str	r3, [r7, #16]
 12441 0024 3B69     		ldr	r3, [r7, #16]
 12442 0026 23F0F003 		bic	r3, r3, #240
 12443 002a 3B61     		str	r3, [r7, #16]
 12444 002c 7B68     		ldr	r3, [r7, #4]
 12445 002e 1B01     		lsls	r3, r3, #4
 12446 0030 3A69     		ldr	r2, [r7, #16]
 12447 0032 1343     		orrs	r3, r3, r2
 12448 0034 3B61     		str	r3, [r7, #16]
 12449 0036 7B69     		ldr	r3, [r7, #20]
 12450 0038 23F00A03 		bic	r3, r3, #10
 12451 003c 7B61     		str	r3, [r7, #20]
 12452 003e 7A69     		ldr	r2, [r7, #20]
 12453 0040 BB68     		ldr	r3, [r7, #8]
 12454 0042 1343     		orrs	r3, r3, r2
 12455 0044 7B61     		str	r3, [r7, #20]
 12456 0046 FB68     		ldr	r3, [r7, #12]
 12457 0048 3A69     		ldr	r2, [r7, #16]
 12458 004a 9A61     		str	r2, [r3, #24]
 12459 004c FB68     		ldr	r3, [r7, #12]
 12460 004e 7A69     		ldr	r2, [r7, #20]
 12461 0050 1A62     		str	r2, [r3, #32]
 12462 0052 00BF     		nop
 12463 0054 1C37     		adds	r7, r7, #28
 12464 0056 BD46     		mov	sp, r7
 12465              		@ sp needed
 12466 0058 5DF8047B 		ldr	r7, [sp], #4
 12467 005c 7047     		bx	lr
 12469              		.section	.text.TIM_TI2_SetConfig,"ax",%progbits
 12470              		.align	1
 12471              		.syntax unified
 12472              		.thumb
 12473              		.thumb_func
 12475              	TIM_TI2_SetConfig:
 12476              		@ args = 0, pretend = 0, frame = 24
 12477              		@ frame_needed = 1, uses_anonymous_args = 0
 12478              		@ link register save eliminated.
 12479 0000 80B4     		push	{r7}
 12480 0002 87B0     		sub	sp, sp, #28
ARM GAS  C:\Users\user\AppData\Local\Temp\ccrDHgJ5.s 			page 216


 12481 0004 00AF     		add	r7, sp, #0
 12482 0006 F860     		str	r0, [r7, #12]
 12483 0008 B960     		str	r1, [r7, #8]
 12484 000a 7A60     		str	r2, [r7, #4]
 12485 000c 3B60     		str	r3, [r7]
 12486 000e FB68     		ldr	r3, [r7, #12]
 12487 0010 1B6A     		ldr	r3, [r3, #32]
 12488 0012 23F01002 		bic	r2, r3, #16
 12489 0016 FB68     		ldr	r3, [r7, #12]
 12490 0018 1A62     		str	r2, [r3, #32]
 12491 001a FB68     		ldr	r3, [r7, #12]
 12492 001c 9B69     		ldr	r3, [r3, #24]
 12493 001e 7B61     		str	r3, [r7, #20]
 12494 0020 FB68     		ldr	r3, [r7, #12]
 12495 0022 1B6A     		ldr	r3, [r3, #32]
 12496 0024 3B61     		str	r3, [r7, #16]
 12497 0026 7B69     		ldr	r3, [r7, #20]
 12498 0028 23F44073 		bic	r3, r3, #768
 12499 002c 7B61     		str	r3, [r7, #20]
 12500 002e 7B68     		ldr	r3, [r7, #4]
 12501 0030 1B02     		lsls	r3, r3, #8
 12502 0032 7A69     		ldr	r2, [r7, #20]
 12503 0034 1343     		orrs	r3, r3, r2
 12504 0036 7B61     		str	r3, [r7, #20]
 12505 0038 7B69     		ldr	r3, [r7, #20]
 12506 003a 23F47043 		bic	r3, r3, #61440
 12507 003e 7B61     		str	r3, [r7, #20]
 12508 0040 3B68     		ldr	r3, [r7]
 12509 0042 1B03     		lsls	r3, r3, #12
 12510 0044 9BB2     		uxth	r3, r3
 12511 0046 7A69     		ldr	r2, [r7, #20]
 12512 0048 1343     		orrs	r3, r3, r2
 12513 004a 7B61     		str	r3, [r7, #20]
 12514 004c 3B69     		ldr	r3, [r7, #16]
 12515 004e 23F0A003 		bic	r3, r3, #160
 12516 0052 3B61     		str	r3, [r7, #16]
 12517 0054 BB68     		ldr	r3, [r7, #8]
 12518 0056 1B01     		lsls	r3, r3, #4
 12519 0058 03F0A003 		and	r3, r3, #160
 12520 005c 3A69     		ldr	r2, [r7, #16]
 12521 005e 1343     		orrs	r3, r3, r2
 12522 0060 3B61     		str	r3, [r7, #16]
 12523 0062 FB68     		ldr	r3, [r7, #12]
 12524 0064 7A69     		ldr	r2, [r7, #20]
 12525 0066 9A61     		str	r2, [r3, #24]
 12526 0068 FB68     		ldr	r3, [r7, #12]
 12527 006a 3A69     		ldr	r2, [r7, #16]
 12528 006c 1A62     		str	r2, [r3, #32]
 12529 006e 00BF     		nop
 12530 0070 1C37     		adds	r7, r7, #28
 12531 0072 BD46     		mov	sp, r7
 12532              		@ sp needed
 12533 0074 5DF8047B 		ldr	r7, [sp], #4
 12534 0078 7047     		bx	lr
 12536              		.section	.text.TIM_TI2_ConfigInputStage,"ax",%progbits
 12537              		.align	1
 12538              		.syntax unified
ARM GAS  C:\Users\user\AppData\Local\Temp\ccrDHgJ5.s 			page 217


 12539              		.thumb
 12540              		.thumb_func
 12542              	TIM_TI2_ConfigInputStage:
 12543              		@ args = 0, pretend = 0, frame = 24
 12544              		@ frame_needed = 1, uses_anonymous_args = 0
 12545              		@ link register save eliminated.
 12546 0000 80B4     		push	{r7}
 12547 0002 87B0     		sub	sp, sp, #28
 12548 0004 00AF     		add	r7, sp, #0
 12549 0006 F860     		str	r0, [r7, #12]
 12550 0008 B960     		str	r1, [r7, #8]
 12551 000a 7A60     		str	r2, [r7, #4]
 12552 000c FB68     		ldr	r3, [r7, #12]
 12553 000e 1B6A     		ldr	r3, [r3, #32]
 12554 0010 23F01002 		bic	r2, r3, #16
 12555 0014 FB68     		ldr	r3, [r7, #12]
 12556 0016 1A62     		str	r2, [r3, #32]
 12557 0018 FB68     		ldr	r3, [r7, #12]
 12558 001a 9B69     		ldr	r3, [r3, #24]
 12559 001c 7B61     		str	r3, [r7, #20]
 12560 001e FB68     		ldr	r3, [r7, #12]
 12561 0020 1B6A     		ldr	r3, [r3, #32]
 12562 0022 3B61     		str	r3, [r7, #16]
 12563 0024 7B69     		ldr	r3, [r7, #20]
 12564 0026 23F47043 		bic	r3, r3, #61440
 12565 002a 7B61     		str	r3, [r7, #20]
 12566 002c 7B68     		ldr	r3, [r7, #4]
 12567 002e 1B03     		lsls	r3, r3, #12
 12568 0030 7A69     		ldr	r2, [r7, #20]
 12569 0032 1343     		orrs	r3, r3, r2
 12570 0034 7B61     		str	r3, [r7, #20]
 12571 0036 3B69     		ldr	r3, [r7, #16]
 12572 0038 23F0A003 		bic	r3, r3, #160
 12573 003c 3B61     		str	r3, [r7, #16]
 12574 003e BB68     		ldr	r3, [r7, #8]
 12575 0040 1B01     		lsls	r3, r3, #4
 12576 0042 3A69     		ldr	r2, [r7, #16]
 12577 0044 1343     		orrs	r3, r3, r2
 12578 0046 3B61     		str	r3, [r7, #16]
 12579 0048 FB68     		ldr	r3, [r7, #12]
 12580 004a 7A69     		ldr	r2, [r7, #20]
 12581 004c 9A61     		str	r2, [r3, #24]
 12582 004e FB68     		ldr	r3, [r7, #12]
 12583 0050 3A69     		ldr	r2, [r7, #16]
 12584 0052 1A62     		str	r2, [r3, #32]
 12585 0054 00BF     		nop
 12586 0056 1C37     		adds	r7, r7, #28
 12587 0058 BD46     		mov	sp, r7
 12588              		@ sp needed
 12589 005a 5DF8047B 		ldr	r7, [sp], #4
 12590 005e 7047     		bx	lr
 12592              		.section	.text.TIM_TI3_SetConfig,"ax",%progbits
 12593              		.align	1
 12594              		.syntax unified
 12595              		.thumb
 12596              		.thumb_func
 12598              	TIM_TI3_SetConfig:
ARM GAS  C:\Users\user\AppData\Local\Temp\ccrDHgJ5.s 			page 218


 12599              		@ args = 0, pretend = 0, frame = 24
 12600              		@ frame_needed = 1, uses_anonymous_args = 0
 12601              		@ link register save eliminated.
 12602 0000 80B4     		push	{r7}
 12603 0002 87B0     		sub	sp, sp, #28
 12604 0004 00AF     		add	r7, sp, #0
 12605 0006 F860     		str	r0, [r7, #12]
 12606 0008 B960     		str	r1, [r7, #8]
 12607 000a 7A60     		str	r2, [r7, #4]
 12608 000c 3B60     		str	r3, [r7]
 12609 000e FB68     		ldr	r3, [r7, #12]
 12610 0010 1B6A     		ldr	r3, [r3, #32]
 12611 0012 23F48072 		bic	r2, r3, #256
 12612 0016 FB68     		ldr	r3, [r7, #12]
 12613 0018 1A62     		str	r2, [r3, #32]
 12614 001a FB68     		ldr	r3, [r7, #12]
 12615 001c DB69     		ldr	r3, [r3, #28]
 12616 001e 7B61     		str	r3, [r7, #20]
 12617 0020 FB68     		ldr	r3, [r7, #12]
 12618 0022 1B6A     		ldr	r3, [r3, #32]
 12619 0024 3B61     		str	r3, [r7, #16]
 12620 0026 7B69     		ldr	r3, [r7, #20]
 12621 0028 23F00303 		bic	r3, r3, #3
 12622 002c 7B61     		str	r3, [r7, #20]
 12623 002e 7A69     		ldr	r2, [r7, #20]
 12624 0030 7B68     		ldr	r3, [r7, #4]
 12625 0032 1343     		orrs	r3, r3, r2
 12626 0034 7B61     		str	r3, [r7, #20]
 12627 0036 7B69     		ldr	r3, [r7, #20]
 12628 0038 23F0F003 		bic	r3, r3, #240
 12629 003c 7B61     		str	r3, [r7, #20]
 12630 003e 3B68     		ldr	r3, [r7]
 12631 0040 1B01     		lsls	r3, r3, #4
 12632 0042 DBB2     		uxtb	r3, r3
 12633 0044 7A69     		ldr	r2, [r7, #20]
 12634 0046 1343     		orrs	r3, r3, r2
 12635 0048 7B61     		str	r3, [r7, #20]
 12636 004a 3B69     		ldr	r3, [r7, #16]
 12637 004c 23F42063 		bic	r3, r3, #2560
 12638 0050 3B61     		str	r3, [r7, #16]
 12639 0052 BB68     		ldr	r3, [r7, #8]
 12640 0054 1B02     		lsls	r3, r3, #8
 12641 0056 03F42063 		and	r3, r3, #2560
 12642 005a 3A69     		ldr	r2, [r7, #16]
 12643 005c 1343     		orrs	r3, r3, r2
 12644 005e 3B61     		str	r3, [r7, #16]
 12645 0060 FB68     		ldr	r3, [r7, #12]
 12646 0062 7A69     		ldr	r2, [r7, #20]
 12647 0064 DA61     		str	r2, [r3, #28]
 12648 0066 FB68     		ldr	r3, [r7, #12]
 12649 0068 3A69     		ldr	r2, [r7, #16]
 12650 006a 1A62     		str	r2, [r3, #32]
 12651 006c 00BF     		nop
 12652 006e 1C37     		adds	r7, r7, #28
 12653 0070 BD46     		mov	sp, r7
 12654              		@ sp needed
 12655 0072 5DF8047B 		ldr	r7, [sp], #4
ARM GAS  C:\Users\user\AppData\Local\Temp\ccrDHgJ5.s 			page 219


 12656 0076 7047     		bx	lr
 12658              		.section	.text.TIM_TI4_SetConfig,"ax",%progbits
 12659              		.align	1
 12660              		.syntax unified
 12661              		.thumb
 12662              		.thumb_func
 12664              	TIM_TI4_SetConfig:
 12665              		@ args = 0, pretend = 0, frame = 24
 12666              		@ frame_needed = 1, uses_anonymous_args = 0
 12667              		@ link register save eliminated.
 12668 0000 80B4     		push	{r7}
 12669 0002 87B0     		sub	sp, sp, #28
 12670 0004 00AF     		add	r7, sp, #0
 12671 0006 F860     		str	r0, [r7, #12]
 12672 0008 B960     		str	r1, [r7, #8]
 12673 000a 7A60     		str	r2, [r7, #4]
 12674 000c 3B60     		str	r3, [r7]
 12675 000e FB68     		ldr	r3, [r7, #12]
 12676 0010 1B6A     		ldr	r3, [r3, #32]
 12677 0012 23F48052 		bic	r2, r3, #4096
 12678 0016 FB68     		ldr	r3, [r7, #12]
 12679 0018 1A62     		str	r2, [r3, #32]
 12680 001a FB68     		ldr	r3, [r7, #12]
 12681 001c DB69     		ldr	r3, [r3, #28]
 12682 001e 7B61     		str	r3, [r7, #20]
 12683 0020 FB68     		ldr	r3, [r7, #12]
 12684 0022 1B6A     		ldr	r3, [r3, #32]
 12685 0024 3B61     		str	r3, [r7, #16]
 12686 0026 7B69     		ldr	r3, [r7, #20]
 12687 0028 23F44073 		bic	r3, r3, #768
 12688 002c 7B61     		str	r3, [r7, #20]
 12689 002e 7B68     		ldr	r3, [r7, #4]
 12690 0030 1B02     		lsls	r3, r3, #8
 12691 0032 7A69     		ldr	r2, [r7, #20]
 12692 0034 1343     		orrs	r3, r3, r2
 12693 0036 7B61     		str	r3, [r7, #20]
 12694 0038 7B69     		ldr	r3, [r7, #20]
 12695 003a 23F47043 		bic	r3, r3, #61440
 12696 003e 7B61     		str	r3, [r7, #20]
 12697 0040 3B68     		ldr	r3, [r7]
 12698 0042 1B03     		lsls	r3, r3, #12
 12699 0044 9BB2     		uxth	r3, r3
 12700 0046 7A69     		ldr	r2, [r7, #20]
 12701 0048 1343     		orrs	r3, r3, r2
 12702 004a 7B61     		str	r3, [r7, #20]
 12703 004c 3B69     		ldr	r3, [r7, #16]
 12704 004e 23F42043 		bic	r3, r3, #40960
 12705 0052 3B61     		str	r3, [r7, #16]
 12706 0054 BB68     		ldr	r3, [r7, #8]
 12707 0056 1B03     		lsls	r3, r3, #12
 12708 0058 03F42043 		and	r3, r3, #40960
 12709 005c 3A69     		ldr	r2, [r7, #16]
 12710 005e 1343     		orrs	r3, r3, r2
 12711 0060 3B61     		str	r3, [r7, #16]
 12712 0062 FB68     		ldr	r3, [r7, #12]
 12713 0064 7A69     		ldr	r2, [r7, #20]
 12714 0066 DA61     		str	r2, [r3, #28]
ARM GAS  C:\Users\user\AppData\Local\Temp\ccrDHgJ5.s 			page 220


 12715 0068 FB68     		ldr	r3, [r7, #12]
 12716 006a 3A69     		ldr	r2, [r7, #16]
 12717 006c 1A62     		str	r2, [r3, #32]
 12718 006e 00BF     		nop
 12719 0070 1C37     		adds	r7, r7, #28
 12720 0072 BD46     		mov	sp, r7
 12721              		@ sp needed
 12722 0074 5DF8047B 		ldr	r7, [sp], #4
 12723 0078 7047     		bx	lr
 12725              		.section	.text.TIM_ITRx_SetConfig,"ax",%progbits
 12726              		.align	1
 12727              		.syntax unified
 12728              		.thumb
 12729              		.thumb_func
 12731              	TIM_ITRx_SetConfig:
 12732              		@ args = 0, pretend = 0, frame = 16
 12733              		@ frame_needed = 1, uses_anonymous_args = 0
 12734              		@ link register save eliminated.
 12735 0000 80B4     		push	{r7}
 12736 0002 85B0     		sub	sp, sp, #20
 12737 0004 00AF     		add	r7, sp, #0
 12738 0006 7860     		str	r0, [r7, #4]
 12739 0008 3960     		str	r1, [r7]
 12740 000a 7B68     		ldr	r3, [r7, #4]
 12741 000c 9B68     		ldr	r3, [r3, #8]
 12742 000e FB60     		str	r3, [r7, #12]
 12743 0010 FB68     		ldr	r3, [r7, #12]
 12744 0012 23F07003 		bic	r3, r3, #112
 12745 0016 FB60     		str	r3, [r7, #12]
 12746 0018 3A68     		ldr	r2, [r7]
 12747 001a FB68     		ldr	r3, [r7, #12]
 12748 001c 1343     		orrs	r3, r3, r2
 12749 001e 43F00703 		orr	r3, r3, #7
 12750 0022 FB60     		str	r3, [r7, #12]
 12751 0024 7B68     		ldr	r3, [r7, #4]
 12752 0026 FA68     		ldr	r2, [r7, #12]
 12753 0028 9A60     		str	r2, [r3, #8]
 12754 002a 00BF     		nop
 12755 002c 1437     		adds	r7, r7, #20
 12756 002e BD46     		mov	sp, r7
 12757              		@ sp needed
 12758 0030 5DF8047B 		ldr	r7, [sp], #4
 12759 0034 7047     		bx	lr
 12761              		.section	.text.TIM_ETR_SetConfig,"ax",%progbits
 12762              		.align	1
 12763              		.global	TIM_ETR_SetConfig
 12764              		.syntax unified
 12765              		.thumb
 12766              		.thumb_func
 12768              	TIM_ETR_SetConfig:
 12769              		@ args = 0, pretend = 0, frame = 24
 12770              		@ frame_needed = 1, uses_anonymous_args = 0
 12771              		@ link register save eliminated.
 12772 0000 80B4     		push	{r7}
 12773 0002 87B0     		sub	sp, sp, #28
 12774 0004 00AF     		add	r7, sp, #0
 12775 0006 F860     		str	r0, [r7, #12]
ARM GAS  C:\Users\user\AppData\Local\Temp\ccrDHgJ5.s 			page 221


 12776 0008 B960     		str	r1, [r7, #8]
 12777 000a 7A60     		str	r2, [r7, #4]
 12778 000c 3B60     		str	r3, [r7]
 12779 000e FB68     		ldr	r3, [r7, #12]
 12780 0010 9B68     		ldr	r3, [r3, #8]
 12781 0012 7B61     		str	r3, [r7, #20]
 12782 0014 7B69     		ldr	r3, [r7, #20]
 12783 0016 23F47F43 		bic	r3, r3, #65280
 12784 001a 7B61     		str	r3, [r7, #20]
 12785 001c 3B68     		ldr	r3, [r7]
 12786 001e 1A02     		lsls	r2, r3, #8
 12787 0020 7B68     		ldr	r3, [r7, #4]
 12788 0022 1A43     		orrs	r2, r2, r3
 12789 0024 BB68     		ldr	r3, [r7, #8]
 12790 0026 1343     		orrs	r3, r3, r2
 12791 0028 7A69     		ldr	r2, [r7, #20]
 12792 002a 1343     		orrs	r3, r3, r2
 12793 002c 7B61     		str	r3, [r7, #20]
 12794 002e FB68     		ldr	r3, [r7, #12]
 12795 0030 7A69     		ldr	r2, [r7, #20]
 12796 0032 9A60     		str	r2, [r3, #8]
 12797 0034 00BF     		nop
 12798 0036 1C37     		adds	r7, r7, #28
 12799 0038 BD46     		mov	sp, r7
 12800              		@ sp needed
 12801 003a 5DF8047B 		ldr	r7, [sp], #4
 12802 003e 7047     		bx	lr
 12804              		.section	.text.TIM_CCxChannelCmd,"ax",%progbits
 12805              		.align	1
 12806              		.global	TIM_CCxChannelCmd
 12807              		.syntax unified
 12808              		.thumb
 12809              		.thumb_func
 12811              	TIM_CCxChannelCmd:
 12812              		@ args = 0, pretend = 0, frame = 24
 12813              		@ frame_needed = 1, uses_anonymous_args = 0
 12814              		@ link register save eliminated.
 12815 0000 80B4     		push	{r7}
 12816 0002 87B0     		sub	sp, sp, #28
 12817 0004 00AF     		add	r7, sp, #0
 12818 0006 F860     		str	r0, [r7, #12]
 12819 0008 B960     		str	r1, [r7, #8]
 12820 000a 7A60     		str	r2, [r7, #4]
 12821 000c BB68     		ldr	r3, [r7, #8]
 12822 000e 03F01F03 		and	r3, r3, #31
 12823 0012 0122     		movs	r2, #1
 12824 0014 02FA03F3 		lsl	r3, r2, r3
 12825 0018 7B61     		str	r3, [r7, #20]
 12826 001a FB68     		ldr	r3, [r7, #12]
 12827 001c 1A6A     		ldr	r2, [r3, #32]
 12828 001e 7B69     		ldr	r3, [r7, #20]
 12829 0020 DB43     		mvns	r3, r3
 12830 0022 1A40     		ands	r2, r2, r3
 12831 0024 FB68     		ldr	r3, [r7, #12]
 12832 0026 1A62     		str	r2, [r3, #32]
 12833 0028 FB68     		ldr	r3, [r7, #12]
 12834 002a 1A6A     		ldr	r2, [r3, #32]
ARM GAS  C:\Users\user\AppData\Local\Temp\ccrDHgJ5.s 			page 222


 12835 002c BB68     		ldr	r3, [r7, #8]
 12836 002e 03F01F03 		and	r3, r3, #31
 12837 0032 7968     		ldr	r1, [r7, #4]
 12838 0034 01FA03F3 		lsl	r3, r1, r3
 12839 0038 1A43     		orrs	r2, r2, r3
 12840 003a FB68     		ldr	r3, [r7, #12]
 12841 003c 1A62     		str	r2, [r3, #32]
 12842 003e 00BF     		nop
 12843 0040 1C37     		adds	r7, r7, #28
 12844 0042 BD46     		mov	sp, r7
 12845              		@ sp needed
 12846 0044 5DF8047B 		ldr	r7, [sp], #4
 12847 0048 7047     		bx	lr
 12849              		.ident	"GCC: (GNU Tools for STM32 12.3.rel1.20240306-1730) 12.3.1 20230626"
ARM GAS  C:\Users\user\AppData\Local\Temp\ccrDHgJ5.s 			page 223


DEFINED SYMBOLS
                            *ABS*:00000000 stm32f4xx_hal_tim.c
C:\Users\user\AppData\Local\Temp\ccrDHgJ5.s:18     .text.HAL_TIM_Base_Init:00000000 $t
C:\Users\user\AppData\Local\Temp\ccrDHgJ5.s:24     .text.HAL_TIM_Base_Init:00000000 HAL_TIM_Base_Init
C:\Users\user\AppData\Local\Temp\ccrDHgJ5.s:184    .text.HAL_TIM_Base_MspInit:00000000 HAL_TIM_Base_MspInit
C:\Users\user\AppData\Local\Temp\ccrDHgJ5.s:11514  .text.TIM_Base_SetConfig:00000000 TIM_Base_SetConfig
C:\Users\user\AppData\Local\Temp\ccrDHgJ5.s:97     .text.HAL_TIM_Base_DeInit:00000000 $t
C:\Users\user\AppData\Local\Temp\ccrDHgJ5.s:103    .text.HAL_TIM_Base_DeInit:00000000 HAL_TIM_Base_DeInit
C:\Users\user\AppData\Local\Temp\ccrDHgJ5.s:206    .text.HAL_TIM_Base_MspDeInit:00000000 HAL_TIM_Base_MspDeInit
C:\Users\user\AppData\Local\Temp\ccrDHgJ5.s:178    .text.HAL_TIM_Base_MspInit:00000000 $t
C:\Users\user\AppData\Local\Temp\ccrDHgJ5.s:200    .text.HAL_TIM_Base_MspDeInit:00000000 $t
C:\Users\user\AppData\Local\Temp\ccrDHgJ5.s:222    .text.HAL_TIM_Base_Start:00000000 $t
C:\Users\user\AppData\Local\Temp\ccrDHgJ5.s:228    .text.HAL_TIM_Base_Start:00000000 HAL_TIM_Base_Start
C:\Users\user\AppData\Local\Temp\ccrDHgJ5.s:323    .text.HAL_TIM_Base_Start:000000b4 $d
C:\Users\user\AppData\Local\Temp\ccrDHgJ5.s:332    .text.HAL_TIM_Base_Stop:00000000 $t
C:\Users\user\AppData\Local\Temp\ccrDHgJ5.s:338    .text.HAL_TIM_Base_Stop:00000000 HAL_TIM_Base_Stop
C:\Users\user\AppData\Local\Temp\ccrDHgJ5.s:380    .text.HAL_TIM_Base_Start_IT:00000000 $t
C:\Users\user\AppData\Local\Temp\ccrDHgJ5.s:386    .text.HAL_TIM_Base_Start_IT:00000000 HAL_TIM_Base_Start_IT
C:\Users\user\AppData\Local\Temp\ccrDHgJ5.s:488    .text.HAL_TIM_Base_Start_IT:000000c4 $d
C:\Users\user\AppData\Local\Temp\ccrDHgJ5.s:497    .text.HAL_TIM_Base_Stop_IT:00000000 $t
C:\Users\user\AppData\Local\Temp\ccrDHgJ5.s:503    .text.HAL_TIM_Base_Stop_IT:00000000 HAL_TIM_Base_Stop_IT
C:\Users\user\AppData\Local\Temp\ccrDHgJ5.s:552    .text.HAL_TIM_Base_Start_DMA:00000000 $t
C:\Users\user\AppData\Local\Temp\ccrDHgJ5.s:558    .text.HAL_TIM_Base_Start_DMA:00000000 HAL_TIM_Base_Start_DMA
C:\Users\user\AppData\Local\Temp\ccrDHgJ5.s:707    .text.HAL_TIM_Base_Start_DMA:0000011c $d
C:\Users\user\AppData\Local\Temp\ccrDHgJ5.s:11399  .text.TIM_DMAPeriodElapsedCplt:00000000 TIM_DMAPeriodElapsedCplt
C:\Users\user\AppData\Local\Temp\ccrDHgJ5.s:11432  .text.TIM_DMAPeriodElapsedHalfCplt:00000000 TIM_DMAPeriodElapsedHalfCplt
C:\Users\user\AppData\Local\Temp\ccrDHgJ5.s:10981  .text.TIM_DMAError:00000000 TIM_DMAError
C:\Users\user\AppData\Local\Temp\ccrDHgJ5.s:719    .text.HAL_TIM_Base_Stop_DMA:00000000 $t
C:\Users\user\AppData\Local\Temp\ccrDHgJ5.s:725    .text.HAL_TIM_Base_Stop_DMA:00000000 HAL_TIM_Base_Stop_DMA
C:\Users\user\AppData\Local\Temp\ccrDHgJ5.s:776    .text.HAL_TIM_OC_Init:00000000 $t
C:\Users\user\AppData\Local\Temp\ccrDHgJ5.s:782    .text.HAL_TIM_OC_Init:00000000 HAL_TIM_OC_Init
C:\Users\user\AppData\Local\Temp\ccrDHgJ5.s:942    .text.HAL_TIM_OC_MspInit:00000000 HAL_TIM_OC_MspInit
C:\Users\user\AppData\Local\Temp\ccrDHgJ5.s:855    .text.HAL_TIM_OC_DeInit:00000000 $t
C:\Users\user\AppData\Local\Temp\ccrDHgJ5.s:861    .text.HAL_TIM_OC_DeInit:00000000 HAL_TIM_OC_DeInit
C:\Users\user\AppData\Local\Temp\ccrDHgJ5.s:964    .text.HAL_TIM_OC_MspDeInit:00000000 HAL_TIM_OC_MspDeInit
C:\Users\user\AppData\Local\Temp\ccrDHgJ5.s:936    .text.HAL_TIM_OC_MspInit:00000000 $t
C:\Users\user\AppData\Local\Temp\ccrDHgJ5.s:958    .text.HAL_TIM_OC_MspDeInit:00000000 $t
C:\Users\user\AppData\Local\Temp\ccrDHgJ5.s:980    .text.HAL_TIM_OC_Start:00000000 $t
C:\Users\user\AppData\Local\Temp\ccrDHgJ5.s:986    .text.HAL_TIM_OC_Start:00000000 HAL_TIM_OC_Start
C:\Users\user\AppData\Local\Temp\ccrDHgJ5.s:12811  .text.TIM_CCxChannelCmd:00000000 TIM_CCxChannelCmd
C:\Users\user\AppData\Local\Temp\ccrDHgJ5.s:1182   .text.HAL_TIM_OC_Start:00000174 $d
C:\Users\user\AppData\Local\Temp\ccrDHgJ5.s:1191   .text.HAL_TIM_OC_Stop:00000000 $t
C:\Users\user\AppData\Local\Temp\ccrDHgJ5.s:1197   .text.HAL_TIM_OC_Stop:00000000 HAL_TIM_OC_Stop
C:\Users\user\AppData\Local\Temp\ccrDHgJ5.s:1310   .text.HAL_TIM_OC_Stop:000000d8 $d
C:\Users\user\AppData\Local\Temp\ccrDHgJ5.s:1314   .text.HAL_TIM_OC_Start_IT:00000000 $t
C:\Users\user\AppData\Local\Temp\ccrDHgJ5.s:1320   .text.HAL_TIM_OC_Start_IT:00000000 HAL_TIM_OC_Start_IT
C:\Users\user\AppData\Local\Temp\ccrDHgJ5.s:1418   .text.HAL_TIM_OC_Start_IT:000000bc $d
C:\Users\user\AppData\Local\Temp\ccrDHgJ5.s:1431   .text.HAL_TIM_OC_Start_IT:000000f0 $t
C:\Users\user\AppData\Local\Temp\ccrDHgJ5.s:1583   .text.HAL_TIM_OC_Start_IT:00000210 $d
C:\Users\user\AppData\Local\Temp\ccrDHgJ5.s:1592   .text.HAL_TIM_OC_Stop_IT:00000000 $t
C:\Users\user\AppData\Local\Temp\ccrDHgJ5.s:1598   .text.HAL_TIM_OC_Stop_IT:00000000 HAL_TIM_OC_Stop_IT
C:\Users\user\AppData\Local\Temp\ccrDHgJ5.s:1615   .text.HAL_TIM_OC_Stop_IT:0000001c $d
C:\Users\user\AppData\Local\Temp\ccrDHgJ5.s:1628   .text.HAL_TIM_OC_Stop_IT:00000050 $t
C:\Users\user\AppData\Local\Temp\ccrDHgJ5.s:1778   .text.HAL_TIM_OC_Stop_IT:00000174 $d
C:\Users\user\AppData\Local\Temp\ccrDHgJ5.s:1782   .text.HAL_TIM_OC_Start_DMA:00000000 $t
C:\Users\user\AppData\Local\Temp\ccrDHgJ5.s:1788   .text.HAL_TIM_OC_Start_DMA:00000000 HAL_TIM_OC_Start_DMA
C:\Users\user\AppData\Local\Temp\ccrDHgJ5.s:1951   .text.HAL_TIM_OC_Start_DMA:0000013c $d
ARM GAS  C:\Users\user\AppData\Local\Temp\ccrDHgJ5.s 			page 224


C:\Users\user\AppData\Local\Temp\ccrDHgJ5.s:1964   .text.HAL_TIM_OC_Start_DMA:00000170 $t
C:\Users\user\AppData\Local\Temp\ccrDHgJ5.s:2224   .text.HAL_TIM_OC_Start_DMA:00000368 $d
C:\Users\user\AppData\Local\Temp\ccrDHgJ5.s:11064  .text.TIM_DMADelayPulseCplt:00000000 TIM_DMADelayPulseCplt
C:\Users\user\AppData\Local\Temp\ccrDHgJ5.s:11159  .text.TIM_DMADelayPulseHalfCplt:00000000 TIM_DMADelayPulseHalfCplt
C:\Users\user\AppData\Local\Temp\ccrDHgJ5.s:2236   .text.HAL_TIM_OC_Stop_DMA:00000000 $t
C:\Users\user\AppData\Local\Temp\ccrDHgJ5.s:2242   .text.HAL_TIM_OC_Stop_DMA:00000000 HAL_TIM_OC_Stop_DMA
C:\Users\user\AppData\Local\Temp\ccrDHgJ5.s:2259   .text.HAL_TIM_OC_Stop_DMA:0000001c $d
C:\Users\user\AppData\Local\Temp\ccrDHgJ5.s:2272   .text.HAL_TIM_OC_Stop_DMA:00000050 $t
C:\Users\user\AppData\Local\Temp\ccrDHgJ5.s:2438   .text.HAL_TIM_OC_Stop_DMA:0000019c $d
C:\Users\user\AppData\Local\Temp\ccrDHgJ5.s:2442   .text.HAL_TIM_PWM_Init:00000000 $t
C:\Users\user\AppData\Local\Temp\ccrDHgJ5.s:2448   .text.HAL_TIM_PWM_Init:00000000 HAL_TIM_PWM_Init
C:\Users\user\AppData\Local\Temp\ccrDHgJ5.s:2608   .text.HAL_TIM_PWM_MspInit:00000000 HAL_TIM_PWM_MspInit
C:\Users\user\AppData\Local\Temp\ccrDHgJ5.s:2521   .text.HAL_TIM_PWM_DeInit:00000000 $t
C:\Users\user\AppData\Local\Temp\ccrDHgJ5.s:2527   .text.HAL_TIM_PWM_DeInit:00000000 HAL_TIM_PWM_DeInit
C:\Users\user\AppData\Local\Temp\ccrDHgJ5.s:2630   .text.HAL_TIM_PWM_MspDeInit:00000000 HAL_TIM_PWM_MspDeInit
C:\Users\user\AppData\Local\Temp\ccrDHgJ5.s:2602   .text.HAL_TIM_PWM_MspInit:00000000 $t
C:\Users\user\AppData\Local\Temp\ccrDHgJ5.s:2624   .text.HAL_TIM_PWM_MspDeInit:00000000 $t
C:\Users\user\AppData\Local\Temp\ccrDHgJ5.s:2646   .text.HAL_TIM_PWM_Start:00000000 $t
C:\Users\user\AppData\Local\Temp\ccrDHgJ5.s:2652   .text.HAL_TIM_PWM_Start:00000000 HAL_TIM_PWM_Start
C:\Users\user\AppData\Local\Temp\ccrDHgJ5.s:2848   .text.HAL_TIM_PWM_Start:00000174 $d
C:\Users\user\AppData\Local\Temp\ccrDHgJ5.s:2857   .text.HAL_TIM_PWM_Stop:00000000 $t
C:\Users\user\AppData\Local\Temp\ccrDHgJ5.s:2863   .text.HAL_TIM_PWM_Stop:00000000 HAL_TIM_PWM_Stop
C:\Users\user\AppData\Local\Temp\ccrDHgJ5.s:2976   .text.HAL_TIM_PWM_Stop:000000d8 $d
C:\Users\user\AppData\Local\Temp\ccrDHgJ5.s:2980   .text.HAL_TIM_PWM_Start_IT:00000000 $t
C:\Users\user\AppData\Local\Temp\ccrDHgJ5.s:2986   .text.HAL_TIM_PWM_Start_IT:00000000 HAL_TIM_PWM_Start_IT
C:\Users\user\AppData\Local\Temp\ccrDHgJ5.s:3084   .text.HAL_TIM_PWM_Start_IT:000000bc $d
C:\Users\user\AppData\Local\Temp\ccrDHgJ5.s:3097   .text.HAL_TIM_PWM_Start_IT:000000f0 $t
C:\Users\user\AppData\Local\Temp\ccrDHgJ5.s:3249   .text.HAL_TIM_PWM_Start_IT:00000210 $d
C:\Users\user\AppData\Local\Temp\ccrDHgJ5.s:3258   .text.HAL_TIM_PWM_Stop_IT:00000000 $t
C:\Users\user\AppData\Local\Temp\ccrDHgJ5.s:3264   .text.HAL_TIM_PWM_Stop_IT:00000000 HAL_TIM_PWM_Stop_IT
C:\Users\user\AppData\Local\Temp\ccrDHgJ5.s:3281   .text.HAL_TIM_PWM_Stop_IT:0000001c $d
C:\Users\user\AppData\Local\Temp\ccrDHgJ5.s:3294   .text.HAL_TIM_PWM_Stop_IT:00000050 $t
C:\Users\user\AppData\Local\Temp\ccrDHgJ5.s:3444   .text.HAL_TIM_PWM_Stop_IT:00000174 $d
C:\Users\user\AppData\Local\Temp\ccrDHgJ5.s:3448   .text.HAL_TIM_PWM_Start_DMA:00000000 $t
C:\Users\user\AppData\Local\Temp\ccrDHgJ5.s:3454   .text.HAL_TIM_PWM_Start_DMA:00000000 HAL_TIM_PWM_Start_DMA
C:\Users\user\AppData\Local\Temp\ccrDHgJ5.s:3617   .text.HAL_TIM_PWM_Start_DMA:0000013c $d
C:\Users\user\AppData\Local\Temp\ccrDHgJ5.s:3630   .text.HAL_TIM_PWM_Start_DMA:00000170 $t
C:\Users\user\AppData\Local\Temp\ccrDHgJ5.s:3890   .text.HAL_TIM_PWM_Start_DMA:00000368 $d
C:\Users\user\AppData\Local\Temp\ccrDHgJ5.s:3902   .text.HAL_TIM_PWM_Stop_DMA:00000000 $t
C:\Users\user\AppData\Local\Temp\ccrDHgJ5.s:3908   .text.HAL_TIM_PWM_Stop_DMA:00000000 HAL_TIM_PWM_Stop_DMA
C:\Users\user\AppData\Local\Temp\ccrDHgJ5.s:3925   .text.HAL_TIM_PWM_Stop_DMA:0000001c $d
C:\Users\user\AppData\Local\Temp\ccrDHgJ5.s:3938   .text.HAL_TIM_PWM_Stop_DMA:00000050 $t
C:\Users\user\AppData\Local\Temp\ccrDHgJ5.s:4104   .text.HAL_TIM_PWM_Stop_DMA:0000019c $d
C:\Users\user\AppData\Local\Temp\ccrDHgJ5.s:4108   .text.HAL_TIM_IC_Init:00000000 $t
C:\Users\user\AppData\Local\Temp\ccrDHgJ5.s:4114   .text.HAL_TIM_IC_Init:00000000 HAL_TIM_IC_Init
C:\Users\user\AppData\Local\Temp\ccrDHgJ5.s:4274   .text.HAL_TIM_IC_MspInit:00000000 HAL_TIM_IC_MspInit
C:\Users\user\AppData\Local\Temp\ccrDHgJ5.s:4187   .text.HAL_TIM_IC_DeInit:00000000 $t
C:\Users\user\AppData\Local\Temp\ccrDHgJ5.s:4193   .text.HAL_TIM_IC_DeInit:00000000 HAL_TIM_IC_DeInit
C:\Users\user\AppData\Local\Temp\ccrDHgJ5.s:4296   .text.HAL_TIM_IC_MspDeInit:00000000 HAL_TIM_IC_MspDeInit
C:\Users\user\AppData\Local\Temp\ccrDHgJ5.s:4268   .text.HAL_TIM_IC_MspInit:00000000 $t
C:\Users\user\AppData\Local\Temp\ccrDHgJ5.s:4290   .text.HAL_TIM_IC_MspDeInit:00000000 $t
C:\Users\user\AppData\Local\Temp\ccrDHgJ5.s:4312   .text.HAL_TIM_IC_Start:00000000 $t
C:\Users\user\AppData\Local\Temp\ccrDHgJ5.s:4318   .text.HAL_TIM_IC_Start:00000000 HAL_TIM_IC_Start
C:\Users\user\AppData\Local\Temp\ccrDHgJ5.s:4531   .text.HAL_TIM_IC_Start:0000019c $d
C:\Users\user\AppData\Local\Temp\ccrDHgJ5.s:4540   .text.HAL_TIM_IC_Stop:00000000 $t
C:\Users\user\AppData\Local\Temp\ccrDHgJ5.s:4546   .text.HAL_TIM_IC_Stop:00000000 HAL_TIM_IC_Stop
C:\Users\user\AppData\Local\Temp\ccrDHgJ5.s:4646   .text.HAL_TIM_IC_Start_IT:00000000 $t
ARM GAS  C:\Users\user\AppData\Local\Temp\ccrDHgJ5.s 			page 225


C:\Users\user\AppData\Local\Temp\ccrDHgJ5.s:4652   .text.HAL_TIM_IC_Start_IT:00000000 HAL_TIM_IC_Start_IT
C:\Users\user\AppData\Local\Temp\ccrDHgJ5.s:4793   .text.HAL_TIM_IC_Start_IT:00000110 $d
C:\Users\user\AppData\Local\Temp\ccrDHgJ5.s:4806   .text.HAL_TIM_IC_Start_IT:00000144 $t
C:\Users\user\AppData\Local\Temp\ccrDHgJ5.s:4932   .text.HAL_TIM_IC_Start_IT:00000234 $d
C:\Users\user\AppData\Local\Temp\ccrDHgJ5.s:4941   .text.HAL_TIM_IC_Stop_IT:00000000 $t
C:\Users\user\AppData\Local\Temp\ccrDHgJ5.s:4947   .text.HAL_TIM_IC_Stop_IT:00000000 HAL_TIM_IC_Stop_IT
C:\Users\user\AppData\Local\Temp\ccrDHgJ5.s:4964   .text.HAL_TIM_IC_Stop_IT:0000001c $d
C:\Users\user\AppData\Local\Temp\ccrDHgJ5.s:4977   .text.HAL_TIM_IC_Stop_IT:00000050 $t
C:\Users\user\AppData\Local\Temp\ccrDHgJ5.s:5114   .text.HAL_TIM_IC_Start_DMA:00000000 $t
C:\Users\user\AppData\Local\Temp\ccrDHgJ5.s:5120   .text.HAL_TIM_IC_Start_DMA:00000000 HAL_TIM_IC_Start_DMA
C:\Users\user\AppData\Local\Temp\ccrDHgJ5.s:5288   .text.HAL_TIM_IC_Start_DMA:00000144 $d
C:\Users\user\AppData\Local\Temp\ccrDHgJ5.s:5301   .text.HAL_TIM_IC_Start_DMA:00000178 $t
C:\Users\user\AppData\Local\Temp\ccrDHgJ5.s:5526   .text.HAL_TIM_IC_Start_DMA:0000032c $d
C:\Users\user\AppData\Local\Temp\ccrDHgJ5.s:11226  .text.TIM_DMACaptureCplt:00000000 TIM_DMACaptureCplt
C:\Users\user\AppData\Local\Temp\ccrDHgJ5.s:11333  .text.TIM_DMACaptureHalfCplt:00000000 TIM_DMACaptureHalfCplt
C:\Users\user\AppData\Local\Temp\ccrDHgJ5.s:5538   .text.HAL_TIM_IC_Stop_DMA:00000000 $t
C:\Users\user\AppData\Local\Temp\ccrDHgJ5.s:5544   .text.HAL_TIM_IC_Stop_DMA:00000000 HAL_TIM_IC_Stop_DMA
C:\Users\user\AppData\Local\Temp\ccrDHgJ5.s:5567   .text.HAL_TIM_IC_Stop_DMA:00000028 $d
C:\Users\user\AppData\Local\Temp\ccrDHgJ5.s:5580   .text.HAL_TIM_IC_Stop_DMA:0000005c $t
C:\Users\user\AppData\Local\Temp\ccrDHgJ5.s:5727   .text.HAL_TIM_OnePulse_Init:00000000 $t
C:\Users\user\AppData\Local\Temp\ccrDHgJ5.s:5733   .text.HAL_TIM_OnePulse_Init:00000000 HAL_TIM_OnePulse_Init
C:\Users\user\AppData\Local\Temp\ccrDHgJ5.s:5885   .text.HAL_TIM_OnePulse_MspInit:00000000 HAL_TIM_OnePulse_MspInit
C:\Users\user\AppData\Local\Temp\ccrDHgJ5.s:5810   .text.HAL_TIM_OnePulse_DeInit:00000000 $t
C:\Users\user\AppData\Local\Temp\ccrDHgJ5.s:5816   .text.HAL_TIM_OnePulse_DeInit:00000000 HAL_TIM_OnePulse_DeInit
C:\Users\user\AppData\Local\Temp\ccrDHgJ5.s:5907   .text.HAL_TIM_OnePulse_MspDeInit:00000000 HAL_TIM_OnePulse_MspDeInit
C:\Users\user\AppData\Local\Temp\ccrDHgJ5.s:5879   .text.HAL_TIM_OnePulse_MspInit:00000000 $t
C:\Users\user\AppData\Local\Temp\ccrDHgJ5.s:5901   .text.HAL_TIM_OnePulse_MspDeInit:00000000 $t
C:\Users\user\AppData\Local\Temp\ccrDHgJ5.s:5923   .text.HAL_TIM_OnePulse_Start:00000000 $t
C:\Users\user\AppData\Local\Temp\ccrDHgJ5.s:5929   .text.HAL_TIM_OnePulse_Start:00000000 HAL_TIM_OnePulse_Start
C:\Users\user\AppData\Local\Temp\ccrDHgJ5.s:6025   .text.HAL_TIM_OnePulse_Start:000000bc $d
C:\Users\user\AppData\Local\Temp\ccrDHgJ5.s:6029   .text.HAL_TIM_OnePulse_Stop:00000000 $t
C:\Users\user\AppData\Local\Temp\ccrDHgJ5.s:6035   .text.HAL_TIM_OnePulse_Stop:00000000 HAL_TIM_OnePulse_Stop
C:\Users\user\AppData\Local\Temp\ccrDHgJ5.s:6138   .text.HAL_TIM_OnePulse_Stop:000000d0 $d
C:\Users\user\AppData\Local\Temp\ccrDHgJ5.s:6142   .text.HAL_TIM_OnePulse_Start_IT:00000000 $t
C:\Users\user\AppData\Local\Temp\ccrDHgJ5.s:6148   .text.HAL_TIM_OnePulse_Start_IT:00000000 HAL_TIM_OnePulse_Start_IT
C:\Users\user\AppData\Local\Temp\ccrDHgJ5.s:6258   .text.HAL_TIM_OnePulse_Start_IT:000000dc $d
C:\Users\user\AppData\Local\Temp\ccrDHgJ5.s:6262   .text.HAL_TIM_OnePulse_Stop_IT:00000000 $t
C:\Users\user\AppData\Local\Temp\ccrDHgJ5.s:6268   .text.HAL_TIM_OnePulse_Stop_IT:00000000 HAL_TIM_OnePulse_Stop_IT
C:\Users\user\AppData\Local\Temp\ccrDHgJ5.s:6385   .text.HAL_TIM_OnePulse_Stop_IT:000000f0 $d
C:\Users\user\AppData\Local\Temp\ccrDHgJ5.s:6389   .text.HAL_TIM_Encoder_Init:00000000 $t
C:\Users\user\AppData\Local\Temp\ccrDHgJ5.s:6395   .text.HAL_TIM_Encoder_Init:00000000 HAL_TIM_Encoder_Init
C:\Users\user\AppData\Local\Temp\ccrDHgJ5.s:6624   .text.HAL_TIM_Encoder_MspInit:00000000 HAL_TIM_Encoder_MspInit
C:\Users\user\AppData\Local\Temp\ccrDHgJ5.s:6549   .text.HAL_TIM_Encoder_DeInit:00000000 $t
C:\Users\user\AppData\Local\Temp\ccrDHgJ5.s:6555   .text.HAL_TIM_Encoder_DeInit:00000000 HAL_TIM_Encoder_DeInit
C:\Users\user\AppData\Local\Temp\ccrDHgJ5.s:6646   .text.HAL_TIM_Encoder_MspDeInit:00000000 HAL_TIM_Encoder_MspDeInit
C:\Users\user\AppData\Local\Temp\ccrDHgJ5.s:6618   .text.HAL_TIM_Encoder_MspInit:00000000 $t
C:\Users\user\AppData\Local\Temp\ccrDHgJ5.s:6640   .text.HAL_TIM_Encoder_MspDeInit:00000000 $t
C:\Users\user\AppData\Local\Temp\ccrDHgJ5.s:6662   .text.HAL_TIM_Encoder_Start:00000000 $t
C:\Users\user\AppData\Local\Temp\ccrDHgJ5.s:6668   .text.HAL_TIM_Encoder_Start:00000000 HAL_TIM_Encoder_Start
C:\Users\user\AppData\Local\Temp\ccrDHgJ5.s:6813   .text.HAL_TIM_Encoder_Stop:00000000 $t
C:\Users\user\AppData\Local\Temp\ccrDHgJ5.s:6819   .text.HAL_TIM_Encoder_Stop:00000000 HAL_TIM_Encoder_Stop
C:\Users\user\AppData\Local\Temp\ccrDHgJ5.s:6972   .text.HAL_TIM_Encoder_Start_IT:00000000 $t
C:\Users\user\AppData\Local\Temp\ccrDHgJ5.s:6978   .text.HAL_TIM_Encoder_Start_IT:00000000 HAL_TIM_Encoder_Start_IT
C:\Users\user\AppData\Local\Temp\ccrDHgJ5.s:7151   .text.HAL_TIM_Encoder_Stop_IT:00000000 $t
C:\Users\user\AppData\Local\Temp\ccrDHgJ5.s:7157   .text.HAL_TIM_Encoder_Stop_IT:00000000 HAL_TIM_Encoder_Stop_IT
C:\Users\user\AppData\Local\Temp\ccrDHgJ5.s:7335   .text.HAL_TIM_Encoder_Start_DMA:00000000 $t
C:\Users\user\AppData\Local\Temp\ccrDHgJ5.s:7341   .text.HAL_TIM_Encoder_Start_DMA:00000000 HAL_TIM_Encoder_Start_DMA
ARM GAS  C:\Users\user\AppData\Local\Temp\ccrDHgJ5.s 			page 226


C:\Users\user\AppData\Local\Temp\ccrDHgJ5.s:7704   .text.HAL_TIM_Encoder_Start_DMA:000002cc $d
C:\Users\user\AppData\Local\Temp\ccrDHgJ5.s:7709   .text.HAL_TIM_Encoder_Stop_DMA:00000000 $t
C:\Users\user\AppData\Local\Temp\ccrDHgJ5.s:7715   .text.HAL_TIM_Encoder_Stop_DMA:00000000 HAL_TIM_Encoder_Stop_DMA
C:\Users\user\AppData\Local\Temp\ccrDHgJ5.s:7909   .text.HAL_TIM_IRQHandler:00000000 $t
C:\Users\user\AppData\Local\Temp\ccrDHgJ5.s:7915   .text.HAL_TIM_IRQHandler:00000000 HAL_TIM_IRQHandler
C:\Users\user\AppData\Local\Temp\ccrDHgJ5.s:10575  .text.HAL_TIM_IC_CaptureCallback:00000000 HAL_TIM_IC_CaptureCallback
C:\Users\user\AppData\Local\Temp\ccrDHgJ5.s:10553  .text.HAL_TIM_OC_DelayElapsedCallback:00000000 HAL_TIM_OC_DelayElapsedCallback
C:\Users\user\AppData\Local\Temp\ccrDHgJ5.s:10619  .text.HAL_TIM_PWM_PulseFinishedCallback:00000000 HAL_TIM_PWM_PulseFinishedCallback
C:\Users\user\AppData\Local\Temp\ccrDHgJ5.s:10509  .text.HAL_TIM_PeriodElapsedCallback:00000000 HAL_TIM_PeriodElapsedCallback
C:\Users\user\AppData\Local\Temp\ccrDHgJ5.s:10663  .text.HAL_TIM_TriggerCallback:00000000 HAL_TIM_TriggerCallback
C:\Users\user\AppData\Local\Temp\ccrDHgJ5.s:8157   .text.HAL_TIM_OC_ConfigChannel:00000000 $t
C:\Users\user\AppData\Local\Temp\ccrDHgJ5.s:8163   .text.HAL_TIM_OC_ConfigChannel:00000000 HAL_TIM_OC_ConfigChannel
C:\Users\user\AppData\Local\Temp\ccrDHgJ5.s:8191   .text.HAL_TIM_OC_ConfigChannel:00000034 $d
C:\Users\user\AppData\Local\Temp\ccrDHgJ5.s:8204   .text.HAL_TIM_OC_ConfigChannel:00000068 $t
C:\Users\user\AppData\Local\Temp\ccrDHgJ5.s:11677  .text.TIM_OC1_SetConfig:00000000 TIM_OC1_SetConfig
C:\Users\user\AppData\Local\Temp\ccrDHgJ5.s:11798  .text.TIM_OC2_SetConfig:00000000 TIM_OC2_SetConfig
C:\Users\user\AppData\Local\Temp\ccrDHgJ5.s:11923  .text.TIM_OC3_SetConfig:00000000 TIM_OC3_SetConfig
C:\Users\user\AppData\Local\Temp\ccrDHgJ5.s:12047  .text.TIM_OC4_SetConfig:00000000 TIM_OC4_SetConfig
C:\Users\user\AppData\Local\Temp\ccrDHgJ5.s:8250   .text.HAL_TIM_IC_ConfigChannel:00000000 $t
C:\Users\user\AppData\Local\Temp\ccrDHgJ5.s:8256   .text.HAL_TIM_IC_ConfigChannel:00000000 HAL_TIM_IC_ConfigChannel
C:\Users\user\AppData\Local\Temp\ccrDHgJ5.s:12300  .text.TIM_TI1_SetConfig:00000000 TIM_TI1_SetConfig
C:\Users\user\AppData\Local\Temp\ccrDHgJ5.s:12475  .text.TIM_TI2_SetConfig:00000000 TIM_TI2_SetConfig
C:\Users\user\AppData\Local\Temp\ccrDHgJ5.s:12598  .text.TIM_TI3_SetConfig:00000000 TIM_TI3_SetConfig
C:\Users\user\AppData\Local\Temp\ccrDHgJ5.s:12664  .text.TIM_TI4_SetConfig:00000000 TIM_TI4_SetConfig
C:\Users\user\AppData\Local\Temp\ccrDHgJ5.s:8414   .text.HAL_TIM_PWM_ConfigChannel:00000000 $t
C:\Users\user\AppData\Local\Temp\ccrDHgJ5.s:8420   .text.HAL_TIM_PWM_ConfigChannel:00000000 HAL_TIM_PWM_ConfigChannel
C:\Users\user\AppData\Local\Temp\ccrDHgJ5.s:8448   .text.HAL_TIM_PWM_ConfigChannel:00000034 $d
C:\Users\user\AppData\Local\Temp\ccrDHgJ5.s:8461   .text.HAL_TIM_PWM_ConfigChannel:00000068 $t
C:\Users\user\AppData\Local\Temp\ccrDHgJ5.s:8601   .text.HAL_TIM_OnePulse_ConfigChannel:00000000 $t
C:\Users\user\AppData\Local\Temp\ccrDHgJ5.s:8607   .text.HAL_TIM_OnePulse_ConfigChannel:00000000 HAL_TIM_OnePulse_ConfigChannel
C:\Users\user\AppData\Local\Temp\ccrDHgJ5.s:8807   .text.HAL_TIM_DMABurst_WriteStart:00000000 $t
C:\Users\user\AppData\Local\Temp\ccrDHgJ5.s:8813   .text.HAL_TIM_DMABurst_WriteStart:00000000 HAL_TIM_DMABurst_WriteStart
C:\Users\user\AppData\Local\Temp\ccrDHgJ5.s:8850   .text.HAL_TIM_DMABurst_MultiWriteStart:00000000 HAL_TIM_DMABurst_MultiWriteStart
C:\Users\user\AppData\Local\Temp\ccrDHgJ5.s:8844   .text.HAL_TIM_DMABurst_MultiWriteStart:00000000 $t
C:\Users\user\AppData\Local\Temp\ccrDHgJ5.s:9167   .text.HAL_TIM_DMABurst_MultiWriteStart:00000284 $d
C:\Users\user\AppData\Local\Temp\ccrDHgJ5.s:11456  .text.TIM_DMATriggerCplt:00000000 TIM_DMATriggerCplt
C:\Users\user\AppData\Local\Temp\ccrDHgJ5.s:11489  .text.TIM_DMATriggerHalfCplt:00000000 TIM_DMATriggerHalfCplt
C:\Users\user\AppData\Local\Temp\ccrDHgJ5.s:9178   .text.HAL_TIM_DMABurst_WriteStop:00000000 $t
C:\Users\user\AppData\Local\Temp\ccrDHgJ5.s:9184   .text.HAL_TIM_DMABurst_WriteStop:00000000 HAL_TIM_DMABurst_WriteStop
C:\Users\user\AppData\Local\Temp\ccrDHgJ5.s:9302   .text.HAL_TIM_DMABurst_ReadStart:00000000 $t
C:\Users\user\AppData\Local\Temp\ccrDHgJ5.s:9308   .text.HAL_TIM_DMABurst_ReadStart:00000000 HAL_TIM_DMABurst_ReadStart
C:\Users\user\AppData\Local\Temp\ccrDHgJ5.s:9345   .text.HAL_TIM_DMABurst_MultiReadStart:00000000 HAL_TIM_DMABurst_MultiReadStart
C:\Users\user\AppData\Local\Temp\ccrDHgJ5.s:9339   .text.HAL_TIM_DMABurst_MultiReadStart:00000000 $t
C:\Users\user\AppData\Local\Temp\ccrDHgJ5.s:9662   .text.HAL_TIM_DMABurst_MultiReadStart:00000284 $d
C:\Users\user\AppData\Local\Temp\ccrDHgJ5.s:9673   .text.HAL_TIM_DMABurst_ReadStop:00000000 $t
C:\Users\user\AppData\Local\Temp\ccrDHgJ5.s:9679   .text.HAL_TIM_DMABurst_ReadStop:00000000 HAL_TIM_DMABurst_ReadStop
C:\Users\user\AppData\Local\Temp\ccrDHgJ5.s:9797   .text.HAL_TIM_GenerateEvent:00000000 $t
C:\Users\user\AppData\Local\Temp\ccrDHgJ5.s:9803   .text.HAL_TIM_GenerateEvent:00000000 HAL_TIM_GenerateEvent
C:\Users\user\AppData\Local\Temp\ccrDHgJ5.s:9845   .text.HAL_TIM_ConfigOCrefClear:00000000 $t
C:\Users\user\AppData\Local\Temp\ccrDHgJ5.s:9851   .text.HAL_TIM_ConfigOCrefClear:00000000 HAL_TIM_ConfigOCrefClear
C:\Users\user\AppData\Local\Temp\ccrDHgJ5.s:12768  .text.TIM_ETR_SetConfig:00000000 TIM_ETR_SetConfig
C:\Users\user\AppData\Local\Temp\ccrDHgJ5.s:9930   .text.HAL_TIM_ConfigOCrefClear:00000098 $d
C:\Users\user\AppData\Local\Temp\ccrDHgJ5.s:9943   .text.HAL_TIM_ConfigOCrefClear:000000cc $t
C:\Users\user\AppData\Local\Temp\ccrDHgJ5.s:10050  .text.HAL_TIM_ConfigClockSource:00000000 $t
C:\Users\user\AppData\Local\Temp\ccrDHgJ5.s:10056  .text.HAL_TIM_ConfigClockSource:00000000 HAL_TIM_ConfigClockSource
C:\Users\user\AppData\Local\Temp\ccrDHgJ5.s:12420  .text.TIM_TI1_ConfigInputStage:00000000 TIM_TI1_ConfigInputStage
C:\Users\user\AppData\Local\Temp\ccrDHgJ5.s:12731  .text.TIM_ITRx_SetConfig:00000000 TIM_ITRx_SetConfig
ARM GAS  C:\Users\user\AppData\Local\Temp\ccrDHgJ5.s 			page 227


C:\Users\user\AppData\Local\Temp\ccrDHgJ5.s:12542  .text.TIM_TI2_ConfigInputStage:00000000 TIM_TI2_ConfigInputStage
C:\Users\user\AppData\Local\Temp\ccrDHgJ5.s:10248  .text.HAL_TIM_ConfigTI1Input:00000000 $t
C:\Users\user\AppData\Local\Temp\ccrDHgJ5.s:10254  .text.HAL_TIM_ConfigTI1Input:00000000 HAL_TIM_ConfigTI1Input
C:\Users\user\AppData\Local\Temp\ccrDHgJ5.s:10287  .text.HAL_TIM_SlaveConfigSynchro:00000000 $t
C:\Users\user\AppData\Local\Temp\ccrDHgJ5.s:10293  .text.HAL_TIM_SlaveConfigSynchro:00000000 HAL_TIM_SlaveConfigSynchro
C:\Users\user\AppData\Local\Temp\ccrDHgJ5.s:12141  .text.TIM_SlaveTimer_SetConfig:00000000 TIM_SlaveTimer_SetConfig
C:\Users\user\AppData\Local\Temp\ccrDHgJ5.s:10358  .text.HAL_TIM_SlaveConfigSynchro_IT:00000000 $t
C:\Users\user\AppData\Local\Temp\ccrDHgJ5.s:10364  .text.HAL_TIM_SlaveConfigSynchro_IT:00000000 HAL_TIM_SlaveConfigSynchro_IT
C:\Users\user\AppData\Local\Temp\ccrDHgJ5.s:10429  .text.HAL_TIM_ReadCapturedValue:00000000 $t
C:\Users\user\AppData\Local\Temp\ccrDHgJ5.s:10435  .text.HAL_TIM_ReadCapturedValue:00000000 HAL_TIM_ReadCapturedValue
C:\Users\user\AppData\Local\Temp\ccrDHgJ5.s:10453  .text.HAL_TIM_ReadCapturedValue:0000001c $d
C:\Users\user\AppData\Local\Temp\ccrDHgJ5.s:10466  .text.HAL_TIM_ReadCapturedValue:00000050 $t
C:\Users\user\AppData\Local\Temp\ccrDHgJ5.s:10503  .text.HAL_TIM_PeriodElapsedCallback:00000000 $t
C:\Users\user\AppData\Local\Temp\ccrDHgJ5.s:10525  .text.HAL_TIM_PeriodElapsedHalfCpltCallback:00000000 $t
C:\Users\user\AppData\Local\Temp\ccrDHgJ5.s:10531  .text.HAL_TIM_PeriodElapsedHalfCpltCallback:00000000 HAL_TIM_PeriodElapsedHalfCpltCallback
C:\Users\user\AppData\Local\Temp\ccrDHgJ5.s:10547  .text.HAL_TIM_OC_DelayElapsedCallback:00000000 $t
C:\Users\user\AppData\Local\Temp\ccrDHgJ5.s:10569  .text.HAL_TIM_IC_CaptureCallback:00000000 $t
C:\Users\user\AppData\Local\Temp\ccrDHgJ5.s:10591  .text.HAL_TIM_IC_CaptureHalfCpltCallback:00000000 $t
C:\Users\user\AppData\Local\Temp\ccrDHgJ5.s:10597  .text.HAL_TIM_IC_CaptureHalfCpltCallback:00000000 HAL_TIM_IC_CaptureHalfCpltCallback
C:\Users\user\AppData\Local\Temp\ccrDHgJ5.s:10613  .text.HAL_TIM_PWM_PulseFinishedCallback:00000000 $t
C:\Users\user\AppData\Local\Temp\ccrDHgJ5.s:10635  .text.HAL_TIM_PWM_PulseFinishedHalfCpltCallback:00000000 $t
C:\Users\user\AppData\Local\Temp\ccrDHgJ5.s:10641  .text.HAL_TIM_PWM_PulseFinishedHalfCpltCallback:00000000 HAL_TIM_PWM_PulseFinishedHalfCpltCallback
C:\Users\user\AppData\Local\Temp\ccrDHgJ5.s:10657  .text.HAL_TIM_TriggerCallback:00000000 $t
C:\Users\user\AppData\Local\Temp\ccrDHgJ5.s:10679  .text.HAL_TIM_TriggerHalfCpltCallback:00000000 $t
C:\Users\user\AppData\Local\Temp\ccrDHgJ5.s:10685  .text.HAL_TIM_TriggerHalfCpltCallback:00000000 HAL_TIM_TriggerHalfCpltCallback
C:\Users\user\AppData\Local\Temp\ccrDHgJ5.s:10701  .text.HAL_TIM_ErrorCallback:00000000 $t
C:\Users\user\AppData\Local\Temp\ccrDHgJ5.s:10707  .text.HAL_TIM_ErrorCallback:00000000 HAL_TIM_ErrorCallback
C:\Users\user\AppData\Local\Temp\ccrDHgJ5.s:10723  .text.HAL_TIM_Base_GetState:00000000 $t
C:\Users\user\AppData\Local\Temp\ccrDHgJ5.s:10729  .text.HAL_TIM_Base_GetState:00000000 HAL_TIM_Base_GetState
C:\Users\user\AppData\Local\Temp\ccrDHgJ5.s:10748  .text.HAL_TIM_OC_GetState:00000000 $t
C:\Users\user\AppData\Local\Temp\ccrDHgJ5.s:10754  .text.HAL_TIM_OC_GetState:00000000 HAL_TIM_OC_GetState
C:\Users\user\AppData\Local\Temp\ccrDHgJ5.s:10773  .text.HAL_TIM_PWM_GetState:00000000 $t
C:\Users\user\AppData\Local\Temp\ccrDHgJ5.s:10779  .text.HAL_TIM_PWM_GetState:00000000 HAL_TIM_PWM_GetState
C:\Users\user\AppData\Local\Temp\ccrDHgJ5.s:10798  .text.HAL_TIM_IC_GetState:00000000 $t
C:\Users\user\AppData\Local\Temp\ccrDHgJ5.s:10804  .text.HAL_TIM_IC_GetState:00000000 HAL_TIM_IC_GetState
C:\Users\user\AppData\Local\Temp\ccrDHgJ5.s:10823  .text.HAL_TIM_OnePulse_GetState:00000000 $t
C:\Users\user\AppData\Local\Temp\ccrDHgJ5.s:10829  .text.HAL_TIM_OnePulse_GetState:00000000 HAL_TIM_OnePulse_GetState
C:\Users\user\AppData\Local\Temp\ccrDHgJ5.s:10848  .text.HAL_TIM_Encoder_GetState:00000000 $t
C:\Users\user\AppData\Local\Temp\ccrDHgJ5.s:10854  .text.HAL_TIM_Encoder_GetState:00000000 HAL_TIM_Encoder_GetState
C:\Users\user\AppData\Local\Temp\ccrDHgJ5.s:10873  .text.HAL_TIM_GetActiveChannel:00000000 $t
C:\Users\user\AppData\Local\Temp\ccrDHgJ5.s:10879  .text.HAL_TIM_GetActiveChannel:00000000 HAL_TIM_GetActiveChannel
C:\Users\user\AppData\Local\Temp\ccrDHgJ5.s:10897  .text.HAL_TIM_GetChannelState:00000000 $t
C:\Users\user\AppData\Local\Temp\ccrDHgJ5.s:10903  .text.HAL_TIM_GetChannelState:00000000 HAL_TIM_GetChannelState
C:\Users\user\AppData\Local\Temp\ccrDHgJ5.s:10950  .text.HAL_TIM_DMABurstState:00000000 $t
C:\Users\user\AppData\Local\Temp\ccrDHgJ5.s:10956  .text.HAL_TIM_DMABurstState:00000000 HAL_TIM_DMABurstState
C:\Users\user\AppData\Local\Temp\ccrDHgJ5.s:10975  .text.TIM_DMAError:00000000 $t
C:\Users\user\AppData\Local\Temp\ccrDHgJ5.s:11059  .text.TIM_DMADelayPulseCplt:00000000 $t
C:\Users\user\AppData\Local\Temp\ccrDHgJ5.s:11153  .text.TIM_DMADelayPulseHalfCplt:00000000 $t
C:\Users\user\AppData\Local\Temp\ccrDHgJ5.s:11220  .text.TIM_DMACaptureCplt:00000000 $t
C:\Users\user\AppData\Local\Temp\ccrDHgJ5.s:11327  .text.TIM_DMACaptureHalfCplt:00000000 $t
C:\Users\user\AppData\Local\Temp\ccrDHgJ5.s:11394  .text.TIM_DMAPeriodElapsedCplt:00000000 $t
C:\Users\user\AppData\Local\Temp\ccrDHgJ5.s:11427  .text.TIM_DMAPeriodElapsedHalfCplt:00000000 $t
C:\Users\user\AppData\Local\Temp\ccrDHgJ5.s:11451  .text.TIM_DMATriggerCplt:00000000 $t
C:\Users\user\AppData\Local\Temp\ccrDHgJ5.s:11484  .text.TIM_DMATriggerHalfCplt:00000000 $t
C:\Users\user\AppData\Local\Temp\ccrDHgJ5.s:11508  .text.TIM_Base_SetConfig:00000000 $t
C:\Users\user\AppData\Local\Temp\ccrDHgJ5.s:11659  .text.TIM_Base_SetConfig:00000114 $d
C:\Users\user\AppData\Local\Temp\ccrDHgJ5.s:11672  .text.TIM_OC1_SetConfig:00000000 $t
ARM GAS  C:\Users\user\AppData\Local\Temp\ccrDHgJ5.s 			page 228


C:\Users\user\AppData\Local\Temp\ccrDHgJ5.s:11788  .text.TIM_OC1_SetConfig:000000d8 $d
C:\Users\user\AppData\Local\Temp\ccrDHgJ5.s:11792  .text.TIM_OC2_SetConfig:00000000 $t
C:\Users\user\AppData\Local\Temp\ccrDHgJ5.s:11914  .text.TIM_OC2_SetConfig:000000e4 $d
C:\Users\user\AppData\Local\Temp\ccrDHgJ5.s:11918  .text.TIM_OC3_SetConfig:00000000 $t
C:\Users\user\AppData\Local\Temp\ccrDHgJ5.s:12038  .text.TIM_OC3_SetConfig:000000e0 $d
C:\Users\user\AppData\Local\Temp\ccrDHgJ5.s:12042  .text.TIM_OC4_SetConfig:00000000 $t
C:\Users\user\AppData\Local\Temp\ccrDHgJ5.s:12132  .text.TIM_OC4_SetConfig:000000a4 $d
C:\Users\user\AppData\Local\Temp\ccrDHgJ5.s:12136  .text.TIM_SlaveTimer_SetConfig:00000000 $t
C:\Users\user\AppData\Local\Temp\ccrDHgJ5.s:12294  .text.TIM_TI1_SetConfig:00000000 $t
C:\Users\user\AppData\Local\Temp\ccrDHgJ5.s:12406  .text.TIM_TI1_SetConfig:000000cc $d
C:\Users\user\AppData\Local\Temp\ccrDHgJ5.s:12415  .text.TIM_TI1_ConfigInputStage:00000000 $t
C:\Users\user\AppData\Local\Temp\ccrDHgJ5.s:12470  .text.TIM_TI2_SetConfig:00000000 $t
C:\Users\user\AppData\Local\Temp\ccrDHgJ5.s:12537  .text.TIM_TI2_ConfigInputStage:00000000 $t
C:\Users\user\AppData\Local\Temp\ccrDHgJ5.s:12593  .text.TIM_TI3_SetConfig:00000000 $t
C:\Users\user\AppData\Local\Temp\ccrDHgJ5.s:12659  .text.TIM_TI4_SetConfig:00000000 $t
C:\Users\user\AppData\Local\Temp\ccrDHgJ5.s:12726  .text.TIM_ITRx_SetConfig:00000000 $t
C:\Users\user\AppData\Local\Temp\ccrDHgJ5.s:12762  .text.TIM_ETR_SetConfig:00000000 $t
C:\Users\user\AppData\Local\Temp\ccrDHgJ5.s:12805  .text.TIM_CCxChannelCmd:00000000 $t

UNDEFINED SYMBOLS
HAL_DMA_Start_IT
HAL_DMA_Abort_IT
HAL_TIMEx_BreakCallback
HAL_TIMEx_CommutCallback
TIMEx_DMACommutationCplt
TIMEx_DMACommutationHalfCplt
