ARM GAS  C:\Users\user\AppData\Local\Temp\ccf7Y9kA.s 			page 1


   1              		.cpu cortex-m4
   2              		.arch armv7e-m
   3              		.fpu fpv4-sp-d16
   4              		.eabi_attribute 27, 1
   5              		.eabi_attribute 28, 1
   6              		.eabi_attribute 20, 1
   7              		.eabi_attribute 21, 1
   8              		.eabi_attribute 23, 3
   9              		.eabi_attribute 24, 1
  10              		.eabi_attribute 25, 1
  11              		.eabi_attribute 26, 1
  12              		.eabi_attribute 30, 6
  13              		.eabi_attribute 34, 1
  14              		.eabi_attribute 18, 4
  15              		.file	"stm32f4xx_hal_sd.c"
  16              		.text
  17              		.section	.text.HAL_SD_Init,"ax",%progbits
  18              		.align	1
  19              		.global	HAL_SD_Init
  20              		.syntax unified
  21              		.thumb
  22              		.thumb_func
  24              	HAL_SD_Init:
  25              		@ args = 0, pretend = 0, frame = 8
  26              		@ frame_needed = 1, uses_anonymous_args = 0
  27 0000 80B5     		push	{r7, lr}
  28 0002 82B0     		sub	sp, sp, #8
  29 0004 00AF     		add	r7, sp, #0
  30 0006 7860     		str	r0, [r7, #4]
  31 0008 7B68     		ldr	r3, [r7, #4]
  32 000a 002B     		cmp	r3, #0
  33 000c 01D1     		bne	.L2
  34 000e 0123     		movs	r3, #1
  35 0010 22E0     		b	.L3
  36              	.L2:
  37 0012 7B68     		ldr	r3, [r7, #4]
  38 0014 93F83430 		ldrb	r3, [r3, #52]
  39 0018 DBB2     		uxtb	r3, r3
  40 001a 002B     		cmp	r3, #0
  41 001c 05D1     		bne	.L4
  42 001e 7B68     		ldr	r3, [r7, #4]
  43 0020 0022     		movs	r2, #0
  44 0022 1A77     		strb	r2, [r3, #28]
  45 0024 7868     		ldr	r0, [r7, #4]
  46 0026 FFF7FEFF 		bl	HAL_SD_MspInit
  47              	.L4:
  48 002a 7B68     		ldr	r3, [r7, #4]
  49 002c 0322     		movs	r2, #3
  50 002e 83F83420 		strb	r2, [r3, #52]
  51 0032 7868     		ldr	r0, [r7, #4]
  52 0034 FFF7FEFF 		bl	HAL_SD_InitCard
  53 0038 0346     		mov	r3, r0
  54 003a 002B     		cmp	r3, #0
  55 003c 01D0     		beq	.L5
  56 003e 0123     		movs	r3, #1
  57 0040 0AE0     		b	.L3
  58              	.L5:
ARM GAS  C:\Users\user\AppData\Local\Temp\ccf7Y9kA.s 			page 2


  59 0042 7B68     		ldr	r3, [r7, #4]
  60 0044 0022     		movs	r2, #0
  61 0046 9A63     		str	r2, [r3, #56]
  62 0048 7B68     		ldr	r3, [r7, #4]
  63 004a 0022     		movs	r2, #0
  64 004c 1A63     		str	r2, [r3, #48]
  65 004e 7B68     		ldr	r3, [r7, #4]
  66 0050 0122     		movs	r2, #1
  67 0052 83F83420 		strb	r2, [r3, #52]
  68 0056 0023     		movs	r3, #0
  69              	.L3:
  70 0058 1846     		mov	r0, r3
  71 005a 0837     		adds	r7, r7, #8
  72 005c BD46     		mov	sp, r7
  73              		@ sp needed
  74 005e 80BD     		pop	{r7, pc}
  76              		.section	.text.HAL_SD_InitCard,"ax",%progbits
  77              		.align	1
  78              		.global	HAL_SD_InitCard
  79              		.syntax unified
  80              		.thumb
  81              		.thumb_func
  83              	HAL_SD_InitCard:
  84              		@ args = 0, pretend = 0, frame = 40
  85              		@ frame_needed = 1, uses_anonymous_args = 0
  86 0000 B0B5     		push	{r4, r5, r7, lr}
  87 0002 8EB0     		sub	sp, sp, #56
  88 0004 04AF     		add	r7, sp, #16
  89 0006 7860     		str	r0, [r7, #4]
  90 0008 0023     		movs	r3, #0
  91 000a BB60     		str	r3, [r7, #8]
  92 000c 0023     		movs	r3, #0
  93 000e FB60     		str	r3, [r7, #12]
  94 0010 0023     		movs	r3, #0
  95 0012 3B61     		str	r3, [r7, #16]
  96 0014 0023     		movs	r3, #0
  97 0016 7B61     		str	r3, [r7, #20]
  98 0018 0023     		movs	r3, #0
  99 001a BB61     		str	r3, [r7, #24]
 100 001c 7623     		movs	r3, #118
 101 001e FB61     		str	r3, [r7, #28]
 102 0020 7B68     		ldr	r3, [r7, #4]
 103 0022 1D68     		ldr	r5, [r3]
 104 0024 6C46     		mov	r4, sp
 105 0026 07F11403 		add	r3, r7, #20
 106 002a 93E80700 		ldm	r3, {r0, r1, r2}
 107 002e 84E80700 		stm	r4, {r0, r1, r2}
 108 0032 07F10803 		add	r3, r7, #8
 109 0036 0ECB     		ldm	r3, {r1, r2, r3}
 110 0038 2846     		mov	r0, r5
 111 003a FFF7FEFF 		bl	SDIO_Init
 112 003e 0346     		mov	r3, r0
 113 0040 87F82730 		strb	r3, [r7, #39]
 114 0044 97F82730 		ldrb	r3, [r7, #39]	@ zero_extendqisi2
 115 0048 002B     		cmp	r3, #0
 116 004a 01D0     		beq	.L7
 117 004c 0123     		movs	r3, #1
ARM GAS  C:\Users\user\AppData\Local\Temp\ccf7Y9kA.s 			page 3


 118 004e 4FE0     		b	.L12
 119              	.L7:
 120 0050 294B     		ldr	r3, .L13
 121 0052 0022     		movs	r2, #0
 122 0054 1A60     		str	r2, [r3]
 123 0056 7B68     		ldr	r3, [r7, #4]
 124 0058 1B68     		ldr	r3, [r3]
 125 005a 1846     		mov	r0, r3
 126 005c FFF7FEFF 		bl	SDIO_PowerState_ON
 127 0060 254B     		ldr	r3, .L13
 128 0062 0122     		movs	r2, #1
 129 0064 1A60     		str	r2, [r3]
 130 0066 0220     		movs	r0, #2
 131 0068 FFF7FEFF 		bl	HAL_Delay
 132 006c 7868     		ldr	r0, [r7, #4]
 133 006e FFF7FEFF 		bl	SD_PowerON
 134 0072 3862     		str	r0, [r7, #32]
 135 0074 3B6A     		ldr	r3, [r7, #32]
 136 0076 002B     		cmp	r3, #0
 137 0078 0BD0     		beq	.L9
 138 007a 7B68     		ldr	r3, [r7, #4]
 139 007c 0122     		movs	r2, #1
 140 007e 83F83420 		strb	r2, [r3, #52]
 141 0082 7B68     		ldr	r3, [r7, #4]
 142 0084 9A6B     		ldr	r2, [r3, #56]
 143 0086 3B6A     		ldr	r3, [r7, #32]
 144 0088 1A43     		orrs	r2, r2, r3
 145 008a 7B68     		ldr	r3, [r7, #4]
 146 008c 9A63     		str	r2, [r3, #56]
 147 008e 0123     		movs	r3, #1
 148 0090 2EE0     		b	.L12
 149              	.L9:
 150 0092 7868     		ldr	r0, [r7, #4]
 151 0094 FFF7FEFF 		bl	SD_InitCard
 152 0098 3862     		str	r0, [r7, #32]
 153 009a 3B6A     		ldr	r3, [r7, #32]
 154 009c 002B     		cmp	r3, #0
 155 009e 0BD0     		beq	.L10
 156 00a0 7B68     		ldr	r3, [r7, #4]
 157 00a2 0122     		movs	r2, #1
 158 00a4 83F83420 		strb	r2, [r3, #52]
 159 00a8 7B68     		ldr	r3, [r7, #4]
 160 00aa 9A6B     		ldr	r2, [r3, #56]
 161 00ac 3B6A     		ldr	r3, [r7, #32]
 162 00ae 1A43     		orrs	r2, r2, r3
 163 00b0 7B68     		ldr	r3, [r7, #4]
 164 00b2 9A63     		str	r2, [r3, #56]
 165 00b4 0123     		movs	r3, #1
 166 00b6 1BE0     		b	.L12
 167              	.L10:
 168 00b8 7B68     		ldr	r3, [r7, #4]
 169 00ba 1B68     		ldr	r3, [r3]
 170 00bc 4FF40071 		mov	r1, #512
 171 00c0 1846     		mov	r0, r3
 172 00c2 FFF7FEFF 		bl	SDMMC_CmdBlockLength
 173 00c6 3862     		str	r0, [r7, #32]
 174 00c8 3B6A     		ldr	r3, [r7, #32]
ARM GAS  C:\Users\user\AppData\Local\Temp\ccf7Y9kA.s 			page 4


 175 00ca 002B     		cmp	r3, #0
 176 00cc 0FD0     		beq	.L11
 177 00ce 7B68     		ldr	r3, [r7, #4]
 178 00d0 1B68     		ldr	r3, [r3]
 179 00d2 0A4A     		ldr	r2, .L13+4
 180 00d4 9A63     		str	r2, [r3, #56]
 181 00d6 7B68     		ldr	r3, [r7, #4]
 182 00d8 9A6B     		ldr	r2, [r3, #56]
 183 00da 3B6A     		ldr	r3, [r7, #32]
 184 00dc 1A43     		orrs	r2, r2, r3
 185 00de 7B68     		ldr	r3, [r7, #4]
 186 00e0 9A63     		str	r2, [r3, #56]
 187 00e2 7B68     		ldr	r3, [r7, #4]
 188 00e4 0122     		movs	r2, #1
 189 00e6 83F83420 		strb	r2, [r3, #52]
 190 00ea 0123     		movs	r3, #1
 191 00ec 00E0     		b	.L12
 192              	.L11:
 193 00ee 0023     		movs	r3, #0
 194              	.L12:
 195 00f0 1846     		mov	r0, r3
 196 00f2 2837     		adds	r7, r7, #40
 197 00f4 BD46     		mov	sp, r7
 198              		@ sp needed
 199 00f6 B0BD     		pop	{r4, r5, r7, pc}
 200              	.L14:
 201              		.align	2
 202              	.L13:
 203 00f8 A0802542 		.word	1109754016
 204 00fc FF054000 		.word	4195839
 206              		.section	.text.HAL_SD_DeInit,"ax",%progbits
 207              		.align	1
 208              		.global	HAL_SD_DeInit
 209              		.syntax unified
 210              		.thumb
 211              		.thumb_func
 213              	HAL_SD_DeInit:
 214              		@ args = 0, pretend = 0, frame = 8
 215              		@ frame_needed = 1, uses_anonymous_args = 0
 216 0000 80B5     		push	{r7, lr}
 217 0002 82B0     		sub	sp, sp, #8
 218 0004 00AF     		add	r7, sp, #0
 219 0006 7860     		str	r0, [r7, #4]
 220 0008 7B68     		ldr	r3, [r7, #4]
 221 000a 002B     		cmp	r3, #0
 222 000c 01D1     		bne	.L16
 223 000e 0123     		movs	r3, #1
 224 0010 11E0     		b	.L17
 225              	.L16:
 226 0012 7B68     		ldr	r3, [r7, #4]
 227 0014 0322     		movs	r2, #3
 228 0016 83F83420 		strb	r2, [r3, #52]
 229 001a 7868     		ldr	r0, [r7, #4]
 230 001c FFF7FEFF 		bl	SD_PowerOFF
 231 0020 7868     		ldr	r0, [r7, #4]
 232 0022 FFF7FEFF 		bl	HAL_SD_MspDeInit
 233 0026 7B68     		ldr	r3, [r7, #4]
ARM GAS  C:\Users\user\AppData\Local\Temp\ccf7Y9kA.s 			page 5


 234 0028 0022     		movs	r2, #0
 235 002a 9A63     		str	r2, [r3, #56]
 236 002c 7B68     		ldr	r3, [r7, #4]
 237 002e 0022     		movs	r2, #0
 238 0030 83F83420 		strb	r2, [r3, #52]
 239 0034 0023     		movs	r3, #0
 240              	.L17:
 241 0036 1846     		mov	r0, r3
 242 0038 0837     		adds	r7, r7, #8
 243 003a BD46     		mov	sp, r7
 244              		@ sp needed
 245 003c 80BD     		pop	{r7, pc}
 247              		.section	.text.HAL_SD_MspInit,"ax",%progbits
 248              		.align	1
 249              		.weak	HAL_SD_MspInit
 250              		.syntax unified
 251              		.thumb
 252              		.thumb_func
 254              	HAL_SD_MspInit:
 255              		@ args = 0, pretend = 0, frame = 8
 256              		@ frame_needed = 1, uses_anonymous_args = 0
 257              		@ link register save eliminated.
 258 0000 80B4     		push	{r7}
 259 0002 83B0     		sub	sp, sp, #12
 260 0004 00AF     		add	r7, sp, #0
 261 0006 7860     		str	r0, [r7, #4]
 262 0008 00BF     		nop
 263 000a 0C37     		adds	r7, r7, #12
 264 000c BD46     		mov	sp, r7
 265              		@ sp needed
 266 000e 5DF8047B 		ldr	r7, [sp], #4
 267 0012 7047     		bx	lr
 269              		.section	.text.HAL_SD_MspDeInit,"ax",%progbits
 270              		.align	1
 271              		.weak	HAL_SD_MspDeInit
 272              		.syntax unified
 273              		.thumb
 274              		.thumb_func
 276              	HAL_SD_MspDeInit:
 277              		@ args = 0, pretend = 0, frame = 8
 278              		@ frame_needed = 1, uses_anonymous_args = 0
 279              		@ link register save eliminated.
 280 0000 80B4     		push	{r7}
 281 0002 83B0     		sub	sp, sp, #12
 282 0004 00AF     		add	r7, sp, #0
 283 0006 7860     		str	r0, [r7, #4]
 284 0008 00BF     		nop
 285 000a 0C37     		adds	r7, r7, #12
 286 000c BD46     		mov	sp, r7
 287              		@ sp needed
 288 000e 5DF8047B 		ldr	r7, [sp], #4
 289 0012 7047     		bx	lr
 291              		.section	.text.HAL_SD_ReadBlocks,"ax",%progbits
 292              		.align	1
 293              		.global	HAL_SD_ReadBlocks
 294              		.syntax unified
 295              		.thumb
ARM GAS  C:\Users\user\AppData\Local\Temp\ccf7Y9kA.s 			page 6


 296              		.thumb_func
 298              	HAL_SD_ReadBlocks:
 299              		@ args = 4, pretend = 0, frame = 72
 300              		@ frame_needed = 1, uses_anonymous_args = 0
 301 0000 80B5     		push	{r7, lr}
 302 0002 92B0     		sub	sp, sp, #72
 303 0004 00AF     		add	r7, sp, #0
 304 0006 F860     		str	r0, [r7, #12]
 305 0008 B960     		str	r1, [r7, #8]
 306 000a 7A60     		str	r2, [r7, #4]
 307 000c 3B60     		str	r3, [r7]
 308 000e FFF7FEFF 		bl	HAL_GetTick
 309 0012 3863     		str	r0, [r7, #48]
 310 0014 7B68     		ldr	r3, [r7, #4]
 311 0016 BB63     		str	r3, [r7, #56]
 312 0018 BB68     		ldr	r3, [r7, #8]
 313 001a 7B63     		str	r3, [r7, #52]
 314 001c BB68     		ldr	r3, [r7, #8]
 315 001e 002B     		cmp	r3, #0
 316 0020 07D1     		bne	.L21
 317 0022 FB68     		ldr	r3, [r7, #12]
 318 0024 9B6B     		ldr	r3, [r3, #56]
 319 0026 43F00062 		orr	r2, r3, #134217728
 320 002a FB68     		ldr	r3, [r7, #12]
 321 002c 9A63     		str	r2, [r3, #56]
 322 002e 0123     		movs	r3, #1
 323 0030 BDE1     		b	.L43
 324              	.L21:
 325 0032 FB68     		ldr	r3, [r7, #12]
 326 0034 93F83430 		ldrb	r3, [r3, #52]
 327 0038 DBB2     		uxtb	r3, r3
 328 003a 012B     		cmp	r3, #1
 329 003c 40F0B081 		bne	.L23
 330 0040 FB68     		ldr	r3, [r7, #12]
 331 0042 0022     		movs	r2, #0
 332 0044 9A63     		str	r2, [r3, #56]
 333 0046 BA6B     		ldr	r2, [r7, #56]
 334 0048 3B68     		ldr	r3, [r7]
 335 004a 1A44     		add	r2, r2, r3
 336 004c FB68     		ldr	r3, [r7, #12]
 337 004e DB6D     		ldr	r3, [r3, #92]
 338 0050 9A42     		cmp	r2, r3
 339 0052 07D9     		bls	.L24
 340 0054 FB68     		ldr	r3, [r7, #12]
 341 0056 9B6B     		ldr	r3, [r3, #56]
 342 0058 43F00072 		orr	r2, r3, #33554432
 343 005c FB68     		ldr	r3, [r7, #12]
 344 005e 9A63     		str	r2, [r3, #56]
 345 0060 0123     		movs	r3, #1
 346 0062 A4E1     		b	.L43
 347              	.L24:
 348 0064 FB68     		ldr	r3, [r7, #12]
 349 0066 0322     		movs	r2, #3
 350 0068 83F83420 		strb	r2, [r3, #52]
 351 006c FB68     		ldr	r3, [r7, #12]
 352 006e 1B68     		ldr	r3, [r3]
 353 0070 0022     		movs	r2, #0
ARM GAS  C:\Users\user\AppData\Local\Temp\ccf7Y9kA.s 			page 7


 354 0072 DA62     		str	r2, [r3, #44]
 355 0074 FB68     		ldr	r3, [r7, #12]
 356 0076 5B6C     		ldr	r3, [r3, #68]
 357 0078 012B     		cmp	r3, #1
 358 007a 02D0     		beq	.L25
 359 007c BB6B     		ldr	r3, [r7, #56]
 360 007e 5B02     		lsls	r3, r3, #9
 361 0080 BB63     		str	r3, [r7, #56]
 362              	.L25:
 363 0082 4FF0FF33 		mov	r3, #-1
 364 0086 7B61     		str	r3, [r7, #20]
 365 0088 3B68     		ldr	r3, [r7]
 366 008a 5B02     		lsls	r3, r3, #9
 367 008c BB61     		str	r3, [r7, #24]
 368 008e 9023     		movs	r3, #144
 369 0090 FB61     		str	r3, [r7, #28]
 370 0092 0223     		movs	r3, #2
 371 0094 3B62     		str	r3, [r7, #32]
 372 0096 0023     		movs	r3, #0
 373 0098 7B62     		str	r3, [r7, #36]
 374 009a 0123     		movs	r3, #1
 375 009c BB62     		str	r3, [r7, #40]
 376 009e FB68     		ldr	r3, [r7, #12]
 377 00a0 1B68     		ldr	r3, [r3]
 378 00a2 07F11402 		add	r2, r7, #20
 379 00a6 1146     		mov	r1, r2
 380 00a8 1846     		mov	r0, r3
 381 00aa FFF7FEFF 		bl	SDIO_ConfigData
 382 00ae 3B68     		ldr	r3, [r7]
 383 00b0 012B     		cmp	r3, #1
 384 00b2 0AD9     		bls	.L26
 385 00b4 FB68     		ldr	r3, [r7, #12]
 386 00b6 0222     		movs	r2, #2
 387 00b8 1A63     		str	r2, [r3, #48]
 388 00ba FB68     		ldr	r3, [r7, #12]
 389 00bc 1B68     		ldr	r3, [r3]
 390 00be B96B     		ldr	r1, [r7, #56]
 391 00c0 1846     		mov	r0, r3
 392 00c2 FFF7FEFF 		bl	SDMMC_CmdReadMultiBlock
 393 00c6 7864     		str	r0, [r7, #68]
 394 00c8 09E0     		b	.L27
 395              	.L26:
 396 00ca FB68     		ldr	r3, [r7, #12]
 397 00cc 0122     		movs	r2, #1
 398 00ce 1A63     		str	r2, [r3, #48]
 399 00d0 FB68     		ldr	r3, [r7, #12]
 400 00d2 1B68     		ldr	r3, [r3]
 401 00d4 B96B     		ldr	r1, [r7, #56]
 402 00d6 1846     		mov	r0, r3
 403 00d8 FFF7FEFF 		bl	SDMMC_CmdReadSingleBlock
 404 00dc 7864     		str	r0, [r7, #68]
 405              	.L27:
 406 00de 7B6C     		ldr	r3, [r7, #68]
 407 00e0 002B     		cmp	r3, #0
 408 00e2 12D0     		beq	.L28
 409 00e4 FB68     		ldr	r3, [r7, #12]
 410 00e6 1B68     		ldr	r3, [r3]
ARM GAS  C:\Users\user\AppData\Local\Temp\ccf7Y9kA.s 			page 8


 411 00e8 7A4A     		ldr	r2, .L44
 412 00ea 9A63     		str	r2, [r3, #56]
 413 00ec FB68     		ldr	r3, [r7, #12]
 414 00ee 9A6B     		ldr	r2, [r3, #56]
 415 00f0 7B6C     		ldr	r3, [r7, #68]
 416 00f2 1A43     		orrs	r2, r2, r3
 417 00f4 FB68     		ldr	r3, [r7, #12]
 418 00f6 9A63     		str	r2, [r3, #56]
 419 00f8 FB68     		ldr	r3, [r7, #12]
 420 00fa 0122     		movs	r2, #1
 421 00fc 83F83420 		strb	r2, [r3, #52]
 422 0100 FB68     		ldr	r3, [r7, #12]
 423 0102 0022     		movs	r2, #0
 424 0104 1A63     		str	r2, [r3, #48]
 425 0106 0123     		movs	r3, #1
 426 0108 51E1     		b	.L43
 427              	.L28:
 428 010a BB69     		ldr	r3, [r7, #24]
 429 010c FB63     		str	r3, [r7, #60]
 430 010e 61E0     		b	.L29
 431              	.L34:
 432 0110 FB68     		ldr	r3, [r7, #12]
 433 0112 1B68     		ldr	r3, [r3]
 434 0114 5B6B     		ldr	r3, [r3, #52]
 435 0116 03F40043 		and	r3, r3, #32768
 436 011a 002B     		cmp	r3, #0
 437 011c 3CD0     		beq	.L30
 438 011e FB6B     		ldr	r3, [r7, #60]
 439 0120 002B     		cmp	r3, #0
 440 0122 39D0     		beq	.L30
 441 0124 0023     		movs	r3, #0
 442 0126 3B64     		str	r3, [r7, #64]
 443 0128 33E0     		b	.L31
 444              	.L32:
 445 012a FB68     		ldr	r3, [r7, #12]
 446 012c 1B68     		ldr	r3, [r3]
 447 012e 1846     		mov	r0, r3
 448 0130 FFF7FEFF 		bl	SDIO_ReadFIFO
 449 0134 F862     		str	r0, [r7, #44]
 450 0136 FB6A     		ldr	r3, [r7, #44]
 451 0138 DAB2     		uxtb	r2, r3
 452 013a 7B6B     		ldr	r3, [r7, #52]
 453 013c 1A70     		strb	r2, [r3]
 454 013e 7B6B     		ldr	r3, [r7, #52]
 455 0140 0133     		adds	r3, r3, #1
 456 0142 7B63     		str	r3, [r7, #52]
 457 0144 FB6B     		ldr	r3, [r7, #60]
 458 0146 013B     		subs	r3, r3, #1
 459 0148 FB63     		str	r3, [r7, #60]
 460 014a FB6A     		ldr	r3, [r7, #44]
 461 014c 1B0A     		lsrs	r3, r3, #8
 462 014e DAB2     		uxtb	r2, r3
 463 0150 7B6B     		ldr	r3, [r7, #52]
 464 0152 1A70     		strb	r2, [r3]
 465 0154 7B6B     		ldr	r3, [r7, #52]
 466 0156 0133     		adds	r3, r3, #1
 467 0158 7B63     		str	r3, [r7, #52]
ARM GAS  C:\Users\user\AppData\Local\Temp\ccf7Y9kA.s 			page 9


 468 015a FB6B     		ldr	r3, [r7, #60]
 469 015c 013B     		subs	r3, r3, #1
 470 015e FB63     		str	r3, [r7, #60]
 471 0160 FB6A     		ldr	r3, [r7, #44]
 472 0162 1B0C     		lsrs	r3, r3, #16
 473 0164 DAB2     		uxtb	r2, r3
 474 0166 7B6B     		ldr	r3, [r7, #52]
 475 0168 1A70     		strb	r2, [r3]
 476 016a 7B6B     		ldr	r3, [r7, #52]
 477 016c 0133     		adds	r3, r3, #1
 478 016e 7B63     		str	r3, [r7, #52]
 479 0170 FB6B     		ldr	r3, [r7, #60]
 480 0172 013B     		subs	r3, r3, #1
 481 0174 FB63     		str	r3, [r7, #60]
 482 0176 FB6A     		ldr	r3, [r7, #44]
 483 0178 1B0E     		lsrs	r3, r3, #24
 484 017a DAB2     		uxtb	r2, r3
 485 017c 7B6B     		ldr	r3, [r7, #52]
 486 017e 1A70     		strb	r2, [r3]
 487 0180 7B6B     		ldr	r3, [r7, #52]
 488 0182 0133     		adds	r3, r3, #1
 489 0184 7B63     		str	r3, [r7, #52]
 490 0186 FB6B     		ldr	r3, [r7, #60]
 491 0188 013B     		subs	r3, r3, #1
 492 018a FB63     		str	r3, [r7, #60]
 493 018c 3B6C     		ldr	r3, [r7, #64]
 494 018e 0133     		adds	r3, r3, #1
 495 0190 3B64     		str	r3, [r7, #64]
 496              	.L31:
 497 0192 3B6C     		ldr	r3, [r7, #64]
 498 0194 072B     		cmp	r3, #7
 499 0196 C8D9     		bls	.L32
 500              	.L30:
 501 0198 FFF7FEFF 		bl	HAL_GetTick
 502 019c 0246     		mov	r2, r0
 503 019e 3B6B     		ldr	r3, [r7, #48]
 504 01a0 D31A     		subs	r3, r2, r3
 505 01a2 3A6D     		ldr	r2, [r7, #80]
 506 01a4 9A42     		cmp	r2, r3
 507 01a6 02D9     		bls	.L33
 508 01a8 3B6D     		ldr	r3, [r7, #80]
 509 01aa 002B     		cmp	r3, #0
 510 01ac 12D1     		bne	.L29
 511              	.L33:
 512 01ae FB68     		ldr	r3, [r7, #12]
 513 01b0 1B68     		ldr	r3, [r3]
 514 01b2 484A     		ldr	r2, .L44
 515 01b4 9A63     		str	r2, [r3, #56]
 516 01b6 FB68     		ldr	r3, [r7, #12]
 517 01b8 9B6B     		ldr	r3, [r3, #56]
 518 01ba 43F00042 		orr	r2, r3, #-2147483648
 519 01be FB68     		ldr	r3, [r7, #12]
 520 01c0 9A63     		str	r2, [r3, #56]
 521 01c2 FB68     		ldr	r3, [r7, #12]
 522 01c4 0122     		movs	r2, #1
 523 01c6 83F83420 		strb	r2, [r3, #52]
 524 01ca FB68     		ldr	r3, [r7, #12]
ARM GAS  C:\Users\user\AppData\Local\Temp\ccf7Y9kA.s 			page 10


 525 01cc 0022     		movs	r2, #0
 526 01ce 1A63     		str	r2, [r3, #48]
 527 01d0 0323     		movs	r3, #3
 528 01d2 ECE0     		b	.L43
 529              	.L29:
 530 01d4 FB68     		ldr	r3, [r7, #12]
 531 01d6 1B68     		ldr	r3, [r3]
 532 01d8 5A6B     		ldr	r2, [r3, #52]
 533 01da 40F22A33 		movw	r3, #810
 534 01de 1340     		ands	r3, r3, r2
 535 01e0 002B     		cmp	r3, #0
 536 01e2 95D0     		beq	.L34
 537 01e4 FB68     		ldr	r3, [r7, #12]
 538 01e6 1B68     		ldr	r3, [r3]
 539 01e8 5B6B     		ldr	r3, [r3, #52]
 540 01ea 03F48073 		and	r3, r3, #256
 541 01ee 002B     		cmp	r3, #0
 542 01f0 22D0     		beq	.L35
 543 01f2 3B68     		ldr	r3, [r7]
 544 01f4 012B     		cmp	r3, #1
 545 01f6 1FD9     		bls	.L35
 546 01f8 FB68     		ldr	r3, [r7, #12]
 547 01fa 5B6C     		ldr	r3, [r3, #68]
 548 01fc 032B     		cmp	r3, #3
 549 01fe 1BD0     		beq	.L35
 550 0200 FB68     		ldr	r3, [r7, #12]
 551 0202 1B68     		ldr	r3, [r3]
 552 0204 1846     		mov	r0, r3
 553 0206 FFF7FEFF 		bl	SDMMC_CmdStopTransfer
 554 020a 7864     		str	r0, [r7, #68]
 555 020c 7B6C     		ldr	r3, [r7, #68]
 556 020e 002B     		cmp	r3, #0
 557 0210 12D0     		beq	.L35
 558 0212 FB68     		ldr	r3, [r7, #12]
 559 0214 1B68     		ldr	r3, [r3]
 560 0216 2F4A     		ldr	r2, .L44
 561 0218 9A63     		str	r2, [r3, #56]
 562 021a FB68     		ldr	r3, [r7, #12]
 563 021c 9A6B     		ldr	r2, [r3, #56]
 564 021e 7B6C     		ldr	r3, [r7, #68]
 565 0220 1A43     		orrs	r2, r2, r3
 566 0222 FB68     		ldr	r3, [r7, #12]
 567 0224 9A63     		str	r2, [r3, #56]
 568 0226 FB68     		ldr	r3, [r7, #12]
 569 0228 0122     		movs	r2, #1
 570 022a 83F83420 		strb	r2, [r3, #52]
 571 022e FB68     		ldr	r3, [r7, #12]
 572 0230 0022     		movs	r2, #0
 573 0232 1A63     		str	r2, [r3, #48]
 574 0234 0123     		movs	r3, #1
 575 0236 BAE0     		b	.L43
 576              	.L35:
 577 0238 FB68     		ldr	r3, [r7, #12]
 578 023a 1B68     		ldr	r3, [r3]
 579 023c 5B6B     		ldr	r3, [r3, #52]
 580 023e 03F00803 		and	r3, r3, #8
 581 0242 002B     		cmp	r3, #0
ARM GAS  C:\Users\user\AppData\Local\Temp\ccf7Y9kA.s 			page 11


 582 0244 12D0     		beq	.L36
 583 0246 FB68     		ldr	r3, [r7, #12]
 584 0248 1B68     		ldr	r3, [r3]
 585 024a 224A     		ldr	r2, .L44
 586 024c 9A63     		str	r2, [r3, #56]
 587 024e FB68     		ldr	r3, [r7, #12]
 588 0250 9B6B     		ldr	r3, [r3, #56]
 589 0252 43F00802 		orr	r2, r3, #8
 590 0256 FB68     		ldr	r3, [r7, #12]
 591 0258 9A63     		str	r2, [r3, #56]
 592 025a FB68     		ldr	r3, [r7, #12]
 593 025c 0122     		movs	r2, #1
 594 025e 83F83420 		strb	r2, [r3, #52]
 595 0262 FB68     		ldr	r3, [r7, #12]
 596 0264 0022     		movs	r2, #0
 597 0266 1A63     		str	r2, [r3, #48]
 598 0268 0123     		movs	r3, #1
 599 026a A0E0     		b	.L43
 600              	.L36:
 601 026c FB68     		ldr	r3, [r7, #12]
 602 026e 1B68     		ldr	r3, [r3]
 603 0270 5B6B     		ldr	r3, [r3, #52]
 604 0272 03F00203 		and	r3, r3, #2
 605 0276 002B     		cmp	r3, #0
 606 0278 12D0     		beq	.L37
 607 027a FB68     		ldr	r3, [r7, #12]
 608 027c 1B68     		ldr	r3, [r3]
 609 027e 154A     		ldr	r2, .L44
 610 0280 9A63     		str	r2, [r3, #56]
 611 0282 FB68     		ldr	r3, [r7, #12]
 612 0284 9B6B     		ldr	r3, [r3, #56]
 613 0286 43F00202 		orr	r2, r3, #2
 614 028a FB68     		ldr	r3, [r7, #12]
 615 028c 9A63     		str	r2, [r3, #56]
 616 028e FB68     		ldr	r3, [r7, #12]
 617 0290 0122     		movs	r2, #1
 618 0292 83F83420 		strb	r2, [r3, #52]
 619 0296 FB68     		ldr	r3, [r7, #12]
 620 0298 0022     		movs	r2, #0
 621 029a 1A63     		str	r2, [r3, #48]
 622 029c 0123     		movs	r3, #1
 623 029e 86E0     		b	.L43
 624              	.L37:
 625 02a0 FB68     		ldr	r3, [r7, #12]
 626 02a2 1B68     		ldr	r3, [r3]
 627 02a4 5B6B     		ldr	r3, [r3, #52]
 628 02a6 03F02003 		and	r3, r3, #32
 629 02aa 002B     		cmp	r3, #0
 630 02ac 63D0     		beq	.L39
 631 02ae FB68     		ldr	r3, [r7, #12]
 632 02b0 1B68     		ldr	r3, [r3]
 633 02b2 084A     		ldr	r2, .L44
 634 02b4 9A63     		str	r2, [r3, #56]
 635 02b6 FB68     		ldr	r3, [r7, #12]
 636 02b8 9B6B     		ldr	r3, [r3, #56]
 637 02ba 43F02002 		orr	r2, r3, #32
 638 02be FB68     		ldr	r3, [r7, #12]
ARM GAS  C:\Users\user\AppData\Local\Temp\ccf7Y9kA.s 			page 12


 639 02c0 9A63     		str	r2, [r3, #56]
 640 02c2 FB68     		ldr	r3, [r7, #12]
 641 02c4 0122     		movs	r2, #1
 642 02c6 83F83420 		strb	r2, [r3, #52]
 643 02ca FB68     		ldr	r3, [r7, #12]
 644 02cc 0022     		movs	r2, #0
 645 02ce 1A63     		str	r2, [r3, #48]
 646 02d0 0123     		movs	r3, #1
 647 02d2 6CE0     		b	.L43
 648              	.L45:
 649              		.align	2
 650              	.L44:
 651 02d4 FF054000 		.word	4195839
 652              	.L42:
 653 02d8 FB68     		ldr	r3, [r7, #12]
 654 02da 1B68     		ldr	r3, [r3]
 655 02dc 1846     		mov	r0, r3
 656 02de FFF7FEFF 		bl	SDIO_ReadFIFO
 657 02e2 F862     		str	r0, [r7, #44]
 658 02e4 FB6A     		ldr	r3, [r7, #44]
 659 02e6 DAB2     		uxtb	r2, r3
 660 02e8 7B6B     		ldr	r3, [r7, #52]
 661 02ea 1A70     		strb	r2, [r3]
 662 02ec 7B6B     		ldr	r3, [r7, #52]
 663 02ee 0133     		adds	r3, r3, #1
 664 02f0 7B63     		str	r3, [r7, #52]
 665 02f2 FB6B     		ldr	r3, [r7, #60]
 666 02f4 013B     		subs	r3, r3, #1
 667 02f6 FB63     		str	r3, [r7, #60]
 668 02f8 FB6A     		ldr	r3, [r7, #44]
 669 02fa 1B0A     		lsrs	r3, r3, #8
 670 02fc DAB2     		uxtb	r2, r3
 671 02fe 7B6B     		ldr	r3, [r7, #52]
 672 0300 1A70     		strb	r2, [r3]
 673 0302 7B6B     		ldr	r3, [r7, #52]
 674 0304 0133     		adds	r3, r3, #1
 675 0306 7B63     		str	r3, [r7, #52]
 676 0308 FB6B     		ldr	r3, [r7, #60]
 677 030a 013B     		subs	r3, r3, #1
 678 030c FB63     		str	r3, [r7, #60]
 679 030e FB6A     		ldr	r3, [r7, #44]
 680 0310 1B0C     		lsrs	r3, r3, #16
 681 0312 DAB2     		uxtb	r2, r3
 682 0314 7B6B     		ldr	r3, [r7, #52]
 683 0316 1A70     		strb	r2, [r3]
 684 0318 7B6B     		ldr	r3, [r7, #52]
 685 031a 0133     		adds	r3, r3, #1
 686 031c 7B63     		str	r3, [r7, #52]
 687 031e FB6B     		ldr	r3, [r7, #60]
 688 0320 013B     		subs	r3, r3, #1
 689 0322 FB63     		str	r3, [r7, #60]
 690 0324 FB6A     		ldr	r3, [r7, #44]
 691 0326 1B0E     		lsrs	r3, r3, #24
 692 0328 DAB2     		uxtb	r2, r3
 693 032a 7B6B     		ldr	r3, [r7, #52]
 694 032c 1A70     		strb	r2, [r3]
 695 032e 7B6B     		ldr	r3, [r7, #52]
ARM GAS  C:\Users\user\AppData\Local\Temp\ccf7Y9kA.s 			page 13


 696 0330 0133     		adds	r3, r3, #1
 697 0332 7B63     		str	r3, [r7, #52]
 698 0334 FB6B     		ldr	r3, [r7, #60]
 699 0336 013B     		subs	r3, r3, #1
 700 0338 FB63     		str	r3, [r7, #60]
 701 033a FFF7FEFF 		bl	HAL_GetTick
 702 033e 0246     		mov	r2, r0
 703 0340 3B6B     		ldr	r3, [r7, #48]
 704 0342 D31A     		subs	r3, r2, r3
 705 0344 3A6D     		ldr	r2, [r7, #80]
 706 0346 9A42     		cmp	r2, r3
 707 0348 02D9     		bls	.L40
 708 034a 3B6D     		ldr	r3, [r7, #80]
 709 034c 002B     		cmp	r3, #0
 710 034e 12D1     		bne	.L39
 711              	.L40:
 712 0350 FB68     		ldr	r3, [r7, #12]
 713 0352 1B68     		ldr	r3, [r3]
 714 0354 184A     		ldr	r2, .L46
 715 0356 9A63     		str	r2, [r3, #56]
 716 0358 FB68     		ldr	r3, [r7, #12]
 717 035a 9B6B     		ldr	r3, [r3, #56]
 718 035c 43F00042 		orr	r2, r3, #-2147483648
 719 0360 FB68     		ldr	r3, [r7, #12]
 720 0362 9A63     		str	r2, [r3, #56]
 721 0364 FB68     		ldr	r3, [r7, #12]
 722 0366 0122     		movs	r2, #1
 723 0368 83F83420 		strb	r2, [r3, #52]
 724 036c FB68     		ldr	r3, [r7, #12]
 725 036e 0022     		movs	r2, #0
 726 0370 1A63     		str	r2, [r3, #48]
 727 0372 0123     		movs	r3, #1
 728 0374 1BE0     		b	.L43
 729              	.L39:
 730 0376 FB68     		ldr	r3, [r7, #12]
 731 0378 1B68     		ldr	r3, [r3]
 732 037a 5B6B     		ldr	r3, [r3, #52]
 733 037c 03F40013 		and	r3, r3, #2097152
 734 0380 002B     		cmp	r3, #0
 735 0382 02D0     		beq	.L41
 736 0384 FB6B     		ldr	r3, [r7, #60]
 737 0386 002B     		cmp	r3, #0
 738 0388 A6D1     		bne	.L42
 739              	.L41:
 740 038a FB68     		ldr	r3, [r7, #12]
 741 038c 1B68     		ldr	r3, [r3]
 742 038e 40F23A52 		movw	r2, #1338
 743 0392 9A63     		str	r2, [r3, #56]
 744 0394 FB68     		ldr	r3, [r7, #12]
 745 0396 0122     		movs	r2, #1
 746 0398 83F83420 		strb	r2, [r3, #52]
 747 039c 0023     		movs	r3, #0
 748 039e 06E0     		b	.L43
 749              	.L23:
 750 03a0 FB68     		ldr	r3, [r7, #12]
 751 03a2 9B6B     		ldr	r3, [r3, #56]
 752 03a4 43F00052 		orr	r2, r3, #536870912
ARM GAS  C:\Users\user\AppData\Local\Temp\ccf7Y9kA.s 			page 14


 753 03a8 FB68     		ldr	r3, [r7, #12]
 754 03aa 9A63     		str	r2, [r3, #56]
 755 03ac 0123     		movs	r3, #1
 756              	.L43:
 757 03ae 1846     		mov	r0, r3
 758 03b0 4837     		adds	r7, r7, #72
 759 03b2 BD46     		mov	sp, r7
 760              		@ sp needed
 761 03b4 80BD     		pop	{r7, pc}
 762              	.L47:
 763 03b6 00BF     		.align	2
 764              	.L46:
 765 03b8 FF054000 		.word	4195839
 767              		.section	.text.HAL_SD_WriteBlocks,"ax",%progbits
 768              		.align	1
 769              		.global	HAL_SD_WriteBlocks
 770              		.syntax unified
 771              		.thumb
 772              		.thumb_func
 774              	HAL_SD_WriteBlocks:
 775              		@ args = 4, pretend = 0, frame = 72
 776              		@ frame_needed = 1, uses_anonymous_args = 0
 777 0000 80B5     		push	{r7, lr}
 778 0002 92B0     		sub	sp, sp, #72
 779 0004 00AF     		add	r7, sp, #0
 780 0006 F860     		str	r0, [r7, #12]
 781 0008 B960     		str	r1, [r7, #8]
 782 000a 7A60     		str	r2, [r7, #4]
 783 000c 3B60     		str	r3, [r7]
 784 000e FFF7FEFF 		bl	HAL_GetTick
 785 0012 3863     		str	r0, [r7, #48]
 786 0014 7B68     		ldr	r3, [r7, #4]
 787 0016 BB63     		str	r3, [r7, #56]
 788 0018 BB68     		ldr	r3, [r7, #8]
 789 001a 7B63     		str	r3, [r7, #52]
 790 001c BB68     		ldr	r3, [r7, #8]
 791 001e 002B     		cmp	r3, #0
 792 0020 07D1     		bne	.L49
 793 0022 FB68     		ldr	r3, [r7, #12]
 794 0024 9B6B     		ldr	r3, [r3, #56]
 795 0026 43F00062 		orr	r2, r3, #134217728
 796 002a FB68     		ldr	r3, [r7, #12]
 797 002c 9A63     		str	r2, [r3, #56]
 798 002e 0123     		movs	r3, #1
 799 0030 66E1     		b	.L67
 800              	.L49:
 801 0032 FB68     		ldr	r3, [r7, #12]
 802 0034 93F83430 		ldrb	r3, [r3, #52]
 803 0038 DBB2     		uxtb	r3, r3
 804 003a 012B     		cmp	r3, #1
 805 003c 40F05981 		bne	.L51
 806 0040 FB68     		ldr	r3, [r7, #12]
 807 0042 0022     		movs	r2, #0
 808 0044 9A63     		str	r2, [r3, #56]
 809 0046 BA6B     		ldr	r2, [r7, #56]
 810 0048 3B68     		ldr	r3, [r7]
 811 004a 1A44     		add	r2, r2, r3
ARM GAS  C:\Users\user\AppData\Local\Temp\ccf7Y9kA.s 			page 15


 812 004c FB68     		ldr	r3, [r7, #12]
 813 004e DB6D     		ldr	r3, [r3, #92]
 814 0050 9A42     		cmp	r2, r3
 815 0052 07D9     		bls	.L52
 816 0054 FB68     		ldr	r3, [r7, #12]
 817 0056 9B6B     		ldr	r3, [r3, #56]
 818 0058 43F00072 		orr	r2, r3, #33554432
 819 005c FB68     		ldr	r3, [r7, #12]
 820 005e 9A63     		str	r2, [r3, #56]
 821 0060 0123     		movs	r3, #1
 822 0062 4DE1     		b	.L67
 823              	.L52:
 824 0064 FB68     		ldr	r3, [r7, #12]
 825 0066 0322     		movs	r2, #3
 826 0068 83F83420 		strb	r2, [r3, #52]
 827 006c FB68     		ldr	r3, [r7, #12]
 828 006e 1B68     		ldr	r3, [r3]
 829 0070 0022     		movs	r2, #0
 830 0072 DA62     		str	r2, [r3, #44]
 831 0074 FB68     		ldr	r3, [r7, #12]
 832 0076 5B6C     		ldr	r3, [r3, #68]
 833 0078 012B     		cmp	r3, #1
 834 007a 02D0     		beq	.L53
 835 007c BB6B     		ldr	r3, [r7, #56]
 836 007e 5B02     		lsls	r3, r3, #9
 837 0080 BB63     		str	r3, [r7, #56]
 838              	.L53:
 839 0082 4FF0FF33 		mov	r3, #-1
 840 0086 BB61     		str	r3, [r7, #24]
 841 0088 3B68     		ldr	r3, [r7]
 842 008a 5B02     		lsls	r3, r3, #9
 843 008c FB61     		str	r3, [r7, #28]
 844 008e 9023     		movs	r3, #144
 845 0090 3B62     		str	r3, [r7, #32]
 846 0092 0023     		movs	r3, #0
 847 0094 7B62     		str	r3, [r7, #36]
 848 0096 0023     		movs	r3, #0
 849 0098 BB62     		str	r3, [r7, #40]
 850 009a 0123     		movs	r3, #1
 851 009c FB62     		str	r3, [r7, #44]
 852 009e FB68     		ldr	r3, [r7, #12]
 853 00a0 1B68     		ldr	r3, [r3]
 854 00a2 07F11802 		add	r2, r7, #24
 855 00a6 1146     		mov	r1, r2
 856 00a8 1846     		mov	r0, r3
 857 00aa FFF7FEFF 		bl	SDIO_ConfigData
 858 00ae 3B68     		ldr	r3, [r7]
 859 00b0 012B     		cmp	r3, #1
 860 00b2 0AD9     		bls	.L54
 861 00b4 FB68     		ldr	r3, [r7, #12]
 862 00b6 2022     		movs	r2, #32
 863 00b8 1A63     		str	r2, [r3, #48]
 864 00ba FB68     		ldr	r3, [r7, #12]
 865 00bc 1B68     		ldr	r3, [r3]
 866 00be B96B     		ldr	r1, [r7, #56]
 867 00c0 1846     		mov	r0, r3
 868 00c2 FFF7FEFF 		bl	SDMMC_CmdWriteMultiBlock
ARM GAS  C:\Users\user\AppData\Local\Temp\ccf7Y9kA.s 			page 16


 869 00c6 7864     		str	r0, [r7, #68]
 870 00c8 09E0     		b	.L55
 871              	.L54:
 872 00ca FB68     		ldr	r3, [r7, #12]
 873 00cc 1022     		movs	r2, #16
 874 00ce 1A63     		str	r2, [r3, #48]
 875 00d0 FB68     		ldr	r3, [r7, #12]
 876 00d2 1B68     		ldr	r3, [r3]
 877 00d4 B96B     		ldr	r1, [r7, #56]
 878 00d6 1846     		mov	r0, r3
 879 00d8 FFF7FEFF 		bl	SDMMC_CmdWriteSingleBlock
 880 00dc 7864     		str	r0, [r7, #68]
 881              	.L55:
 882 00de 7B6C     		ldr	r3, [r7, #68]
 883 00e0 002B     		cmp	r3, #0
 884 00e2 12D0     		beq	.L56
 885 00e4 FB68     		ldr	r3, [r7, #12]
 886 00e6 1B68     		ldr	r3, [r3]
 887 00e8 874A     		ldr	r2, .L68
 888 00ea 9A63     		str	r2, [r3, #56]
 889 00ec FB68     		ldr	r3, [r7, #12]
 890 00ee 9A6B     		ldr	r2, [r3, #56]
 891 00f0 7B6C     		ldr	r3, [r7, #68]
 892 00f2 1A43     		orrs	r2, r2, r3
 893 00f4 FB68     		ldr	r3, [r7, #12]
 894 00f6 9A63     		str	r2, [r3, #56]
 895 00f8 FB68     		ldr	r3, [r7, #12]
 896 00fa 0122     		movs	r2, #1
 897 00fc 83F83420 		strb	r2, [r3, #52]
 898 0100 FB68     		ldr	r3, [r7, #12]
 899 0102 0022     		movs	r2, #0
 900 0104 1A63     		str	r2, [r3, #48]
 901 0106 0123     		movs	r3, #1
 902 0108 FAE0     		b	.L67
 903              	.L56:
 904 010a FB69     		ldr	r3, [r7, #28]
 905 010c FB63     		str	r3, [r7, #60]
 906 010e 65E0     		b	.L57
 907              	.L62:
 908 0110 FB68     		ldr	r3, [r7, #12]
 909 0112 1B68     		ldr	r3, [r3]
 910 0114 5B6B     		ldr	r3, [r3, #52]
 911 0116 03F48043 		and	r3, r3, #16384
 912 011a 002B     		cmp	r3, #0
 913 011c 40D0     		beq	.L58
 914 011e FB6B     		ldr	r3, [r7, #60]
 915 0120 002B     		cmp	r3, #0
 916 0122 3DD0     		beq	.L58
 917 0124 0023     		movs	r3, #0
 918 0126 3B64     		str	r3, [r7, #64]
 919 0128 37E0     		b	.L59
 920              	.L60:
 921 012a 7B6B     		ldr	r3, [r7, #52]
 922 012c 1B78     		ldrb	r3, [r3]	@ zero_extendqisi2
 923 012e 7B61     		str	r3, [r7, #20]
 924 0130 7B6B     		ldr	r3, [r7, #52]
 925 0132 0133     		adds	r3, r3, #1
ARM GAS  C:\Users\user\AppData\Local\Temp\ccf7Y9kA.s 			page 17


 926 0134 7B63     		str	r3, [r7, #52]
 927 0136 FB6B     		ldr	r3, [r7, #60]
 928 0138 013B     		subs	r3, r3, #1
 929 013a FB63     		str	r3, [r7, #60]
 930 013c 7B6B     		ldr	r3, [r7, #52]
 931 013e 1B78     		ldrb	r3, [r3]	@ zero_extendqisi2
 932 0140 1A02     		lsls	r2, r3, #8
 933 0142 7B69     		ldr	r3, [r7, #20]
 934 0144 1343     		orrs	r3, r3, r2
 935 0146 7B61     		str	r3, [r7, #20]
 936 0148 7B6B     		ldr	r3, [r7, #52]
 937 014a 0133     		adds	r3, r3, #1
 938 014c 7B63     		str	r3, [r7, #52]
 939 014e FB6B     		ldr	r3, [r7, #60]
 940 0150 013B     		subs	r3, r3, #1
 941 0152 FB63     		str	r3, [r7, #60]
 942 0154 7B6B     		ldr	r3, [r7, #52]
 943 0156 1B78     		ldrb	r3, [r3]	@ zero_extendqisi2
 944 0158 1A04     		lsls	r2, r3, #16
 945 015a 7B69     		ldr	r3, [r7, #20]
 946 015c 1343     		orrs	r3, r3, r2
 947 015e 7B61     		str	r3, [r7, #20]
 948 0160 7B6B     		ldr	r3, [r7, #52]
 949 0162 0133     		adds	r3, r3, #1
 950 0164 7B63     		str	r3, [r7, #52]
 951 0166 FB6B     		ldr	r3, [r7, #60]
 952 0168 013B     		subs	r3, r3, #1
 953 016a FB63     		str	r3, [r7, #60]
 954 016c 7B6B     		ldr	r3, [r7, #52]
 955 016e 1B78     		ldrb	r3, [r3]	@ zero_extendqisi2
 956 0170 1A06     		lsls	r2, r3, #24
 957 0172 7B69     		ldr	r3, [r7, #20]
 958 0174 1343     		orrs	r3, r3, r2
 959 0176 7B61     		str	r3, [r7, #20]
 960 0178 7B6B     		ldr	r3, [r7, #52]
 961 017a 0133     		adds	r3, r3, #1
 962 017c 7B63     		str	r3, [r7, #52]
 963 017e FB6B     		ldr	r3, [r7, #60]
 964 0180 013B     		subs	r3, r3, #1
 965 0182 FB63     		str	r3, [r7, #60]
 966 0184 FB68     		ldr	r3, [r7, #12]
 967 0186 1B68     		ldr	r3, [r3]
 968 0188 07F11402 		add	r2, r7, #20
 969 018c 1146     		mov	r1, r2
 970 018e 1846     		mov	r0, r3
 971 0190 FFF7FEFF 		bl	SDIO_WriteFIFO
 972 0194 3B6C     		ldr	r3, [r7, #64]
 973 0196 0133     		adds	r3, r3, #1
 974 0198 3B64     		str	r3, [r7, #64]
 975              	.L59:
 976 019a 3B6C     		ldr	r3, [r7, #64]
 977 019c 072B     		cmp	r3, #7
 978 019e C4D9     		bls	.L60
 979              	.L58:
 980 01a0 FFF7FEFF 		bl	HAL_GetTick
 981 01a4 0246     		mov	r2, r0
 982 01a6 3B6B     		ldr	r3, [r7, #48]
ARM GAS  C:\Users\user\AppData\Local\Temp\ccf7Y9kA.s 			page 18


 983 01a8 D31A     		subs	r3, r2, r3
 984 01aa 3A6D     		ldr	r2, [r7, #80]
 985 01ac 9A42     		cmp	r2, r3
 986 01ae 02D9     		bls	.L61
 987 01b0 3B6D     		ldr	r3, [r7, #80]
 988 01b2 002B     		cmp	r3, #0
 989 01b4 12D1     		bne	.L57
 990              	.L61:
 991 01b6 FB68     		ldr	r3, [r7, #12]
 992 01b8 1B68     		ldr	r3, [r3]
 993 01ba 534A     		ldr	r2, .L68
 994 01bc 9A63     		str	r2, [r3, #56]
 995 01be FB68     		ldr	r3, [r7, #12]
 996 01c0 9A6B     		ldr	r2, [r3, #56]
 997 01c2 7B6C     		ldr	r3, [r7, #68]
 998 01c4 1A43     		orrs	r2, r2, r3
 999 01c6 FB68     		ldr	r3, [r7, #12]
 1000 01c8 9A63     		str	r2, [r3, #56]
 1001 01ca FB68     		ldr	r3, [r7, #12]
 1002 01cc 0122     		movs	r2, #1
 1003 01ce 83F83420 		strb	r2, [r3, #52]
 1004 01d2 FB68     		ldr	r3, [r7, #12]
 1005 01d4 0022     		movs	r2, #0
 1006 01d6 1A63     		str	r2, [r3, #48]
 1007 01d8 0323     		movs	r3, #3
 1008 01da 91E0     		b	.L67
 1009              	.L57:
 1010 01dc FB68     		ldr	r3, [r7, #12]
 1011 01de 1B68     		ldr	r3, [r3]
 1012 01e0 5A6B     		ldr	r2, [r3, #52]
 1013 01e2 40F21A33 		movw	r3, #794
 1014 01e6 1340     		ands	r3, r3, r2
 1015 01e8 002B     		cmp	r3, #0
 1016 01ea 91D0     		beq	.L62
 1017 01ec FB68     		ldr	r3, [r7, #12]
 1018 01ee 1B68     		ldr	r3, [r3]
 1019 01f0 5B6B     		ldr	r3, [r3, #52]
 1020 01f2 03F48073 		and	r3, r3, #256
 1021 01f6 002B     		cmp	r3, #0
 1022 01f8 22D0     		beq	.L63
 1023 01fa 3B68     		ldr	r3, [r7]
 1024 01fc 012B     		cmp	r3, #1
 1025 01fe 1FD9     		bls	.L63
 1026 0200 FB68     		ldr	r3, [r7, #12]
 1027 0202 5B6C     		ldr	r3, [r3, #68]
 1028 0204 032B     		cmp	r3, #3
 1029 0206 1BD0     		beq	.L63
 1030 0208 FB68     		ldr	r3, [r7, #12]
 1031 020a 1B68     		ldr	r3, [r3]
 1032 020c 1846     		mov	r0, r3
 1033 020e FFF7FEFF 		bl	SDMMC_CmdStopTransfer
 1034 0212 7864     		str	r0, [r7, #68]
 1035 0214 7B6C     		ldr	r3, [r7, #68]
 1036 0216 002B     		cmp	r3, #0
 1037 0218 12D0     		beq	.L63
 1038 021a FB68     		ldr	r3, [r7, #12]
 1039 021c 1B68     		ldr	r3, [r3]
ARM GAS  C:\Users\user\AppData\Local\Temp\ccf7Y9kA.s 			page 19


 1040 021e 3A4A     		ldr	r2, .L68
 1041 0220 9A63     		str	r2, [r3, #56]
 1042 0222 FB68     		ldr	r3, [r7, #12]
 1043 0224 9A6B     		ldr	r2, [r3, #56]
 1044 0226 7B6C     		ldr	r3, [r7, #68]
 1045 0228 1A43     		orrs	r2, r2, r3
 1046 022a FB68     		ldr	r3, [r7, #12]
 1047 022c 9A63     		str	r2, [r3, #56]
 1048 022e FB68     		ldr	r3, [r7, #12]
 1049 0230 0122     		movs	r2, #1
 1050 0232 83F83420 		strb	r2, [r3, #52]
 1051 0236 FB68     		ldr	r3, [r7, #12]
 1052 0238 0022     		movs	r2, #0
 1053 023a 1A63     		str	r2, [r3, #48]
 1054 023c 0123     		movs	r3, #1
 1055 023e 5FE0     		b	.L67
 1056              	.L63:
 1057 0240 FB68     		ldr	r3, [r7, #12]
 1058 0242 1B68     		ldr	r3, [r3]
 1059 0244 5B6B     		ldr	r3, [r3, #52]
 1060 0246 03F00803 		and	r3, r3, #8
 1061 024a 002B     		cmp	r3, #0
 1062 024c 12D0     		beq	.L64
 1063 024e FB68     		ldr	r3, [r7, #12]
 1064 0250 1B68     		ldr	r3, [r3]
 1065 0252 2D4A     		ldr	r2, .L68
 1066 0254 9A63     		str	r2, [r3, #56]
 1067 0256 FB68     		ldr	r3, [r7, #12]
 1068 0258 9B6B     		ldr	r3, [r3, #56]
 1069 025a 43F00802 		orr	r2, r3, #8
 1070 025e FB68     		ldr	r3, [r7, #12]
 1071 0260 9A63     		str	r2, [r3, #56]
 1072 0262 FB68     		ldr	r3, [r7, #12]
 1073 0264 0122     		movs	r2, #1
 1074 0266 83F83420 		strb	r2, [r3, #52]
 1075 026a FB68     		ldr	r3, [r7, #12]
 1076 026c 0022     		movs	r2, #0
 1077 026e 1A63     		str	r2, [r3, #48]
 1078 0270 0123     		movs	r3, #1
 1079 0272 45E0     		b	.L67
 1080              	.L64:
 1081 0274 FB68     		ldr	r3, [r7, #12]
 1082 0276 1B68     		ldr	r3, [r3]
 1083 0278 5B6B     		ldr	r3, [r3, #52]
 1084 027a 03F00203 		and	r3, r3, #2
 1085 027e 002B     		cmp	r3, #0
 1086 0280 12D0     		beq	.L65
 1087 0282 FB68     		ldr	r3, [r7, #12]
 1088 0284 1B68     		ldr	r3, [r3]
 1089 0286 204A     		ldr	r2, .L68
 1090 0288 9A63     		str	r2, [r3, #56]
 1091 028a FB68     		ldr	r3, [r7, #12]
 1092 028c 9B6B     		ldr	r3, [r3, #56]
 1093 028e 43F00202 		orr	r2, r3, #2
 1094 0292 FB68     		ldr	r3, [r7, #12]
 1095 0294 9A63     		str	r2, [r3, #56]
 1096 0296 FB68     		ldr	r3, [r7, #12]
ARM GAS  C:\Users\user\AppData\Local\Temp\ccf7Y9kA.s 			page 20


 1097 0298 0122     		movs	r2, #1
 1098 029a 83F83420 		strb	r2, [r3, #52]
 1099 029e FB68     		ldr	r3, [r7, #12]
 1100 02a0 0022     		movs	r2, #0
 1101 02a2 1A63     		str	r2, [r3, #48]
 1102 02a4 0123     		movs	r3, #1
 1103 02a6 2BE0     		b	.L67
 1104              	.L65:
 1105 02a8 FB68     		ldr	r3, [r7, #12]
 1106 02aa 1B68     		ldr	r3, [r3]
 1107 02ac 5B6B     		ldr	r3, [r3, #52]
 1108 02ae 03F01003 		and	r3, r3, #16
 1109 02b2 002B     		cmp	r3, #0
 1110 02b4 12D0     		beq	.L66
 1111 02b6 FB68     		ldr	r3, [r7, #12]
 1112 02b8 1B68     		ldr	r3, [r3]
 1113 02ba 134A     		ldr	r2, .L68
 1114 02bc 9A63     		str	r2, [r3, #56]
 1115 02be FB68     		ldr	r3, [r7, #12]
 1116 02c0 9B6B     		ldr	r3, [r3, #56]
 1117 02c2 43F01002 		orr	r2, r3, #16
 1118 02c6 FB68     		ldr	r3, [r7, #12]
 1119 02c8 9A63     		str	r2, [r3, #56]
 1120 02ca FB68     		ldr	r3, [r7, #12]
 1121 02cc 0122     		movs	r2, #1
 1122 02ce 83F83420 		strb	r2, [r3, #52]
 1123 02d2 FB68     		ldr	r3, [r7, #12]
 1124 02d4 0022     		movs	r2, #0
 1125 02d6 1A63     		str	r2, [r3, #48]
 1126 02d8 0123     		movs	r3, #1
 1127 02da 11E0     		b	.L67
 1128              	.L66:
 1129 02dc FB68     		ldr	r3, [r7, #12]
 1130 02de 1B68     		ldr	r3, [r3]
 1131 02e0 40F23A52 		movw	r2, #1338
 1132 02e4 9A63     		str	r2, [r3, #56]
 1133 02e6 FB68     		ldr	r3, [r7, #12]
 1134 02e8 0122     		movs	r2, #1
 1135 02ea 83F83420 		strb	r2, [r3, #52]
 1136 02ee 0023     		movs	r3, #0
 1137 02f0 06E0     		b	.L67
 1138              	.L51:
 1139 02f2 FB68     		ldr	r3, [r7, #12]
 1140 02f4 9B6B     		ldr	r3, [r3, #56]
 1141 02f6 43F00052 		orr	r2, r3, #536870912
 1142 02fa FB68     		ldr	r3, [r7, #12]
 1143 02fc 9A63     		str	r2, [r3, #56]
 1144 02fe 0123     		movs	r3, #1
 1145              	.L67:
 1146 0300 1846     		mov	r0, r3
 1147 0302 4837     		adds	r7, r7, #72
 1148 0304 BD46     		mov	sp, r7
 1149              		@ sp needed
 1150 0306 80BD     		pop	{r7, pc}
 1151              	.L69:
 1152              		.align	2
 1153              	.L68:
ARM GAS  C:\Users\user\AppData\Local\Temp\ccf7Y9kA.s 			page 21


 1154 0308 FF054000 		.word	4195839
 1156              		.section	.text.HAL_SD_ReadBlocks_IT,"ax",%progbits
 1157              		.align	1
 1158              		.global	HAL_SD_ReadBlocks_IT
 1159              		.syntax unified
 1160              		.thumb
 1161              		.thumb_func
 1163              	HAL_SD_ReadBlocks_IT:
 1164              		@ args = 0, pretend = 0, frame = 48
 1165              		@ frame_needed = 1, uses_anonymous_args = 0
 1166 0000 80B5     		push	{r7, lr}
 1167 0002 8CB0     		sub	sp, sp, #48
 1168 0004 00AF     		add	r7, sp, #0
 1169 0006 F860     		str	r0, [r7, #12]
 1170 0008 B960     		str	r1, [r7, #8]
 1171 000a 7A60     		str	r2, [r7, #4]
 1172 000c 3B60     		str	r3, [r7]
 1173 000e 7B68     		ldr	r3, [r7, #4]
 1174 0010 BB62     		str	r3, [r7, #40]
 1175 0012 BB68     		ldr	r3, [r7, #8]
 1176 0014 002B     		cmp	r3, #0
 1177 0016 07D1     		bne	.L71
 1178 0018 FB68     		ldr	r3, [r7, #12]
 1179 001a 9B6B     		ldr	r3, [r3, #56]
 1180 001c 43F00062 		orr	r2, r3, #134217728
 1181 0020 FB68     		ldr	r3, [r7, #12]
 1182 0022 9A63     		str	r2, [r3, #56]
 1183 0024 0123     		movs	r3, #1
 1184 0026 7EE0     		b	.L79
 1185              	.L71:
 1186 0028 FB68     		ldr	r3, [r7, #12]
 1187 002a 93F83430 		ldrb	r3, [r3, #52]
 1188 002e DBB2     		uxtb	r3, r3
 1189 0030 012B     		cmp	r3, #1
 1190 0032 77D1     		bne	.L73
 1191 0034 FB68     		ldr	r3, [r7, #12]
 1192 0036 0022     		movs	r2, #0
 1193 0038 9A63     		str	r2, [r3, #56]
 1194 003a BA6A     		ldr	r2, [r7, #40]
 1195 003c 3B68     		ldr	r3, [r7]
 1196 003e 1A44     		add	r2, r2, r3
 1197 0040 FB68     		ldr	r3, [r7, #12]
 1198 0042 DB6D     		ldr	r3, [r3, #92]
 1199 0044 9A42     		cmp	r2, r3
 1200 0046 07D9     		bls	.L74
 1201 0048 FB68     		ldr	r3, [r7, #12]
 1202 004a 9B6B     		ldr	r3, [r3, #56]
 1203 004c 43F00072 		orr	r2, r3, #33554432
 1204 0050 FB68     		ldr	r3, [r7, #12]
 1205 0052 9A63     		str	r2, [r3, #56]
 1206 0054 0123     		movs	r3, #1
 1207 0056 66E0     		b	.L79
 1208              	.L74:
 1209 0058 FB68     		ldr	r3, [r7, #12]
 1210 005a 0322     		movs	r2, #3
 1211 005c 83F83420 		strb	r2, [r3, #52]
 1212 0060 FB68     		ldr	r3, [r7, #12]
ARM GAS  C:\Users\user\AppData\Local\Temp\ccf7Y9kA.s 			page 22


 1213 0062 1B68     		ldr	r3, [r3]
 1214 0064 0022     		movs	r2, #0
 1215 0066 DA62     		str	r2, [r3, #44]
 1216 0068 FB68     		ldr	r3, [r7, #12]
 1217 006a BA68     		ldr	r2, [r7, #8]
 1218 006c 9A62     		str	r2, [r3, #40]
 1219 006e 3B68     		ldr	r3, [r7]
 1220 0070 5A02     		lsls	r2, r3, #9
 1221 0072 FB68     		ldr	r3, [r7, #12]
 1222 0074 DA62     		str	r2, [r3, #44]
 1223 0076 FB68     		ldr	r3, [r7, #12]
 1224 0078 1B68     		ldr	r3, [r3]
 1225 007a DB6B     		ldr	r3, [r3, #60]
 1226 007c FA68     		ldr	r2, [r7, #12]
 1227 007e 1268     		ldr	r2, [r2]
 1228 0080 43F40343 		orr	r3, r3, #33536
 1229 0084 43F02A03 		orr	r3, r3, #42
 1230 0088 D363     		str	r3, [r2, #60]
 1231 008a FB68     		ldr	r3, [r7, #12]
 1232 008c 5B6C     		ldr	r3, [r3, #68]
 1233 008e 012B     		cmp	r3, #1
 1234 0090 02D0     		beq	.L75
 1235 0092 BB6A     		ldr	r3, [r7, #40]
 1236 0094 5B02     		lsls	r3, r3, #9
 1237 0096 BB62     		str	r3, [r7, #40]
 1238              	.L75:
 1239 0098 4FF0FF33 		mov	r3, #-1
 1240 009c 3B61     		str	r3, [r7, #16]
 1241 009e 3B68     		ldr	r3, [r7]
 1242 00a0 5B02     		lsls	r3, r3, #9
 1243 00a2 7B61     		str	r3, [r7, #20]
 1244 00a4 9023     		movs	r3, #144
 1245 00a6 BB61     		str	r3, [r7, #24]
 1246 00a8 0223     		movs	r3, #2
 1247 00aa FB61     		str	r3, [r7, #28]
 1248 00ac 0023     		movs	r3, #0
 1249 00ae 3B62     		str	r3, [r7, #32]
 1250 00b0 0123     		movs	r3, #1
 1251 00b2 7B62     		str	r3, [r7, #36]
 1252 00b4 FB68     		ldr	r3, [r7, #12]
 1253 00b6 1B68     		ldr	r3, [r3]
 1254 00b8 07F11002 		add	r2, r7, #16
 1255 00bc 1146     		mov	r1, r2
 1256 00be 1846     		mov	r0, r3
 1257 00c0 FFF7FEFF 		bl	SDIO_ConfigData
 1258 00c4 3B68     		ldr	r3, [r7]
 1259 00c6 012B     		cmp	r3, #1
 1260 00c8 0AD9     		bls	.L76
 1261 00ca FB68     		ldr	r3, [r7, #12]
 1262 00cc 0A22     		movs	r2, #10
 1263 00ce 1A63     		str	r2, [r3, #48]
 1264 00d0 FB68     		ldr	r3, [r7, #12]
 1265 00d2 1B68     		ldr	r3, [r3]
 1266 00d4 B96A     		ldr	r1, [r7, #40]
 1267 00d6 1846     		mov	r0, r3
 1268 00d8 FFF7FEFF 		bl	SDMMC_CmdReadMultiBlock
 1269 00dc F862     		str	r0, [r7, #44]
ARM GAS  C:\Users\user\AppData\Local\Temp\ccf7Y9kA.s 			page 23


 1270 00de 09E0     		b	.L77
 1271              	.L76:
 1272 00e0 FB68     		ldr	r3, [r7, #12]
 1273 00e2 0922     		movs	r2, #9
 1274 00e4 1A63     		str	r2, [r3, #48]
 1275 00e6 FB68     		ldr	r3, [r7, #12]
 1276 00e8 1B68     		ldr	r3, [r3]
 1277 00ea B96A     		ldr	r1, [r7, #40]
 1278 00ec 1846     		mov	r0, r3
 1279 00ee FFF7FEFF 		bl	SDMMC_CmdReadSingleBlock
 1280 00f2 F862     		str	r0, [r7, #44]
 1281              	.L77:
 1282 00f4 FB6A     		ldr	r3, [r7, #44]
 1283 00f6 002B     		cmp	r3, #0
 1284 00f8 12D0     		beq	.L78
 1285 00fa FB68     		ldr	r3, [r7, #12]
 1286 00fc 1B68     		ldr	r3, [r3]
 1287 00fe 0C4A     		ldr	r2, .L80
 1288 0100 9A63     		str	r2, [r3, #56]
 1289 0102 FB68     		ldr	r3, [r7, #12]
 1290 0104 9A6B     		ldr	r2, [r3, #56]
 1291 0106 FB6A     		ldr	r3, [r7, #44]
 1292 0108 1A43     		orrs	r2, r2, r3
 1293 010a FB68     		ldr	r3, [r7, #12]
 1294 010c 9A63     		str	r2, [r3, #56]
 1295 010e FB68     		ldr	r3, [r7, #12]
 1296 0110 0122     		movs	r2, #1
 1297 0112 83F83420 		strb	r2, [r3, #52]
 1298 0116 FB68     		ldr	r3, [r7, #12]
 1299 0118 0022     		movs	r2, #0
 1300 011a 1A63     		str	r2, [r3, #48]
 1301 011c 0123     		movs	r3, #1
 1302 011e 02E0     		b	.L79
 1303              	.L78:
 1304 0120 0023     		movs	r3, #0
 1305 0122 00E0     		b	.L79
 1306              	.L73:
 1307 0124 0223     		movs	r3, #2
 1308              	.L79:
 1309 0126 1846     		mov	r0, r3
 1310 0128 3037     		adds	r7, r7, #48
 1311 012a BD46     		mov	sp, r7
 1312              		@ sp needed
 1313 012c 80BD     		pop	{r7, pc}
 1314              	.L81:
 1315 012e 00BF     		.align	2
 1316              	.L80:
 1317 0130 FF054000 		.word	4195839
 1319              		.section	.text.HAL_SD_WriteBlocks_IT,"ax",%progbits
 1320              		.align	1
 1321              		.global	HAL_SD_WriteBlocks_IT
 1322              		.syntax unified
 1323              		.thumb
 1324              		.thumb_func
 1326              	HAL_SD_WriteBlocks_IT:
 1327              		@ args = 0, pretend = 0, frame = 48
 1328              		@ frame_needed = 1, uses_anonymous_args = 0
ARM GAS  C:\Users\user\AppData\Local\Temp\ccf7Y9kA.s 			page 24


 1329 0000 80B5     		push	{r7, lr}
 1330 0002 8CB0     		sub	sp, sp, #48
 1331 0004 00AF     		add	r7, sp, #0
 1332 0006 F860     		str	r0, [r7, #12]
 1333 0008 B960     		str	r1, [r7, #8]
 1334 000a 7A60     		str	r2, [r7, #4]
 1335 000c 3B60     		str	r3, [r7]
 1336 000e 7B68     		ldr	r3, [r7, #4]
 1337 0010 BB62     		str	r3, [r7, #40]
 1338 0012 BB68     		ldr	r3, [r7, #8]
 1339 0014 002B     		cmp	r3, #0
 1340 0016 07D1     		bne	.L83
 1341 0018 FB68     		ldr	r3, [r7, #12]
 1342 001a 9B6B     		ldr	r3, [r3, #56]
 1343 001c 43F00062 		orr	r2, r3, #134217728
 1344 0020 FB68     		ldr	r3, [r7, #12]
 1345 0022 9A63     		str	r2, [r3, #56]
 1346 0024 0123     		movs	r3, #1
 1347 0026 7EE0     		b	.L91
 1348              	.L83:
 1349 0028 FB68     		ldr	r3, [r7, #12]
 1350 002a 93F83430 		ldrb	r3, [r3, #52]
 1351 002e DBB2     		uxtb	r3, r3
 1352 0030 012B     		cmp	r3, #1
 1353 0032 77D1     		bne	.L85
 1354 0034 FB68     		ldr	r3, [r7, #12]
 1355 0036 0022     		movs	r2, #0
 1356 0038 9A63     		str	r2, [r3, #56]
 1357 003a BA6A     		ldr	r2, [r7, #40]
 1358 003c 3B68     		ldr	r3, [r7]
 1359 003e 1A44     		add	r2, r2, r3
 1360 0040 FB68     		ldr	r3, [r7, #12]
 1361 0042 DB6D     		ldr	r3, [r3, #92]
 1362 0044 9A42     		cmp	r2, r3
 1363 0046 07D9     		bls	.L86
 1364 0048 FB68     		ldr	r3, [r7, #12]
 1365 004a 9B6B     		ldr	r3, [r3, #56]
 1366 004c 43F00072 		orr	r2, r3, #33554432
 1367 0050 FB68     		ldr	r3, [r7, #12]
 1368 0052 9A63     		str	r2, [r3, #56]
 1369 0054 0123     		movs	r3, #1
 1370 0056 66E0     		b	.L91
 1371              	.L86:
 1372 0058 FB68     		ldr	r3, [r7, #12]
 1373 005a 0322     		movs	r2, #3
 1374 005c 83F83420 		strb	r2, [r3, #52]
 1375 0060 FB68     		ldr	r3, [r7, #12]
 1376 0062 1B68     		ldr	r3, [r3]
 1377 0064 0022     		movs	r2, #0
 1378 0066 DA62     		str	r2, [r3, #44]
 1379 0068 FB68     		ldr	r3, [r7, #12]
 1380 006a BA68     		ldr	r2, [r7, #8]
 1381 006c 1A62     		str	r2, [r3, #32]
 1382 006e 3B68     		ldr	r3, [r7]
 1383 0070 5A02     		lsls	r2, r3, #9
 1384 0072 FB68     		ldr	r3, [r7, #12]
 1385 0074 5A62     		str	r2, [r3, #36]
ARM GAS  C:\Users\user\AppData\Local\Temp\ccf7Y9kA.s 			page 25


 1386 0076 FB68     		ldr	r3, [r7, #12]
 1387 0078 1B68     		ldr	r3, [r3]
 1388 007a DB6B     		ldr	r3, [r3, #60]
 1389 007c FA68     		ldr	r2, [r7, #12]
 1390 007e 1268     		ldr	r2, [r2]
 1391 0080 43F48643 		orr	r3, r3, #17152
 1392 0084 43F01A03 		orr	r3, r3, #26
 1393 0088 D363     		str	r3, [r2, #60]
 1394 008a FB68     		ldr	r3, [r7, #12]
 1395 008c 5B6C     		ldr	r3, [r3, #68]
 1396 008e 012B     		cmp	r3, #1
 1397 0090 02D0     		beq	.L87
 1398 0092 BB6A     		ldr	r3, [r7, #40]
 1399 0094 5B02     		lsls	r3, r3, #9
 1400 0096 BB62     		str	r3, [r7, #40]
 1401              	.L87:
 1402 0098 3B68     		ldr	r3, [r7]
 1403 009a 012B     		cmp	r3, #1
 1404 009c 0AD9     		bls	.L88
 1405 009e FB68     		ldr	r3, [r7, #12]
 1406 00a0 2822     		movs	r2, #40
 1407 00a2 1A63     		str	r2, [r3, #48]
 1408 00a4 FB68     		ldr	r3, [r7, #12]
 1409 00a6 1B68     		ldr	r3, [r3]
 1410 00a8 B96A     		ldr	r1, [r7, #40]
 1411 00aa 1846     		mov	r0, r3
 1412 00ac FFF7FEFF 		bl	SDMMC_CmdWriteMultiBlock
 1413 00b0 F862     		str	r0, [r7, #44]
 1414 00b2 09E0     		b	.L89
 1415              	.L88:
 1416 00b4 FB68     		ldr	r3, [r7, #12]
 1417 00b6 1822     		movs	r2, #24
 1418 00b8 1A63     		str	r2, [r3, #48]
 1419 00ba FB68     		ldr	r3, [r7, #12]
 1420 00bc 1B68     		ldr	r3, [r3]
 1421 00be B96A     		ldr	r1, [r7, #40]
 1422 00c0 1846     		mov	r0, r3
 1423 00c2 FFF7FEFF 		bl	SDMMC_CmdWriteSingleBlock
 1424 00c6 F862     		str	r0, [r7, #44]
 1425              	.L89:
 1426 00c8 FB6A     		ldr	r3, [r7, #44]
 1427 00ca 002B     		cmp	r3, #0
 1428 00cc 12D0     		beq	.L90
 1429 00ce FB68     		ldr	r3, [r7, #12]
 1430 00d0 1B68     		ldr	r3, [r3]
 1431 00d2 174A     		ldr	r2, .L92
 1432 00d4 9A63     		str	r2, [r3, #56]
 1433 00d6 FB68     		ldr	r3, [r7, #12]
 1434 00d8 9A6B     		ldr	r2, [r3, #56]
 1435 00da FB6A     		ldr	r3, [r7, #44]
 1436 00dc 1A43     		orrs	r2, r2, r3
 1437 00de FB68     		ldr	r3, [r7, #12]
 1438 00e0 9A63     		str	r2, [r3, #56]
 1439 00e2 FB68     		ldr	r3, [r7, #12]
 1440 00e4 0122     		movs	r2, #1
 1441 00e6 83F83420 		strb	r2, [r3, #52]
 1442 00ea FB68     		ldr	r3, [r7, #12]
ARM GAS  C:\Users\user\AppData\Local\Temp\ccf7Y9kA.s 			page 26


 1443 00ec 0022     		movs	r2, #0
 1444 00ee 1A63     		str	r2, [r3, #48]
 1445 00f0 0123     		movs	r3, #1
 1446 00f2 18E0     		b	.L91
 1447              	.L90:
 1448 00f4 4FF0FF33 		mov	r3, #-1
 1449 00f8 3B61     		str	r3, [r7, #16]
 1450 00fa 3B68     		ldr	r3, [r7]
 1451 00fc 5B02     		lsls	r3, r3, #9
 1452 00fe 7B61     		str	r3, [r7, #20]
 1453 0100 9023     		movs	r3, #144
 1454 0102 BB61     		str	r3, [r7, #24]
 1455 0104 0023     		movs	r3, #0
 1456 0106 FB61     		str	r3, [r7, #28]
 1457 0108 0023     		movs	r3, #0
 1458 010a 3B62     		str	r3, [r7, #32]
 1459 010c 0123     		movs	r3, #1
 1460 010e 7B62     		str	r3, [r7, #36]
 1461 0110 FB68     		ldr	r3, [r7, #12]
 1462 0112 1B68     		ldr	r3, [r3]
 1463 0114 07F11002 		add	r2, r7, #16
 1464 0118 1146     		mov	r1, r2
 1465 011a 1846     		mov	r0, r3
 1466 011c FFF7FEFF 		bl	SDIO_ConfigData
 1467 0120 0023     		movs	r3, #0
 1468 0122 00E0     		b	.L91
 1469              	.L85:
 1470 0124 0223     		movs	r3, #2
 1471              	.L91:
 1472 0126 1846     		mov	r0, r3
 1473 0128 3037     		adds	r7, r7, #48
 1474 012a BD46     		mov	sp, r7
 1475              		@ sp needed
 1476 012c 80BD     		pop	{r7, pc}
 1477              	.L93:
 1478 012e 00BF     		.align	2
 1479              	.L92:
 1480 0130 FF054000 		.word	4195839
 1482              		.section	.text.HAL_SD_ReadBlocks_DMA,"ax",%progbits
 1483              		.align	1
 1484              		.global	HAL_SD_ReadBlocks_DMA
 1485              		.syntax unified
 1486              		.thumb
 1487              		.thumb_func
 1489              	HAL_SD_ReadBlocks_DMA:
 1490              		@ args = 0, pretend = 0, frame = 48
 1491              		@ frame_needed = 1, uses_anonymous_args = 0
 1492 0000 80B5     		push	{r7, lr}
 1493 0002 8CB0     		sub	sp, sp, #48
 1494 0004 00AF     		add	r7, sp, #0
 1495 0006 F860     		str	r0, [r7, #12]
 1496 0008 B960     		str	r1, [r7, #8]
 1497 000a 7A60     		str	r2, [r7, #4]
 1498 000c 3B60     		str	r3, [r7]
 1499 000e 7B68     		ldr	r3, [r7, #4]
 1500 0010 BB62     		str	r3, [r7, #40]
 1501 0012 BB68     		ldr	r3, [r7, #8]
ARM GAS  C:\Users\user\AppData\Local\Temp\ccf7Y9kA.s 			page 27


 1502 0014 002B     		cmp	r3, #0
 1503 0016 07D1     		bne	.L95
 1504 0018 FB68     		ldr	r3, [r7, #12]
 1505 001a 9B6B     		ldr	r3, [r3, #56]
 1506 001c 43F00062 		orr	r2, r3, #134217728
 1507 0020 FB68     		ldr	r3, [r7, #12]
 1508 0022 9A63     		str	r2, [r3, #56]
 1509 0024 0123     		movs	r3, #1
 1510 0026 C0E0     		b	.L104
 1511              	.L95:
 1512 0028 FB68     		ldr	r3, [r7, #12]
 1513 002a 93F83430 		ldrb	r3, [r3, #52]
 1514 002e DBB2     		uxtb	r3, r3
 1515 0030 012B     		cmp	r3, #1
 1516 0032 40F0B980 		bne	.L97
 1517 0036 FB68     		ldr	r3, [r7, #12]
 1518 0038 0022     		movs	r2, #0
 1519 003a 9A63     		str	r2, [r3, #56]
 1520 003c BA6A     		ldr	r2, [r7, #40]
 1521 003e 3B68     		ldr	r3, [r7]
 1522 0040 1A44     		add	r2, r2, r3
 1523 0042 FB68     		ldr	r3, [r7, #12]
 1524 0044 DB6D     		ldr	r3, [r3, #92]
 1525 0046 9A42     		cmp	r2, r3
 1526 0048 07D9     		bls	.L98
 1527 004a FB68     		ldr	r3, [r7, #12]
 1528 004c 9B6B     		ldr	r3, [r3, #56]
 1529 004e 43F00072 		orr	r2, r3, #33554432
 1530 0052 FB68     		ldr	r3, [r7, #12]
 1531 0054 9A63     		str	r2, [r3, #56]
 1532 0056 0123     		movs	r3, #1
 1533 0058 A7E0     		b	.L104
 1534              	.L98:
 1535 005a FB68     		ldr	r3, [r7, #12]
 1536 005c 0322     		movs	r2, #3
 1537 005e 83F83420 		strb	r2, [r3, #52]
 1538 0062 FB68     		ldr	r3, [r7, #12]
 1539 0064 1B68     		ldr	r3, [r3]
 1540 0066 0022     		movs	r2, #0
 1541 0068 DA62     		str	r2, [r3, #44]
 1542 006a FB68     		ldr	r3, [r7, #12]
 1543 006c 1B68     		ldr	r3, [r3]
 1544 006e DB6B     		ldr	r3, [r3, #60]
 1545 0070 FA68     		ldr	r2, [r7, #12]
 1546 0072 1268     		ldr	r2, [r2]
 1547 0074 43F44A73 		orr	r3, r3, #808
 1548 0078 43F00203 		orr	r3, r3, #2
 1549 007c D363     		str	r3, [r2, #60]
 1550 007e FB68     		ldr	r3, [r7, #12]
 1551 0080 1B6C     		ldr	r3, [r3, #64]
 1552 0082 4C4A     		ldr	r2, .L105
 1553 0084 DA63     		str	r2, [r3, #60]
 1554 0086 FB68     		ldr	r3, [r7, #12]
 1555 0088 1B6C     		ldr	r3, [r3, #64]
 1556 008a 4B4A     		ldr	r2, .L105+4
 1557 008c DA64     		str	r2, [r3, #76]
 1558 008e FB68     		ldr	r3, [r7, #12]
ARM GAS  C:\Users\user\AppData\Local\Temp\ccf7Y9kA.s 			page 28


 1559 0090 1B6C     		ldr	r3, [r3, #64]
 1560 0092 0022     		movs	r2, #0
 1561 0094 1A65     		str	r2, [r3, #80]
 1562 0096 FB68     		ldr	r3, [r7, #12]
 1563 0098 1B6C     		ldr	r3, [r3, #64]
 1564 009a 0022     		movs	r2, #0
 1565 009c 9A60     		str	r2, [r3, #8]
 1566 009e FB68     		ldr	r3, [r7, #12]
 1567 00a0 1B6C     		ldr	r3, [r3, #64]
 1568 00a2 1B68     		ldr	r3, [r3]
 1569 00a4 1B68     		ldr	r3, [r3]
 1570 00a6 23F0C001 		bic	r1, r3, #192
 1571 00aa FB68     		ldr	r3, [r7, #12]
 1572 00ac 1B6C     		ldr	r3, [r3, #64]
 1573 00ae 9A68     		ldr	r2, [r3, #8]
 1574 00b0 FB68     		ldr	r3, [r7, #12]
 1575 00b2 1B6C     		ldr	r3, [r3, #64]
 1576 00b4 1B68     		ldr	r3, [r3]
 1577 00b6 0A43     		orrs	r2, r2, r1
 1578 00b8 1A60     		str	r2, [r3]
 1579 00ba FB68     		ldr	r3, [r7, #12]
 1580 00bc 186C     		ldr	r0, [r3, #64]
 1581 00be FB68     		ldr	r3, [r7, #12]
 1582 00c0 1B68     		ldr	r3, [r3]
 1583 00c2 8033     		adds	r3, r3, #128
 1584 00c4 1946     		mov	r1, r3
 1585 00c6 BA68     		ldr	r2, [r7, #8]
 1586 00c8 3B68     		ldr	r3, [r7]
 1587 00ca 5B02     		lsls	r3, r3, #9
 1588 00cc 9B08     		lsrs	r3, r3, #2
 1589 00ce FFF7FEFF 		bl	HAL_DMA_Start_IT
 1590 00d2 0346     		mov	r3, r0
 1591 00d4 002B     		cmp	r3, #0
 1592 00d6 17D0     		beq	.L99
 1593 00d8 FB68     		ldr	r3, [r7, #12]
 1594 00da 1B68     		ldr	r3, [r3]
 1595 00dc DA6B     		ldr	r2, [r3, #60]
 1596 00de FB68     		ldr	r3, [r7, #12]
 1597 00e0 1B68     		ldr	r3, [r3]
 1598 00e2 22F49572 		bic	r2, r2, #298
 1599 00e6 DA63     		str	r2, [r3, #60]
 1600 00e8 FB68     		ldr	r3, [r7, #12]
 1601 00ea 1B68     		ldr	r3, [r3]
 1602 00ec 334A     		ldr	r2, .L105+8
 1603 00ee 9A63     		str	r2, [r3, #56]
 1604 00f0 FB68     		ldr	r3, [r7, #12]
 1605 00f2 9B6B     		ldr	r3, [r3, #56]
 1606 00f4 43F08042 		orr	r2, r3, #1073741824
 1607 00f8 FB68     		ldr	r3, [r7, #12]
 1608 00fa 9A63     		str	r2, [r3, #56]
 1609 00fc FB68     		ldr	r3, [r7, #12]
 1610 00fe 0122     		movs	r2, #1
 1611 0100 83F83420 		strb	r2, [r3, #52]
 1612 0104 0123     		movs	r3, #1
 1613 0106 50E0     		b	.L104
 1614              	.L99:
 1615 0108 2D4B     		ldr	r3, .L105+12
ARM GAS  C:\Users\user\AppData\Local\Temp\ccf7Y9kA.s 			page 29


 1616 010a 0122     		movs	r2, #1
 1617 010c 1A60     		str	r2, [r3]
 1618 010e FB68     		ldr	r3, [r7, #12]
 1619 0110 5B6C     		ldr	r3, [r3, #68]
 1620 0112 012B     		cmp	r3, #1
 1621 0114 02D0     		beq	.L100
 1622 0116 BB6A     		ldr	r3, [r7, #40]
 1623 0118 5B02     		lsls	r3, r3, #9
 1624 011a BB62     		str	r3, [r7, #40]
 1625              	.L100:
 1626 011c 4FF0FF33 		mov	r3, #-1
 1627 0120 3B61     		str	r3, [r7, #16]
 1628 0122 3B68     		ldr	r3, [r7]
 1629 0124 5B02     		lsls	r3, r3, #9
 1630 0126 7B61     		str	r3, [r7, #20]
 1631 0128 9023     		movs	r3, #144
 1632 012a BB61     		str	r3, [r7, #24]
 1633 012c 0223     		movs	r3, #2
 1634 012e FB61     		str	r3, [r7, #28]
 1635 0130 0023     		movs	r3, #0
 1636 0132 3B62     		str	r3, [r7, #32]
 1637 0134 0123     		movs	r3, #1
 1638 0136 7B62     		str	r3, [r7, #36]
 1639 0138 FB68     		ldr	r3, [r7, #12]
 1640 013a 1B68     		ldr	r3, [r3]
 1641 013c 07F11002 		add	r2, r7, #16
 1642 0140 1146     		mov	r1, r2
 1643 0142 1846     		mov	r0, r3
 1644 0144 FFF7FEFF 		bl	SDIO_ConfigData
 1645 0148 3B68     		ldr	r3, [r7]
 1646 014a 012B     		cmp	r3, #1
 1647 014c 0AD9     		bls	.L101
 1648 014e FB68     		ldr	r3, [r7, #12]
 1649 0150 8222     		movs	r2, #130
 1650 0152 1A63     		str	r2, [r3, #48]
 1651 0154 FB68     		ldr	r3, [r7, #12]
 1652 0156 1B68     		ldr	r3, [r3]
 1653 0158 B96A     		ldr	r1, [r7, #40]
 1654 015a 1846     		mov	r0, r3
 1655 015c FFF7FEFF 		bl	SDMMC_CmdReadMultiBlock
 1656 0160 F862     		str	r0, [r7, #44]
 1657 0162 09E0     		b	.L102
 1658              	.L101:
 1659 0164 FB68     		ldr	r3, [r7, #12]
 1660 0166 8122     		movs	r2, #129
 1661 0168 1A63     		str	r2, [r3, #48]
 1662 016a FB68     		ldr	r3, [r7, #12]
 1663 016c 1B68     		ldr	r3, [r3]
 1664 016e B96A     		ldr	r1, [r7, #40]
 1665 0170 1846     		mov	r0, r3
 1666 0172 FFF7FEFF 		bl	SDMMC_CmdReadSingleBlock
 1667 0176 F862     		str	r0, [r7, #44]
 1668              	.L102:
 1669 0178 FB6A     		ldr	r3, [r7, #44]
 1670 017a 002B     		cmp	r3, #0
 1671 017c 12D0     		beq	.L103
 1672 017e FB68     		ldr	r3, [r7, #12]
ARM GAS  C:\Users\user\AppData\Local\Temp\ccf7Y9kA.s 			page 30


 1673 0180 1B68     		ldr	r3, [r3]
 1674 0182 0E4A     		ldr	r2, .L105+8
 1675 0184 9A63     		str	r2, [r3, #56]
 1676 0186 FB68     		ldr	r3, [r7, #12]
 1677 0188 9A6B     		ldr	r2, [r3, #56]
 1678 018a FB6A     		ldr	r3, [r7, #44]
 1679 018c 1A43     		orrs	r2, r2, r3
 1680 018e FB68     		ldr	r3, [r7, #12]
 1681 0190 9A63     		str	r2, [r3, #56]
 1682 0192 FB68     		ldr	r3, [r7, #12]
 1683 0194 0122     		movs	r2, #1
 1684 0196 83F83420 		strb	r2, [r3, #52]
 1685 019a FB68     		ldr	r3, [r7, #12]
 1686 019c 0022     		movs	r2, #0
 1687 019e 1A63     		str	r2, [r3, #48]
 1688 01a0 0123     		movs	r3, #1
 1689 01a2 02E0     		b	.L104
 1690              	.L103:
 1691 01a4 0023     		movs	r3, #0
 1692 01a6 00E0     		b	.L104
 1693              	.L97:
 1694 01a8 0223     		movs	r3, #2
 1695              	.L104:
 1696 01aa 1846     		mov	r0, r3
 1697 01ac 3037     		adds	r7, r7, #48
 1698 01ae BD46     		mov	sp, r7
 1699              		@ sp needed
 1700 01b0 80BD     		pop	{r7, pc}
 1701              	.L106:
 1702 01b2 00BF     		.align	2
 1703              	.L105:
 1704 01b4 00000000 		.word	SD_DMAReceiveCplt
 1705 01b8 00000000 		.word	SD_DMAError
 1706 01bc FF054000 		.word	4195839
 1707 01c0 8C852542 		.word	1109755276
 1709              		.section	.text.HAL_SD_WriteBlocks_DMA,"ax",%progbits
 1710              		.align	1
 1711              		.global	HAL_SD_WriteBlocks_DMA
 1712              		.syntax unified
 1713              		.thumb
 1714              		.thumb_func
 1716              	HAL_SD_WriteBlocks_DMA:
 1717              		@ args = 0, pretend = 0, frame = 48
 1718              		@ frame_needed = 1, uses_anonymous_args = 0
 1719 0000 80B5     		push	{r7, lr}
 1720 0002 8CB0     		sub	sp, sp, #48
 1721 0004 00AF     		add	r7, sp, #0
 1722 0006 F860     		str	r0, [r7, #12]
 1723 0008 B960     		str	r1, [r7, #8]
 1724 000a 7A60     		str	r2, [r7, #4]
 1725 000c 3B60     		str	r3, [r7]
 1726 000e 7B68     		ldr	r3, [r7, #4]
 1727 0010 BB62     		str	r3, [r7, #40]
 1728 0012 BB68     		ldr	r3, [r7, #8]
 1729 0014 002B     		cmp	r3, #0
 1730 0016 07D1     		bne	.L108
 1731 0018 FB68     		ldr	r3, [r7, #12]
ARM GAS  C:\Users\user\AppData\Local\Temp\ccf7Y9kA.s 			page 31


 1732 001a 9B6B     		ldr	r3, [r3, #56]
 1733 001c 43F00062 		orr	r2, r3, #134217728
 1734 0020 FB68     		ldr	r3, [r7, #12]
 1735 0022 9A63     		str	r2, [r3, #56]
 1736 0024 0123     		movs	r3, #1
 1737 0026 C5E0     		b	.L117
 1738              	.L108:
 1739 0028 FB68     		ldr	r3, [r7, #12]
 1740 002a 93F83430 		ldrb	r3, [r3, #52]
 1741 002e DBB2     		uxtb	r3, r3
 1742 0030 012B     		cmp	r3, #1
 1743 0032 40F0BE80 		bne	.L110
 1744 0036 FB68     		ldr	r3, [r7, #12]
 1745 0038 0022     		movs	r2, #0
 1746 003a 9A63     		str	r2, [r3, #56]
 1747 003c BA6A     		ldr	r2, [r7, #40]
 1748 003e 3B68     		ldr	r3, [r7]
 1749 0040 1A44     		add	r2, r2, r3
 1750 0042 FB68     		ldr	r3, [r7, #12]
 1751 0044 DB6D     		ldr	r3, [r3, #92]
 1752 0046 9A42     		cmp	r2, r3
 1753 0048 07D9     		bls	.L111
 1754 004a FB68     		ldr	r3, [r7, #12]
 1755 004c 9B6B     		ldr	r3, [r3, #56]
 1756 004e 43F00072 		orr	r2, r3, #33554432
 1757 0052 FB68     		ldr	r3, [r7, #12]
 1758 0054 9A63     		str	r2, [r3, #56]
 1759 0056 0123     		movs	r3, #1
 1760 0058 ACE0     		b	.L117
 1761              	.L111:
 1762 005a FB68     		ldr	r3, [r7, #12]
 1763 005c 0322     		movs	r2, #3
 1764 005e 83F83420 		strb	r2, [r3, #52]
 1765 0062 FB68     		ldr	r3, [r7, #12]
 1766 0064 1B68     		ldr	r3, [r3]
 1767 0066 0022     		movs	r2, #0
 1768 0068 DA62     		str	r2, [r3, #44]
 1769 006a FB68     		ldr	r3, [r7, #12]
 1770 006c 1B68     		ldr	r3, [r3]
 1771 006e DB6B     		ldr	r3, [r3, #60]
 1772 0070 FA68     		ldr	r2, [r7, #12]
 1773 0072 1268     		ldr	r2, [r2]
 1774 0074 43F40673 		orr	r3, r3, #536
 1775 0078 43F00203 		orr	r3, r3, #2
 1776 007c D363     		str	r3, [r2, #60]
 1777 007e FB68     		ldr	r3, [r7, #12]
 1778 0080 DB6B     		ldr	r3, [r3, #60]
 1779 0082 4E4A     		ldr	r2, .L118
 1780 0084 DA63     		str	r2, [r3, #60]
 1781 0086 FB68     		ldr	r3, [r7, #12]
 1782 0088 DB6B     		ldr	r3, [r3, #60]
 1783 008a 4D4A     		ldr	r2, .L118+4
 1784 008c DA64     		str	r2, [r3, #76]
 1785 008e FB68     		ldr	r3, [r7, #12]
 1786 0090 DB6B     		ldr	r3, [r3, #60]
 1787 0092 0022     		movs	r2, #0
 1788 0094 1A65     		str	r2, [r3, #80]
ARM GAS  C:\Users\user\AppData\Local\Temp\ccf7Y9kA.s 			page 32


 1789 0096 FB68     		ldr	r3, [r7, #12]
 1790 0098 5B6C     		ldr	r3, [r3, #68]
 1791 009a 012B     		cmp	r3, #1
 1792 009c 02D0     		beq	.L112
 1793 009e BB6A     		ldr	r3, [r7, #40]
 1794 00a0 5B02     		lsls	r3, r3, #9
 1795 00a2 BB62     		str	r3, [r7, #40]
 1796              	.L112:
 1797 00a4 3B68     		ldr	r3, [r7]
 1798 00a6 012B     		cmp	r3, #1
 1799 00a8 0AD9     		bls	.L113
 1800 00aa FB68     		ldr	r3, [r7, #12]
 1801 00ac A022     		movs	r2, #160
 1802 00ae 1A63     		str	r2, [r3, #48]
 1803 00b0 FB68     		ldr	r3, [r7, #12]
 1804 00b2 1B68     		ldr	r3, [r3]
 1805 00b4 B96A     		ldr	r1, [r7, #40]
 1806 00b6 1846     		mov	r0, r3
 1807 00b8 FFF7FEFF 		bl	SDMMC_CmdWriteMultiBlock
 1808 00bc F862     		str	r0, [r7, #44]
 1809 00be 09E0     		b	.L114
 1810              	.L113:
 1811 00c0 FB68     		ldr	r3, [r7, #12]
 1812 00c2 9022     		movs	r2, #144
 1813 00c4 1A63     		str	r2, [r3, #48]
 1814 00c6 FB68     		ldr	r3, [r7, #12]
 1815 00c8 1B68     		ldr	r3, [r3]
 1816 00ca B96A     		ldr	r1, [r7, #40]
 1817 00cc 1846     		mov	r0, r3
 1818 00ce FFF7FEFF 		bl	SDMMC_CmdWriteSingleBlock
 1819 00d2 F862     		str	r0, [r7, #44]
 1820              	.L114:
 1821 00d4 FB6A     		ldr	r3, [r7, #44]
 1822 00d6 002B     		cmp	r3, #0
 1823 00d8 12D0     		beq	.L115
 1824 00da FB68     		ldr	r3, [r7, #12]
 1825 00dc 1B68     		ldr	r3, [r3]
 1826 00de 394A     		ldr	r2, .L118+8
 1827 00e0 9A63     		str	r2, [r3, #56]
 1828 00e2 FB68     		ldr	r3, [r7, #12]
 1829 00e4 9A6B     		ldr	r2, [r3, #56]
 1830 00e6 FB6A     		ldr	r3, [r7, #44]
 1831 00e8 1A43     		orrs	r2, r2, r3
 1832 00ea FB68     		ldr	r3, [r7, #12]
 1833 00ec 9A63     		str	r2, [r3, #56]
 1834 00ee FB68     		ldr	r3, [r7, #12]
 1835 00f0 0122     		movs	r2, #1
 1836 00f2 83F83420 		strb	r2, [r3, #52]
 1837 00f6 FB68     		ldr	r3, [r7, #12]
 1838 00f8 0022     		movs	r2, #0
 1839 00fa 1A63     		str	r2, [r3, #48]
 1840 00fc 0123     		movs	r3, #1
 1841 00fe 59E0     		b	.L117
 1842              	.L115:
 1843 0100 314B     		ldr	r3, .L118+12
 1844 0102 0122     		movs	r2, #1
 1845 0104 1A60     		str	r2, [r3]
ARM GAS  C:\Users\user\AppData\Local\Temp\ccf7Y9kA.s 			page 33


 1846 0106 FB68     		ldr	r3, [r7, #12]
 1847 0108 DB6B     		ldr	r3, [r3, #60]
 1848 010a 4022     		movs	r2, #64
 1849 010c 9A60     		str	r2, [r3, #8]
 1850 010e FB68     		ldr	r3, [r7, #12]
 1851 0110 DB6B     		ldr	r3, [r3, #60]
 1852 0112 1B68     		ldr	r3, [r3]
 1853 0114 1B68     		ldr	r3, [r3]
 1854 0116 23F0C001 		bic	r1, r3, #192
 1855 011a FB68     		ldr	r3, [r7, #12]
 1856 011c DB6B     		ldr	r3, [r3, #60]
 1857 011e 9A68     		ldr	r2, [r3, #8]
 1858 0120 FB68     		ldr	r3, [r7, #12]
 1859 0122 DB6B     		ldr	r3, [r3, #60]
 1860 0124 1B68     		ldr	r3, [r3]
 1861 0126 0A43     		orrs	r2, r2, r1
 1862 0128 1A60     		str	r2, [r3]
 1863 012a FB68     		ldr	r3, [r7, #12]
 1864 012c D86B     		ldr	r0, [r3, #60]
 1865 012e B968     		ldr	r1, [r7, #8]
 1866 0130 FB68     		ldr	r3, [r7, #12]
 1867 0132 1B68     		ldr	r3, [r3]
 1868 0134 8033     		adds	r3, r3, #128
 1869 0136 1A46     		mov	r2, r3
 1870 0138 3B68     		ldr	r3, [r7]
 1871 013a 5B02     		lsls	r3, r3, #9
 1872 013c 9B08     		lsrs	r3, r3, #2
 1873 013e FFF7FEFF 		bl	HAL_DMA_Start_IT
 1874 0142 0346     		mov	r3, r0
 1875 0144 002B     		cmp	r3, #0
 1876 0146 1CD0     		beq	.L116
 1877 0148 FB68     		ldr	r3, [r7, #12]
 1878 014a 1B68     		ldr	r3, [r3]
 1879 014c DB6B     		ldr	r3, [r3, #60]
 1880 014e FA68     		ldr	r2, [r7, #12]
 1881 0150 1268     		ldr	r2, [r2]
 1882 0152 23F40673 		bic	r3, r3, #536
 1883 0156 23F00203 		bic	r3, r3, #2
 1884 015a D363     		str	r3, [r2, #60]
 1885 015c FB68     		ldr	r3, [r7, #12]
 1886 015e 1B68     		ldr	r3, [r3]
 1887 0160 184A     		ldr	r2, .L118+8
 1888 0162 9A63     		str	r2, [r3, #56]
 1889 0164 FB68     		ldr	r3, [r7, #12]
 1890 0166 9B6B     		ldr	r3, [r3, #56]
 1891 0168 43F08042 		orr	r2, r3, #1073741824
 1892 016c FB68     		ldr	r3, [r7, #12]
 1893 016e 9A63     		str	r2, [r3, #56]
 1894 0170 FB68     		ldr	r3, [r7, #12]
 1895 0172 0122     		movs	r2, #1
 1896 0174 83F83420 		strb	r2, [r3, #52]
 1897 0178 FB68     		ldr	r3, [r7, #12]
 1898 017a 0022     		movs	r2, #0
 1899 017c 1A63     		str	r2, [r3, #48]
 1900 017e 0123     		movs	r3, #1
 1901 0180 18E0     		b	.L117
 1902              	.L116:
ARM GAS  C:\Users\user\AppData\Local\Temp\ccf7Y9kA.s 			page 34


 1903 0182 4FF0FF33 		mov	r3, #-1
 1904 0186 3B61     		str	r3, [r7, #16]
 1905 0188 3B68     		ldr	r3, [r7]
 1906 018a 5B02     		lsls	r3, r3, #9
 1907 018c 7B61     		str	r3, [r7, #20]
 1908 018e 9023     		movs	r3, #144
 1909 0190 BB61     		str	r3, [r7, #24]
 1910 0192 0023     		movs	r3, #0
 1911 0194 FB61     		str	r3, [r7, #28]
 1912 0196 0023     		movs	r3, #0
 1913 0198 3B62     		str	r3, [r7, #32]
 1914 019a 0123     		movs	r3, #1
 1915 019c 7B62     		str	r3, [r7, #36]
 1916 019e FB68     		ldr	r3, [r7, #12]
 1917 01a0 1B68     		ldr	r3, [r3]
 1918 01a2 07F11002 		add	r2, r7, #16
 1919 01a6 1146     		mov	r1, r2
 1920 01a8 1846     		mov	r0, r3
 1921 01aa FFF7FEFF 		bl	SDIO_ConfigData
 1922 01ae 0023     		movs	r3, #0
 1923 01b0 00E0     		b	.L117
 1924              	.L110:
 1925 01b2 0223     		movs	r3, #2
 1926              	.L117:
 1927 01b4 1846     		mov	r0, r3
 1928 01b6 3037     		adds	r7, r7, #48
 1929 01b8 BD46     		mov	sp, r7
 1930              		@ sp needed
 1931 01ba 80BD     		pop	{r7, pc}
 1932              	.L119:
 1933              		.align	2
 1934              	.L118:
 1935 01bc 00000000 		.word	SD_DMATransmitCplt
 1936 01c0 00000000 		.word	SD_DMAError
 1937 01c4 FF054000 		.word	4195839
 1938 01c8 8C852542 		.word	1109755276
 1940              		.section	.text.HAL_SD_Erase,"ax",%progbits
 1941              		.align	1
 1942              		.global	HAL_SD_Erase
 1943              		.syntax unified
 1944              		.thumb
 1945              		.thumb_func
 1947              	HAL_SD_Erase:
 1948              		@ args = 0, pretend = 0, frame = 32
 1949              		@ frame_needed = 1, uses_anonymous_args = 0
 1950 0000 80B5     		push	{r7, lr}
 1951 0002 88B0     		sub	sp, sp, #32
 1952 0004 00AF     		add	r7, sp, #0
 1953 0006 F860     		str	r0, [r7, #12]
 1954 0008 B960     		str	r1, [r7, #8]
 1955 000a 7A60     		str	r2, [r7, #4]
 1956 000c BB68     		ldr	r3, [r7, #8]
 1957 000e FB61     		str	r3, [r7, #28]
 1958 0010 7B68     		ldr	r3, [r7, #4]
 1959 0012 BB61     		str	r3, [r7, #24]
 1960 0014 FB68     		ldr	r3, [r7, #12]
 1961 0016 93F83430 		ldrb	r3, [r3, #52]
ARM GAS  C:\Users\user\AppData\Local\Temp\ccf7Y9kA.s 			page 35


 1962 001a DBB2     		uxtb	r3, r3
 1963 001c 012B     		cmp	r3, #1
 1964 001e 40F0B380 		bne	.L121
 1965 0022 FB68     		ldr	r3, [r7, #12]
 1966 0024 0022     		movs	r2, #0
 1967 0026 9A63     		str	r2, [r3, #56]
 1968 0028 BA69     		ldr	r2, [r7, #24]
 1969 002a FB69     		ldr	r3, [r7, #28]
 1970 002c 9A42     		cmp	r2, r3
 1971 002e 07D2     		bcs	.L122
 1972 0030 FB68     		ldr	r3, [r7, #12]
 1973 0032 9B6B     		ldr	r3, [r3, #56]
 1974 0034 43F00062 		orr	r2, r3, #134217728
 1975 0038 FB68     		ldr	r3, [r7, #12]
 1976 003a 9A63     		str	r2, [r3, #56]
 1977 003c 0123     		movs	r3, #1
 1978 003e A4E0     		b	.L123
 1979              	.L122:
 1980 0040 FB68     		ldr	r3, [r7, #12]
 1981 0042 DB6D     		ldr	r3, [r3, #92]
 1982 0044 BA69     		ldr	r2, [r7, #24]
 1983 0046 9A42     		cmp	r2, r3
 1984 0048 07D9     		bls	.L124
 1985 004a FB68     		ldr	r3, [r7, #12]
 1986 004c 9B6B     		ldr	r3, [r3, #56]
 1987 004e 43F00072 		orr	r2, r3, #33554432
 1988 0052 FB68     		ldr	r3, [r7, #12]
 1989 0054 9A63     		str	r2, [r3, #56]
 1990 0056 0123     		movs	r3, #1
 1991 0058 97E0     		b	.L123
 1992              	.L124:
 1993 005a FB68     		ldr	r3, [r7, #12]
 1994 005c 0322     		movs	r2, #3
 1995 005e 83F83420 		strb	r2, [r3, #52]
 1996 0062 FB68     		ldr	r3, [r7, #12]
 1997 0064 DB6C     		ldr	r3, [r3, #76]
 1998 0066 03F02003 		and	r3, r3, #32
 1999 006a 002B     		cmp	r3, #0
 2000 006c 0FD1     		bne	.L125
 2001 006e FB68     		ldr	r3, [r7, #12]
 2002 0070 1B68     		ldr	r3, [r3]
 2003 0072 484A     		ldr	r2, .L131
 2004 0074 9A63     		str	r2, [r3, #56]
 2005 0076 FB68     		ldr	r3, [r7, #12]
 2006 0078 9B6B     		ldr	r3, [r3, #56]
 2007 007a 43F08062 		orr	r2, r3, #67108864
 2008 007e FB68     		ldr	r3, [r7, #12]
 2009 0080 9A63     		str	r2, [r3, #56]
 2010 0082 FB68     		ldr	r3, [r7, #12]
 2011 0084 0122     		movs	r2, #1
 2012 0086 83F83420 		strb	r2, [r3, #52]
 2013 008a 0123     		movs	r3, #1
 2014 008c 7DE0     		b	.L123
 2015              	.L125:
 2016 008e FB68     		ldr	r3, [r7, #12]
 2017 0090 1B68     		ldr	r3, [r3]
 2018 0092 0021     		movs	r1, #0
ARM GAS  C:\Users\user\AppData\Local\Temp\ccf7Y9kA.s 			page 36


 2019 0094 1846     		mov	r0, r3
 2020 0096 FFF7FEFF 		bl	SDIO_GetResponse
 2021 009a 0346     		mov	r3, r0
 2022 009c 03F00073 		and	r3, r3, #33554432
 2023 00a0 B3F1007F 		cmp	r3, #33554432
 2024 00a4 0FD1     		bne	.L126
 2025 00a6 FB68     		ldr	r3, [r7, #12]
 2026 00a8 1B68     		ldr	r3, [r3]
 2027 00aa 3A4A     		ldr	r2, .L131
 2028 00ac 9A63     		str	r2, [r3, #56]
 2029 00ae FB68     		ldr	r3, [r7, #12]
 2030 00b0 9B6B     		ldr	r3, [r3, #56]
 2031 00b2 43F40062 		orr	r2, r3, #2048
 2032 00b6 FB68     		ldr	r3, [r7, #12]
 2033 00b8 9A63     		str	r2, [r3, #56]
 2034 00ba FB68     		ldr	r3, [r7, #12]
 2035 00bc 0122     		movs	r2, #1
 2036 00be 83F83420 		strb	r2, [r3, #52]
 2037 00c2 0123     		movs	r3, #1
 2038 00c4 61E0     		b	.L123
 2039              	.L126:
 2040 00c6 FB68     		ldr	r3, [r7, #12]
 2041 00c8 5B6C     		ldr	r3, [r3, #68]
 2042 00ca 012B     		cmp	r3, #1
 2043 00cc 05D0     		beq	.L127
 2044 00ce FB69     		ldr	r3, [r7, #28]
 2045 00d0 5B02     		lsls	r3, r3, #9
 2046 00d2 FB61     		str	r3, [r7, #28]
 2047 00d4 BB69     		ldr	r3, [r7, #24]
 2048 00d6 5B02     		lsls	r3, r3, #9
 2049 00d8 BB61     		str	r3, [r7, #24]
 2050              	.L127:
 2051 00da FB68     		ldr	r3, [r7, #12]
 2052 00dc 5B6C     		ldr	r3, [r3, #68]
 2053 00de 032B     		cmp	r3, #3
 2054 00e0 33D0     		beq	.L128
 2055 00e2 FB68     		ldr	r3, [r7, #12]
 2056 00e4 1B68     		ldr	r3, [r3]
 2057 00e6 F969     		ldr	r1, [r7, #28]
 2058 00e8 1846     		mov	r0, r3
 2059 00ea FFF7FEFF 		bl	SDMMC_CmdSDEraseStartAdd
 2060 00ee 7861     		str	r0, [r7, #20]
 2061 00f0 7B69     		ldr	r3, [r7, #20]
 2062 00f2 002B     		cmp	r3, #0
 2063 00f4 0FD0     		beq	.L129
 2064 00f6 FB68     		ldr	r3, [r7, #12]
 2065 00f8 1B68     		ldr	r3, [r3]
 2066 00fa 264A     		ldr	r2, .L131
 2067 00fc 9A63     		str	r2, [r3, #56]
 2068 00fe FB68     		ldr	r3, [r7, #12]
 2069 0100 9A6B     		ldr	r2, [r3, #56]
 2070 0102 7B69     		ldr	r3, [r7, #20]
 2071 0104 1A43     		orrs	r2, r2, r3
 2072 0106 FB68     		ldr	r3, [r7, #12]
 2073 0108 9A63     		str	r2, [r3, #56]
 2074 010a FB68     		ldr	r3, [r7, #12]
 2075 010c 0122     		movs	r2, #1
ARM GAS  C:\Users\user\AppData\Local\Temp\ccf7Y9kA.s 			page 37


 2076 010e 83F83420 		strb	r2, [r3, #52]
 2077 0112 0123     		movs	r3, #1
 2078 0114 39E0     		b	.L123
 2079              	.L129:
 2080 0116 FB68     		ldr	r3, [r7, #12]
 2081 0118 1B68     		ldr	r3, [r3]
 2082 011a B969     		ldr	r1, [r7, #24]
 2083 011c 1846     		mov	r0, r3
 2084 011e FFF7FEFF 		bl	SDMMC_CmdSDEraseEndAdd
 2085 0122 7861     		str	r0, [r7, #20]
 2086 0124 7B69     		ldr	r3, [r7, #20]
 2087 0126 002B     		cmp	r3, #0
 2088 0128 0FD0     		beq	.L128
 2089 012a FB68     		ldr	r3, [r7, #12]
 2090 012c 1B68     		ldr	r3, [r3]
 2091 012e 194A     		ldr	r2, .L131
 2092 0130 9A63     		str	r2, [r3, #56]
 2093 0132 FB68     		ldr	r3, [r7, #12]
 2094 0134 9A6B     		ldr	r2, [r3, #56]
 2095 0136 7B69     		ldr	r3, [r7, #20]
 2096 0138 1A43     		orrs	r2, r2, r3
 2097 013a FB68     		ldr	r3, [r7, #12]
 2098 013c 9A63     		str	r2, [r3, #56]
 2099 013e FB68     		ldr	r3, [r7, #12]
 2100 0140 0122     		movs	r2, #1
 2101 0142 83F83420 		strb	r2, [r3, #52]
 2102 0146 0123     		movs	r3, #1
 2103 0148 1FE0     		b	.L123
 2104              	.L128:
 2105 014a FB68     		ldr	r3, [r7, #12]
 2106 014c 1B68     		ldr	r3, [r3]
 2107 014e 1846     		mov	r0, r3
 2108 0150 FFF7FEFF 		bl	SDMMC_CmdErase
 2109 0154 7861     		str	r0, [r7, #20]
 2110 0156 7B69     		ldr	r3, [r7, #20]
 2111 0158 002B     		cmp	r3, #0
 2112 015a 0FD0     		beq	.L130
 2113 015c FB68     		ldr	r3, [r7, #12]
 2114 015e 1B68     		ldr	r3, [r3]
 2115 0160 0C4A     		ldr	r2, .L131
 2116 0162 9A63     		str	r2, [r3, #56]
 2117 0164 FB68     		ldr	r3, [r7, #12]
 2118 0166 9A6B     		ldr	r2, [r3, #56]
 2119 0168 7B69     		ldr	r3, [r7, #20]
 2120 016a 1A43     		orrs	r2, r2, r3
 2121 016c FB68     		ldr	r3, [r7, #12]
 2122 016e 9A63     		str	r2, [r3, #56]
 2123 0170 FB68     		ldr	r3, [r7, #12]
 2124 0172 0122     		movs	r2, #1
 2125 0174 83F83420 		strb	r2, [r3, #52]
 2126 0178 0123     		movs	r3, #1
 2127 017a 06E0     		b	.L123
 2128              	.L130:
 2129 017c FB68     		ldr	r3, [r7, #12]
 2130 017e 0122     		movs	r2, #1
 2131 0180 83F83420 		strb	r2, [r3, #52]
 2132 0184 0023     		movs	r3, #0
ARM GAS  C:\Users\user\AppData\Local\Temp\ccf7Y9kA.s 			page 38


 2133 0186 00E0     		b	.L123
 2134              	.L121:
 2135 0188 0223     		movs	r3, #2
 2136              	.L123:
 2137 018a 1846     		mov	r0, r3
 2138 018c 2037     		adds	r7, r7, #32
 2139 018e BD46     		mov	sp, r7
 2140              		@ sp needed
 2141 0190 80BD     		pop	{r7, pc}
 2142              	.L132:
 2143 0192 00BF     		.align	2
 2144              	.L131:
 2145 0194 FF054000 		.word	4195839
 2147              		.section	.text.HAL_SD_IRQHandler,"ax",%progbits
 2148              		.align	1
 2149              		.global	HAL_SD_IRQHandler
 2150              		.syntax unified
 2151              		.thumb
 2152              		.thumb_func
 2154              	HAL_SD_IRQHandler:
 2155              		@ args = 0, pretend = 0, frame = 16
 2156              		@ frame_needed = 1, uses_anonymous_args = 0
 2157 0000 80B5     		push	{r7, lr}
 2158 0002 84B0     		sub	sp, sp, #16
 2159 0004 00AF     		add	r7, sp, #0
 2160 0006 7860     		str	r0, [r7, #4]
 2161 0008 7B68     		ldr	r3, [r7, #4]
 2162 000a 1B6B     		ldr	r3, [r3, #48]
 2163 000c FB60     		str	r3, [r7, #12]
 2164 000e 7B68     		ldr	r3, [r7, #4]
 2165 0010 1B68     		ldr	r3, [r3]
 2166 0012 5B6B     		ldr	r3, [r3, #52]
 2167 0014 03F40043 		and	r3, r3, #32768
 2168 0018 002B     		cmp	r3, #0
 2169 001a 08D0     		beq	.L134
 2170 001c FB68     		ldr	r3, [r7, #12]
 2171 001e 03F00803 		and	r3, r3, #8
 2172 0022 002B     		cmp	r3, #0
 2173 0024 03D0     		beq	.L134
 2174 0026 7868     		ldr	r0, [r7, #4]
 2175 0028 FFF7FEFF 		bl	SD_Read_IT
 2176 002c 65E1     		b	.L135
 2177              	.L134:
 2178 002e 7B68     		ldr	r3, [r7, #4]
 2179 0030 1B68     		ldr	r3, [r3]
 2180 0032 5B6B     		ldr	r3, [r3, #52]
 2181 0034 03F48073 		and	r3, r3, #256
 2182 0038 002B     		cmp	r3, #0
 2183 003a 00F08F80 		beq	.L136
 2184 003e 7B68     		ldr	r3, [r7, #4]
 2185 0040 1B68     		ldr	r3, [r3]
 2186 0042 4FF48072 		mov	r2, #256
 2187 0046 9A63     		str	r2, [r3, #56]
 2188 0048 7B68     		ldr	r3, [r7, #4]
 2189 004a 1B68     		ldr	r3, [r3]
 2190 004c DB6B     		ldr	r3, [r3, #60]
 2191 004e 7A68     		ldr	r2, [r7, #4]
ARM GAS  C:\Users\user\AppData\Local\Temp\ccf7Y9kA.s 			page 39


 2192 0050 1268     		ldr	r2, [r2]
 2193 0052 23F44343 		bic	r3, r3, #49920
 2194 0056 23F03A03 		bic	r3, r3, #58
 2195 005a D363     		str	r3, [r2, #60]
 2196 005c 7B68     		ldr	r3, [r7, #4]
 2197 005e 1B68     		ldr	r3, [r3]
 2198 0060 DA6A     		ldr	r2, [r3, #44]
 2199 0062 7B68     		ldr	r3, [r7, #4]
 2200 0064 1B68     		ldr	r3, [r3]
 2201 0066 22F00102 		bic	r2, r2, #1
 2202 006a DA62     		str	r2, [r3, #44]
 2203 006c FB68     		ldr	r3, [r7, #12]
 2204 006e 03F00803 		and	r3, r3, #8
 2205 0072 002B     		cmp	r3, #0
 2206 0074 39D0     		beq	.L137
 2207 0076 FB68     		ldr	r3, [r7, #12]
 2208 0078 03F00203 		and	r3, r3, #2
 2209 007c 002B     		cmp	r3, #0
 2210 007e 04D1     		bne	.L138
 2211 0080 FB68     		ldr	r3, [r7, #12]
 2212 0082 03F02003 		and	r3, r3, #32
 2213 0086 002B     		cmp	r3, #0
 2214 0088 11D0     		beq	.L139
 2215              	.L138:
 2216 008a 7B68     		ldr	r3, [r7, #4]
 2217 008c 1B68     		ldr	r3, [r3]
 2218 008e 1846     		mov	r0, r3
 2219 0090 FFF7FEFF 		bl	SDMMC_CmdStopTransfer
 2220 0094 B860     		str	r0, [r7, #8]
 2221 0096 BB68     		ldr	r3, [r7, #8]
 2222 0098 002B     		cmp	r3, #0
 2223 009a 08D0     		beq	.L139
 2224 009c 7B68     		ldr	r3, [r7, #4]
 2225 009e 9A6B     		ldr	r2, [r3, #56]
 2226 00a0 BB68     		ldr	r3, [r7, #8]
 2227 00a2 1A43     		orrs	r2, r2, r3
 2228 00a4 7B68     		ldr	r3, [r7, #4]
 2229 00a6 9A63     		str	r2, [r3, #56]
 2230 00a8 7868     		ldr	r0, [r7, #4]
 2231 00aa FFF7FEFF 		bl	HAL_SD_ErrorCallback
 2232              	.L139:
 2233 00ae 7B68     		ldr	r3, [r7, #4]
 2234 00b0 1B68     		ldr	r3, [r3]
 2235 00b2 40F23A52 		movw	r2, #1338
 2236 00b6 9A63     		str	r2, [r3, #56]
 2237 00b8 7B68     		ldr	r3, [r7, #4]
 2238 00ba 0122     		movs	r2, #1
 2239 00bc 83F83420 		strb	r2, [r3, #52]
 2240 00c0 7B68     		ldr	r3, [r7, #4]
 2241 00c2 0022     		movs	r2, #0
 2242 00c4 1A63     		str	r2, [r3, #48]
 2243 00c6 FB68     		ldr	r3, [r7, #12]
 2244 00c8 03F00103 		and	r3, r3, #1
 2245 00cc 002B     		cmp	r3, #0
 2246 00ce 04D1     		bne	.L140
 2247 00d0 FB68     		ldr	r3, [r7, #12]
 2248 00d2 03F00203 		and	r3, r3, #2
ARM GAS  C:\Users\user\AppData\Local\Temp\ccf7Y9kA.s 			page 40


 2249 00d6 002B     		cmp	r3, #0
 2250 00d8 03D0     		beq	.L141
 2251              	.L140:
 2252 00da 7868     		ldr	r0, [r7, #4]
 2253 00dc FFF7FEFF 		bl	HAL_SD_RxCpltCallback
 2254 00e0 0BE1     		b	.L135
 2255              	.L141:
 2256 00e2 7868     		ldr	r0, [r7, #4]
 2257 00e4 FFF7FEFF 		bl	HAL_SD_TxCpltCallback
 2258 00e8 07E1     		b	.L158
 2259              	.L137:
 2260 00ea FB68     		ldr	r3, [r7, #12]
 2261 00ec 03F08003 		and	r3, r3, #128
 2262 00f0 002B     		cmp	r3, #0
 2263 00f2 00F00281 		beq	.L158
 2264 00f6 FB68     		ldr	r3, [r7, #12]
 2265 00f8 03F02003 		and	r3, r3, #32
 2266 00fc 002B     		cmp	r3, #0
 2267 00fe 11D0     		beq	.L143
 2268 0100 7B68     		ldr	r3, [r7, #4]
 2269 0102 1B68     		ldr	r3, [r3]
 2270 0104 1846     		mov	r0, r3
 2271 0106 FFF7FEFF 		bl	SDMMC_CmdStopTransfer
 2272 010a B860     		str	r0, [r7, #8]
 2273 010c BB68     		ldr	r3, [r7, #8]
 2274 010e 002B     		cmp	r3, #0
 2275 0110 08D0     		beq	.L143
 2276 0112 7B68     		ldr	r3, [r7, #4]
 2277 0114 9A6B     		ldr	r2, [r3, #56]
 2278 0116 BB68     		ldr	r3, [r7, #8]
 2279 0118 1A43     		orrs	r2, r2, r3
 2280 011a 7B68     		ldr	r3, [r7, #4]
 2281 011c 9A63     		str	r2, [r3, #56]
 2282 011e 7868     		ldr	r0, [r7, #4]
 2283 0120 FFF7FEFF 		bl	HAL_SD_ErrorCallback
 2284              	.L143:
 2285 0124 FB68     		ldr	r3, [r7, #12]
 2286 0126 03F00103 		and	r3, r3, #1
 2287 012a 002B     		cmp	r3, #0
 2288 012c 40F0E580 		bne	.L158
 2289 0130 FB68     		ldr	r3, [r7, #12]
 2290 0132 03F00203 		and	r3, r3, #2
 2291 0136 002B     		cmp	r3, #0
 2292 0138 40F0DF80 		bne	.L158
 2293 013c 7B68     		ldr	r3, [r7, #4]
 2294 013e 1B68     		ldr	r3, [r3]
 2295 0140 DA6A     		ldr	r2, [r3, #44]
 2296 0142 7B68     		ldr	r3, [r7, #4]
 2297 0144 1B68     		ldr	r3, [r3]
 2298 0146 22F00802 		bic	r2, r2, #8
 2299 014a DA62     		str	r2, [r3, #44]
 2300 014c 7B68     		ldr	r3, [r7, #4]
 2301 014e 0122     		movs	r2, #1
 2302 0150 83F83420 		strb	r2, [r3, #52]
 2303 0154 7868     		ldr	r0, [r7, #4]
 2304 0156 FFF7FEFF 		bl	HAL_SD_TxCpltCallback
 2305 015a CEE0     		b	.L158
ARM GAS  C:\Users\user\AppData\Local\Temp\ccf7Y9kA.s 			page 41


 2306              	.L136:
 2307 015c 7B68     		ldr	r3, [r7, #4]
 2308 015e 1B68     		ldr	r3, [r3]
 2309 0160 5B6B     		ldr	r3, [r3, #52]
 2310 0162 03F48043 		and	r3, r3, #16384
 2311 0166 002B     		cmp	r3, #0
 2312 0168 08D0     		beq	.L144
 2313 016a FB68     		ldr	r3, [r7, #12]
 2314 016c 03F00803 		and	r3, r3, #8
 2315 0170 002B     		cmp	r3, #0
 2316 0172 03D0     		beq	.L144
 2317 0174 7868     		ldr	r0, [r7, #4]
 2318 0176 FFF7FEFF 		bl	SD_Write_IT
 2319 017a BEE0     		b	.L135
 2320              	.L144:
 2321 017c 7B68     		ldr	r3, [r7, #4]
 2322 017e 1B68     		ldr	r3, [r3]
 2323 0180 5A6B     		ldr	r2, [r3, #52]
 2324 0182 40F23A23 		movw	r3, #570
 2325 0186 1340     		ands	r3, r3, r2
 2326 0188 002B     		cmp	r3, #0
 2327 018a 00F0B680 		beq	.L158
 2328 018e 7B68     		ldr	r3, [r7, #4]
 2329 0190 1B68     		ldr	r3, [r3]
 2330 0192 5B6B     		ldr	r3, [r3, #52]
 2331 0194 03F00203 		and	r3, r3, #2
 2332 0198 002B     		cmp	r3, #0
 2333 019a 05D0     		beq	.L145
 2334 019c 7B68     		ldr	r3, [r7, #4]
 2335 019e 9B6B     		ldr	r3, [r3, #56]
 2336 01a0 43F00202 		orr	r2, r3, #2
 2337 01a4 7B68     		ldr	r3, [r7, #4]
 2338 01a6 9A63     		str	r2, [r3, #56]
 2339              	.L145:
 2340 01a8 7B68     		ldr	r3, [r7, #4]
 2341 01aa 1B68     		ldr	r3, [r3]
 2342 01ac 5B6B     		ldr	r3, [r3, #52]
 2343 01ae 03F00803 		and	r3, r3, #8
 2344 01b2 002B     		cmp	r3, #0
 2345 01b4 05D0     		beq	.L146
 2346 01b6 7B68     		ldr	r3, [r7, #4]
 2347 01b8 9B6B     		ldr	r3, [r3, #56]
 2348 01ba 43F00802 		orr	r2, r3, #8
 2349 01be 7B68     		ldr	r3, [r7, #4]
 2350 01c0 9A63     		str	r2, [r3, #56]
 2351              	.L146:
 2352 01c2 7B68     		ldr	r3, [r7, #4]
 2353 01c4 1B68     		ldr	r3, [r3]
 2354 01c6 5B6B     		ldr	r3, [r3, #52]
 2355 01c8 03F02003 		and	r3, r3, #32
 2356 01cc 002B     		cmp	r3, #0
 2357 01ce 05D0     		beq	.L147
 2358 01d0 7B68     		ldr	r3, [r7, #4]
 2359 01d2 9B6B     		ldr	r3, [r3, #56]
 2360 01d4 43F02002 		orr	r2, r3, #32
 2361 01d8 7B68     		ldr	r3, [r7, #4]
 2362 01da 9A63     		str	r2, [r3, #56]
ARM GAS  C:\Users\user\AppData\Local\Temp\ccf7Y9kA.s 			page 42


 2363              	.L147:
 2364 01dc 7B68     		ldr	r3, [r7, #4]
 2365 01de 1B68     		ldr	r3, [r3]
 2366 01e0 5B6B     		ldr	r3, [r3, #52]
 2367 01e2 03F01003 		and	r3, r3, #16
 2368 01e6 002B     		cmp	r3, #0
 2369 01e8 05D0     		beq	.L148
 2370 01ea 7B68     		ldr	r3, [r7, #4]
 2371 01ec 9B6B     		ldr	r3, [r3, #56]
 2372 01ee 43F01002 		orr	r2, r3, #16
 2373 01f2 7B68     		ldr	r3, [r7, #4]
 2374 01f4 9A63     		str	r2, [r3, #56]
 2375              	.L148:
 2376 01f6 7B68     		ldr	r3, [r7, #4]
 2377 01f8 1B68     		ldr	r3, [r3]
 2378 01fa 5B6B     		ldr	r3, [r3, #52]
 2379 01fc 03F40073 		and	r3, r3, #512
 2380 0200 002B     		cmp	r3, #0
 2381 0202 05D0     		beq	.L149
 2382 0204 7B68     		ldr	r3, [r7, #4]
 2383 0206 9B6B     		ldr	r3, [r3, #56]
 2384 0208 43F00802 		orr	r2, r3, #8
 2385 020c 7B68     		ldr	r3, [r7, #4]
 2386 020e 9A63     		str	r2, [r3, #56]
 2387              	.L149:
 2388 0210 7B68     		ldr	r3, [r7, #4]
 2389 0212 1B68     		ldr	r3, [r3]
 2390 0214 40F23A72 		movw	r2, #1850
 2391 0218 9A63     		str	r2, [r3, #56]
 2392 021a 7B68     		ldr	r3, [r7, #4]
 2393 021c 1B68     		ldr	r3, [r3]
 2394 021e DB6B     		ldr	r3, [r3, #60]
 2395 0220 7A68     		ldr	r2, [r7, #4]
 2396 0222 1268     		ldr	r2, [r2]
 2397 0224 23F44E73 		bic	r3, r3, #824
 2398 0228 23F00203 		bic	r3, r3, #2
 2399 022c D363     		str	r3, [r2, #60]
 2400 022e 7B68     		ldr	r3, [r7, #4]
 2401 0230 1B68     		ldr	r3, [r3]
 2402 0232 1846     		mov	r0, r3
 2403 0234 FFF7FEFF 		bl	SDMMC_CmdStopTransfer
 2404 0238 0246     		mov	r2, r0
 2405 023a 7B68     		ldr	r3, [r7, #4]
 2406 023c 9B6B     		ldr	r3, [r3, #56]
 2407 023e 1A43     		orrs	r2, r2, r3
 2408 0240 7B68     		ldr	r3, [r7, #4]
 2409 0242 9A63     		str	r2, [r3, #56]
 2410 0244 FB68     		ldr	r3, [r7, #12]
 2411 0246 03F00803 		and	r3, r3, #8
 2412 024a 002B     		cmp	r3, #0
 2413 024c 0AD0     		beq	.L150
 2414 024e 7B68     		ldr	r3, [r7, #4]
 2415 0250 0122     		movs	r2, #1
 2416 0252 83F83420 		strb	r2, [r3, #52]
 2417 0256 7B68     		ldr	r3, [r7, #4]
 2418 0258 0022     		movs	r2, #0
 2419 025a 1A63     		str	r2, [r3, #48]
ARM GAS  C:\Users\user\AppData\Local\Temp\ccf7Y9kA.s 			page 43


 2420 025c 7868     		ldr	r0, [r7, #4]
 2421 025e FFF7FEFF 		bl	HAL_SD_ErrorCallback
 2422 0262 4AE0     		b	.L158
 2423              	.L150:
 2424 0264 FB68     		ldr	r3, [r7, #12]
 2425 0266 03F08003 		and	r3, r3, #128
 2426 026a 002B     		cmp	r3, #0
 2427 026c 45D0     		beq	.L158
 2428 026e FB68     		ldr	r3, [r7, #12]
 2429 0270 03F01003 		and	r3, r3, #16
 2430 0274 002B     		cmp	r3, #0
 2431 0276 04D1     		bne	.L151
 2432 0278 FB68     		ldr	r3, [r7, #12]
 2433 027a 03F02003 		and	r3, r3, #32
 2434 027e 002B     		cmp	r3, #0
 2435 0280 11D0     		beq	.L152
 2436              	.L151:
 2437 0282 7B68     		ldr	r3, [r7, #4]
 2438 0284 DB6B     		ldr	r3, [r3, #60]
 2439 0286 1F4A     		ldr	r2, .L159
 2440 0288 1A65     		str	r2, [r3, #80]
 2441 028a 7B68     		ldr	r3, [r7, #4]
 2442 028c DB6B     		ldr	r3, [r3, #60]
 2443 028e 1846     		mov	r0, r3
 2444 0290 FFF7FEFF 		bl	HAL_DMA_Abort_IT
 2445 0294 0346     		mov	r3, r0
 2446 0296 002B     		cmp	r3, #0
 2447 0298 2FD0     		beq	.L135
 2448 029a 7B68     		ldr	r3, [r7, #4]
 2449 029c DB6B     		ldr	r3, [r3, #60]
 2450 029e 1846     		mov	r0, r3
 2451 02a0 FFF7FEFF 		bl	SD_DMATxAbort
 2452 02a4 29E0     		b	.L135
 2453              	.L152:
 2454 02a6 FB68     		ldr	r3, [r7, #12]
 2455 02a8 03F00103 		and	r3, r3, #1
 2456 02ac 002B     		cmp	r3, #0
 2457 02ae 04D1     		bne	.L155
 2458 02b0 FB68     		ldr	r3, [r7, #12]
 2459 02b2 03F00203 		and	r3, r3, #2
 2460 02b6 002B     		cmp	r3, #0
 2461 02b8 11D0     		beq	.L156
 2462              	.L155:
 2463 02ba 7B68     		ldr	r3, [r7, #4]
 2464 02bc 1B6C     		ldr	r3, [r3, #64]
 2465 02be 124A     		ldr	r2, .L159+4
 2466 02c0 1A65     		str	r2, [r3, #80]
 2467 02c2 7B68     		ldr	r3, [r7, #4]
 2468 02c4 1B6C     		ldr	r3, [r3, #64]
 2469 02c6 1846     		mov	r0, r3
 2470 02c8 FFF7FEFF 		bl	HAL_DMA_Abort_IT
 2471 02cc 0346     		mov	r3, r0
 2472 02ce 002B     		cmp	r3, #0
 2473 02d0 13D0     		beq	.L135
 2474 02d2 7B68     		ldr	r3, [r7, #4]
 2475 02d4 1B6C     		ldr	r3, [r3, #64]
 2476 02d6 1846     		mov	r0, r3
ARM GAS  C:\Users\user\AppData\Local\Temp\ccf7Y9kA.s 			page 44


 2477 02d8 FFF7FEFF 		bl	SD_DMARxAbort
 2478 02dc 0DE0     		b	.L135
 2479              	.L156:
 2480 02de 7B68     		ldr	r3, [r7, #4]
 2481 02e0 0022     		movs	r2, #0
 2482 02e2 9A63     		str	r2, [r3, #56]
 2483 02e4 7B68     		ldr	r3, [r7, #4]
 2484 02e6 0122     		movs	r2, #1
 2485 02e8 83F83420 		strb	r2, [r3, #52]
 2486 02ec 7B68     		ldr	r3, [r7, #4]
 2487 02ee 0022     		movs	r2, #0
 2488 02f0 1A63     		str	r2, [r3, #48]
 2489 02f2 7868     		ldr	r0, [r7, #4]
 2490 02f4 FFF7FEFF 		bl	HAL_SD_AbortCallback
 2491 02f8 FFE7     		b	.L158
 2492              	.L135:
 2493              	.L158:
 2494 02fa 00BF     		nop
 2495 02fc 1037     		adds	r7, r7, #16
 2496 02fe BD46     		mov	sp, r7
 2497              		@ sp needed
 2498 0300 80BD     		pop	{r7, pc}
 2499              	.L160:
 2500 0302 00BF     		.align	2
 2501              	.L159:
 2502 0304 00000000 		.word	SD_DMATxAbort
 2503 0308 00000000 		.word	SD_DMARxAbort
 2505              		.section	.text.HAL_SD_GetState,"ax",%progbits
 2506              		.align	1
 2507              		.global	HAL_SD_GetState
 2508              		.syntax unified
 2509              		.thumb
 2510              		.thumb_func
 2512              	HAL_SD_GetState:
 2513              		@ args = 0, pretend = 0, frame = 8
 2514              		@ frame_needed = 1, uses_anonymous_args = 0
 2515              		@ link register save eliminated.
 2516 0000 80B4     		push	{r7}
 2517 0002 83B0     		sub	sp, sp, #12
 2518 0004 00AF     		add	r7, sp, #0
 2519 0006 7860     		str	r0, [r7, #4]
 2520 0008 7B68     		ldr	r3, [r7, #4]
 2521 000a 93F83430 		ldrb	r3, [r3, #52]
 2522 000e DBB2     		uxtb	r3, r3
 2523 0010 1846     		mov	r0, r3
 2524 0012 0C37     		adds	r7, r7, #12
 2525 0014 BD46     		mov	sp, r7
 2526              		@ sp needed
 2527 0016 5DF8047B 		ldr	r7, [sp], #4
 2528 001a 7047     		bx	lr
 2530              		.section	.text.HAL_SD_GetError,"ax",%progbits
 2531              		.align	1
 2532              		.global	HAL_SD_GetError
 2533              		.syntax unified
 2534              		.thumb
 2535              		.thumb_func
 2537              	HAL_SD_GetError:
ARM GAS  C:\Users\user\AppData\Local\Temp\ccf7Y9kA.s 			page 45


 2538              		@ args = 0, pretend = 0, frame = 8
 2539              		@ frame_needed = 1, uses_anonymous_args = 0
 2540              		@ link register save eliminated.
 2541 0000 80B4     		push	{r7}
 2542 0002 83B0     		sub	sp, sp, #12
 2543 0004 00AF     		add	r7, sp, #0
 2544 0006 7860     		str	r0, [r7, #4]
 2545 0008 7B68     		ldr	r3, [r7, #4]
 2546 000a 9B6B     		ldr	r3, [r3, #56]
 2547 000c 1846     		mov	r0, r3
 2548 000e 0C37     		adds	r7, r7, #12
 2549 0010 BD46     		mov	sp, r7
 2550              		@ sp needed
 2551 0012 5DF8047B 		ldr	r7, [sp], #4
 2552 0016 7047     		bx	lr
 2554              		.section	.text.HAL_SD_TxCpltCallback,"ax",%progbits
 2555              		.align	1
 2556              		.weak	HAL_SD_TxCpltCallback
 2557              		.syntax unified
 2558              		.thumb
 2559              		.thumb_func
 2561              	HAL_SD_TxCpltCallback:
 2562              		@ args = 0, pretend = 0, frame = 8
 2563              		@ frame_needed = 1, uses_anonymous_args = 0
 2564              		@ link register save eliminated.
 2565 0000 80B4     		push	{r7}
 2566 0002 83B0     		sub	sp, sp, #12
 2567 0004 00AF     		add	r7, sp, #0
 2568 0006 7860     		str	r0, [r7, #4]
 2569 0008 00BF     		nop
 2570 000a 0C37     		adds	r7, r7, #12
 2571 000c BD46     		mov	sp, r7
 2572              		@ sp needed
 2573 000e 5DF8047B 		ldr	r7, [sp], #4
 2574 0012 7047     		bx	lr
 2576              		.section	.text.HAL_SD_RxCpltCallback,"ax",%progbits
 2577              		.align	1
 2578              		.weak	HAL_SD_RxCpltCallback
 2579              		.syntax unified
 2580              		.thumb
 2581              		.thumb_func
 2583              	HAL_SD_RxCpltCallback:
 2584              		@ args = 0, pretend = 0, frame = 8
 2585              		@ frame_needed = 1, uses_anonymous_args = 0
 2586              		@ link register save eliminated.
 2587 0000 80B4     		push	{r7}
 2588 0002 83B0     		sub	sp, sp, #12
 2589 0004 00AF     		add	r7, sp, #0
 2590 0006 7860     		str	r0, [r7, #4]
 2591 0008 00BF     		nop
 2592 000a 0C37     		adds	r7, r7, #12
 2593 000c BD46     		mov	sp, r7
 2594              		@ sp needed
 2595 000e 5DF8047B 		ldr	r7, [sp], #4
 2596 0012 7047     		bx	lr
 2598              		.section	.text.HAL_SD_ErrorCallback,"ax",%progbits
 2599              		.align	1
ARM GAS  C:\Users\user\AppData\Local\Temp\ccf7Y9kA.s 			page 46


 2600              		.weak	HAL_SD_ErrorCallback
 2601              		.syntax unified
 2602              		.thumb
 2603              		.thumb_func
 2605              	HAL_SD_ErrorCallback:
 2606              		@ args = 0, pretend = 0, frame = 8
 2607              		@ frame_needed = 1, uses_anonymous_args = 0
 2608              		@ link register save eliminated.
 2609 0000 80B4     		push	{r7}
 2610 0002 83B0     		sub	sp, sp, #12
 2611 0004 00AF     		add	r7, sp, #0
 2612 0006 7860     		str	r0, [r7, #4]
 2613 0008 00BF     		nop
 2614 000a 0C37     		adds	r7, r7, #12
 2615 000c BD46     		mov	sp, r7
 2616              		@ sp needed
 2617 000e 5DF8047B 		ldr	r7, [sp], #4
 2618 0012 7047     		bx	lr
 2620              		.section	.text.HAL_SD_AbortCallback,"ax",%progbits
 2621              		.align	1
 2622              		.weak	HAL_SD_AbortCallback
 2623              		.syntax unified
 2624              		.thumb
 2625              		.thumb_func
 2627              	HAL_SD_AbortCallback:
 2628              		@ args = 0, pretend = 0, frame = 8
 2629              		@ frame_needed = 1, uses_anonymous_args = 0
 2630              		@ link register save eliminated.
 2631 0000 80B4     		push	{r7}
 2632 0002 83B0     		sub	sp, sp, #12
 2633 0004 00AF     		add	r7, sp, #0
 2634 0006 7860     		str	r0, [r7, #4]
 2635 0008 00BF     		nop
 2636 000a 0C37     		adds	r7, r7, #12
 2637 000c BD46     		mov	sp, r7
 2638              		@ sp needed
 2639 000e 5DF8047B 		ldr	r7, [sp], #4
 2640 0012 7047     		bx	lr
 2642              		.section	.text.HAL_SD_GetCardCID,"ax",%progbits
 2643              		.align	1
 2644              		.global	HAL_SD_GetCardCID
 2645              		.syntax unified
 2646              		.thumb
 2647              		.thumb_func
 2649              	HAL_SD_GetCardCID:
 2650              		@ args = 0, pretend = 0, frame = 8
 2651              		@ frame_needed = 1, uses_anonymous_args = 0
 2652              		@ link register save eliminated.
 2653 0000 80B4     		push	{r7}
 2654 0002 83B0     		sub	sp, sp, #12
 2655 0004 00AF     		add	r7, sp, #0
 2656 0006 7860     		str	r0, [r7, #4]
 2657 0008 3960     		str	r1, [r7]
 2658 000a 7B68     		ldr	r3, [r7, #4]
 2659 000c 5B6F     		ldr	r3, [r3, #116]
 2660 000e 1B0E     		lsrs	r3, r3, #24
 2661 0010 DAB2     		uxtb	r2, r3
ARM GAS  C:\Users\user\AppData\Local\Temp\ccf7Y9kA.s 			page 47


 2662 0012 3B68     		ldr	r3, [r7]
 2663 0014 1A70     		strb	r2, [r3]
 2664 0016 7B68     		ldr	r3, [r7, #4]
 2665 0018 5B6F     		ldr	r3, [r3, #116]
 2666 001a 1B0A     		lsrs	r3, r3, #8
 2667 001c 9AB2     		uxth	r2, r3
 2668 001e 3B68     		ldr	r3, [r7]
 2669 0020 5A80     		strh	r2, [r3, #2]	@ movhi
 2670 0022 7B68     		ldr	r3, [r7, #4]
 2671 0024 5B6F     		ldr	r3, [r3, #116]
 2672 0026 1A06     		lsls	r2, r3, #24
 2673 0028 7B68     		ldr	r3, [r7, #4]
 2674 002a 9B6F     		ldr	r3, [r3, #120]
 2675 002c 1B0A     		lsrs	r3, r3, #8
 2676 002e 1A43     		orrs	r2, r2, r3
 2677 0030 3B68     		ldr	r3, [r7]
 2678 0032 5A60     		str	r2, [r3, #4]
 2679 0034 7B68     		ldr	r3, [r7, #4]
 2680 0036 9B6F     		ldr	r3, [r3, #120]
 2681 0038 DAB2     		uxtb	r2, r3
 2682 003a 3B68     		ldr	r3, [r7]
 2683 003c 1A72     		strb	r2, [r3, #8]
 2684 003e 7B68     		ldr	r3, [r7, #4]
 2685 0040 DB6F     		ldr	r3, [r3, #124]
 2686 0042 1B0E     		lsrs	r3, r3, #24
 2687 0044 DAB2     		uxtb	r2, r3
 2688 0046 3B68     		ldr	r3, [r7]
 2689 0048 5A72     		strb	r2, [r3, #9]
 2690 004a 7B68     		ldr	r3, [r7, #4]
 2691 004c DB6F     		ldr	r3, [r3, #124]
 2692 004e 1A02     		lsls	r2, r3, #8
 2693 0050 7B68     		ldr	r3, [r7, #4]
 2694 0052 D3F88030 		ldr	r3, [r3, #128]
 2695 0056 1B0E     		lsrs	r3, r3, #24
 2696 0058 1A43     		orrs	r2, r2, r3
 2697 005a 3B68     		ldr	r3, [r7]
 2698 005c DA60     		str	r2, [r3, #12]
 2699 005e 7B68     		ldr	r3, [r7, #4]
 2700 0060 D3F88030 		ldr	r3, [r3, #128]
 2701 0064 1B0D     		lsrs	r3, r3, #20
 2702 0066 DBB2     		uxtb	r3, r3
 2703 0068 03F00F03 		and	r3, r3, #15
 2704 006c DAB2     		uxtb	r2, r3
 2705 006e 3B68     		ldr	r3, [r7]
 2706 0070 1A74     		strb	r2, [r3, #16]
 2707 0072 7B68     		ldr	r3, [r7, #4]
 2708 0074 D3F88030 		ldr	r3, [r3, #128]
 2709 0078 1B0A     		lsrs	r3, r3, #8
 2710 007a 9BB2     		uxth	r3, r3
 2711 007c C3F30B03 		ubfx	r3, r3, #0, #12
 2712 0080 9AB2     		uxth	r2, r3
 2713 0082 3B68     		ldr	r3, [r7]
 2714 0084 5A82     		strh	r2, [r3, #18]	@ movhi
 2715 0086 7B68     		ldr	r3, [r7, #4]
 2716 0088 D3F88030 		ldr	r3, [r3, #128]
 2717 008c 5B08     		lsrs	r3, r3, #1
 2718 008e DBB2     		uxtb	r3, r3
ARM GAS  C:\Users\user\AppData\Local\Temp\ccf7Y9kA.s 			page 48


 2719 0090 03F07F03 		and	r3, r3, #127
 2720 0094 DAB2     		uxtb	r2, r3
 2721 0096 3B68     		ldr	r3, [r7]
 2722 0098 1A75     		strb	r2, [r3, #20]
 2723 009a 3B68     		ldr	r3, [r7]
 2724 009c 0122     		movs	r2, #1
 2725 009e 5A75     		strb	r2, [r3, #21]
 2726 00a0 0023     		movs	r3, #0
 2727 00a2 1846     		mov	r0, r3
 2728 00a4 0C37     		adds	r7, r7, #12
 2729 00a6 BD46     		mov	sp, r7
 2730              		@ sp needed
 2731 00a8 5DF8047B 		ldr	r7, [sp], #4
 2732 00ac 7047     		bx	lr
 2734              		.section	.text.HAL_SD_GetCardCSD,"ax",%progbits
 2735              		.align	1
 2736              		.global	HAL_SD_GetCardCSD
 2737              		.syntax unified
 2738              		.thumb
 2739              		.thumb_func
 2741              	HAL_SD_GetCardCSD:
 2742              		@ args = 0, pretend = 0, frame = 8
 2743              		@ frame_needed = 1, uses_anonymous_args = 0
 2744              		@ link register save eliminated.
 2745 0000 80B4     		push	{r7}
 2746 0002 83B0     		sub	sp, sp, #12
 2747 0004 00AF     		add	r7, sp, #0
 2748 0006 7860     		str	r0, [r7, #4]
 2749 0008 3960     		str	r1, [r7]
 2750 000a 7B68     		ldr	r3, [r7, #4]
 2751 000c 5B6E     		ldr	r3, [r3, #100]
 2752 000e 9B0F     		lsrs	r3, r3, #30
 2753 0010 DAB2     		uxtb	r2, r3
 2754 0012 3B68     		ldr	r3, [r7]
 2755 0014 1A70     		strb	r2, [r3]
 2756 0016 7B68     		ldr	r3, [r7, #4]
 2757 0018 5B6E     		ldr	r3, [r3, #100]
 2758 001a 9B0E     		lsrs	r3, r3, #26
 2759 001c DBB2     		uxtb	r3, r3
 2760 001e 03F00F03 		and	r3, r3, #15
 2761 0022 DAB2     		uxtb	r2, r3
 2762 0024 3B68     		ldr	r3, [r7]
 2763 0026 5A70     		strb	r2, [r3, #1]
 2764 0028 7B68     		ldr	r3, [r7, #4]
 2765 002a 5B6E     		ldr	r3, [r3, #100]
 2766 002c 1B0E     		lsrs	r3, r3, #24
 2767 002e DBB2     		uxtb	r3, r3
 2768 0030 03F00303 		and	r3, r3, #3
 2769 0034 DAB2     		uxtb	r2, r3
 2770 0036 3B68     		ldr	r3, [r7]
 2771 0038 9A70     		strb	r2, [r3, #2]
 2772 003a 7B68     		ldr	r3, [r7, #4]
 2773 003c 5B6E     		ldr	r3, [r3, #100]
 2774 003e 1B0C     		lsrs	r3, r3, #16
 2775 0040 DAB2     		uxtb	r2, r3
 2776 0042 3B68     		ldr	r3, [r7]
 2777 0044 DA70     		strb	r2, [r3, #3]
ARM GAS  C:\Users\user\AppData\Local\Temp\ccf7Y9kA.s 			page 49


 2778 0046 7B68     		ldr	r3, [r7, #4]
 2779 0048 5B6E     		ldr	r3, [r3, #100]
 2780 004a 1B0A     		lsrs	r3, r3, #8
 2781 004c DAB2     		uxtb	r2, r3
 2782 004e 3B68     		ldr	r3, [r7]
 2783 0050 1A71     		strb	r2, [r3, #4]
 2784 0052 7B68     		ldr	r3, [r7, #4]
 2785 0054 5B6E     		ldr	r3, [r3, #100]
 2786 0056 DAB2     		uxtb	r2, r3
 2787 0058 3B68     		ldr	r3, [r7]
 2788 005a 5A71     		strb	r2, [r3, #5]
 2789 005c 7B68     		ldr	r3, [r7, #4]
 2790 005e 9B6E     		ldr	r3, [r3, #104]
 2791 0060 1B0D     		lsrs	r3, r3, #20
 2792 0062 9AB2     		uxth	r2, r3
 2793 0064 3B68     		ldr	r3, [r7]
 2794 0066 DA80     		strh	r2, [r3, #6]	@ movhi
 2795 0068 7B68     		ldr	r3, [r7, #4]
 2796 006a 9B6E     		ldr	r3, [r3, #104]
 2797 006c 1B0C     		lsrs	r3, r3, #16
 2798 006e DBB2     		uxtb	r3, r3
 2799 0070 03F00F03 		and	r3, r3, #15
 2800 0074 DAB2     		uxtb	r2, r3
 2801 0076 3B68     		ldr	r3, [r7]
 2802 0078 1A72     		strb	r2, [r3, #8]
 2803 007a 7B68     		ldr	r3, [r7, #4]
 2804 007c 9B6E     		ldr	r3, [r3, #104]
 2805 007e DB0B     		lsrs	r3, r3, #15
 2806 0080 DBB2     		uxtb	r3, r3
 2807 0082 03F00103 		and	r3, r3, #1
 2808 0086 DAB2     		uxtb	r2, r3
 2809 0088 3B68     		ldr	r3, [r7]
 2810 008a 5A72     		strb	r2, [r3, #9]
 2811 008c 7B68     		ldr	r3, [r7, #4]
 2812 008e 9B6E     		ldr	r3, [r3, #104]
 2813 0090 9B0B     		lsrs	r3, r3, #14
 2814 0092 DBB2     		uxtb	r3, r3
 2815 0094 03F00103 		and	r3, r3, #1
 2816 0098 DAB2     		uxtb	r2, r3
 2817 009a 3B68     		ldr	r3, [r7]
 2818 009c 9A72     		strb	r2, [r3, #10]
 2819 009e 7B68     		ldr	r3, [r7, #4]
 2820 00a0 9B6E     		ldr	r3, [r3, #104]
 2821 00a2 5B0B     		lsrs	r3, r3, #13
 2822 00a4 DBB2     		uxtb	r3, r3
 2823 00a6 03F00103 		and	r3, r3, #1
 2824 00aa DAB2     		uxtb	r2, r3
 2825 00ac 3B68     		ldr	r3, [r7]
 2826 00ae DA72     		strb	r2, [r3, #11]
 2827 00b0 7B68     		ldr	r3, [r7, #4]
 2828 00b2 9B6E     		ldr	r3, [r3, #104]
 2829 00b4 1B0B     		lsrs	r3, r3, #12
 2830 00b6 DBB2     		uxtb	r3, r3
 2831 00b8 03F00103 		and	r3, r3, #1
 2832 00bc DAB2     		uxtb	r2, r3
 2833 00be 3B68     		ldr	r3, [r7]
 2834 00c0 1A73     		strb	r2, [r3, #12]
ARM GAS  C:\Users\user\AppData\Local\Temp\ccf7Y9kA.s 			page 50


 2835 00c2 3B68     		ldr	r3, [r7]
 2836 00c4 0022     		movs	r2, #0
 2837 00c6 5A73     		strb	r2, [r3, #13]
 2838 00c8 7B68     		ldr	r3, [r7, #4]
 2839 00ca 5B6C     		ldr	r3, [r3, #68]
 2840 00cc 002B     		cmp	r3, #0
 2841 00ce 63D1     		bne	.L172
 2842 00d0 7B68     		ldr	r3, [r7, #4]
 2843 00d2 9B6E     		ldr	r3, [r3, #104]
 2844 00d4 9A00     		lsls	r2, r3, #2
 2845 00d6 40F6FC73 		movw	r3, #4092
 2846 00da 1340     		ands	r3, r3, r2
 2847 00dc 7A68     		ldr	r2, [r7, #4]
 2848 00de D26E     		ldr	r2, [r2, #108]
 2849 00e0 920F     		lsrs	r2, r2, #30
 2850 00e2 1A43     		orrs	r2, r2, r3
 2851 00e4 3B68     		ldr	r3, [r7]
 2852 00e6 1A61     		str	r2, [r3, #16]
 2853 00e8 7B68     		ldr	r3, [r7, #4]
 2854 00ea DB6E     		ldr	r3, [r3, #108]
 2855 00ec DB0E     		lsrs	r3, r3, #27
 2856 00ee DBB2     		uxtb	r3, r3
 2857 00f0 03F00703 		and	r3, r3, #7
 2858 00f4 DAB2     		uxtb	r2, r3
 2859 00f6 3B68     		ldr	r3, [r7]
 2860 00f8 1A75     		strb	r2, [r3, #20]
 2861 00fa 7B68     		ldr	r3, [r7, #4]
 2862 00fc DB6E     		ldr	r3, [r3, #108]
 2863 00fe 1B0E     		lsrs	r3, r3, #24
 2864 0100 DBB2     		uxtb	r3, r3
 2865 0102 03F00703 		and	r3, r3, #7
 2866 0106 DAB2     		uxtb	r2, r3
 2867 0108 3B68     		ldr	r3, [r7]
 2868 010a 5A75     		strb	r2, [r3, #21]
 2869 010c 7B68     		ldr	r3, [r7, #4]
 2870 010e DB6E     		ldr	r3, [r3, #108]
 2871 0110 5B0D     		lsrs	r3, r3, #21
 2872 0112 DBB2     		uxtb	r3, r3
 2873 0114 03F00703 		and	r3, r3, #7
 2874 0118 DAB2     		uxtb	r2, r3
 2875 011a 3B68     		ldr	r3, [r7]
 2876 011c 9A75     		strb	r2, [r3, #22]
 2877 011e 7B68     		ldr	r3, [r7, #4]
 2878 0120 DB6E     		ldr	r3, [r3, #108]
 2879 0122 9B0C     		lsrs	r3, r3, #18
 2880 0124 DBB2     		uxtb	r3, r3
 2881 0126 03F00703 		and	r3, r3, #7
 2882 012a DAB2     		uxtb	r2, r3
 2883 012c 3B68     		ldr	r3, [r7]
 2884 012e DA75     		strb	r2, [r3, #23]
 2885 0130 7B68     		ldr	r3, [r7, #4]
 2886 0132 DB6E     		ldr	r3, [r3, #108]
 2887 0134 DB0B     		lsrs	r3, r3, #15
 2888 0136 DBB2     		uxtb	r3, r3
 2889 0138 03F00703 		and	r3, r3, #7
 2890 013c DAB2     		uxtb	r2, r3
 2891 013e 3B68     		ldr	r3, [r7]
ARM GAS  C:\Users\user\AppData\Local\Temp\ccf7Y9kA.s 			page 51


 2892 0140 1A76     		strb	r2, [r3, #24]
 2893 0142 3B68     		ldr	r3, [r7]
 2894 0144 1B69     		ldr	r3, [r3, #16]
 2895 0146 5A1C     		adds	r2, r3, #1
 2896 0148 7B68     		ldr	r3, [r7, #4]
 2897 014a 5A65     		str	r2, [r3, #84]
 2898 014c 3B68     		ldr	r3, [r7]
 2899 014e 1B7E     		ldrb	r3, [r3, #24]
 2900 0150 DBB2     		uxtb	r3, r3
 2901 0152 03F00703 		and	r3, r3, #7
 2902 0156 0233     		adds	r3, r3, #2
 2903 0158 0122     		movs	r2, #1
 2904 015a 02FA03F3 		lsl	r3, r2, r3
 2905 015e 7A68     		ldr	r2, [r7, #4]
 2906 0160 526D     		ldr	r2, [r2, #84]
 2907 0162 03FB02F2 		mul	r2, r3, r2
 2908 0166 7B68     		ldr	r3, [r7, #4]
 2909 0168 5A65     		str	r2, [r3, #84]
 2910 016a 3B68     		ldr	r3, [r7]
 2911 016c 1B7A     		ldrb	r3, [r3, #8]
 2912 016e DBB2     		uxtb	r3, r3
 2913 0170 03F00F03 		and	r3, r3, #15
 2914 0174 0122     		movs	r2, #1
 2915 0176 9A40     		lsls	r2, r2, r3
 2916 0178 7B68     		ldr	r3, [r7, #4]
 2917 017a 9A65     		str	r2, [r3, #88]
 2918 017c 7B68     		ldr	r3, [r7, #4]
 2919 017e 5B6D     		ldr	r3, [r3, #84]
 2920 0180 7A68     		ldr	r2, [r7, #4]
 2921 0182 926D     		ldr	r2, [r2, #88]
 2922 0184 520A     		lsrs	r2, r2, #9
 2923 0186 03FB02F2 		mul	r2, r3, r2
 2924 018a 7B68     		ldr	r3, [r7, #4]
 2925 018c DA65     		str	r2, [r3, #92]
 2926 018e 7B68     		ldr	r3, [r7, #4]
 2927 0190 4FF40072 		mov	r2, #512
 2928 0194 1A66     		str	r2, [r3, #96]
 2929 0196 31E0     		b	.L173
 2930              	.L172:
 2931 0198 7B68     		ldr	r3, [r7, #4]
 2932 019a 5B6C     		ldr	r3, [r3, #68]
 2933 019c 012B     		cmp	r3, #1
 2934 019e 1DD1     		bne	.L174
 2935 01a0 7B68     		ldr	r3, [r7, #4]
 2936 01a2 9B6E     		ldr	r3, [r3, #104]
 2937 01a4 1B04     		lsls	r3, r3, #16
 2938 01a6 03F47C12 		and	r2, r3, #4128768
 2939 01aa 7B68     		ldr	r3, [r7, #4]
 2940 01ac DB6E     		ldr	r3, [r3, #108]
 2941 01ae 1B0C     		lsrs	r3, r3, #16
 2942 01b0 1A43     		orrs	r2, r2, r3
 2943 01b2 3B68     		ldr	r3, [r7]
 2944 01b4 1A61     		str	r2, [r3, #16]
 2945 01b6 3B68     		ldr	r3, [r7]
 2946 01b8 1B69     		ldr	r3, [r3, #16]
 2947 01ba 0133     		adds	r3, r3, #1
 2948 01bc 9A02     		lsls	r2, r3, #10
ARM GAS  C:\Users\user\AppData\Local\Temp\ccf7Y9kA.s 			page 52


 2949 01be 7B68     		ldr	r3, [r7, #4]
 2950 01c0 5A65     		str	r2, [r3, #84]
 2951 01c2 7B68     		ldr	r3, [r7, #4]
 2952 01c4 5A6D     		ldr	r2, [r3, #84]
 2953 01c6 7B68     		ldr	r3, [r7, #4]
 2954 01c8 DA65     		str	r2, [r3, #92]
 2955 01ca 7B68     		ldr	r3, [r7, #4]
 2956 01cc 4FF40072 		mov	r2, #512
 2957 01d0 9A65     		str	r2, [r3, #88]
 2958 01d2 7B68     		ldr	r3, [r7, #4]
 2959 01d4 9A6D     		ldr	r2, [r3, #88]
 2960 01d6 7B68     		ldr	r3, [r7, #4]
 2961 01d8 1A66     		str	r2, [r3, #96]
 2962 01da 0FE0     		b	.L173
 2963              	.L174:
 2964 01dc 7B68     		ldr	r3, [r7, #4]
 2965 01de 1B68     		ldr	r3, [r3]
 2966 01e0 584A     		ldr	r2, .L176
 2967 01e2 9A63     		str	r2, [r3, #56]
 2968 01e4 7B68     		ldr	r3, [r7, #4]
 2969 01e6 9B6B     		ldr	r3, [r3, #56]
 2970 01e8 43F08052 		orr	r2, r3, #268435456
 2971 01ec 7B68     		ldr	r3, [r7, #4]
 2972 01ee 9A63     		str	r2, [r3, #56]
 2973 01f0 7B68     		ldr	r3, [r7, #4]
 2974 01f2 0122     		movs	r2, #1
 2975 01f4 83F83420 		strb	r2, [r3, #52]
 2976 01f8 0123     		movs	r3, #1
 2977 01fa 9DE0     		b	.L175
 2978              	.L173:
 2979 01fc 7B68     		ldr	r3, [r7, #4]
 2980 01fe DB6E     		ldr	r3, [r3, #108]
 2981 0200 9B0B     		lsrs	r3, r3, #14
 2982 0202 DBB2     		uxtb	r3, r3
 2983 0204 03F00103 		and	r3, r3, #1
 2984 0208 DAB2     		uxtb	r2, r3
 2985 020a 3B68     		ldr	r3, [r7]
 2986 020c 5A76     		strb	r2, [r3, #25]
 2987 020e 7B68     		ldr	r3, [r7, #4]
 2988 0210 DB6E     		ldr	r3, [r3, #108]
 2989 0212 DB09     		lsrs	r3, r3, #7
 2990 0214 DBB2     		uxtb	r3, r3
 2991 0216 03F07F03 		and	r3, r3, #127
 2992 021a DAB2     		uxtb	r2, r3
 2993 021c 3B68     		ldr	r3, [r7]
 2994 021e 9A76     		strb	r2, [r3, #26]
 2995 0220 7B68     		ldr	r3, [r7, #4]
 2996 0222 DB6E     		ldr	r3, [r3, #108]
 2997 0224 DBB2     		uxtb	r3, r3
 2998 0226 03F07F03 		and	r3, r3, #127
 2999 022a DAB2     		uxtb	r2, r3
 3000 022c 3B68     		ldr	r3, [r7]
 3001 022e DA76     		strb	r2, [r3, #27]
 3002 0230 7B68     		ldr	r3, [r7, #4]
 3003 0232 1B6F     		ldr	r3, [r3, #112]
 3004 0234 DB0F     		lsrs	r3, r3, #31
 3005 0236 DAB2     		uxtb	r2, r3
ARM GAS  C:\Users\user\AppData\Local\Temp\ccf7Y9kA.s 			page 53


 3006 0238 3B68     		ldr	r3, [r7]
 3007 023a 1A77     		strb	r2, [r3, #28]
 3008 023c 7B68     		ldr	r3, [r7, #4]
 3009 023e 1B6F     		ldr	r3, [r3, #112]
 3010 0240 5B0F     		lsrs	r3, r3, #29
 3011 0242 DBB2     		uxtb	r3, r3
 3012 0244 03F00303 		and	r3, r3, #3
 3013 0248 DAB2     		uxtb	r2, r3
 3014 024a 3B68     		ldr	r3, [r7]
 3015 024c 5A77     		strb	r2, [r3, #29]
 3016 024e 7B68     		ldr	r3, [r7, #4]
 3017 0250 1B6F     		ldr	r3, [r3, #112]
 3018 0252 9B0E     		lsrs	r3, r3, #26
 3019 0254 DBB2     		uxtb	r3, r3
 3020 0256 03F00703 		and	r3, r3, #7
 3021 025a DAB2     		uxtb	r2, r3
 3022 025c 3B68     		ldr	r3, [r7]
 3023 025e 9A77     		strb	r2, [r3, #30]
 3024 0260 7B68     		ldr	r3, [r7, #4]
 3025 0262 1B6F     		ldr	r3, [r3, #112]
 3026 0264 9B0D     		lsrs	r3, r3, #22
 3027 0266 DBB2     		uxtb	r3, r3
 3028 0268 03F00F03 		and	r3, r3, #15
 3029 026c DAB2     		uxtb	r2, r3
 3030 026e 3B68     		ldr	r3, [r7]
 3031 0270 DA77     		strb	r2, [r3, #31]
 3032 0272 7B68     		ldr	r3, [r7, #4]
 3033 0274 1B6F     		ldr	r3, [r3, #112]
 3034 0276 5B0D     		lsrs	r3, r3, #21
 3035 0278 DBB2     		uxtb	r3, r3
 3036 027a 03F00103 		and	r3, r3, #1
 3037 027e DAB2     		uxtb	r2, r3
 3038 0280 3B68     		ldr	r3, [r7]
 3039 0282 83F82020 		strb	r2, [r3, #32]
 3040 0286 3B68     		ldr	r3, [r7]
 3041 0288 0022     		movs	r2, #0
 3042 028a 83F82120 		strb	r2, [r3, #33]
 3043 028e 7B68     		ldr	r3, [r7, #4]
 3044 0290 1B6F     		ldr	r3, [r3, #112]
 3045 0292 1B0C     		lsrs	r3, r3, #16
 3046 0294 DBB2     		uxtb	r3, r3
 3047 0296 03F00103 		and	r3, r3, #1
 3048 029a DAB2     		uxtb	r2, r3
 3049 029c 3B68     		ldr	r3, [r7]
 3050 029e 83F82220 		strb	r2, [r3, #34]
 3051 02a2 7B68     		ldr	r3, [r7, #4]
 3052 02a4 1B6F     		ldr	r3, [r3, #112]
 3053 02a6 DB0B     		lsrs	r3, r3, #15
 3054 02a8 DBB2     		uxtb	r3, r3
 3055 02aa 03F00103 		and	r3, r3, #1
 3056 02ae DAB2     		uxtb	r2, r3
 3057 02b0 3B68     		ldr	r3, [r7]
 3058 02b2 83F82320 		strb	r2, [r3, #35]
 3059 02b6 7B68     		ldr	r3, [r7, #4]
 3060 02b8 1B6F     		ldr	r3, [r3, #112]
 3061 02ba 9B0B     		lsrs	r3, r3, #14
 3062 02bc DBB2     		uxtb	r3, r3
ARM GAS  C:\Users\user\AppData\Local\Temp\ccf7Y9kA.s 			page 54


 3063 02be 03F00103 		and	r3, r3, #1
 3064 02c2 DAB2     		uxtb	r2, r3
 3065 02c4 3B68     		ldr	r3, [r7]
 3066 02c6 83F82420 		strb	r2, [r3, #36]
 3067 02ca 7B68     		ldr	r3, [r7, #4]
 3068 02cc 1B6F     		ldr	r3, [r3, #112]
 3069 02ce 5B0B     		lsrs	r3, r3, #13
 3070 02d0 DBB2     		uxtb	r3, r3
 3071 02d2 03F00103 		and	r3, r3, #1
 3072 02d6 DAB2     		uxtb	r2, r3
 3073 02d8 3B68     		ldr	r3, [r7]
 3074 02da 83F82520 		strb	r2, [r3, #37]
 3075 02de 7B68     		ldr	r3, [r7, #4]
 3076 02e0 1B6F     		ldr	r3, [r3, #112]
 3077 02e2 1B0B     		lsrs	r3, r3, #12
 3078 02e4 DBB2     		uxtb	r3, r3
 3079 02e6 03F00103 		and	r3, r3, #1
 3080 02ea DAB2     		uxtb	r2, r3
 3081 02ec 3B68     		ldr	r3, [r7]
 3082 02ee 83F82620 		strb	r2, [r3, #38]
 3083 02f2 7B68     		ldr	r3, [r7, #4]
 3084 02f4 1B6F     		ldr	r3, [r3, #112]
 3085 02f6 9B0A     		lsrs	r3, r3, #10
 3086 02f8 DBB2     		uxtb	r3, r3
 3087 02fa 03F00303 		and	r3, r3, #3
 3088 02fe DAB2     		uxtb	r2, r3
 3089 0300 3B68     		ldr	r3, [r7]
 3090 0302 83F82720 		strb	r2, [r3, #39]
 3091 0306 7B68     		ldr	r3, [r7, #4]
 3092 0308 1B6F     		ldr	r3, [r3, #112]
 3093 030a 1B0A     		lsrs	r3, r3, #8
 3094 030c DBB2     		uxtb	r3, r3
 3095 030e 03F00303 		and	r3, r3, #3
 3096 0312 DAB2     		uxtb	r2, r3
 3097 0314 3B68     		ldr	r3, [r7]
 3098 0316 83F82820 		strb	r2, [r3, #40]
 3099 031a 7B68     		ldr	r3, [r7, #4]
 3100 031c 1B6F     		ldr	r3, [r3, #112]
 3101 031e 5B08     		lsrs	r3, r3, #1
 3102 0320 DBB2     		uxtb	r3, r3
 3103 0322 03F07F03 		and	r3, r3, #127
 3104 0326 DAB2     		uxtb	r2, r3
 3105 0328 3B68     		ldr	r3, [r7]
 3106 032a 83F82920 		strb	r2, [r3, #41]
 3107 032e 3B68     		ldr	r3, [r7]
 3108 0330 0122     		movs	r2, #1
 3109 0332 83F82A20 		strb	r2, [r3, #42]
 3110 0336 0023     		movs	r3, #0
 3111              	.L175:
 3112 0338 1846     		mov	r0, r3
 3113 033a 0C37     		adds	r7, r7, #12
 3114 033c BD46     		mov	sp, r7
 3115              		@ sp needed
 3116 033e 5DF8047B 		ldr	r7, [sp], #4
 3117 0342 7047     		bx	lr
 3118              	.L177:
 3119              		.align	2
ARM GAS  C:\Users\user\AppData\Local\Temp\ccf7Y9kA.s 			page 55


 3120              	.L176:
 3121 0344 FF054000 		.word	4195839
 3123              		.section	.text.HAL_SD_GetCardStatus,"ax",%progbits
 3124              		.align	1
 3125              		.global	HAL_SD_GetCardStatus
 3126              		.syntax unified
 3127              		.thumb
 3128              		.thumb_func
 3130              	HAL_SD_GetCardStatus:
 3131              		@ args = 0, pretend = 0, frame = 80
 3132              		@ frame_needed = 1, uses_anonymous_args = 0
 3133 0000 80B5     		push	{r7, lr}
 3134 0002 94B0     		sub	sp, sp, #80
 3135 0004 00AF     		add	r7, sp, #0
 3136 0006 7860     		str	r0, [r7, #4]
 3137 0008 3960     		str	r1, [r7]
 3138 000a 0023     		movs	r3, #0
 3139 000c 87F84F30 		strb	r3, [r7, #79]
 3140 0010 07F10803 		add	r3, r7, #8
 3141 0014 1946     		mov	r1, r3
 3142 0016 7868     		ldr	r0, [r7, #4]
 3143 0018 FFF7FEFF 		bl	SD_SendSDStatus
 3144 001c B864     		str	r0, [r7, #72]
 3145 001e BB6C     		ldr	r3, [r7, #72]
 3146 0020 002B     		cmp	r3, #0
 3147 0022 11D0     		beq	.L179
 3148 0024 7B68     		ldr	r3, [r7, #4]
 3149 0026 1B68     		ldr	r3, [r3]
 3150 0028 454A     		ldr	r2, .L183
 3151 002a 9A63     		str	r2, [r3, #56]
 3152 002c 7B68     		ldr	r3, [r7, #4]
 3153 002e 9A6B     		ldr	r2, [r3, #56]
 3154 0030 BB6C     		ldr	r3, [r7, #72]
 3155 0032 1A43     		orrs	r2, r2, r3
 3156 0034 7B68     		ldr	r3, [r7, #4]
 3157 0036 9A63     		str	r2, [r3, #56]
 3158 0038 7B68     		ldr	r3, [r7, #4]
 3159 003a 0122     		movs	r2, #1
 3160 003c 83F83420 		strb	r2, [r3, #52]
 3161 0040 0123     		movs	r3, #1
 3162 0042 87F84F30 		strb	r3, [r7, #79]
 3163 0046 5CE0     		b	.L180
 3164              	.L179:
 3165 0048 BB68     		ldr	r3, [r7, #8]
 3166 004a 9B09     		lsrs	r3, r3, #6
 3167 004c DBB2     		uxtb	r3, r3
 3168 004e 03F00303 		and	r3, r3, #3
 3169 0052 DAB2     		uxtb	r2, r3
 3170 0054 3B68     		ldr	r3, [r7]
 3171 0056 1A70     		strb	r2, [r3]
 3172 0058 BB68     		ldr	r3, [r7, #8]
 3173 005a 5B09     		lsrs	r3, r3, #5
 3174 005c DBB2     		uxtb	r3, r3
 3175 005e 03F00103 		and	r3, r3, #1
 3176 0062 DAB2     		uxtb	r2, r3
 3177 0064 3B68     		ldr	r3, [r7]
 3178 0066 5A70     		strb	r2, [r3, #1]
ARM GAS  C:\Users\user\AppData\Local\Temp\ccf7Y9kA.s 			page 56


 3179 0068 BB68     		ldr	r3, [r7, #8]
 3180 006a 1B0A     		lsrs	r3, r3, #8
 3181 006c 9BB2     		uxth	r3, r3
 3182 006e 23F0FF03 		bic	r3, r3, #255
 3183 0072 9AB2     		uxth	r2, r3
 3184 0074 BB68     		ldr	r3, [r7, #8]
 3185 0076 1B0E     		lsrs	r3, r3, #24
 3186 0078 9BB2     		uxth	r3, r3
 3187 007a 1343     		orrs	r3, r3, r2
 3188 007c 9AB2     		uxth	r2, r3
 3189 007e 3B68     		ldr	r3, [r7]
 3190 0080 5A80     		strh	r2, [r3, #2]	@ movhi
 3191 0082 FB68     		ldr	r3, [r7, #12]
 3192 0084 1A06     		lsls	r2, r3, #24
 3193 0086 FB68     		ldr	r3, [r7, #12]
 3194 0088 1B02     		lsls	r3, r3, #8
 3195 008a 03F47F03 		and	r3, r3, #16711680
 3196 008e 1A43     		orrs	r2, r2, r3
 3197 0090 FB68     		ldr	r3, [r7, #12]
 3198 0092 1B0A     		lsrs	r3, r3, #8
 3199 0094 03F47F43 		and	r3, r3, #65280
 3200 0098 1A43     		orrs	r2, r2, r3
 3201 009a FB68     		ldr	r3, [r7, #12]
 3202 009c 1B0E     		lsrs	r3, r3, #24
 3203 009e 1A43     		orrs	r2, r2, r3
 3204 00a0 3B68     		ldr	r3, [r7]
 3205 00a2 5A60     		str	r2, [r3, #4]
 3206 00a4 3B69     		ldr	r3, [r7, #16]
 3207 00a6 DAB2     		uxtb	r2, r3
 3208 00a8 3B68     		ldr	r3, [r7]
 3209 00aa 1A72     		strb	r2, [r3, #8]
 3210 00ac 3B69     		ldr	r3, [r7, #16]
 3211 00ae 1B0A     		lsrs	r3, r3, #8
 3212 00b0 DAB2     		uxtb	r2, r3
 3213 00b2 3B68     		ldr	r3, [r7]
 3214 00b4 5A72     		strb	r2, [r3, #9]
 3215 00b6 3B69     		ldr	r3, [r7, #16]
 3216 00b8 1B0D     		lsrs	r3, r3, #20
 3217 00ba DBB2     		uxtb	r3, r3
 3218 00bc 03F00F03 		and	r3, r3, #15
 3219 00c0 DAB2     		uxtb	r2, r3
 3220 00c2 3B68     		ldr	r3, [r7]
 3221 00c4 9A72     		strb	r2, [r3, #10]
 3222 00c6 3B69     		ldr	r3, [r7, #16]
 3223 00c8 1B0C     		lsrs	r3, r3, #16
 3224 00ca 9BB2     		uxth	r3, r3
 3225 00cc 23F0FF03 		bic	r3, r3, #255
 3226 00d0 9AB2     		uxth	r2, r3
 3227 00d2 7B69     		ldr	r3, [r7, #20]
 3228 00d4 9BB2     		uxth	r3, r3
 3229 00d6 DBB2     		uxtb	r3, r3
 3230 00d8 9BB2     		uxth	r3, r3
 3231 00da 1343     		orrs	r3, r3, r2
 3232 00dc 9AB2     		uxth	r2, r3
 3233 00de 3B68     		ldr	r3, [r7]
 3234 00e0 9A81     		strh	r2, [r3, #12]	@ movhi
 3235 00e2 7B69     		ldr	r3, [r7, #20]
ARM GAS  C:\Users\user\AppData\Local\Temp\ccf7Y9kA.s 			page 57


 3236 00e4 9B0A     		lsrs	r3, r3, #10
 3237 00e6 DBB2     		uxtb	r3, r3
 3238 00e8 03F03F03 		and	r3, r3, #63
 3239 00ec DAB2     		uxtb	r2, r3
 3240 00ee 3B68     		ldr	r3, [r7]
 3241 00f0 9A73     		strb	r2, [r3, #14]
 3242 00f2 7B69     		ldr	r3, [r7, #20]
 3243 00f4 1B0A     		lsrs	r3, r3, #8
 3244 00f6 DBB2     		uxtb	r3, r3
 3245 00f8 03F00303 		and	r3, r3, #3
 3246 00fc DAB2     		uxtb	r2, r3
 3247 00fe 3B68     		ldr	r3, [r7]
 3248 0100 DA73     		strb	r2, [r3, #15]
 3249              	.L180:
 3250 0102 7B68     		ldr	r3, [r7, #4]
 3251 0104 1B68     		ldr	r3, [r3]
 3252 0106 4FF40071 		mov	r1, #512
 3253 010a 1846     		mov	r0, r3
 3254 010c FFF7FEFF 		bl	SDMMC_CmdBlockLength
 3255 0110 B864     		str	r0, [r7, #72]
 3256 0112 BB6C     		ldr	r3, [r7, #72]
 3257 0114 002B     		cmp	r3, #0
 3258 0116 0DD0     		beq	.L181
 3259 0118 7B68     		ldr	r3, [r7, #4]
 3260 011a 1B68     		ldr	r3, [r3]
 3261 011c 084A     		ldr	r2, .L183
 3262 011e 9A63     		str	r2, [r3, #56]
 3263 0120 7B68     		ldr	r3, [r7, #4]
 3264 0122 BA6C     		ldr	r2, [r7, #72]
 3265 0124 9A63     		str	r2, [r3, #56]
 3266 0126 7B68     		ldr	r3, [r7, #4]
 3267 0128 0122     		movs	r2, #1
 3268 012a 83F83420 		strb	r2, [r3, #52]
 3269 012e 0123     		movs	r3, #1
 3270 0130 87F84F30 		strb	r3, [r7, #79]
 3271              	.L181:
 3272 0134 97F84F30 		ldrb	r3, [r7, #79]	@ zero_extendqisi2
 3273 0138 1846     		mov	r0, r3
 3274 013a 5037     		adds	r7, r7, #80
 3275 013c BD46     		mov	sp, r7
 3276              		@ sp needed
 3277 013e 80BD     		pop	{r7, pc}
 3278              	.L184:
 3279              		.align	2
 3280              	.L183:
 3281 0140 FF054000 		.word	4195839
 3283              		.section	.text.HAL_SD_GetCardInfo,"ax",%progbits
 3284              		.align	1
 3285              		.global	HAL_SD_GetCardInfo
 3286              		.syntax unified
 3287              		.thumb
 3288              		.thumb_func
 3290              	HAL_SD_GetCardInfo:
 3291              		@ args = 0, pretend = 0, frame = 8
 3292              		@ frame_needed = 1, uses_anonymous_args = 0
 3293              		@ link register save eliminated.
 3294 0000 80B4     		push	{r7}
ARM GAS  C:\Users\user\AppData\Local\Temp\ccf7Y9kA.s 			page 58


 3295 0002 83B0     		sub	sp, sp, #12
 3296 0004 00AF     		add	r7, sp, #0
 3297 0006 7860     		str	r0, [r7, #4]
 3298 0008 3960     		str	r1, [r7]
 3299 000a 7B68     		ldr	r3, [r7, #4]
 3300 000c 5A6C     		ldr	r2, [r3, #68]
 3301 000e 3B68     		ldr	r3, [r7]
 3302 0010 1A60     		str	r2, [r3]
 3303 0012 7B68     		ldr	r3, [r7, #4]
 3304 0014 9A6C     		ldr	r2, [r3, #72]
 3305 0016 3B68     		ldr	r3, [r7]
 3306 0018 5A60     		str	r2, [r3, #4]
 3307 001a 7B68     		ldr	r3, [r7, #4]
 3308 001c DA6C     		ldr	r2, [r3, #76]
 3309 001e 3B68     		ldr	r3, [r7]
 3310 0020 9A60     		str	r2, [r3, #8]
 3311 0022 7B68     		ldr	r3, [r7, #4]
 3312 0024 1A6D     		ldr	r2, [r3, #80]
 3313 0026 3B68     		ldr	r3, [r7]
 3314 0028 DA60     		str	r2, [r3, #12]
 3315 002a 7B68     		ldr	r3, [r7, #4]
 3316 002c 5A6D     		ldr	r2, [r3, #84]
 3317 002e 3B68     		ldr	r3, [r7]
 3318 0030 1A61     		str	r2, [r3, #16]
 3319 0032 7B68     		ldr	r3, [r7, #4]
 3320 0034 9A6D     		ldr	r2, [r3, #88]
 3321 0036 3B68     		ldr	r3, [r7]
 3322 0038 5A61     		str	r2, [r3, #20]
 3323 003a 7B68     		ldr	r3, [r7, #4]
 3324 003c DA6D     		ldr	r2, [r3, #92]
 3325 003e 3B68     		ldr	r3, [r7]
 3326 0040 9A61     		str	r2, [r3, #24]
 3327 0042 7B68     		ldr	r3, [r7, #4]
 3328 0044 1A6E     		ldr	r2, [r3, #96]
 3329 0046 3B68     		ldr	r3, [r7]
 3330 0048 DA61     		str	r2, [r3, #28]
 3331 004a 0023     		movs	r3, #0
 3332 004c 1846     		mov	r0, r3
 3333 004e 0C37     		adds	r7, r7, #12
 3334 0050 BD46     		mov	sp, r7
 3335              		@ sp needed
 3336 0052 5DF8047B 		ldr	r7, [sp], #4
 3337 0056 7047     		bx	lr
 3339              		.section	.text.HAL_SD_ConfigWideBusOperation,"ax",%progbits
 3340              		.align	1
 3341              		.global	HAL_SD_ConfigWideBusOperation
 3342              		.syntax unified
 3343              		.thumb
 3344              		.thumb_func
 3346              	HAL_SD_ConfigWideBusOperation:
 3347              		@ args = 0, pretend = 0, frame = 40
 3348              		@ frame_needed = 1, uses_anonymous_args = 0
 3349 0000 B0B5     		push	{r4, r5, r7, lr}
 3350 0002 8EB0     		sub	sp, sp, #56
 3351 0004 04AF     		add	r7, sp, #16
 3352 0006 7860     		str	r0, [r7, #4]
 3353 0008 3960     		str	r1, [r7]
ARM GAS  C:\Users\user\AppData\Local\Temp\ccf7Y9kA.s 			page 59


 3354 000a 0023     		movs	r3, #0
 3355 000c 87F82730 		strb	r3, [r7, #39]
 3356 0010 7B68     		ldr	r3, [r7, #4]
 3357 0012 0322     		movs	r2, #3
 3358 0014 83F83420 		strb	r2, [r3, #52]
 3359 0018 7B68     		ldr	r3, [r7, #4]
 3360 001a 5B6C     		ldr	r3, [r3, #68]
 3361 001c 032B     		cmp	r3, #3
 3362 001e 2ED0     		beq	.L188
 3363 0020 3B68     		ldr	r3, [r7]
 3364 0022 B3F5805F 		cmp	r3, #4096
 3365 0026 06D1     		bne	.L189
 3366 0028 7B68     		ldr	r3, [r7, #4]
 3367 002a 9B6B     		ldr	r3, [r3, #56]
 3368 002c 43F08052 		orr	r2, r3, #268435456
 3369 0030 7B68     		ldr	r3, [r7, #4]
 3370 0032 9A63     		str	r2, [r3, #56]
 3371 0034 29E0     		b	.L190
 3372              	.L189:
 3373 0036 3B68     		ldr	r3, [r7]
 3374 0038 B3F5006F 		cmp	r3, #2048
 3375 003c 0AD1     		bne	.L191
 3376 003e 7868     		ldr	r0, [r7, #4]
 3377 0040 FFF7FEFF 		bl	SD_WideBus_Enable
 3378 0044 3862     		str	r0, [r7, #32]
 3379 0046 7B68     		ldr	r3, [r7, #4]
 3380 0048 9A6B     		ldr	r2, [r3, #56]
 3381 004a 3B6A     		ldr	r3, [r7, #32]
 3382 004c 1A43     		orrs	r2, r2, r3
 3383 004e 7B68     		ldr	r3, [r7, #4]
 3384 0050 9A63     		str	r2, [r3, #56]
 3385 0052 1AE0     		b	.L190
 3386              	.L191:
 3387 0054 3B68     		ldr	r3, [r7]
 3388 0056 002B     		cmp	r3, #0
 3389 0058 0AD1     		bne	.L192
 3390 005a 7868     		ldr	r0, [r7, #4]
 3391 005c FFF7FEFF 		bl	SD_WideBus_Disable
 3392 0060 3862     		str	r0, [r7, #32]
 3393 0062 7B68     		ldr	r3, [r7, #4]
 3394 0064 9A6B     		ldr	r2, [r3, #56]
 3395 0066 3B6A     		ldr	r3, [r7, #32]
 3396 0068 1A43     		orrs	r2, r2, r3
 3397 006a 7B68     		ldr	r3, [r7, #4]
 3398 006c 9A63     		str	r2, [r3, #56]
 3399 006e 0CE0     		b	.L190
 3400              	.L192:
 3401 0070 7B68     		ldr	r3, [r7, #4]
 3402 0072 9B6B     		ldr	r3, [r3, #56]
 3403 0074 43F00062 		orr	r2, r3, #134217728
 3404 0078 7B68     		ldr	r3, [r7, #4]
 3405 007a 9A63     		str	r2, [r3, #56]
 3406 007c 05E0     		b	.L190
 3407              	.L188:
 3408 007e 7B68     		ldr	r3, [r7, #4]
 3409 0080 9B6B     		ldr	r3, [r3, #56]
 3410 0082 43F08052 		orr	r2, r3, #268435456
ARM GAS  C:\Users\user\AppData\Local\Temp\ccf7Y9kA.s 			page 60


 3411 0086 7B68     		ldr	r3, [r7, #4]
 3412 0088 9A63     		str	r2, [r3, #56]
 3413              	.L190:
 3414 008a 7B68     		ldr	r3, [r7, #4]
 3415 008c 9B6B     		ldr	r3, [r3, #56]
 3416 008e 002B     		cmp	r3, #0
 3417 0090 0BD0     		beq	.L193
 3418 0092 7B68     		ldr	r3, [r7, #4]
 3419 0094 1B68     		ldr	r3, [r3]
 3420 0096 264A     		ldr	r2, .L197
 3421 0098 9A63     		str	r2, [r3, #56]
 3422 009a 7B68     		ldr	r3, [r7, #4]
 3423 009c 0122     		movs	r2, #1
 3424 009e 83F83420 		strb	r2, [r3, #52]
 3425 00a2 0123     		movs	r3, #1
 3426 00a4 87F82730 		strb	r3, [r7, #39]
 3427 00a8 1FE0     		b	.L194
 3428              	.L193:
 3429 00aa 7B68     		ldr	r3, [r7, #4]
 3430 00ac 5B68     		ldr	r3, [r3, #4]
 3431 00ae BB60     		str	r3, [r7, #8]
 3432 00b0 7B68     		ldr	r3, [r7, #4]
 3433 00b2 9B68     		ldr	r3, [r3, #8]
 3434 00b4 FB60     		str	r3, [r7, #12]
 3435 00b6 7B68     		ldr	r3, [r7, #4]
 3436 00b8 DB68     		ldr	r3, [r3, #12]
 3437 00ba 3B61     		str	r3, [r7, #16]
 3438 00bc 3B68     		ldr	r3, [r7]
 3439 00be 7B61     		str	r3, [r7, #20]
 3440 00c0 7B68     		ldr	r3, [r7, #4]
 3441 00c2 5B69     		ldr	r3, [r3, #20]
 3442 00c4 BB61     		str	r3, [r7, #24]
 3443 00c6 7B68     		ldr	r3, [r7, #4]
 3444 00c8 9B69     		ldr	r3, [r3, #24]
 3445 00ca FB61     		str	r3, [r7, #28]
 3446 00cc 7B68     		ldr	r3, [r7, #4]
 3447 00ce 1D68     		ldr	r5, [r3]
 3448 00d0 6C46     		mov	r4, sp
 3449 00d2 07F11403 		add	r3, r7, #20
 3450 00d6 93E80700 		ldm	r3, {r0, r1, r2}
 3451 00da 84E80700 		stm	r4, {r0, r1, r2}
 3452 00de 07F10803 		add	r3, r7, #8
 3453 00e2 0ECB     		ldm	r3, {r1, r2, r3}
 3454 00e4 2846     		mov	r0, r5
 3455 00e6 FFF7FEFF 		bl	SDIO_Init
 3456              	.L194:
 3457 00ea 7B68     		ldr	r3, [r7, #4]
 3458 00ec 1B68     		ldr	r3, [r3]
 3459 00ee 4FF40071 		mov	r1, #512
 3460 00f2 1846     		mov	r0, r3
 3461 00f4 FFF7FEFF 		bl	SDMMC_CmdBlockLength
 3462 00f8 3862     		str	r0, [r7, #32]
 3463 00fa 3B6A     		ldr	r3, [r7, #32]
 3464 00fc 002B     		cmp	r3, #0
 3465 00fe 0CD0     		beq	.L195
 3466 0100 7B68     		ldr	r3, [r7, #4]
 3467 0102 1B68     		ldr	r3, [r3]
ARM GAS  C:\Users\user\AppData\Local\Temp\ccf7Y9kA.s 			page 61


 3468 0104 0A4A     		ldr	r2, .L197
 3469 0106 9A63     		str	r2, [r3, #56]
 3470 0108 7B68     		ldr	r3, [r7, #4]
 3471 010a 9A6B     		ldr	r2, [r3, #56]
 3472 010c 3B6A     		ldr	r3, [r7, #32]
 3473 010e 1A43     		orrs	r2, r2, r3
 3474 0110 7B68     		ldr	r3, [r7, #4]
 3475 0112 9A63     		str	r2, [r3, #56]
 3476 0114 0123     		movs	r3, #1
 3477 0116 87F82730 		strb	r3, [r7, #39]
 3478              	.L195:
 3479 011a 7B68     		ldr	r3, [r7, #4]
 3480 011c 0122     		movs	r2, #1
 3481 011e 83F83420 		strb	r2, [r3, #52]
 3482 0122 97F82730 		ldrb	r3, [r7, #39]	@ zero_extendqisi2
 3483 0126 1846     		mov	r0, r3
 3484 0128 2837     		adds	r7, r7, #40
 3485 012a BD46     		mov	sp, r7
 3486              		@ sp needed
 3487 012c B0BD     		pop	{r4, r5, r7, pc}
 3488              	.L198:
 3489 012e 00BF     		.align	2
 3490              	.L197:
 3491 0130 FF054000 		.word	4195839
 3493              		.section	.text.HAL_SD_GetCardState,"ax",%progbits
 3494              		.align	1
 3495              		.global	HAL_SD_GetCardState
 3496              		.syntax unified
 3497              		.thumb
 3498              		.thumb_func
 3500              	HAL_SD_GetCardState:
 3501              		@ args = 0, pretend = 0, frame = 24
 3502              		@ frame_needed = 1, uses_anonymous_args = 0
 3503 0000 80B5     		push	{r7, lr}
 3504 0002 86B0     		sub	sp, sp, #24
 3505 0004 00AF     		add	r7, sp, #0
 3506 0006 7860     		str	r0, [r7, #4]
 3507 0008 0023     		movs	r3, #0
 3508 000a FB60     		str	r3, [r7, #12]
 3509 000c 07F10C03 		add	r3, r7, #12
 3510 0010 1946     		mov	r1, r3
 3511 0012 7868     		ldr	r0, [r7, #4]
 3512 0014 FFF7FEFF 		bl	SD_SendStatus
 3513 0018 7861     		str	r0, [r7, #20]
 3514 001a 7B69     		ldr	r3, [r7, #20]
 3515 001c 002B     		cmp	r3, #0
 3516 001e 05D0     		beq	.L200
 3517 0020 7B68     		ldr	r3, [r7, #4]
 3518 0022 9A6B     		ldr	r2, [r3, #56]
 3519 0024 7B69     		ldr	r3, [r7, #20]
 3520 0026 1A43     		orrs	r2, r2, r3
 3521 0028 7B68     		ldr	r3, [r7, #4]
 3522 002a 9A63     		str	r2, [r3, #56]
 3523              	.L200:
 3524 002c FB68     		ldr	r3, [r7, #12]
 3525 002e 5B0A     		lsrs	r3, r3, #9
 3526 0030 03F00F03 		and	r3, r3, #15
ARM GAS  C:\Users\user\AppData\Local\Temp\ccf7Y9kA.s 			page 62


 3527 0034 3B61     		str	r3, [r7, #16]
 3528 0036 3B69     		ldr	r3, [r7, #16]
 3529 0038 1846     		mov	r0, r3
 3530 003a 1837     		adds	r7, r7, #24
 3531 003c BD46     		mov	sp, r7
 3532              		@ sp needed
 3533 003e 80BD     		pop	{r7, pc}
 3535              		.section	.text.HAL_SD_Abort,"ax",%progbits
 3536              		.align	1
 3537              		.global	HAL_SD_Abort
 3538              		.syntax unified
 3539              		.thumb
 3540              		.thumb_func
 3542              	HAL_SD_Abort:
 3543              		@ args = 0, pretend = 0, frame = 16
 3544              		@ frame_needed = 1, uses_anonymous_args = 0
 3545 0000 80B5     		push	{r7, lr}
 3546 0002 84B0     		sub	sp, sp, #16
 3547 0004 00AF     		add	r7, sp, #0
 3548 0006 7860     		str	r0, [r7, #4]
 3549 0008 7B68     		ldr	r3, [r7, #4]
 3550 000a 1B6B     		ldr	r3, [r3, #48]
 3551 000c FB60     		str	r3, [r7, #12]
 3552 000e 7B68     		ldr	r3, [r7, #4]
 3553 0010 1B68     		ldr	r3, [r3]
 3554 0012 DA6B     		ldr	r2, [r3, #60]
 3555 0014 7B68     		ldr	r3, [r7, #4]
 3556 0016 1B68     		ldr	r3, [r3]
 3557 0018 22F49D72 		bic	r2, r2, #314
 3558 001c DA63     		str	r2, [r3, #60]
 3559 001e 7B68     		ldr	r3, [r7, #4]
 3560 0020 1B68     		ldr	r3, [r3]
 3561 0022 40F23A52 		movw	r2, #1338
 3562 0026 9A63     		str	r2, [r3, #56]
 3563 0028 7B68     		ldr	r3, [r7, #4]
 3564 002a 1B68     		ldr	r3, [r3]
 3565 002c DA6A     		ldr	r2, [r3, #44]
 3566 002e 7B68     		ldr	r3, [r7, #4]
 3567 0030 1B68     		ldr	r3, [r3]
 3568 0032 22F00102 		bic	r2, r2, #1
 3569 0036 DA62     		str	r2, [r3, #44]
 3570 0038 FB68     		ldr	r3, [r7, #12]
 3571 003a 03F08003 		and	r3, r3, #128
 3572 003e 002B     		cmp	r3, #0
 3573 0040 38D0     		beq	.L203
 3574 0042 7B68     		ldr	r3, [r7, #4]
 3575 0044 1B68     		ldr	r3, [r3]
 3576 0046 DA6A     		ldr	r2, [r3, #44]
 3577 0048 7B68     		ldr	r3, [r7, #4]
 3578 004a 1B68     		ldr	r3, [r3]
 3579 004c 22F00802 		bic	r2, r2, #8
 3580 0050 DA62     		str	r2, [r3, #44]
 3581 0052 FB68     		ldr	r3, [r7, #12]
 3582 0054 03F01003 		and	r3, r3, #16
 3583 0058 002B     		cmp	r3, #0
 3584 005a 04D1     		bne	.L204
 3585 005c FB68     		ldr	r3, [r7, #12]
ARM GAS  C:\Users\user\AppData\Local\Temp\ccf7Y9kA.s 			page 63


 3586 005e 03F02003 		and	r3, r3, #32
 3587 0062 002B     		cmp	r3, #0
 3588 0064 0ED0     		beq	.L205
 3589              	.L204:
 3590 0066 7B68     		ldr	r3, [r7, #4]
 3591 0068 DB6B     		ldr	r3, [r3, #60]
 3592 006a 1846     		mov	r0, r3
 3593 006c FFF7FEFF 		bl	HAL_DMA_Abort
 3594 0070 0346     		mov	r3, r0
 3595 0072 002B     		cmp	r3, #0
 3596 0074 1ED0     		beq	.L203
 3597 0076 7B68     		ldr	r3, [r7, #4]
 3598 0078 9B6B     		ldr	r3, [r3, #56]
 3599 007a 43F08042 		orr	r2, r3, #1073741824
 3600 007e 7B68     		ldr	r3, [r7, #4]
 3601 0080 9A63     		str	r2, [r3, #56]
 3602 0082 17E0     		b	.L203
 3603              	.L205:
 3604 0084 FB68     		ldr	r3, [r7, #12]
 3605 0086 03F00103 		and	r3, r3, #1
 3606 008a 002B     		cmp	r3, #0
 3607 008c 04D1     		bne	.L207
 3608 008e FB68     		ldr	r3, [r7, #12]
 3609 0090 03F00203 		and	r3, r3, #2
 3610 0094 002B     		cmp	r3, #0
 3611 0096 0DD0     		beq	.L203
 3612              	.L207:
 3613 0098 7B68     		ldr	r3, [r7, #4]
 3614 009a 1B6C     		ldr	r3, [r3, #64]
 3615 009c 1846     		mov	r0, r3
 3616 009e FFF7FEFF 		bl	HAL_DMA_Abort
 3617 00a2 0346     		mov	r3, r0
 3618 00a4 002B     		cmp	r3, #0
 3619 00a6 05D0     		beq	.L203
 3620 00a8 7B68     		ldr	r3, [r7, #4]
 3621 00aa 9B6B     		ldr	r3, [r3, #56]
 3622 00ac 43F08042 		orr	r2, r3, #1073741824
 3623 00b0 7B68     		ldr	r3, [r7, #4]
 3624 00b2 9A63     		str	r2, [r3, #56]
 3625              	.L203:
 3626 00b4 7B68     		ldr	r3, [r7, #4]
 3627 00b6 0122     		movs	r2, #1
 3628 00b8 83F83420 		strb	r2, [r3, #52]
 3629 00bc 7B68     		ldr	r3, [r7, #4]
 3630 00be 0022     		movs	r2, #0
 3631 00c0 1A63     		str	r2, [r3, #48]
 3632 00c2 7868     		ldr	r0, [r7, #4]
 3633 00c4 FFF7FEFF 		bl	HAL_SD_GetCardState
 3634 00c8 B860     		str	r0, [r7, #8]
 3635 00ca BB68     		ldr	r3, [r7, #8]
 3636 00cc 062B     		cmp	r3, #6
 3637 00ce 02D0     		beq	.L208
 3638 00d0 BB68     		ldr	r3, [r7, #8]
 3639 00d2 052B     		cmp	r3, #5
 3640 00d4 07D1     		bne	.L209
 3641              	.L208:
 3642 00d6 7B68     		ldr	r3, [r7, #4]
ARM GAS  C:\Users\user\AppData\Local\Temp\ccf7Y9kA.s 			page 64


 3643 00d8 1B68     		ldr	r3, [r3]
 3644 00da 1846     		mov	r0, r3
 3645 00dc FFF7FEFF 		bl	SDMMC_CmdStopTransfer
 3646 00e0 0246     		mov	r2, r0
 3647 00e2 7B68     		ldr	r3, [r7, #4]
 3648 00e4 9A63     		str	r2, [r3, #56]
 3649              	.L209:
 3650 00e6 7B68     		ldr	r3, [r7, #4]
 3651 00e8 9B6B     		ldr	r3, [r3, #56]
 3652 00ea 002B     		cmp	r3, #0
 3653 00ec 01D0     		beq	.L210
 3654 00ee 0123     		movs	r3, #1
 3655 00f0 00E0     		b	.L211
 3656              	.L210:
 3657 00f2 0023     		movs	r3, #0
 3658              	.L211:
 3659 00f4 1846     		mov	r0, r3
 3660 00f6 1037     		adds	r7, r7, #16
 3661 00f8 BD46     		mov	sp, r7
 3662              		@ sp needed
 3663 00fa 80BD     		pop	{r7, pc}
 3665              		.section	.text.HAL_SD_Abort_IT,"ax",%progbits
 3666              		.align	1
 3667              		.global	HAL_SD_Abort_IT
 3668              		.syntax unified
 3669              		.thumb
 3670              		.thumb_func
 3672              	HAL_SD_Abort_IT:
 3673              		@ args = 0, pretend = 0, frame = 16
 3674              		@ frame_needed = 1, uses_anonymous_args = 0
 3675 0000 80B5     		push	{r7, lr}
 3676 0002 84B0     		sub	sp, sp, #16
 3677 0004 00AF     		add	r7, sp, #0
 3678 0006 7860     		str	r0, [r7, #4]
 3679 0008 7B68     		ldr	r3, [r7, #4]
 3680 000a 1B6B     		ldr	r3, [r3, #48]
 3681 000c FB60     		str	r3, [r7, #12]
 3682 000e 7B68     		ldr	r3, [r7, #4]
 3683 0010 1B68     		ldr	r3, [r3]
 3684 0012 DA6B     		ldr	r2, [r3, #60]
 3685 0014 7B68     		ldr	r3, [r7, #4]
 3686 0016 1B68     		ldr	r3, [r3]
 3687 0018 22F49D72 		bic	r2, r2, #314
 3688 001c DA63     		str	r2, [r3, #60]
 3689 001e 7B68     		ldr	r3, [r7, #4]
 3690 0020 1B68     		ldr	r3, [r3]
 3691 0022 DA6A     		ldr	r2, [r3, #44]
 3692 0024 7B68     		ldr	r3, [r7, #4]
 3693 0026 1B68     		ldr	r3, [r3]
 3694 0028 22F00102 		bic	r2, r2, #1
 3695 002c DA62     		str	r2, [r3, #44]
 3696 002e FB68     		ldr	r3, [r7, #12]
 3697 0030 03F08003 		and	r3, r3, #128
 3698 0034 002B     		cmp	r3, #0
 3699 0036 3BD0     		beq	.L213
 3700 0038 7B68     		ldr	r3, [r7, #4]
 3701 003a 1B68     		ldr	r3, [r3]
ARM GAS  C:\Users\user\AppData\Local\Temp\ccf7Y9kA.s 			page 65


 3702 003c DA6A     		ldr	r2, [r3, #44]
 3703 003e 7B68     		ldr	r3, [r7, #4]
 3704 0040 1B68     		ldr	r3, [r3]
 3705 0042 22F00802 		bic	r2, r2, #8
 3706 0046 DA62     		str	r2, [r3, #44]
 3707 0048 FB68     		ldr	r3, [r7, #12]
 3708 004a 03F01003 		and	r3, r3, #16
 3709 004e 002B     		cmp	r3, #0
 3710 0050 04D1     		bne	.L214
 3711 0052 FB68     		ldr	r3, [r7, #12]
 3712 0054 03F02003 		and	r3, r3, #32
 3713 0058 002B     		cmp	r3, #0
 3714 005a 0FD0     		beq	.L215
 3715              	.L214:
 3716 005c 7B68     		ldr	r3, [r7, #4]
 3717 005e DB6B     		ldr	r3, [r3, #60]
 3718 0060 294A     		ldr	r2, .L224
 3719 0062 1A65     		str	r2, [r3, #80]
 3720 0064 7B68     		ldr	r3, [r7, #4]
 3721 0066 DB6B     		ldr	r3, [r3, #60]
 3722 0068 1846     		mov	r0, r3
 3723 006a FFF7FEFF 		bl	HAL_DMA_Abort_IT
 3724 006e 0346     		mov	r3, r0
 3725 0070 002B     		cmp	r3, #0
 3726 0072 44D0     		beq	.L219
 3727 0074 7B68     		ldr	r3, [r7, #4]
 3728 0076 0022     		movs	r2, #0
 3729 0078 DA63     		str	r2, [r3, #60]
 3730 007a 40E0     		b	.L219
 3731              	.L215:
 3732 007c FB68     		ldr	r3, [r7, #12]
 3733 007e 03F00103 		and	r3, r3, #1
 3734 0082 002B     		cmp	r3, #0
 3735 0084 04D1     		bne	.L218
 3736 0086 FB68     		ldr	r3, [r7, #12]
 3737 0088 03F00203 		and	r3, r3, #2
 3738 008c 002B     		cmp	r3, #0
 3739 008e 36D0     		beq	.L219
 3740              	.L218:
 3741 0090 7B68     		ldr	r3, [r7, #4]
 3742 0092 1B6C     		ldr	r3, [r3, #64]
 3743 0094 1D4A     		ldr	r2, .L224+4
 3744 0096 1A65     		str	r2, [r3, #80]
 3745 0098 7B68     		ldr	r3, [r7, #4]
 3746 009a 1B6C     		ldr	r3, [r3, #64]
 3747 009c 1846     		mov	r0, r3
 3748 009e FFF7FEFF 		bl	HAL_DMA_Abort_IT
 3749 00a2 0346     		mov	r3, r0
 3750 00a4 002B     		cmp	r3, #0
 3751 00a6 2AD0     		beq	.L219
 3752 00a8 7B68     		ldr	r3, [r7, #4]
 3753 00aa 0022     		movs	r2, #0
 3754 00ac 1A64     		str	r2, [r3, #64]
 3755 00ae 26E0     		b	.L219
 3756              	.L213:
 3757 00b0 7B68     		ldr	r3, [r7, #4]
 3758 00b2 1B68     		ldr	r3, [r3]
ARM GAS  C:\Users\user\AppData\Local\Temp\ccf7Y9kA.s 			page 66


 3759 00b4 40F23A52 		movw	r2, #1338
 3760 00b8 9A63     		str	r2, [r3, #56]
 3761 00ba 7868     		ldr	r0, [r7, #4]
 3762 00bc FFF7FEFF 		bl	HAL_SD_GetCardState
 3763 00c0 B860     		str	r0, [r7, #8]
 3764 00c2 7B68     		ldr	r3, [r7, #4]
 3765 00c4 0122     		movs	r2, #1
 3766 00c6 83F83420 		strb	r2, [r3, #52]
 3767 00ca 7B68     		ldr	r3, [r7, #4]
 3768 00cc 0022     		movs	r2, #0
 3769 00ce 1A63     		str	r2, [r3, #48]
 3770 00d0 BB68     		ldr	r3, [r7, #8]
 3771 00d2 062B     		cmp	r3, #6
 3772 00d4 02D0     		beq	.L220
 3773 00d6 BB68     		ldr	r3, [r7, #8]
 3774 00d8 052B     		cmp	r3, #5
 3775 00da 07D1     		bne	.L221
 3776              	.L220:
 3777 00dc 7B68     		ldr	r3, [r7, #4]
 3778 00de 1B68     		ldr	r3, [r3]
 3779 00e0 1846     		mov	r0, r3
 3780 00e2 FFF7FEFF 		bl	SDMMC_CmdStopTransfer
 3781 00e6 0246     		mov	r2, r0
 3782 00e8 7B68     		ldr	r3, [r7, #4]
 3783 00ea 9A63     		str	r2, [r3, #56]
 3784              	.L221:
 3785 00ec 7B68     		ldr	r3, [r7, #4]
 3786 00ee 9B6B     		ldr	r3, [r3, #56]
 3787 00f0 002B     		cmp	r3, #0
 3788 00f2 01D0     		beq	.L222
 3789 00f4 0123     		movs	r3, #1
 3790 00f6 03E0     		b	.L223
 3791              	.L222:
 3792 00f8 7868     		ldr	r0, [r7, #4]
 3793 00fa FFF7FEFF 		bl	HAL_SD_AbortCallback
 3794              	.L219:
 3795 00fe 0023     		movs	r3, #0
 3796              	.L223:
 3797 0100 1846     		mov	r0, r3
 3798 0102 1037     		adds	r7, r7, #16
 3799 0104 BD46     		mov	sp, r7
 3800              		@ sp needed
 3801 0106 80BD     		pop	{r7, pc}
 3802              	.L225:
 3803              		.align	2
 3804              	.L224:
 3805 0108 00000000 		.word	SD_DMATxAbort
 3806 010c 00000000 		.word	SD_DMARxAbort
 3808              		.section	.text.SD_DMATransmitCplt,"ax",%progbits
 3809              		.align	1
 3810              		.syntax unified
 3811              		.thumb
 3812              		.thumb_func
 3814              	SD_DMATransmitCplt:
 3815              		@ args = 0, pretend = 0, frame = 16
 3816              		@ frame_needed = 1, uses_anonymous_args = 0
 3817              		@ link register save eliminated.
ARM GAS  C:\Users\user\AppData\Local\Temp\ccf7Y9kA.s 			page 67


 3818 0000 80B4     		push	{r7}
 3819 0002 85B0     		sub	sp, sp, #20
 3820 0004 00AF     		add	r7, sp, #0
 3821 0006 7860     		str	r0, [r7, #4]
 3822 0008 7B68     		ldr	r3, [r7, #4]
 3823 000a 9B6B     		ldr	r3, [r3, #56]
 3824 000c FB60     		str	r3, [r7, #12]
 3825 000e FB68     		ldr	r3, [r7, #12]
 3826 0010 1B68     		ldr	r3, [r3]
 3827 0012 DA6B     		ldr	r2, [r3, #60]
 3828 0014 FB68     		ldr	r3, [r7, #12]
 3829 0016 1B68     		ldr	r3, [r3]
 3830 0018 42F48072 		orr	r2, r2, #256
 3831 001c DA63     		str	r2, [r3, #60]
 3832 001e 00BF     		nop
 3833 0020 1437     		adds	r7, r7, #20
 3834 0022 BD46     		mov	sp, r7
 3835              		@ sp needed
 3836 0024 5DF8047B 		ldr	r7, [sp], #4
 3837 0028 7047     		bx	lr
 3839              		.section	.text.SD_DMAReceiveCplt,"ax",%progbits
 3840              		.align	1
 3841              		.syntax unified
 3842              		.thumb
 3843              		.thumb_func
 3845              	SD_DMAReceiveCplt:
 3846              		@ args = 0, pretend = 0, frame = 16
 3847              		@ frame_needed = 1, uses_anonymous_args = 0
 3848 0000 80B5     		push	{r7, lr}
 3849 0002 84B0     		sub	sp, sp, #16
 3850 0004 00AF     		add	r7, sp, #0
 3851 0006 7860     		str	r0, [r7, #4]
 3852 0008 7B68     		ldr	r3, [r7, #4]
 3853 000a 9B6B     		ldr	r3, [r3, #56]
 3854 000c FB60     		str	r3, [r7, #12]
 3855 000e FB68     		ldr	r3, [r7, #12]
 3856 0010 1B6B     		ldr	r3, [r3, #48]
 3857 0012 822B     		cmp	r3, #130
 3858 0014 11D1     		bne	.L228
 3859 0016 FB68     		ldr	r3, [r7, #12]
 3860 0018 1B68     		ldr	r3, [r3]
 3861 001a 1846     		mov	r0, r3
 3862 001c FFF7FEFF 		bl	SDMMC_CmdStopTransfer
 3863 0020 B860     		str	r0, [r7, #8]
 3864 0022 BB68     		ldr	r3, [r7, #8]
 3865 0024 002B     		cmp	r3, #0
 3866 0026 08D0     		beq	.L228
 3867 0028 FB68     		ldr	r3, [r7, #12]
 3868 002a 9A6B     		ldr	r2, [r3, #56]
 3869 002c BB68     		ldr	r3, [r7, #8]
 3870 002e 1A43     		orrs	r2, r2, r3
 3871 0030 FB68     		ldr	r3, [r7, #12]
 3872 0032 9A63     		str	r2, [r3, #56]
 3873 0034 F868     		ldr	r0, [r7, #12]
 3874 0036 FFF7FEFF 		bl	HAL_SD_ErrorCallback
 3875              	.L228:
 3876 003a FB68     		ldr	r3, [r7, #12]
ARM GAS  C:\Users\user\AppData\Local\Temp\ccf7Y9kA.s 			page 68


 3877 003c 1B68     		ldr	r3, [r3]
 3878 003e DA6A     		ldr	r2, [r3, #44]
 3879 0040 FB68     		ldr	r3, [r7, #12]
 3880 0042 1B68     		ldr	r3, [r3]
 3881 0044 22F00802 		bic	r2, r2, #8
 3882 0048 DA62     		str	r2, [r3, #44]
 3883 004a FB68     		ldr	r3, [r7, #12]
 3884 004c 1B68     		ldr	r3, [r3]
 3885 004e 40F23A52 		movw	r2, #1338
 3886 0052 9A63     		str	r2, [r3, #56]
 3887 0054 FB68     		ldr	r3, [r7, #12]
 3888 0056 0122     		movs	r2, #1
 3889 0058 83F83420 		strb	r2, [r3, #52]
 3890 005c FB68     		ldr	r3, [r7, #12]
 3891 005e 0022     		movs	r2, #0
 3892 0060 1A63     		str	r2, [r3, #48]
 3893 0062 F868     		ldr	r0, [r7, #12]
 3894 0064 FFF7FEFF 		bl	HAL_SD_RxCpltCallback
 3895 0068 00BF     		nop
 3896 006a 1037     		adds	r7, r7, #16
 3897 006c BD46     		mov	sp, r7
 3898              		@ sp needed
 3899 006e 80BD     		pop	{r7, pc}
 3901              		.section	.text.SD_DMAError,"ax",%progbits
 3902              		.align	1
 3903              		.syntax unified
 3904              		.thumb
 3905              		.thumb_func
 3907              	SD_DMAError:
 3908              		@ args = 0, pretend = 0, frame = 24
 3909              		@ frame_needed = 1, uses_anonymous_args = 0
 3910 0000 80B5     		push	{r7, lr}
 3911 0002 86B0     		sub	sp, sp, #24
 3912 0004 00AF     		add	r7, sp, #0
 3913 0006 7860     		str	r0, [r7, #4]
 3914 0008 7B68     		ldr	r3, [r7, #4]
 3915 000a 9B6B     		ldr	r3, [r3, #56]
 3916 000c 7B61     		str	r3, [r7, #20]
 3917 000e 7868     		ldr	r0, [r7, #4]
 3918 0010 FFF7FEFF 		bl	HAL_DMA_GetError
 3919 0014 0346     		mov	r3, r0
 3920 0016 022B     		cmp	r3, #2
 3921 0018 3ED0     		beq	.L235
 3922 001a 7B69     		ldr	r3, [r7, #20]
 3923 001c 1B6C     		ldr	r3, [r3, #64]
 3924 001e 5B6D     		ldr	r3, [r3, #84]
 3925 0020 3B61     		str	r3, [r7, #16]
 3926 0022 7B69     		ldr	r3, [r7, #20]
 3927 0024 DB6B     		ldr	r3, [r3, #60]
 3928 0026 5B6D     		ldr	r3, [r3, #84]
 3929 0028 FB60     		str	r3, [r7, #12]
 3930 002a 3B69     		ldr	r3, [r7, #16]
 3931 002c 012B     		cmp	r3, #1
 3932 002e 02D0     		beq	.L231
 3933 0030 FB68     		ldr	r3, [r7, #12]
 3934 0032 012B     		cmp	r3, #1
 3935 0034 2DD1     		bne	.L232
ARM GAS  C:\Users\user\AppData\Local\Temp\ccf7Y9kA.s 			page 69


 3936              	.L231:
 3937 0036 7B69     		ldr	r3, [r7, #20]
 3938 0038 1B68     		ldr	r3, [r3]
 3939 003a 194A     		ldr	r2, .L236
 3940 003c 9A63     		str	r2, [r3, #56]
 3941 003e 7B69     		ldr	r3, [r7, #20]
 3942 0040 1B68     		ldr	r3, [r3]
 3943 0042 DA6B     		ldr	r2, [r3, #60]
 3944 0044 7B69     		ldr	r3, [r7, #20]
 3945 0046 1B68     		ldr	r3, [r3]
 3946 0048 22F49D72 		bic	r2, r2, #314
 3947 004c DA63     		str	r2, [r3, #60]
 3948 004e 7B69     		ldr	r3, [r7, #20]
 3949 0050 9B6B     		ldr	r3, [r3, #56]
 3950 0052 43F08042 		orr	r2, r3, #1073741824
 3951 0056 7B69     		ldr	r3, [r7, #20]
 3952 0058 9A63     		str	r2, [r3, #56]
 3953 005a 7869     		ldr	r0, [r7, #20]
 3954 005c FFF7FEFF 		bl	HAL_SD_GetCardState
 3955 0060 B860     		str	r0, [r7, #8]
 3956 0062 BB68     		ldr	r3, [r7, #8]
 3957 0064 062B     		cmp	r3, #6
 3958 0066 02D0     		beq	.L233
 3959 0068 BB68     		ldr	r3, [r7, #8]
 3960 006a 052B     		cmp	r3, #5
 3961 006c 0AD1     		bne	.L234
 3962              	.L233:
 3963 006e 7B69     		ldr	r3, [r7, #20]
 3964 0070 1B68     		ldr	r3, [r3]
 3965 0072 1846     		mov	r0, r3
 3966 0074 FFF7FEFF 		bl	SDMMC_CmdStopTransfer
 3967 0078 0246     		mov	r2, r0
 3968 007a 7B69     		ldr	r3, [r7, #20]
 3969 007c 9B6B     		ldr	r3, [r3, #56]
 3970 007e 1A43     		orrs	r2, r2, r3
 3971 0080 7B69     		ldr	r3, [r7, #20]
 3972 0082 9A63     		str	r2, [r3, #56]
 3973              	.L234:
 3974 0084 7B69     		ldr	r3, [r7, #20]
 3975 0086 0122     		movs	r2, #1
 3976 0088 83F83420 		strb	r2, [r3, #52]
 3977 008c 7B69     		ldr	r3, [r7, #20]
 3978 008e 0022     		movs	r2, #0
 3979 0090 1A63     		str	r2, [r3, #48]
 3980              	.L232:
 3981 0092 7869     		ldr	r0, [r7, #20]
 3982 0094 FFF7FEFF 		bl	HAL_SD_ErrorCallback
 3983              	.L235:
 3984 0098 00BF     		nop
 3985 009a 1837     		adds	r7, r7, #24
 3986 009c BD46     		mov	sp, r7
 3987              		@ sp needed
 3988 009e 80BD     		pop	{r7, pc}
 3989              	.L237:
 3990              		.align	2
 3991              	.L236:
 3992 00a0 FF054000 		.word	4195839
ARM GAS  C:\Users\user\AppData\Local\Temp\ccf7Y9kA.s 			page 70


 3994              		.section	.text.SD_DMATxAbort,"ax",%progbits
 3995              		.align	1
 3996              		.syntax unified
 3997              		.thumb
 3998              		.thumb_func
 4000              	SD_DMATxAbort:
 4001              		@ args = 0, pretend = 0, frame = 16
 4002              		@ frame_needed = 1, uses_anonymous_args = 0
 4003 0000 80B5     		push	{r7, lr}
 4004 0002 84B0     		sub	sp, sp, #16
 4005 0004 00AF     		add	r7, sp, #0
 4006 0006 7860     		str	r0, [r7, #4]
 4007 0008 7B68     		ldr	r3, [r7, #4]
 4008 000a 9B6B     		ldr	r3, [r3, #56]
 4009 000c FB60     		str	r3, [r7, #12]
 4010 000e FB68     		ldr	r3, [r7, #12]
 4011 0010 1B68     		ldr	r3, [r3]
 4012 0012 40F23A52 		movw	r2, #1338
 4013 0016 9A63     		str	r2, [r3, #56]
 4014 0018 F868     		ldr	r0, [r7, #12]
 4015 001a FFF7FEFF 		bl	HAL_SD_GetCardState
 4016 001e B860     		str	r0, [r7, #8]
 4017 0020 FB68     		ldr	r3, [r7, #12]
 4018 0022 0122     		movs	r2, #1
 4019 0024 83F83420 		strb	r2, [r3, #52]
 4020 0028 FB68     		ldr	r3, [r7, #12]
 4021 002a 0022     		movs	r2, #0
 4022 002c 1A63     		str	r2, [r3, #48]
 4023 002e BB68     		ldr	r3, [r7, #8]
 4024 0030 062B     		cmp	r3, #6
 4025 0032 02D0     		beq	.L239
 4026 0034 BB68     		ldr	r3, [r7, #8]
 4027 0036 052B     		cmp	r3, #5
 4028 0038 0AD1     		bne	.L240
 4029              	.L239:
 4030 003a FB68     		ldr	r3, [r7, #12]
 4031 003c 1B68     		ldr	r3, [r3]
 4032 003e 1846     		mov	r0, r3
 4033 0040 FFF7FEFF 		bl	SDMMC_CmdStopTransfer
 4034 0044 0246     		mov	r2, r0
 4035 0046 FB68     		ldr	r3, [r7, #12]
 4036 0048 9B6B     		ldr	r3, [r3, #56]
 4037 004a 1A43     		orrs	r2, r2, r3
 4038 004c FB68     		ldr	r3, [r7, #12]
 4039 004e 9A63     		str	r2, [r3, #56]
 4040              	.L240:
 4041 0050 FB68     		ldr	r3, [r7, #12]
 4042 0052 9B6B     		ldr	r3, [r3, #56]
 4043 0054 002B     		cmp	r3, #0
 4044 0056 03D1     		bne	.L241
 4045 0058 F868     		ldr	r0, [r7, #12]
 4046 005a FFF7FEFF 		bl	HAL_SD_AbortCallback
 4047 005e 02E0     		b	.L243
 4048              	.L241:
 4049 0060 F868     		ldr	r0, [r7, #12]
 4050 0062 FFF7FEFF 		bl	HAL_SD_ErrorCallback
 4051              	.L243:
ARM GAS  C:\Users\user\AppData\Local\Temp\ccf7Y9kA.s 			page 71


 4052 0066 00BF     		nop
 4053 0068 1037     		adds	r7, r7, #16
 4054 006a BD46     		mov	sp, r7
 4055              		@ sp needed
 4056 006c 80BD     		pop	{r7, pc}
 4058              		.section	.text.SD_DMARxAbort,"ax",%progbits
 4059              		.align	1
 4060              		.syntax unified
 4061              		.thumb
 4062              		.thumb_func
 4064              	SD_DMARxAbort:
 4065              		@ args = 0, pretend = 0, frame = 16
 4066              		@ frame_needed = 1, uses_anonymous_args = 0
 4067 0000 80B5     		push	{r7, lr}
 4068 0002 84B0     		sub	sp, sp, #16
 4069 0004 00AF     		add	r7, sp, #0
 4070 0006 7860     		str	r0, [r7, #4]
 4071 0008 7B68     		ldr	r3, [r7, #4]
 4072 000a 9B6B     		ldr	r3, [r3, #56]
 4073 000c FB60     		str	r3, [r7, #12]
 4074 000e FB68     		ldr	r3, [r7, #12]
 4075 0010 1B68     		ldr	r3, [r3]
 4076 0012 40F23A52 		movw	r2, #1338
 4077 0016 9A63     		str	r2, [r3, #56]
 4078 0018 F868     		ldr	r0, [r7, #12]
 4079 001a FFF7FEFF 		bl	HAL_SD_GetCardState
 4080 001e B860     		str	r0, [r7, #8]
 4081 0020 FB68     		ldr	r3, [r7, #12]
 4082 0022 0122     		movs	r2, #1
 4083 0024 83F83420 		strb	r2, [r3, #52]
 4084 0028 FB68     		ldr	r3, [r7, #12]
 4085 002a 0022     		movs	r2, #0
 4086 002c 1A63     		str	r2, [r3, #48]
 4087 002e BB68     		ldr	r3, [r7, #8]
 4088 0030 062B     		cmp	r3, #6
 4089 0032 02D0     		beq	.L245
 4090 0034 BB68     		ldr	r3, [r7, #8]
 4091 0036 052B     		cmp	r3, #5
 4092 0038 0AD1     		bne	.L246
 4093              	.L245:
 4094 003a FB68     		ldr	r3, [r7, #12]
 4095 003c 1B68     		ldr	r3, [r3]
 4096 003e 1846     		mov	r0, r3
 4097 0040 FFF7FEFF 		bl	SDMMC_CmdStopTransfer
 4098 0044 0246     		mov	r2, r0
 4099 0046 FB68     		ldr	r3, [r7, #12]
 4100 0048 9B6B     		ldr	r3, [r3, #56]
 4101 004a 1A43     		orrs	r2, r2, r3
 4102 004c FB68     		ldr	r3, [r7, #12]
 4103 004e 9A63     		str	r2, [r3, #56]
 4104              	.L246:
 4105 0050 FB68     		ldr	r3, [r7, #12]
 4106 0052 9B6B     		ldr	r3, [r3, #56]
 4107 0054 002B     		cmp	r3, #0
 4108 0056 03D1     		bne	.L247
 4109 0058 F868     		ldr	r0, [r7, #12]
 4110 005a FFF7FEFF 		bl	HAL_SD_AbortCallback
ARM GAS  C:\Users\user\AppData\Local\Temp\ccf7Y9kA.s 			page 72


 4111 005e 02E0     		b	.L249
 4112              	.L247:
 4113 0060 F868     		ldr	r0, [r7, #12]
 4114 0062 FFF7FEFF 		bl	HAL_SD_ErrorCallback
 4115              	.L249:
 4116 0066 00BF     		nop
 4117 0068 1037     		adds	r7, r7, #16
 4118 006a BD46     		mov	sp, r7
 4119              		@ sp needed
 4120 006c 80BD     		pop	{r7, pc}
 4122              		.section	.text.SD_InitCard,"ax",%progbits
 4123              		.align	1
 4124              		.syntax unified
 4125              		.thumb
 4126              		.thumb_func
 4128              	SD_InitCard:
 4129              		@ args = 0, pretend = 0, frame = 64
 4130              		@ frame_needed = 1, uses_anonymous_args = 0
 4131 0000 B0B5     		push	{r4, r5, r7, lr}
 4132 0002 94B0     		sub	sp, sp, #80
 4133 0004 04AF     		add	r7, sp, #16
 4134 0006 7860     		str	r0, [r7, #4]
 4135 0008 0123     		movs	r3, #1
 4136 000a FB81     		strh	r3, [r7, #14]	@ movhi
 4137 000c 7B68     		ldr	r3, [r7, #4]
 4138 000e 1B68     		ldr	r3, [r3]
 4139 0010 1846     		mov	r0, r3
 4140 0012 FFF7FEFF 		bl	SDIO_GetPowerState
 4141 0016 0346     		mov	r3, r0
 4142 0018 002B     		cmp	r3, #0
 4143 001a 02D1     		bne	.L251
 4144 001c 4FF08063 		mov	r3, #67108864
 4145 0020 B8E0     		b	.L260
 4146              	.L251:
 4147 0022 7B68     		ldr	r3, [r7, #4]
 4148 0024 5B6C     		ldr	r3, [r3, #68]
 4149 0026 032B     		cmp	r3, #3
 4150 0028 2FD0     		beq	.L253
 4151 002a 7B68     		ldr	r3, [r7, #4]
 4152 002c 1B68     		ldr	r3, [r3]
 4153 002e 1846     		mov	r0, r3
 4154 0030 FFF7FEFF 		bl	SDMMC_CmdSendCID
 4155 0034 F863     		str	r0, [r7, #60]
 4156 0036 FB6B     		ldr	r3, [r7, #60]
 4157 0038 002B     		cmp	r3, #0
 4158 003a 01D0     		beq	.L254
 4159 003c FB6B     		ldr	r3, [r7, #60]
 4160 003e A9E0     		b	.L260
 4161              	.L254:
 4162 0040 7B68     		ldr	r3, [r7, #4]
 4163 0042 1B68     		ldr	r3, [r3]
 4164 0044 0021     		movs	r1, #0
 4165 0046 1846     		mov	r0, r3
 4166 0048 FFF7FEFF 		bl	SDIO_GetResponse
 4167 004c 0246     		mov	r2, r0
 4168 004e 7B68     		ldr	r3, [r7, #4]
 4169 0050 5A67     		str	r2, [r3, #116]
ARM GAS  C:\Users\user\AppData\Local\Temp\ccf7Y9kA.s 			page 73


 4170 0052 7B68     		ldr	r3, [r7, #4]
 4171 0054 1B68     		ldr	r3, [r3]
 4172 0056 0421     		movs	r1, #4
 4173 0058 1846     		mov	r0, r3
 4174 005a FFF7FEFF 		bl	SDIO_GetResponse
 4175 005e 0246     		mov	r2, r0
 4176 0060 7B68     		ldr	r3, [r7, #4]
 4177 0062 9A67     		str	r2, [r3, #120]
 4178 0064 7B68     		ldr	r3, [r7, #4]
 4179 0066 1B68     		ldr	r3, [r3]
 4180 0068 0821     		movs	r1, #8
 4181 006a 1846     		mov	r0, r3
 4182 006c FFF7FEFF 		bl	SDIO_GetResponse
 4183 0070 0246     		mov	r2, r0
 4184 0072 7B68     		ldr	r3, [r7, #4]
 4185 0074 DA67     		str	r2, [r3, #124]
 4186 0076 7B68     		ldr	r3, [r7, #4]
 4187 0078 1B68     		ldr	r3, [r3]
 4188 007a 0C21     		movs	r1, #12
 4189 007c 1846     		mov	r0, r3
 4190 007e FFF7FEFF 		bl	SDIO_GetResponse
 4191 0082 0246     		mov	r2, r0
 4192 0084 7B68     		ldr	r3, [r7, #4]
 4193 0086 C3F88020 		str	r2, [r3, #128]
 4194              	.L253:
 4195 008a 7B68     		ldr	r3, [r7, #4]
 4196 008c 5B6C     		ldr	r3, [r3, #68]
 4197 008e 032B     		cmp	r3, #3
 4198 0090 0DD0     		beq	.L255
 4199 0092 7B68     		ldr	r3, [r7, #4]
 4200 0094 1B68     		ldr	r3, [r3]
 4201 0096 07F10E02 		add	r2, r7, #14
 4202 009a 1146     		mov	r1, r2
 4203 009c 1846     		mov	r0, r3
 4204 009e FFF7FEFF 		bl	SDMMC_CmdSetRelAdd
 4205 00a2 F863     		str	r0, [r7, #60]
 4206 00a4 FB6B     		ldr	r3, [r7, #60]
 4207 00a6 002B     		cmp	r3, #0
 4208 00a8 01D0     		beq	.L255
 4209 00aa FB6B     		ldr	r3, [r7, #60]
 4210 00ac 72E0     		b	.L260
 4211              	.L255:
 4212 00ae 7B68     		ldr	r3, [r7, #4]
 4213 00b0 5B6C     		ldr	r3, [r3, #68]
 4214 00b2 032B     		cmp	r3, #3
 4215 00b4 36D0     		beq	.L256
 4216 00b6 FB89     		ldrh	r3, [r7, #14]
 4217 00b8 1A46     		mov	r2, r3
 4218 00ba 7B68     		ldr	r3, [r7, #4]
 4219 00bc 1A65     		str	r2, [r3, #80]
 4220 00be 7B68     		ldr	r3, [r7, #4]
 4221 00c0 1A68     		ldr	r2, [r3]
 4222 00c2 7B68     		ldr	r3, [r7, #4]
 4223 00c4 1B6D     		ldr	r3, [r3, #80]
 4224 00c6 1B04     		lsls	r3, r3, #16
 4225 00c8 1946     		mov	r1, r3
 4226 00ca 1046     		mov	r0, r2
ARM GAS  C:\Users\user\AppData\Local\Temp\ccf7Y9kA.s 			page 74


 4227 00cc FFF7FEFF 		bl	SDMMC_CmdSendCSD
 4228 00d0 F863     		str	r0, [r7, #60]
 4229 00d2 FB6B     		ldr	r3, [r7, #60]
 4230 00d4 002B     		cmp	r3, #0
 4231 00d6 01D0     		beq	.L257
 4232 00d8 FB6B     		ldr	r3, [r7, #60]
 4233 00da 5BE0     		b	.L260
 4234              	.L257:
 4235 00dc 7B68     		ldr	r3, [r7, #4]
 4236 00de 1B68     		ldr	r3, [r3]
 4237 00e0 0021     		movs	r1, #0
 4238 00e2 1846     		mov	r0, r3
 4239 00e4 FFF7FEFF 		bl	SDIO_GetResponse
 4240 00e8 0246     		mov	r2, r0
 4241 00ea 7B68     		ldr	r3, [r7, #4]
 4242 00ec 5A66     		str	r2, [r3, #100]
 4243 00ee 7B68     		ldr	r3, [r7, #4]
 4244 00f0 1B68     		ldr	r3, [r3]
 4245 00f2 0421     		movs	r1, #4
 4246 00f4 1846     		mov	r0, r3
 4247 00f6 FFF7FEFF 		bl	SDIO_GetResponse
 4248 00fa 0246     		mov	r2, r0
 4249 00fc 7B68     		ldr	r3, [r7, #4]
 4250 00fe 9A66     		str	r2, [r3, #104]
 4251 0100 7B68     		ldr	r3, [r7, #4]
 4252 0102 1B68     		ldr	r3, [r3]
 4253 0104 0821     		movs	r1, #8
 4254 0106 1846     		mov	r0, r3
 4255 0108 FFF7FEFF 		bl	SDIO_GetResponse
 4256 010c 0246     		mov	r2, r0
 4257 010e 7B68     		ldr	r3, [r7, #4]
 4258 0110 DA66     		str	r2, [r3, #108]
 4259 0112 7B68     		ldr	r3, [r7, #4]
 4260 0114 1B68     		ldr	r3, [r3]
 4261 0116 0C21     		movs	r1, #12
 4262 0118 1846     		mov	r0, r3
 4263 011a FFF7FEFF 		bl	SDIO_GetResponse
 4264 011e 0246     		mov	r2, r0
 4265 0120 7B68     		ldr	r3, [r7, #4]
 4266 0122 1A67     		str	r2, [r3, #112]
 4267              	.L256:
 4268 0124 7B68     		ldr	r3, [r7, #4]
 4269 0126 1B68     		ldr	r3, [r3]
 4270 0128 0421     		movs	r1, #4
 4271 012a 1846     		mov	r0, r3
 4272 012c FFF7FEFF 		bl	SDIO_GetResponse
 4273 0130 0346     		mov	r3, r0
 4274 0132 1A0D     		lsrs	r2, r3, #20
 4275 0134 7B68     		ldr	r3, [r7, #4]
 4276 0136 DA64     		str	r2, [r3, #76]
 4277 0138 07F11003 		add	r3, r7, #16
 4278 013c 1946     		mov	r1, r3
 4279 013e 7868     		ldr	r0, [r7, #4]
 4280 0140 FFF7FEFF 		bl	HAL_SD_GetCardCSD
 4281 0144 0346     		mov	r3, r0
 4282 0146 002B     		cmp	r3, #0
 4283 0148 02D0     		beq	.L258
ARM GAS  C:\Users\user\AppData\Local\Temp\ccf7Y9kA.s 			page 75


 4284 014a 4FF08053 		mov	r3, #268435456
 4285 014e 21E0     		b	.L260
 4286              	.L258:
 4287 0150 7B68     		ldr	r3, [r7, #4]
 4288 0152 1968     		ldr	r1, [r3]
 4289 0154 7B68     		ldr	r3, [r7, #4]
 4290 0156 1B6D     		ldr	r3, [r3, #80]
 4291 0158 1B04     		lsls	r3, r3, #16
 4292 015a 0022     		movs	r2, #0
 4293 015c 1C46     		mov	r4, r3
 4294 015e 1546     		mov	r5, r2
 4295 0160 2246     		mov	r2, r4
 4296 0162 2B46     		mov	r3, r5
 4297 0164 0846     		mov	r0, r1
 4298 0166 FFF7FEFF 		bl	SDMMC_CmdSelDesel
 4299 016a F863     		str	r0, [r7, #60]
 4300 016c FB6B     		ldr	r3, [r7, #60]
 4301 016e 002B     		cmp	r3, #0
 4302 0170 01D0     		beq	.L259
 4303 0172 FB6B     		ldr	r3, [r7, #60]
 4304 0174 0EE0     		b	.L260
 4305              	.L259:
 4306 0176 7B68     		ldr	r3, [r7, #4]
 4307 0178 1D68     		ldr	r5, [r3]
 4308 017a 7B68     		ldr	r3, [r7, #4]
 4309 017c 6C46     		mov	r4, sp
 4310 017e 03F11002 		add	r2, r3, #16
 4311 0182 07CA     		ldm	r2, {r0, r1, r2}
 4312 0184 84E80700 		stm	r4, {r0, r1, r2}
 4313 0188 0433     		adds	r3, r3, #4
 4314 018a 0ECB     		ldm	r3, {r1, r2, r3}
 4315 018c 2846     		mov	r0, r5
 4316 018e FFF7FEFF 		bl	SDIO_Init
 4317 0192 0023     		movs	r3, #0
 4318              	.L260:
 4319 0194 1846     		mov	r0, r3
 4320 0196 4037     		adds	r7, r7, #64
 4321 0198 BD46     		mov	sp, r7
 4322              		@ sp needed
 4323 019a B0BD     		pop	{r4, r5, r7, pc}
 4325              		.section	.text.SD_PowerON,"ax",%progbits
 4326              		.align	1
 4327              		.syntax unified
 4328              		.thumb
 4329              		.thumb_func
 4331              	SD_PowerON:
 4332              		@ args = 0, pretend = 0, frame = 24
 4333              		@ frame_needed = 1, uses_anonymous_args = 0
 4334 0000 80B5     		push	{r7, lr}
 4335 0002 86B0     		sub	sp, sp, #24
 4336 0004 00AF     		add	r7, sp, #0
 4337 0006 7860     		str	r0, [r7, #4]
 4338 0008 0023     		movs	r3, #0
 4339 000a BB60     		str	r3, [r7, #8]
 4340 000c 0023     		movs	r3, #0
 4341 000e 7B61     		str	r3, [r7, #20]
 4342 0010 0023     		movs	r3, #0
ARM GAS  C:\Users\user\AppData\Local\Temp\ccf7Y9kA.s 			page 76


 4343 0012 3B61     		str	r3, [r7, #16]
 4344 0014 7B68     		ldr	r3, [r7, #4]
 4345 0016 1B68     		ldr	r3, [r3]
 4346 0018 1846     		mov	r0, r3
 4347 001a FFF7FEFF 		bl	SDMMC_CmdGoIdleState
 4348 001e F860     		str	r0, [r7, #12]
 4349 0020 FB68     		ldr	r3, [r7, #12]
 4350 0022 002B     		cmp	r3, #0
 4351 0024 01D0     		beq	.L262
 4352 0026 FB68     		ldr	r3, [r7, #12]
 4353 0028 72E0     		b	.L263
 4354              	.L262:
 4355 002a 7B68     		ldr	r3, [r7, #4]
 4356 002c 1B68     		ldr	r3, [r3]
 4357 002e 1846     		mov	r0, r3
 4358 0030 FFF7FEFF 		bl	SDMMC_CmdOperCond
 4359 0034 F860     		str	r0, [r7, #12]
 4360 0036 FB68     		ldr	r3, [r7, #12]
 4361 0038 002B     		cmp	r3, #0
 4362 003a 0DD0     		beq	.L264
 4363 003c 7B68     		ldr	r3, [r7, #4]
 4364 003e 0022     		movs	r2, #0
 4365 0040 9A64     		str	r2, [r3, #72]
 4366 0042 7B68     		ldr	r3, [r7, #4]
 4367 0044 1B68     		ldr	r3, [r3]
 4368 0046 1846     		mov	r0, r3
 4369 0048 FFF7FEFF 		bl	SDMMC_CmdGoIdleState
 4370 004c F860     		str	r0, [r7, #12]
 4371 004e FB68     		ldr	r3, [r7, #12]
 4372 0050 002B     		cmp	r3, #0
 4373 0052 04D0     		beq	.L265
 4374 0054 FB68     		ldr	r3, [r7, #12]
 4375 0056 5BE0     		b	.L263
 4376              	.L264:
 4377 0058 7B68     		ldr	r3, [r7, #4]
 4378 005a 0122     		movs	r2, #1
 4379 005c 9A64     		str	r2, [r3, #72]
 4380              	.L265:
 4381 005e 7B68     		ldr	r3, [r7, #4]
 4382 0060 9B6C     		ldr	r3, [r3, #72]
 4383 0062 012B     		cmp	r3, #1
 4384 0064 37D1     		bne	.L267
 4385 0066 7B68     		ldr	r3, [r7, #4]
 4386 0068 1B68     		ldr	r3, [r3]
 4387 006a 0021     		movs	r1, #0
 4388 006c 1846     		mov	r0, r3
 4389 006e FFF7FEFF 		bl	SDMMC_CmdAppCommand
 4390 0072 F860     		str	r0, [r7, #12]
 4391 0074 FB68     		ldr	r3, [r7, #12]
 4392 0076 002B     		cmp	r3, #0
 4393 0078 2DD0     		beq	.L267
 4394 007a 4FF08053 		mov	r3, #268435456
 4395 007e 47E0     		b	.L263
 4396              	.L273:
 4397 0080 7B68     		ldr	r3, [r7, #4]
 4398 0082 1B68     		ldr	r3, [r3]
 4399 0084 0021     		movs	r1, #0
ARM GAS  C:\Users\user\AppData\Local\Temp\ccf7Y9kA.s 			page 77


 4400 0086 1846     		mov	r0, r3
 4401 0088 FFF7FEFF 		bl	SDMMC_CmdAppCommand
 4402 008c F860     		str	r0, [r7, #12]
 4403 008e FB68     		ldr	r3, [r7, #12]
 4404 0090 002B     		cmp	r3, #0
 4405 0092 01D0     		beq	.L268
 4406 0094 FB68     		ldr	r3, [r7, #12]
 4407 0096 3BE0     		b	.L263
 4408              	.L268:
 4409 0098 7B68     		ldr	r3, [r7, #4]
 4410 009a 1B68     		ldr	r3, [r3]
 4411 009c 1E49     		ldr	r1, .L277
 4412 009e 1846     		mov	r0, r3
 4413 00a0 FFF7FEFF 		bl	SDMMC_CmdAppOperCommand
 4414 00a4 F860     		str	r0, [r7, #12]
 4415 00a6 FB68     		ldr	r3, [r7, #12]
 4416 00a8 002B     		cmp	r3, #0
 4417 00aa 02D0     		beq	.L269
 4418 00ac 4FF08053 		mov	r3, #268435456
 4419 00b0 2EE0     		b	.L263
 4420              	.L269:
 4421 00b2 7B68     		ldr	r3, [r7, #4]
 4422 00b4 1B68     		ldr	r3, [r3]
 4423 00b6 0021     		movs	r1, #0
 4424 00b8 1846     		mov	r0, r3
 4425 00ba FFF7FEFF 		bl	SDIO_GetResponse
 4426 00be 7861     		str	r0, [r7, #20]
 4427 00c0 7B69     		ldr	r3, [r7, #20]
 4428 00c2 DB0F     		lsrs	r3, r3, #31
 4429 00c4 012B     		cmp	r3, #1
 4430 00c6 01D1     		bne	.L270
 4431 00c8 0123     		movs	r3, #1
 4432 00ca 00E0     		b	.L271
 4433              	.L270:
 4434 00cc 0023     		movs	r3, #0
 4435              	.L271:
 4436 00ce 3B61     		str	r3, [r7, #16]
 4437 00d0 BB68     		ldr	r3, [r7, #8]
 4438 00d2 0133     		adds	r3, r3, #1
 4439 00d4 BB60     		str	r3, [r7, #8]
 4440              	.L267:
 4441 00d6 BB68     		ldr	r3, [r7, #8]
 4442 00d8 4FF6FE72 		movw	r2, #65534
 4443 00dc 9342     		cmp	r3, r2
 4444 00de 02D8     		bhi	.L272
 4445 00e0 3B69     		ldr	r3, [r7, #16]
 4446 00e2 002B     		cmp	r3, #0
 4447 00e4 CCD0     		beq	.L273
 4448              	.L272:
 4449 00e6 BB68     		ldr	r3, [r7, #8]
 4450 00e8 4FF6FE72 		movw	r2, #65534
 4451 00ec 9342     		cmp	r3, r2
 4452 00ee 02D9     		bls	.L274
 4453 00f0 4FF08073 		mov	r3, #16777216
 4454 00f4 0CE0     		b	.L263
 4455              	.L274:
 4456 00f6 7B69     		ldr	r3, [r7, #20]
ARM GAS  C:\Users\user\AppData\Local\Temp\ccf7Y9kA.s 			page 78


 4457 00f8 03F08043 		and	r3, r3, #1073741824
 4458 00fc 002B     		cmp	r3, #0
 4459 00fe 03D0     		beq	.L275
 4460 0100 7B68     		ldr	r3, [r7, #4]
 4461 0102 0122     		movs	r2, #1
 4462 0104 5A64     		str	r2, [r3, #68]
 4463 0106 02E0     		b	.L276
 4464              	.L275:
 4465 0108 7B68     		ldr	r3, [r7, #4]
 4466 010a 0022     		movs	r2, #0
 4467 010c 5A64     		str	r2, [r3, #68]
 4468              	.L276:
 4469 010e 0023     		movs	r3, #0
 4470              	.L263:
 4471 0110 1846     		mov	r0, r3
 4472 0112 1837     		adds	r7, r7, #24
 4473 0114 BD46     		mov	sp, r7
 4474              		@ sp needed
 4475 0116 80BD     		pop	{r7, pc}
 4476              	.L278:
 4477              		.align	2
 4478              	.L277:
 4479 0118 000010C1 		.word	-1055916032
 4481              		.section	.text.SD_PowerOFF,"ax",%progbits
 4482              		.align	1
 4483              		.syntax unified
 4484              		.thumb
 4485              		.thumb_func
 4487              	SD_PowerOFF:
 4488              		@ args = 0, pretend = 0, frame = 8
 4489              		@ frame_needed = 1, uses_anonymous_args = 0
 4490 0000 80B5     		push	{r7, lr}
 4491 0002 82B0     		sub	sp, sp, #8
 4492 0004 00AF     		add	r7, sp, #0
 4493 0006 7860     		str	r0, [r7, #4]
 4494 0008 7B68     		ldr	r3, [r7, #4]
 4495 000a 1B68     		ldr	r3, [r3]
 4496 000c 1846     		mov	r0, r3
 4497 000e FFF7FEFF 		bl	SDIO_PowerState_OFF
 4498 0012 00BF     		nop
 4499 0014 0837     		adds	r7, r7, #8
 4500 0016 BD46     		mov	sp, r7
 4501              		@ sp needed
 4502 0018 80BD     		pop	{r7, pc}
 4504              		.section	.text.SD_SendSDStatus,"ax",%progbits
 4505              		.align	1
 4506              		.syntax unified
 4507              		.thumb
 4508              		.thumb_func
 4510              	SD_SendSDStatus:
 4511              		@ args = 0, pretend = 0, frame = 48
 4512              		@ frame_needed = 1, uses_anonymous_args = 0
 4513 0000 80B5     		push	{r7, lr}
 4514 0002 8CB0     		sub	sp, sp, #48
 4515 0004 00AF     		add	r7, sp, #0
 4516 0006 7860     		str	r0, [r7, #4]
 4517 0008 3960     		str	r1, [r7]
ARM GAS  C:\Users\user\AppData\Local\Temp\ccf7Y9kA.s 			page 79


 4518 000a FFF7FEFF 		bl	HAL_GetTick
 4519 000e 7862     		str	r0, [r7, #36]
 4520 0010 3B68     		ldr	r3, [r7]
 4521 0012 BB62     		str	r3, [r7, #40]
 4522 0014 7B68     		ldr	r3, [r7, #4]
 4523 0016 1B68     		ldr	r3, [r3]
 4524 0018 0021     		movs	r1, #0
 4525 001a 1846     		mov	r0, r3
 4526 001c FFF7FEFF 		bl	SDIO_GetResponse
 4527 0020 0346     		mov	r3, r0
 4528 0022 03F00073 		and	r3, r3, #33554432
 4529 0026 B3F1007F 		cmp	r3, #33554432
 4530 002a 02D1     		bne	.L281
 4531 002c 4FF40063 		mov	r3, #2048
 4532 0030 B2E0     		b	.L296
 4533              	.L281:
 4534 0032 7B68     		ldr	r3, [r7, #4]
 4535 0034 1B68     		ldr	r3, [r3]
 4536 0036 4021     		movs	r1, #64
 4537 0038 1846     		mov	r0, r3
 4538 003a FFF7FEFF 		bl	SDMMC_CmdBlockLength
 4539 003e 3862     		str	r0, [r7, #32]
 4540 0040 3B6A     		ldr	r3, [r7, #32]
 4541 0042 002B     		cmp	r3, #0
 4542 0044 05D0     		beq	.L283
 4543 0046 7B68     		ldr	r3, [r7, #4]
 4544 0048 9A6B     		ldr	r2, [r3, #56]
 4545 004a 7B68     		ldr	r3, [r7, #4]
 4546 004c 9A63     		str	r2, [r3, #56]
 4547 004e 3B6A     		ldr	r3, [r7, #32]
 4548 0050 A2E0     		b	.L296
 4549              	.L283:
 4550 0052 7B68     		ldr	r3, [r7, #4]
 4551 0054 1A68     		ldr	r2, [r3]
 4552 0056 7B68     		ldr	r3, [r7, #4]
 4553 0058 1B6D     		ldr	r3, [r3, #80]
 4554 005a 1B04     		lsls	r3, r3, #16
 4555 005c 1946     		mov	r1, r3
 4556 005e 1046     		mov	r0, r2
 4557 0060 FFF7FEFF 		bl	SDMMC_CmdAppCommand
 4558 0064 3862     		str	r0, [r7, #32]
 4559 0066 3B6A     		ldr	r3, [r7, #32]
 4560 0068 002B     		cmp	r3, #0
 4561 006a 05D0     		beq	.L284
 4562 006c 7B68     		ldr	r3, [r7, #4]
 4563 006e 9A6B     		ldr	r2, [r3, #56]
 4564 0070 7B68     		ldr	r3, [r7, #4]
 4565 0072 9A63     		str	r2, [r3, #56]
 4566 0074 3B6A     		ldr	r3, [r7, #32]
 4567 0076 8FE0     		b	.L296
 4568              	.L284:
 4569 0078 4FF0FF33 		mov	r3, #-1
 4570 007c BB60     		str	r3, [r7, #8]
 4571 007e 4023     		movs	r3, #64
 4572 0080 FB60     		str	r3, [r7, #12]
 4573 0082 6023     		movs	r3, #96
 4574 0084 3B61     		str	r3, [r7, #16]
ARM GAS  C:\Users\user\AppData\Local\Temp\ccf7Y9kA.s 			page 80


 4575 0086 0223     		movs	r3, #2
 4576 0088 7B61     		str	r3, [r7, #20]
 4577 008a 0023     		movs	r3, #0
 4578 008c BB61     		str	r3, [r7, #24]
 4579 008e 0123     		movs	r3, #1
 4580 0090 FB61     		str	r3, [r7, #28]
 4581 0092 7B68     		ldr	r3, [r7, #4]
 4582 0094 1B68     		ldr	r3, [r3]
 4583 0096 07F10802 		add	r2, r7, #8
 4584 009a 1146     		mov	r1, r2
 4585 009c 1846     		mov	r0, r3
 4586 009e FFF7FEFF 		bl	SDIO_ConfigData
 4587 00a2 7B68     		ldr	r3, [r7, #4]
 4588 00a4 1B68     		ldr	r3, [r3]
 4589 00a6 1846     		mov	r0, r3
 4590 00a8 FFF7FEFF 		bl	SDMMC_CmdStatusRegister
 4591 00ac 3862     		str	r0, [r7, #32]
 4592 00ae 3B6A     		ldr	r3, [r7, #32]
 4593 00b0 002B     		cmp	r3, #0
 4594 00b2 2BD0     		beq	.L286
 4595 00b4 7B68     		ldr	r3, [r7, #4]
 4596 00b6 9A6B     		ldr	r2, [r3, #56]
 4597 00b8 7B68     		ldr	r3, [r7, #4]
 4598 00ba 9A63     		str	r2, [r3, #56]
 4599 00bc 3B6A     		ldr	r3, [r7, #32]
 4600 00be 6BE0     		b	.L296
 4601              	.L290:
 4602 00c0 7B68     		ldr	r3, [r7, #4]
 4603 00c2 1B68     		ldr	r3, [r3]
 4604 00c4 5B6B     		ldr	r3, [r3, #52]
 4605 00c6 03F40043 		and	r3, r3, #32768
 4606 00ca 002B     		cmp	r3, #0
 4607 00cc 13D0     		beq	.L287
 4608 00ce 0023     		movs	r3, #0
 4609 00d0 FB62     		str	r3, [r7, #44]
 4610 00d2 0DE0     		b	.L288
 4611              	.L289:
 4612 00d4 7B68     		ldr	r3, [r7, #4]
 4613 00d6 1B68     		ldr	r3, [r3]
 4614 00d8 1846     		mov	r0, r3
 4615 00da FFF7FEFF 		bl	SDIO_ReadFIFO
 4616 00de 0246     		mov	r2, r0
 4617 00e0 BB6A     		ldr	r3, [r7, #40]
 4618 00e2 1A60     		str	r2, [r3]
 4619 00e4 BB6A     		ldr	r3, [r7, #40]
 4620 00e6 0433     		adds	r3, r3, #4
 4621 00e8 BB62     		str	r3, [r7, #40]
 4622 00ea FB6A     		ldr	r3, [r7, #44]
 4623 00ec 0133     		adds	r3, r3, #1
 4624 00ee FB62     		str	r3, [r7, #44]
 4625              	.L288:
 4626 00f0 FB6A     		ldr	r3, [r7, #44]
 4627 00f2 072B     		cmp	r3, #7
 4628 00f4 EED9     		bls	.L289
 4629              	.L287:
 4630 00f6 FFF7FEFF 		bl	HAL_GetTick
 4631 00fa 0246     		mov	r2, r0
ARM GAS  C:\Users\user\AppData\Local\Temp\ccf7Y9kA.s 			page 81


 4632 00fc 7B6A     		ldr	r3, [r7, #36]
 4633 00fe D31A     		subs	r3, r2, r3
 4634 0100 B3F1FF3F 		cmp	r3, #-1
 4635 0104 02D1     		bne	.L286
 4636 0106 4FF00043 		mov	r3, #-2147483648
 4637 010a 45E0     		b	.L296
 4638              	.L286:
 4639 010c 7B68     		ldr	r3, [r7, #4]
 4640 010e 1B68     		ldr	r3, [r3]
 4641 0110 5A6B     		ldr	r2, [r3, #52]
 4642 0112 40F22A43 		movw	r3, #1066
 4643 0116 1340     		ands	r3, r3, r2
 4644 0118 002B     		cmp	r3, #0
 4645 011a D1D0     		beq	.L290
 4646 011c 7B68     		ldr	r3, [r7, #4]
 4647 011e 1B68     		ldr	r3, [r3]
 4648 0120 5B6B     		ldr	r3, [r3, #52]
 4649 0122 03F00803 		and	r3, r3, #8
 4650 0126 002B     		cmp	r3, #0
 4651 0128 01D0     		beq	.L291
 4652 012a 0823     		movs	r3, #8
 4653 012c 34E0     		b	.L296
 4654              	.L291:
 4655 012e 7B68     		ldr	r3, [r7, #4]
 4656 0130 1B68     		ldr	r3, [r3]
 4657 0132 5B6B     		ldr	r3, [r3, #52]
 4658 0134 03F00203 		and	r3, r3, #2
 4659 0138 002B     		cmp	r3, #0
 4660 013a 01D0     		beq	.L292
 4661 013c 0223     		movs	r3, #2
 4662 013e 2BE0     		b	.L296
 4663              	.L292:
 4664 0140 7B68     		ldr	r3, [r7, #4]
 4665 0142 1B68     		ldr	r3, [r3]
 4666 0144 5B6B     		ldr	r3, [r3, #52]
 4667 0146 03F02003 		and	r3, r3, #32
 4668 014a 002B     		cmp	r3, #0
 4669 014c 17D0     		beq	.L294
 4670 014e 2023     		movs	r3, #32
 4671 0150 22E0     		b	.L296
 4672              	.L295:
 4673 0152 7B68     		ldr	r3, [r7, #4]
 4674 0154 1B68     		ldr	r3, [r3]
 4675 0156 1846     		mov	r0, r3
 4676 0158 FFF7FEFF 		bl	SDIO_ReadFIFO
 4677 015c 0246     		mov	r2, r0
 4678 015e BB6A     		ldr	r3, [r7, #40]
 4679 0160 1A60     		str	r2, [r3]
 4680 0162 BB6A     		ldr	r3, [r7, #40]
 4681 0164 0433     		adds	r3, r3, #4
 4682 0166 BB62     		str	r3, [r7, #40]
 4683 0168 FFF7FEFF 		bl	HAL_GetTick
 4684 016c 0246     		mov	r2, r0
 4685 016e 7B6A     		ldr	r3, [r7, #36]
 4686 0170 D31A     		subs	r3, r2, r3
 4687 0172 B3F1FF3F 		cmp	r3, #-1
 4688 0176 02D1     		bne	.L294
ARM GAS  C:\Users\user\AppData\Local\Temp\ccf7Y9kA.s 			page 82


 4689 0178 4FF00043 		mov	r3, #-2147483648
 4690 017c 0CE0     		b	.L296
 4691              	.L294:
 4692 017e 7B68     		ldr	r3, [r7, #4]
 4693 0180 1B68     		ldr	r3, [r3]
 4694 0182 5B6B     		ldr	r3, [r3, #52]
 4695 0184 03F40013 		and	r3, r3, #2097152
 4696 0188 002B     		cmp	r3, #0
 4697 018a E2D1     		bne	.L295
 4698 018c 7B68     		ldr	r3, [r7, #4]
 4699 018e 1B68     		ldr	r3, [r3]
 4700 0190 40F23A52 		movw	r2, #1338
 4701 0194 9A63     		str	r2, [r3, #56]
 4702 0196 0023     		movs	r3, #0
 4703              	.L296:
 4704 0198 1846     		mov	r0, r3
 4705 019a 3037     		adds	r7, r7, #48
 4706 019c BD46     		mov	sp, r7
 4707              		@ sp needed
 4708 019e 80BD     		pop	{r7, pc}
 4710              		.section	.text.SD_SendStatus,"ax",%progbits
 4711              		.align	1
 4712              		.syntax unified
 4713              		.thumb
 4714              		.thumb_func
 4716              	SD_SendStatus:
 4717              		@ args = 0, pretend = 0, frame = 16
 4718              		@ frame_needed = 1, uses_anonymous_args = 0
 4719 0000 80B5     		push	{r7, lr}
 4720 0002 84B0     		sub	sp, sp, #16
 4721 0004 00AF     		add	r7, sp, #0
 4722 0006 7860     		str	r0, [r7, #4]
 4723 0008 3960     		str	r1, [r7]
 4724 000a 3B68     		ldr	r3, [r7]
 4725 000c 002B     		cmp	r3, #0
 4726 000e 02D1     		bne	.L298
 4727 0010 4FF00063 		mov	r3, #134217728
 4728 0014 18E0     		b	.L299
 4729              	.L298:
 4730 0016 7B68     		ldr	r3, [r7, #4]
 4731 0018 1A68     		ldr	r2, [r3]
 4732 001a 7B68     		ldr	r3, [r7, #4]
 4733 001c 1B6D     		ldr	r3, [r3, #80]
 4734 001e 1B04     		lsls	r3, r3, #16
 4735 0020 1946     		mov	r1, r3
 4736 0022 1046     		mov	r0, r2
 4737 0024 FFF7FEFF 		bl	SDMMC_CmdSendStatus
 4738 0028 F860     		str	r0, [r7, #12]
 4739 002a FB68     		ldr	r3, [r7, #12]
 4740 002c 002B     		cmp	r3, #0
 4741 002e 01D0     		beq	.L300
 4742 0030 FB68     		ldr	r3, [r7, #12]
 4743 0032 09E0     		b	.L299
 4744              	.L300:
 4745 0034 7B68     		ldr	r3, [r7, #4]
 4746 0036 1B68     		ldr	r3, [r3]
 4747 0038 0021     		movs	r1, #0
ARM GAS  C:\Users\user\AppData\Local\Temp\ccf7Y9kA.s 			page 83


 4748 003a 1846     		mov	r0, r3
 4749 003c FFF7FEFF 		bl	SDIO_GetResponse
 4750 0040 0246     		mov	r2, r0
 4751 0042 3B68     		ldr	r3, [r7]
 4752 0044 1A60     		str	r2, [r3]
 4753 0046 0023     		movs	r3, #0
 4754              	.L299:
 4755 0048 1846     		mov	r0, r3
 4756 004a 1037     		adds	r7, r7, #16
 4757 004c BD46     		mov	sp, r7
 4758              		@ sp needed
 4759 004e 80BD     		pop	{r7, pc}
 4761              		.section	.text.SD_WideBus_Enable,"ax",%progbits
 4762              		.align	1
 4763              		.syntax unified
 4764              		.thumb
 4765              		.thumb_func
 4767              	SD_WideBus_Enable:
 4768              		@ args = 0, pretend = 0, frame = 24
 4769              		@ frame_needed = 1, uses_anonymous_args = 0
 4770 0000 80B5     		push	{r7, lr}
 4771 0002 86B0     		sub	sp, sp, #24
 4772 0004 00AF     		add	r7, sp, #0
 4773 0006 7860     		str	r0, [r7, #4]
 4774 0008 0023     		movs	r3, #0
 4775 000a FB60     		str	r3, [r7, #12]
 4776 000c 0023     		movs	r3, #0
 4777 000e 3B61     		str	r3, [r7, #16]
 4778 0010 7B68     		ldr	r3, [r7, #4]
 4779 0012 1B68     		ldr	r3, [r3]
 4780 0014 0021     		movs	r1, #0
 4781 0016 1846     		mov	r0, r3
 4782 0018 FFF7FEFF 		bl	SDIO_GetResponse
 4783 001c 0346     		mov	r3, r0
 4784 001e 03F00073 		and	r3, r3, #33554432
 4785 0022 B3F1007F 		cmp	r3, #33554432
 4786 0026 02D1     		bne	.L302
 4787 0028 4FF40063 		mov	r3, #2048
 4788 002c 2FE0     		b	.L308
 4789              	.L302:
 4790 002e 07F10C03 		add	r3, r7, #12
 4791 0032 1946     		mov	r1, r3
 4792 0034 7868     		ldr	r0, [r7, #4]
 4793 0036 FFF7FEFF 		bl	SD_FindSCR
 4794 003a 7861     		str	r0, [r7, #20]
 4795 003c 7B69     		ldr	r3, [r7, #20]
 4796 003e 002B     		cmp	r3, #0
 4797 0040 01D0     		beq	.L304
 4798 0042 7B69     		ldr	r3, [r7, #20]
 4799 0044 23E0     		b	.L308
 4800              	.L304:
 4801 0046 3B69     		ldr	r3, [r7, #16]
 4802 0048 03F48023 		and	r3, r3, #262144
 4803 004c 002B     		cmp	r3, #0
 4804 004e 1CD0     		beq	.L305
 4805 0050 7B68     		ldr	r3, [r7, #4]
 4806 0052 1A68     		ldr	r2, [r3]
ARM GAS  C:\Users\user\AppData\Local\Temp\ccf7Y9kA.s 			page 84


 4807 0054 7B68     		ldr	r3, [r7, #4]
 4808 0056 1B6D     		ldr	r3, [r3, #80]
 4809 0058 1B04     		lsls	r3, r3, #16
 4810 005a 1946     		mov	r1, r3
 4811 005c 1046     		mov	r0, r2
 4812 005e FFF7FEFF 		bl	SDMMC_CmdAppCommand
 4813 0062 7861     		str	r0, [r7, #20]
 4814 0064 7B69     		ldr	r3, [r7, #20]
 4815 0066 002B     		cmp	r3, #0
 4816 0068 01D0     		beq	.L306
 4817 006a 7B69     		ldr	r3, [r7, #20]
 4818 006c 0FE0     		b	.L308
 4819              	.L306:
 4820 006e 7B68     		ldr	r3, [r7, #4]
 4821 0070 1B68     		ldr	r3, [r3]
 4822 0072 0221     		movs	r1, #2
 4823 0074 1846     		mov	r0, r3
 4824 0076 FFF7FEFF 		bl	SDMMC_CmdBusWidth
 4825 007a 7861     		str	r0, [r7, #20]
 4826 007c 7B69     		ldr	r3, [r7, #20]
 4827 007e 002B     		cmp	r3, #0
 4828 0080 01D0     		beq	.L307
 4829 0082 7B69     		ldr	r3, [r7, #20]
 4830 0084 03E0     		b	.L308
 4831              	.L307:
 4832 0086 0023     		movs	r3, #0
 4833 0088 01E0     		b	.L308
 4834              	.L305:
 4835 008a 4FF08063 		mov	r3, #67108864
 4836              	.L308:
 4837 008e 1846     		mov	r0, r3
 4838 0090 1837     		adds	r7, r7, #24
 4839 0092 BD46     		mov	sp, r7
 4840              		@ sp needed
 4841 0094 80BD     		pop	{r7, pc}
 4843              		.section	.text.SD_WideBus_Disable,"ax",%progbits
 4844              		.align	1
 4845              		.syntax unified
 4846              		.thumb
 4847              		.thumb_func
 4849              	SD_WideBus_Disable:
 4850              		@ args = 0, pretend = 0, frame = 24
 4851              		@ frame_needed = 1, uses_anonymous_args = 0
 4852 0000 80B5     		push	{r7, lr}
 4853 0002 86B0     		sub	sp, sp, #24
 4854 0004 00AF     		add	r7, sp, #0
 4855 0006 7860     		str	r0, [r7, #4]
 4856 0008 0023     		movs	r3, #0
 4857 000a FB60     		str	r3, [r7, #12]
 4858 000c 0023     		movs	r3, #0
 4859 000e 3B61     		str	r3, [r7, #16]
 4860 0010 7B68     		ldr	r3, [r7, #4]
 4861 0012 1B68     		ldr	r3, [r3]
 4862 0014 0021     		movs	r1, #0
 4863 0016 1846     		mov	r0, r3
 4864 0018 FFF7FEFF 		bl	SDIO_GetResponse
 4865 001c 0346     		mov	r3, r0
ARM GAS  C:\Users\user\AppData\Local\Temp\ccf7Y9kA.s 			page 85


 4866 001e 03F00073 		and	r3, r3, #33554432
 4867 0022 B3F1007F 		cmp	r3, #33554432
 4868 0026 02D1     		bne	.L310
 4869 0028 4FF40063 		mov	r3, #2048
 4870 002c 2FE0     		b	.L316
 4871              	.L310:
 4872 002e 07F10C03 		add	r3, r7, #12
 4873 0032 1946     		mov	r1, r3
 4874 0034 7868     		ldr	r0, [r7, #4]
 4875 0036 FFF7FEFF 		bl	SD_FindSCR
 4876 003a 7861     		str	r0, [r7, #20]
 4877 003c 7B69     		ldr	r3, [r7, #20]
 4878 003e 002B     		cmp	r3, #0
 4879 0040 01D0     		beq	.L312
 4880 0042 7B69     		ldr	r3, [r7, #20]
 4881 0044 23E0     		b	.L316
 4882              	.L312:
 4883 0046 3B69     		ldr	r3, [r7, #16]
 4884 0048 03F48033 		and	r3, r3, #65536
 4885 004c 002B     		cmp	r3, #0
 4886 004e 1CD0     		beq	.L313
 4887 0050 7B68     		ldr	r3, [r7, #4]
 4888 0052 1A68     		ldr	r2, [r3]
 4889 0054 7B68     		ldr	r3, [r7, #4]
 4890 0056 1B6D     		ldr	r3, [r3, #80]
 4891 0058 1B04     		lsls	r3, r3, #16
 4892 005a 1946     		mov	r1, r3
 4893 005c 1046     		mov	r0, r2
 4894 005e FFF7FEFF 		bl	SDMMC_CmdAppCommand
 4895 0062 7861     		str	r0, [r7, #20]
 4896 0064 7B69     		ldr	r3, [r7, #20]
 4897 0066 002B     		cmp	r3, #0
 4898 0068 01D0     		beq	.L314
 4899 006a 7B69     		ldr	r3, [r7, #20]
 4900 006c 0FE0     		b	.L316
 4901              	.L314:
 4902 006e 7B68     		ldr	r3, [r7, #4]
 4903 0070 1B68     		ldr	r3, [r3]
 4904 0072 0021     		movs	r1, #0
 4905 0074 1846     		mov	r0, r3
 4906 0076 FFF7FEFF 		bl	SDMMC_CmdBusWidth
 4907 007a 7861     		str	r0, [r7, #20]
 4908 007c 7B69     		ldr	r3, [r7, #20]
 4909 007e 002B     		cmp	r3, #0
 4910 0080 01D0     		beq	.L315
 4911 0082 7B69     		ldr	r3, [r7, #20]
 4912 0084 03E0     		b	.L316
 4913              	.L315:
 4914 0086 0023     		movs	r3, #0
 4915 0088 01E0     		b	.L316
 4916              	.L313:
 4917 008a 4FF08063 		mov	r3, #67108864
 4918              	.L316:
 4919 008e 1846     		mov	r0, r3
 4920 0090 1837     		adds	r7, r7, #24
 4921 0092 BD46     		mov	sp, r7
 4922              		@ sp needed
ARM GAS  C:\Users\user\AppData\Local\Temp\ccf7Y9kA.s 			page 86


 4923 0094 80BD     		pop	{r7, pc}
 4925              		.section	.text.SD_FindSCR,"ax",%progbits
 4926              		.align	1
 4927              		.syntax unified
 4928              		.thumb
 4929              		.thumb_func
 4931              	SD_FindSCR:
 4932              		@ args = 0, pretend = 0, frame = 56
 4933              		@ frame_needed = 1, uses_anonymous_args = 0
 4934 0000 90B5     		push	{r4, r7, lr}
 4935 0002 8FB0     		sub	sp, sp, #60
 4936 0004 00AF     		add	r7, sp, #0
 4937 0006 7860     		str	r0, [r7, #4]
 4938 0008 3960     		str	r1, [r7]
 4939 000a FFF7FEFF 		bl	HAL_GetTick
 4940 000e 3863     		str	r0, [r7, #48]
 4941 0010 0023     		movs	r3, #0
 4942 0012 7B63     		str	r3, [r7, #52]
 4943 0014 0023     		movs	r3, #0
 4944 0016 BB60     		str	r3, [r7, #8]
 4945 0018 0023     		movs	r3, #0
 4946 001a FB60     		str	r3, [r7, #12]
 4947 001c 3B68     		ldr	r3, [r7]
 4948 001e FB62     		str	r3, [r7, #44]
 4949 0020 7B68     		ldr	r3, [r7, #4]
 4950 0022 1B68     		ldr	r3, [r3]
 4951 0024 0821     		movs	r1, #8
 4952 0026 1846     		mov	r0, r3
 4953 0028 FFF7FEFF 		bl	SDMMC_CmdBlockLength
 4954 002c B862     		str	r0, [r7, #40]
 4955 002e BB6A     		ldr	r3, [r7, #40]
 4956 0030 002B     		cmp	r3, #0
 4957 0032 01D0     		beq	.L318
 4958 0034 BB6A     		ldr	r3, [r7, #40]
 4959 0036 B2E0     		b	.L330
 4960              	.L318:
 4961 0038 7B68     		ldr	r3, [r7, #4]
 4962 003a 1A68     		ldr	r2, [r3]
 4963 003c 7B68     		ldr	r3, [r7, #4]
 4964 003e 1B6D     		ldr	r3, [r3, #80]
 4965 0040 1B04     		lsls	r3, r3, #16
 4966 0042 1946     		mov	r1, r3
 4967 0044 1046     		mov	r0, r2
 4968 0046 FFF7FEFF 		bl	SDMMC_CmdAppCommand
 4969 004a B862     		str	r0, [r7, #40]
 4970 004c BB6A     		ldr	r3, [r7, #40]
 4971 004e 002B     		cmp	r3, #0
 4972 0050 01D0     		beq	.L320
 4973 0052 BB6A     		ldr	r3, [r7, #40]
 4974 0054 A3E0     		b	.L330
 4975              	.L320:
 4976 0056 4FF0FF33 		mov	r3, #-1
 4977 005a 3B61     		str	r3, [r7, #16]
 4978 005c 0823     		movs	r3, #8
 4979 005e 7B61     		str	r3, [r7, #20]
 4980 0060 3023     		movs	r3, #48
 4981 0062 BB61     		str	r3, [r7, #24]
ARM GAS  C:\Users\user\AppData\Local\Temp\ccf7Y9kA.s 			page 87


 4982 0064 0223     		movs	r3, #2
 4983 0066 FB61     		str	r3, [r7, #28]
 4984 0068 0023     		movs	r3, #0
 4985 006a 3B62     		str	r3, [r7, #32]
 4986 006c 0123     		movs	r3, #1
 4987 006e 7B62     		str	r3, [r7, #36]
 4988 0070 7B68     		ldr	r3, [r7, #4]
 4989 0072 1B68     		ldr	r3, [r3]
 4990 0074 07F11002 		add	r2, r7, #16
 4991 0078 1146     		mov	r1, r2
 4992 007a 1846     		mov	r0, r3
 4993 007c FFF7FEFF 		bl	SDIO_ConfigData
 4994 0080 7B68     		ldr	r3, [r7, #4]
 4995 0082 1B68     		ldr	r3, [r3]
 4996 0084 1846     		mov	r0, r3
 4997 0086 FFF7FEFF 		bl	SDMMC_CmdSendSCR
 4998 008a B862     		str	r0, [r7, #40]
 4999 008c BB6A     		ldr	r3, [r7, #40]
 5000 008e 002B     		cmp	r3, #0
 5001 0090 2AD0     		beq	.L322
 5002 0092 BB6A     		ldr	r3, [r7, #40]
 5003 0094 83E0     		b	.L330
 5004              	.L326:
 5005 0096 7B68     		ldr	r3, [r7, #4]
 5006 0098 1B68     		ldr	r3, [r3]
 5007 009a 5B6B     		ldr	r3, [r3, #52]
 5008 009c 03F40013 		and	r3, r3, #2097152
 5009 00a0 002B     		cmp	r3, #0
 5010 00a2 0FD0     		beq	.L323
 5011 00a4 7B68     		ldr	r3, [r7, #4]
 5012 00a6 1968     		ldr	r1, [r3]
 5013 00a8 7B6B     		ldr	r3, [r7, #52]
 5014 00aa 9B00     		lsls	r3, r3, #2
 5015 00ac 07F10802 		add	r2, r7, #8
 5016 00b0 D418     		adds	r4, r2, r3
 5017 00b2 0846     		mov	r0, r1
 5018 00b4 FFF7FEFF 		bl	SDIO_ReadFIFO
 5019 00b8 0346     		mov	r3, r0
 5020 00ba 2360     		str	r3, [r4]
 5021 00bc 7B6B     		ldr	r3, [r7, #52]
 5022 00be 0133     		adds	r3, r3, #1
 5023 00c0 7B63     		str	r3, [r7, #52]
 5024 00c2 06E0     		b	.L324
 5025              	.L323:
 5026 00c4 7B68     		ldr	r3, [r7, #4]
 5027 00c6 1B68     		ldr	r3, [r3]
 5028 00c8 5B6B     		ldr	r3, [r3, #52]
 5029 00ca 03F40053 		and	r3, r3, #8192
 5030 00ce 002B     		cmp	r3, #0
 5031 00d0 12D0     		beq	.L331
 5032              	.L324:
 5033 00d2 FFF7FEFF 		bl	HAL_GetTick
 5034 00d6 0246     		mov	r2, r0
 5035 00d8 3B6B     		ldr	r3, [r7, #48]
 5036 00da D31A     		subs	r3, r2, r3
 5037 00dc B3F1FF3F 		cmp	r3, #-1
 5038 00e0 02D1     		bne	.L322
ARM GAS  C:\Users\user\AppData\Local\Temp\ccf7Y9kA.s 			page 88


 5039 00e2 4FF00043 		mov	r3, #-2147483648
 5040 00e6 5AE0     		b	.L330
 5041              	.L322:
 5042 00e8 7B68     		ldr	r3, [r7, #4]
 5043 00ea 1B68     		ldr	r3, [r3]
 5044 00ec 5B6B     		ldr	r3, [r3, #52]
 5045 00ee 03F02A03 		and	r3, r3, #42
 5046 00f2 002B     		cmp	r3, #0
 5047 00f4 CFD0     		beq	.L326
 5048 00f6 00E0     		b	.L325
 5049              	.L331:
 5050 00f8 00BF     		nop
 5051              	.L325:
 5052 00fa 7B68     		ldr	r3, [r7, #4]
 5053 00fc 1B68     		ldr	r3, [r3]
 5054 00fe 5B6B     		ldr	r3, [r3, #52]
 5055 0100 03F00803 		and	r3, r3, #8
 5056 0104 002B     		cmp	r3, #0
 5057 0106 05D0     		beq	.L327
 5058 0108 7B68     		ldr	r3, [r7, #4]
 5059 010a 1B68     		ldr	r3, [r3]
 5060 010c 0822     		movs	r2, #8
 5061 010e 9A63     		str	r2, [r3, #56]
 5062 0110 0823     		movs	r3, #8
 5063 0112 44E0     		b	.L330
 5064              	.L327:
 5065 0114 7B68     		ldr	r3, [r7, #4]
 5066 0116 1B68     		ldr	r3, [r3]
 5067 0118 5B6B     		ldr	r3, [r3, #52]
 5068 011a 03F00203 		and	r3, r3, #2
 5069 011e 002B     		cmp	r3, #0
 5070 0120 05D0     		beq	.L328
 5071 0122 7B68     		ldr	r3, [r7, #4]
 5072 0124 1B68     		ldr	r3, [r3]
 5073 0126 0222     		movs	r2, #2
 5074 0128 9A63     		str	r2, [r3, #56]
 5075 012a 0223     		movs	r3, #2
 5076 012c 37E0     		b	.L330
 5077              	.L328:
 5078 012e 7B68     		ldr	r3, [r7, #4]
 5079 0130 1B68     		ldr	r3, [r3]
 5080 0132 5B6B     		ldr	r3, [r3, #52]
 5081 0134 03F02003 		and	r3, r3, #32
 5082 0138 002B     		cmp	r3, #0
 5083 013a 05D0     		beq	.L329
 5084 013c 7B68     		ldr	r3, [r7, #4]
 5085 013e 1B68     		ldr	r3, [r3]
 5086 0140 2022     		movs	r2, #32
 5087 0142 9A63     		str	r2, [r3, #56]
 5088 0144 2023     		movs	r3, #32
 5089 0146 2AE0     		b	.L330
 5090              	.L329:
 5091 0148 7B68     		ldr	r3, [r7, #4]
 5092 014a 1B68     		ldr	r3, [r3]
 5093 014c 40F23A52 		movw	r2, #1338
 5094 0150 9A63     		str	r2, [r3, #56]
 5095 0152 FB68     		ldr	r3, [r7, #12]
ARM GAS  C:\Users\user\AppData\Local\Temp\ccf7Y9kA.s 			page 89


 5096 0154 1A06     		lsls	r2, r3, #24
 5097 0156 FB68     		ldr	r3, [r7, #12]
 5098 0158 1B02     		lsls	r3, r3, #8
 5099 015a 03F47F03 		and	r3, r3, #16711680
 5100 015e 1A43     		orrs	r2, r2, r3
 5101 0160 FB68     		ldr	r3, [r7, #12]
 5102 0162 1B0A     		lsrs	r3, r3, #8
 5103 0164 03F47F43 		and	r3, r3, #65280
 5104 0168 1A43     		orrs	r2, r2, r3
 5105 016a FB68     		ldr	r3, [r7, #12]
 5106 016c 1B0E     		lsrs	r3, r3, #24
 5107 016e 1A43     		orrs	r2, r2, r3
 5108 0170 FB6A     		ldr	r3, [r7, #44]
 5109 0172 1A60     		str	r2, [r3]
 5110 0174 FB6A     		ldr	r3, [r7, #44]
 5111 0176 0433     		adds	r3, r3, #4
 5112 0178 FB62     		str	r3, [r7, #44]
 5113 017a BB68     		ldr	r3, [r7, #8]
 5114 017c 1A06     		lsls	r2, r3, #24
 5115 017e BB68     		ldr	r3, [r7, #8]
 5116 0180 1B02     		lsls	r3, r3, #8
 5117 0182 03F47F03 		and	r3, r3, #16711680
 5118 0186 1A43     		orrs	r2, r2, r3
 5119 0188 BB68     		ldr	r3, [r7, #8]
 5120 018a 1B0A     		lsrs	r3, r3, #8
 5121 018c 03F47F43 		and	r3, r3, #65280
 5122 0190 1A43     		orrs	r2, r2, r3
 5123 0192 BB68     		ldr	r3, [r7, #8]
 5124 0194 1B0E     		lsrs	r3, r3, #24
 5125 0196 1A43     		orrs	r2, r2, r3
 5126 0198 FB6A     		ldr	r3, [r7, #44]
 5127 019a 1A60     		str	r2, [r3]
 5128 019c 0023     		movs	r3, #0
 5129              	.L330:
 5130 019e 1846     		mov	r0, r3
 5131 01a0 3C37     		adds	r7, r7, #60
 5132 01a2 BD46     		mov	sp, r7
 5133              		@ sp needed
 5134 01a4 90BD     		pop	{r4, r7, pc}
 5136              		.section	.text.SD_Read_IT,"ax",%progbits
 5137              		.align	1
 5138              		.syntax unified
 5139              		.thumb
 5140              		.thumb_func
 5142              	SD_Read_IT:
 5143              		@ args = 0, pretend = 0, frame = 24
 5144              		@ frame_needed = 1, uses_anonymous_args = 0
 5145 0000 80B5     		push	{r7, lr}
 5146 0002 86B0     		sub	sp, sp, #24
 5147 0004 00AF     		add	r7, sp, #0
 5148 0006 7860     		str	r0, [r7, #4]
 5149 0008 7B68     		ldr	r3, [r7, #4]
 5150 000a 9B6A     		ldr	r3, [r3, #40]
 5151 000c FB60     		str	r3, [r7, #12]
 5152 000e 7B68     		ldr	r3, [r7, #4]
 5153 0010 DB6A     		ldr	r3, [r3, #44]
 5154 0012 3B61     		str	r3, [r7, #16]
ARM GAS  C:\Users\user\AppData\Local\Temp\ccf7Y9kA.s 			page 90


 5155 0014 3B69     		ldr	r3, [r7, #16]
 5156 0016 002B     		cmp	r3, #0
 5157 0018 3FD0     		beq	.L336
 5158 001a 0023     		movs	r3, #0
 5159 001c 7B61     		str	r3, [r7, #20]
 5160 001e 33E0     		b	.L334
 5161              	.L335:
 5162 0020 7B68     		ldr	r3, [r7, #4]
 5163 0022 1B68     		ldr	r3, [r3]
 5164 0024 1846     		mov	r0, r3
 5165 0026 FFF7FEFF 		bl	SDIO_ReadFIFO
 5166 002a B860     		str	r0, [r7, #8]
 5167 002c BB68     		ldr	r3, [r7, #8]
 5168 002e DAB2     		uxtb	r2, r3
 5169 0030 FB68     		ldr	r3, [r7, #12]
 5170 0032 1A70     		strb	r2, [r3]
 5171 0034 FB68     		ldr	r3, [r7, #12]
 5172 0036 0133     		adds	r3, r3, #1
 5173 0038 FB60     		str	r3, [r7, #12]
 5174 003a 3B69     		ldr	r3, [r7, #16]
 5175 003c 013B     		subs	r3, r3, #1
 5176 003e 3B61     		str	r3, [r7, #16]
 5177 0040 BB68     		ldr	r3, [r7, #8]
 5178 0042 1B0A     		lsrs	r3, r3, #8
 5179 0044 DAB2     		uxtb	r2, r3
 5180 0046 FB68     		ldr	r3, [r7, #12]
 5181 0048 1A70     		strb	r2, [r3]
 5182 004a FB68     		ldr	r3, [r7, #12]
 5183 004c 0133     		adds	r3, r3, #1
 5184 004e FB60     		str	r3, [r7, #12]
 5185 0050 3B69     		ldr	r3, [r7, #16]
 5186 0052 013B     		subs	r3, r3, #1
 5187 0054 3B61     		str	r3, [r7, #16]
 5188 0056 BB68     		ldr	r3, [r7, #8]
 5189 0058 1B0C     		lsrs	r3, r3, #16
 5190 005a DAB2     		uxtb	r2, r3
 5191 005c FB68     		ldr	r3, [r7, #12]
 5192 005e 1A70     		strb	r2, [r3]
 5193 0060 FB68     		ldr	r3, [r7, #12]
 5194 0062 0133     		adds	r3, r3, #1
 5195 0064 FB60     		str	r3, [r7, #12]
 5196 0066 3B69     		ldr	r3, [r7, #16]
 5197 0068 013B     		subs	r3, r3, #1
 5198 006a 3B61     		str	r3, [r7, #16]
 5199 006c BB68     		ldr	r3, [r7, #8]
 5200 006e 1B0E     		lsrs	r3, r3, #24
 5201 0070 DAB2     		uxtb	r2, r3
 5202 0072 FB68     		ldr	r3, [r7, #12]
 5203 0074 1A70     		strb	r2, [r3]
 5204 0076 FB68     		ldr	r3, [r7, #12]
 5205 0078 0133     		adds	r3, r3, #1
 5206 007a FB60     		str	r3, [r7, #12]
 5207 007c 3B69     		ldr	r3, [r7, #16]
 5208 007e 013B     		subs	r3, r3, #1
 5209 0080 3B61     		str	r3, [r7, #16]
 5210 0082 7B69     		ldr	r3, [r7, #20]
 5211 0084 0133     		adds	r3, r3, #1
ARM GAS  C:\Users\user\AppData\Local\Temp\ccf7Y9kA.s 			page 91


 5212 0086 7B61     		str	r3, [r7, #20]
 5213              	.L334:
 5214 0088 7B69     		ldr	r3, [r7, #20]
 5215 008a 072B     		cmp	r3, #7
 5216 008c C8D9     		bls	.L335
 5217 008e 7B68     		ldr	r3, [r7, #4]
 5218 0090 FA68     		ldr	r2, [r7, #12]
 5219 0092 9A62     		str	r2, [r3, #40]
 5220 0094 7B68     		ldr	r3, [r7, #4]
 5221 0096 3A69     		ldr	r2, [r7, #16]
 5222 0098 DA62     		str	r2, [r3, #44]
 5223              	.L336:
 5224 009a 00BF     		nop
 5225 009c 1837     		adds	r7, r7, #24
 5226 009e BD46     		mov	sp, r7
 5227              		@ sp needed
 5228 00a0 80BD     		pop	{r7, pc}
 5230              		.section	.text.SD_Write_IT,"ax",%progbits
 5231              		.align	1
 5232              		.syntax unified
 5233              		.thumb
 5234              		.thumb_func
 5236              	SD_Write_IT:
 5237              		@ args = 0, pretend = 0, frame = 24
 5238              		@ frame_needed = 1, uses_anonymous_args = 0
 5239 0000 80B5     		push	{r7, lr}
 5240 0002 86B0     		sub	sp, sp, #24
 5241 0004 00AF     		add	r7, sp, #0
 5242 0006 7860     		str	r0, [r7, #4]
 5243 0008 7B68     		ldr	r3, [r7, #4]
 5244 000a 1B6A     		ldr	r3, [r3, #32]
 5245 000c FB60     		str	r3, [r7, #12]
 5246 000e 7B68     		ldr	r3, [r7, #4]
 5247 0010 5B6A     		ldr	r3, [r3, #36]
 5248 0012 3B61     		str	r3, [r7, #16]
 5249 0014 3B69     		ldr	r3, [r7, #16]
 5250 0016 002B     		cmp	r3, #0
 5251 0018 43D0     		beq	.L341
 5252 001a 0023     		movs	r3, #0
 5253 001c 7B61     		str	r3, [r7, #20]
 5254 001e 37E0     		b	.L339
 5255              	.L340:
 5256 0020 FB68     		ldr	r3, [r7, #12]
 5257 0022 1B78     		ldrb	r3, [r3]	@ zero_extendqisi2
 5258 0024 BB60     		str	r3, [r7, #8]
 5259 0026 FB68     		ldr	r3, [r7, #12]
 5260 0028 0133     		adds	r3, r3, #1
 5261 002a FB60     		str	r3, [r7, #12]
 5262 002c 3B69     		ldr	r3, [r7, #16]
 5263 002e 013B     		subs	r3, r3, #1
 5264 0030 3B61     		str	r3, [r7, #16]
 5265 0032 FB68     		ldr	r3, [r7, #12]
 5266 0034 1B78     		ldrb	r3, [r3]	@ zero_extendqisi2
 5267 0036 1A02     		lsls	r2, r3, #8
 5268 0038 BB68     		ldr	r3, [r7, #8]
 5269 003a 1343     		orrs	r3, r3, r2
 5270 003c BB60     		str	r3, [r7, #8]
ARM GAS  C:\Users\user\AppData\Local\Temp\ccf7Y9kA.s 			page 92


 5271 003e FB68     		ldr	r3, [r7, #12]
 5272 0040 0133     		adds	r3, r3, #1
 5273 0042 FB60     		str	r3, [r7, #12]
 5274 0044 3B69     		ldr	r3, [r7, #16]
 5275 0046 013B     		subs	r3, r3, #1
 5276 0048 3B61     		str	r3, [r7, #16]
 5277 004a FB68     		ldr	r3, [r7, #12]
 5278 004c 1B78     		ldrb	r3, [r3]	@ zero_extendqisi2
 5279 004e 1A04     		lsls	r2, r3, #16
 5280 0050 BB68     		ldr	r3, [r7, #8]
 5281 0052 1343     		orrs	r3, r3, r2
 5282 0054 BB60     		str	r3, [r7, #8]
 5283 0056 FB68     		ldr	r3, [r7, #12]
 5284 0058 0133     		adds	r3, r3, #1
 5285 005a FB60     		str	r3, [r7, #12]
 5286 005c 3B69     		ldr	r3, [r7, #16]
 5287 005e 013B     		subs	r3, r3, #1
 5288 0060 3B61     		str	r3, [r7, #16]
 5289 0062 FB68     		ldr	r3, [r7, #12]
 5290 0064 1B78     		ldrb	r3, [r3]	@ zero_extendqisi2
 5291 0066 1A06     		lsls	r2, r3, #24
 5292 0068 BB68     		ldr	r3, [r7, #8]
 5293 006a 1343     		orrs	r3, r3, r2
 5294 006c BB60     		str	r3, [r7, #8]
 5295 006e FB68     		ldr	r3, [r7, #12]
 5296 0070 0133     		adds	r3, r3, #1
 5297 0072 FB60     		str	r3, [r7, #12]
 5298 0074 3B69     		ldr	r3, [r7, #16]
 5299 0076 013B     		subs	r3, r3, #1
 5300 0078 3B61     		str	r3, [r7, #16]
 5301 007a 7B68     		ldr	r3, [r7, #4]
 5302 007c 1B68     		ldr	r3, [r3]
 5303 007e 07F10802 		add	r2, r7, #8
 5304 0082 1146     		mov	r1, r2
 5305 0084 1846     		mov	r0, r3
 5306 0086 FFF7FEFF 		bl	SDIO_WriteFIFO
 5307 008a 7B69     		ldr	r3, [r7, #20]
 5308 008c 0133     		adds	r3, r3, #1
 5309 008e 7B61     		str	r3, [r7, #20]
 5310              	.L339:
 5311 0090 7B69     		ldr	r3, [r7, #20]
 5312 0092 072B     		cmp	r3, #7
 5313 0094 C4D9     		bls	.L340
 5314 0096 7B68     		ldr	r3, [r7, #4]
 5315 0098 FA68     		ldr	r2, [r7, #12]
 5316 009a 1A62     		str	r2, [r3, #32]
 5317 009c 7B68     		ldr	r3, [r7, #4]
 5318 009e 3A69     		ldr	r2, [r7, #16]
 5319 00a0 5A62     		str	r2, [r3, #36]
 5320              	.L341:
 5321 00a2 00BF     		nop
 5322 00a4 1837     		adds	r7, r7, #24
 5323 00a6 BD46     		mov	sp, r7
 5324              		@ sp needed
 5325 00a8 80BD     		pop	{r7, pc}
 5327              		.ident	"GCC: (GNU Tools for STM32 12.3.rel1.20240306-1730) 12.3.1 20230626"
ARM GAS  C:\Users\user\AppData\Local\Temp\ccf7Y9kA.s 			page 93

