ARM GAS  C:\Users\user\AppData\Local\Temp\ccegtlDB.s 			page 1


   1              		.cpu cortex-m4
   2              		.arch armv7e-m
   3              		.fpu fpv4-sp-d16
   4              		.eabi_attribute 27, 1
   5              		.eabi_attribute 28, 1
   6              		.eabi_attribute 20, 1
   7              		.eabi_attribute 21, 1
   8              		.eabi_attribute 23, 3
   9              		.eabi_attribute 24, 1
  10              		.eabi_attribute 25, 1
  11              		.eabi_attribute 26, 1
  12              		.eabi_attribute 30, 6
  13              		.eabi_attribute 34, 1
  14              		.eabi_attribute 18, 4
  15              		.file	"stm32f4xx_hal_tim_ex.c"
  16              		.text
  17              		.section	.text.HAL_TIMEx_HallSensor_Init,"ax",%progbits
  18              		.align	1
  19              		.global	HAL_TIMEx_HallSensor_Init
  20              		.syntax unified
  21              		.thumb
  22              		.thumb_func
  24              	HAL_TIMEx_HallSensor_Init:
  25              		@ args = 0, pretend = 0, frame = 40
  26              		@ frame_needed = 1, uses_anonymous_args = 0
  27 0000 80B5     		push	{r7, lr}
  28 0002 8AB0     		sub	sp, sp, #40
  29 0004 00AF     		add	r7, sp, #0
  30 0006 7860     		str	r0, [r7, #4]
  31 0008 3960     		str	r1, [r7]
  32 000a 7B68     		ldr	r3, [r7, #4]
  33 000c 002B     		cmp	r3, #0
  34 000e 01D1     		bne	.L2
  35 0010 0123     		movs	r3, #1
  36 0012 9AE0     		b	.L5
  37              	.L2:
  38 0014 7B68     		ldr	r3, [r7, #4]
  39 0016 93F83D30 		ldrb	r3, [r3, #61]
  40 001a DBB2     		uxtb	r3, r3
  41 001c 002B     		cmp	r3, #0
  42 001e 06D1     		bne	.L4
  43 0020 7B68     		ldr	r3, [r7, #4]
  44 0022 0022     		movs	r2, #0
  45 0024 83F83C20 		strb	r2, [r3, #60]
  46 0028 7868     		ldr	r0, [r7, #4]
  47 002a FFF7FEFF 		bl	HAL_TIMEx_HallSensor_MspInit
  48              	.L4:
  49 002e 7B68     		ldr	r3, [r7, #4]
  50 0030 0222     		movs	r2, #2
  51 0032 83F83D20 		strb	r2, [r3, #61]
  52 0036 7B68     		ldr	r3, [r7, #4]
  53 0038 1A68     		ldr	r2, [r3]
  54 003a 7B68     		ldr	r3, [r7, #4]
  55 003c 0433     		adds	r3, r3, #4
  56 003e 1946     		mov	r1, r3
  57 0040 1046     		mov	r0, r2
  58 0042 FFF7FEFF 		bl	TIM_Base_SetConfig
ARM GAS  C:\Users\user\AppData\Local\Temp\ccegtlDB.s 			page 2


  59 0046 7B68     		ldr	r3, [r7, #4]
  60 0048 1868     		ldr	r0, [r3]
  61 004a 3B68     		ldr	r3, [r7]
  62 004c 1968     		ldr	r1, [r3]
  63 004e 3B68     		ldr	r3, [r7]
  64 0050 9B68     		ldr	r3, [r3, #8]
  65 0052 0322     		movs	r2, #3
  66 0054 FFF7FEFF 		bl	TIM_TI1_SetConfig
  67 0058 7B68     		ldr	r3, [r7, #4]
  68 005a 1B68     		ldr	r3, [r3]
  69 005c 9A69     		ldr	r2, [r3, #24]
  70 005e 7B68     		ldr	r3, [r7, #4]
  71 0060 1B68     		ldr	r3, [r3]
  72 0062 22F00C02 		bic	r2, r2, #12
  73 0066 9A61     		str	r2, [r3, #24]
  74 0068 7B68     		ldr	r3, [r7, #4]
  75 006a 1B68     		ldr	r3, [r3]
  76 006c 9969     		ldr	r1, [r3, #24]
  77 006e 3B68     		ldr	r3, [r7]
  78 0070 5A68     		ldr	r2, [r3, #4]
  79 0072 7B68     		ldr	r3, [r7, #4]
  80 0074 1B68     		ldr	r3, [r3]
  81 0076 0A43     		orrs	r2, r2, r1
  82 0078 9A61     		str	r2, [r3, #24]
  83 007a 7B68     		ldr	r3, [r7, #4]
  84 007c 1B68     		ldr	r3, [r3]
  85 007e 5A68     		ldr	r2, [r3, #4]
  86 0080 7B68     		ldr	r3, [r7, #4]
  87 0082 1B68     		ldr	r3, [r3]
  88 0084 42F08002 		orr	r2, r2, #128
  89 0088 5A60     		str	r2, [r3, #4]
  90 008a 7B68     		ldr	r3, [r7, #4]
  91 008c 1B68     		ldr	r3, [r3]
  92 008e 9A68     		ldr	r2, [r3, #8]
  93 0090 7B68     		ldr	r3, [r7, #4]
  94 0092 1B68     		ldr	r3, [r3]
  95 0094 22F07002 		bic	r2, r2, #112
  96 0098 9A60     		str	r2, [r3, #8]
  97 009a 7B68     		ldr	r3, [r7, #4]
  98 009c 1B68     		ldr	r3, [r3]
  99 009e 9A68     		ldr	r2, [r3, #8]
 100 00a0 7B68     		ldr	r3, [r7, #4]
 101 00a2 1B68     		ldr	r3, [r3]
 102 00a4 42F04002 		orr	r2, r2, #64
 103 00a8 9A60     		str	r2, [r3, #8]
 104 00aa 7B68     		ldr	r3, [r7, #4]
 105 00ac 1B68     		ldr	r3, [r3]
 106 00ae 9A68     		ldr	r2, [r3, #8]
 107 00b0 7B68     		ldr	r3, [r7, #4]
 108 00b2 1B68     		ldr	r3, [r3]
 109 00b4 22F00702 		bic	r2, r2, #7
 110 00b8 9A60     		str	r2, [r3, #8]
 111 00ba 7B68     		ldr	r3, [r7, #4]
 112 00bc 1B68     		ldr	r3, [r3]
 113 00be 9A68     		ldr	r2, [r3, #8]
 114 00c0 7B68     		ldr	r3, [r7, #4]
 115 00c2 1B68     		ldr	r3, [r3]
ARM GAS  C:\Users\user\AppData\Local\Temp\ccegtlDB.s 			page 3


 116 00c4 42F00402 		orr	r2, r2, #4
 117 00c8 9A60     		str	r2, [r3, #8]
 118 00ca 0023     		movs	r3, #0
 119 00cc FB61     		str	r3, [r7, #28]
 120 00ce 0023     		movs	r3, #0
 121 00d0 3B62     		str	r3, [r7, #32]
 122 00d2 7023     		movs	r3, #112
 123 00d4 FB60     		str	r3, [r7, #12]
 124 00d6 0023     		movs	r3, #0
 125 00d8 7B62     		str	r3, [r7, #36]
 126 00da 0023     		movs	r3, #0
 127 00dc BB61     		str	r3, [r7, #24]
 128 00de 0023     		movs	r3, #0
 129 00e0 7B61     		str	r3, [r7, #20]
 130 00e2 3B68     		ldr	r3, [r7]
 131 00e4 DB68     		ldr	r3, [r3, #12]
 132 00e6 3B61     		str	r3, [r7, #16]
 133 00e8 7B68     		ldr	r3, [r7, #4]
 134 00ea 1B68     		ldr	r3, [r3]
 135 00ec 07F10C02 		add	r2, r7, #12
 136 00f0 1146     		mov	r1, r2
 137 00f2 1846     		mov	r0, r3
 138 00f4 FFF7FEFF 		bl	TIM_OC2_SetConfig
 139 00f8 7B68     		ldr	r3, [r7, #4]
 140 00fa 1B68     		ldr	r3, [r3]
 141 00fc 5A68     		ldr	r2, [r3, #4]
 142 00fe 7B68     		ldr	r3, [r7, #4]
 143 0100 1B68     		ldr	r3, [r3]
 144 0102 22F07002 		bic	r2, r2, #112
 145 0106 5A60     		str	r2, [r3, #4]
 146 0108 7B68     		ldr	r3, [r7, #4]
 147 010a 1B68     		ldr	r3, [r3]
 148 010c 5A68     		ldr	r2, [r3, #4]
 149 010e 7B68     		ldr	r3, [r7, #4]
 150 0110 1B68     		ldr	r3, [r3]
 151 0112 42F05002 		orr	r2, r2, #80
 152 0116 5A60     		str	r2, [r3, #4]
 153 0118 7B68     		ldr	r3, [r7, #4]
 154 011a 0122     		movs	r2, #1
 155 011c 83F84620 		strb	r2, [r3, #70]
 156 0120 7B68     		ldr	r3, [r7, #4]
 157 0122 0122     		movs	r2, #1
 158 0124 83F83E20 		strb	r2, [r3, #62]
 159 0128 7B68     		ldr	r3, [r7, #4]
 160 012a 0122     		movs	r2, #1
 161 012c 83F83F20 		strb	r2, [r3, #63]
 162 0130 7B68     		ldr	r3, [r7, #4]
 163 0132 0122     		movs	r2, #1
 164 0134 83F84220 		strb	r2, [r3, #66]
 165 0138 7B68     		ldr	r3, [r7, #4]
 166 013a 0122     		movs	r2, #1
 167 013c 83F84320 		strb	r2, [r3, #67]
 168 0140 7B68     		ldr	r3, [r7, #4]
 169 0142 0122     		movs	r2, #1
 170 0144 83F83D20 		strb	r2, [r3, #61]
 171 0148 0023     		movs	r3, #0
 172              	.L5:
ARM GAS  C:\Users\user\AppData\Local\Temp\ccegtlDB.s 			page 4


 173 014a 1846     		mov	r0, r3
 174 014c 2837     		adds	r7, r7, #40
 175 014e BD46     		mov	sp, r7
 176              		@ sp needed
 177 0150 80BD     		pop	{r7, pc}
 179              		.section	.text.HAL_TIMEx_HallSensor_DeInit,"ax",%progbits
 180              		.align	1
 181              		.global	HAL_TIMEx_HallSensor_DeInit
 182              		.syntax unified
 183              		.thumb
 184              		.thumb_func
 186              	HAL_TIMEx_HallSensor_DeInit:
 187              		@ args = 0, pretend = 0, frame = 8
 188              		@ frame_needed = 1, uses_anonymous_args = 0
 189 0000 80B5     		push	{r7, lr}
 190 0002 82B0     		sub	sp, sp, #8
 191 0004 00AF     		add	r7, sp, #0
 192 0006 7860     		str	r0, [r7, #4]
 193 0008 7B68     		ldr	r3, [r7, #4]
 194 000a 0222     		movs	r2, #2
 195 000c 83F83D20 		strb	r2, [r3, #61]
 196 0010 7B68     		ldr	r3, [r7, #4]
 197 0012 1B68     		ldr	r3, [r3]
 198 0014 1A6A     		ldr	r2, [r3, #32]
 199 0016 41F21113 		movw	r3, #4369
 200 001a 1340     		ands	r3, r3, r2
 201 001c 002B     		cmp	r3, #0
 202 001e 0FD1     		bne	.L7
 203 0020 7B68     		ldr	r3, [r7, #4]
 204 0022 1B68     		ldr	r3, [r3]
 205 0024 1A6A     		ldr	r2, [r3, #32]
 206 0026 40F24443 		movw	r3, #1092
 207 002a 1340     		ands	r3, r3, r2
 208 002c 002B     		cmp	r3, #0
 209 002e 07D1     		bne	.L7
 210 0030 7B68     		ldr	r3, [r7, #4]
 211 0032 1B68     		ldr	r3, [r3]
 212 0034 1A68     		ldr	r2, [r3]
 213 0036 7B68     		ldr	r3, [r7, #4]
 214 0038 1B68     		ldr	r3, [r3]
 215 003a 22F00102 		bic	r2, r2, #1
 216 003e 1A60     		str	r2, [r3]
 217              	.L7:
 218 0040 7868     		ldr	r0, [r7, #4]
 219 0042 FFF7FEFF 		bl	HAL_TIMEx_HallSensor_MspDeInit
 220 0046 7B68     		ldr	r3, [r7, #4]
 221 0048 0022     		movs	r2, #0
 222 004a 83F84620 		strb	r2, [r3, #70]
 223 004e 7B68     		ldr	r3, [r7, #4]
 224 0050 0022     		movs	r2, #0
 225 0052 83F83E20 		strb	r2, [r3, #62]
 226 0056 7B68     		ldr	r3, [r7, #4]
 227 0058 0022     		movs	r2, #0
 228 005a 83F83F20 		strb	r2, [r3, #63]
 229 005e 7B68     		ldr	r3, [r7, #4]
 230 0060 0022     		movs	r2, #0
 231 0062 83F84220 		strb	r2, [r3, #66]
ARM GAS  C:\Users\user\AppData\Local\Temp\ccegtlDB.s 			page 5


 232 0066 7B68     		ldr	r3, [r7, #4]
 233 0068 0022     		movs	r2, #0
 234 006a 83F84320 		strb	r2, [r3, #67]
 235 006e 7B68     		ldr	r3, [r7, #4]
 236 0070 0022     		movs	r2, #0
 237 0072 83F83D20 		strb	r2, [r3, #61]
 238 0076 7B68     		ldr	r3, [r7, #4]
 239 0078 0022     		movs	r2, #0
 240 007a 83F83C20 		strb	r2, [r3, #60]
 241 007e 0023     		movs	r3, #0
 242 0080 1846     		mov	r0, r3
 243 0082 0837     		adds	r7, r7, #8
 244 0084 BD46     		mov	sp, r7
 245              		@ sp needed
 246 0086 80BD     		pop	{r7, pc}
 248              		.section	.text.HAL_TIMEx_HallSensor_MspInit,"ax",%progbits
 249              		.align	1
 250              		.weak	HAL_TIMEx_HallSensor_MspInit
 251              		.syntax unified
 252              		.thumb
 253              		.thumb_func
 255              	HAL_TIMEx_HallSensor_MspInit:
 256              		@ args = 0, pretend = 0, frame = 8
 257              		@ frame_needed = 1, uses_anonymous_args = 0
 258              		@ link register save eliminated.
 259 0000 80B4     		push	{r7}
 260 0002 83B0     		sub	sp, sp, #12
 261 0004 00AF     		add	r7, sp, #0
 262 0006 7860     		str	r0, [r7, #4]
 263 0008 00BF     		nop
 264 000a 0C37     		adds	r7, r7, #12
 265 000c BD46     		mov	sp, r7
 266              		@ sp needed
 267 000e 5DF8047B 		ldr	r7, [sp], #4
 268 0012 7047     		bx	lr
 270              		.section	.text.HAL_TIMEx_HallSensor_MspDeInit,"ax",%progbits
 271              		.align	1
 272              		.weak	HAL_TIMEx_HallSensor_MspDeInit
 273              		.syntax unified
 274              		.thumb
 275              		.thumb_func
 277              	HAL_TIMEx_HallSensor_MspDeInit:
 278              		@ args = 0, pretend = 0, frame = 8
 279              		@ frame_needed = 1, uses_anonymous_args = 0
 280              		@ link register save eliminated.
 281 0000 80B4     		push	{r7}
 282 0002 83B0     		sub	sp, sp, #12
 283 0004 00AF     		add	r7, sp, #0
 284 0006 7860     		str	r0, [r7, #4]
 285 0008 00BF     		nop
 286 000a 0C37     		adds	r7, r7, #12
 287 000c BD46     		mov	sp, r7
 288              		@ sp needed
 289 000e 5DF8047B 		ldr	r7, [sp], #4
 290 0012 7047     		bx	lr
 292              		.section	.text.HAL_TIMEx_HallSensor_Start,"ax",%progbits
 293              		.align	1
ARM GAS  C:\Users\user\AppData\Local\Temp\ccegtlDB.s 			page 6


 294              		.global	HAL_TIMEx_HallSensor_Start
 295              		.syntax unified
 296              		.thumb
 297              		.thumb_func
 299              	HAL_TIMEx_HallSensor_Start:
 300              		@ args = 0, pretend = 0, frame = 16
 301              		@ frame_needed = 1, uses_anonymous_args = 0
 302 0000 80B5     		push	{r7, lr}
 303 0002 84B0     		sub	sp, sp, #16
 304 0004 00AF     		add	r7, sp, #0
 305 0006 7860     		str	r0, [r7, #4]
 306 0008 7B68     		ldr	r3, [r7, #4]
 307 000a 93F83E30 		ldrb	r3, [r3, #62]
 308 000e FB73     		strb	r3, [r7, #15]
 309 0010 7B68     		ldr	r3, [r7, #4]
 310 0012 93F83F30 		ldrb	r3, [r3, #63]
 311 0016 BB73     		strb	r3, [r7, #14]
 312 0018 7B68     		ldr	r3, [r7, #4]
 313 001a 93F84230 		ldrb	r3, [r3, #66]
 314 001e 7B73     		strb	r3, [r7, #13]
 315 0020 7B68     		ldr	r3, [r7, #4]
 316 0022 93F84330 		ldrb	r3, [r3, #67]
 317 0026 3B73     		strb	r3, [r7, #12]
 318 0028 FB7B     		ldrb	r3, [r7, #15]	@ zero_extendqisi2
 319 002a 012B     		cmp	r3, #1
 320 002c 08D1     		bne	.L12
 321 002e BB7B     		ldrb	r3, [r7, #14]	@ zero_extendqisi2
 322 0030 012B     		cmp	r3, #1
 323 0032 05D1     		bne	.L12
 324 0034 7B7B     		ldrb	r3, [r7, #13]	@ zero_extendqisi2
 325 0036 012B     		cmp	r3, #1
 326 0038 02D1     		bne	.L12
 327 003a 3B7B     		ldrb	r3, [r7, #12]	@ zero_extendqisi2
 328 003c 012B     		cmp	r3, #1
 329 003e 01D0     		beq	.L13
 330              	.L12:
 331 0040 0123     		movs	r3, #1
 332 0042 59E0     		b	.L14
 333              	.L13:
 334 0044 7B68     		ldr	r3, [r7, #4]
 335 0046 0222     		movs	r2, #2
 336 0048 83F83E20 		strb	r2, [r3, #62]
 337 004c 7B68     		ldr	r3, [r7, #4]
 338 004e 0222     		movs	r2, #2
 339 0050 83F83F20 		strb	r2, [r3, #63]
 340 0054 7B68     		ldr	r3, [r7, #4]
 341 0056 0222     		movs	r2, #2
 342 0058 83F84220 		strb	r2, [r3, #66]
 343 005c 7B68     		ldr	r3, [r7, #4]
 344 005e 0222     		movs	r2, #2
 345 0060 83F84320 		strb	r2, [r3, #67]
 346 0064 7B68     		ldr	r3, [r7, #4]
 347 0066 1B68     		ldr	r3, [r3]
 348 0068 0122     		movs	r2, #1
 349 006a 0021     		movs	r1, #0
 350 006c 1846     		mov	r0, r3
 351 006e FFF7FEFF 		bl	TIM_CCxChannelCmd
ARM GAS  C:\Users\user\AppData\Local\Temp\ccegtlDB.s 			page 7


 352 0072 7B68     		ldr	r3, [r7, #4]
 353 0074 1B68     		ldr	r3, [r3]
 354 0076 224A     		ldr	r2, .L19
 355 0078 9342     		cmp	r3, r2
 356 007a 22D0     		beq	.L15
 357 007c 7B68     		ldr	r3, [r7, #4]
 358 007e 1B68     		ldr	r3, [r3]
 359 0080 B3F1804F 		cmp	r3, #1073741824
 360 0084 1DD0     		beq	.L15
 361 0086 7B68     		ldr	r3, [r7, #4]
 362 0088 1B68     		ldr	r3, [r3]
 363 008a 1E4A     		ldr	r2, .L19+4
 364 008c 9342     		cmp	r3, r2
 365 008e 18D0     		beq	.L15
 366 0090 7B68     		ldr	r3, [r7, #4]
 367 0092 1B68     		ldr	r3, [r3]
 368 0094 1C4A     		ldr	r2, .L19+8
 369 0096 9342     		cmp	r3, r2
 370 0098 13D0     		beq	.L15
 371 009a 7B68     		ldr	r3, [r7, #4]
 372 009c 1B68     		ldr	r3, [r3]
 373 009e 1B4A     		ldr	r2, .L19+12
 374 00a0 9342     		cmp	r3, r2
 375 00a2 0ED0     		beq	.L15
 376 00a4 7B68     		ldr	r3, [r7, #4]
 377 00a6 1B68     		ldr	r3, [r3]
 378 00a8 194A     		ldr	r2, .L19+16
 379 00aa 9342     		cmp	r3, r2
 380 00ac 09D0     		beq	.L15
 381 00ae 7B68     		ldr	r3, [r7, #4]
 382 00b0 1B68     		ldr	r3, [r3]
 383 00b2 184A     		ldr	r2, .L19+20
 384 00b4 9342     		cmp	r3, r2
 385 00b6 04D0     		beq	.L15
 386 00b8 7B68     		ldr	r3, [r7, #4]
 387 00ba 1B68     		ldr	r3, [r3]
 388 00bc 164A     		ldr	r2, .L19+24
 389 00be 9342     		cmp	r3, r2
 390 00c0 11D1     		bne	.L16
 391              	.L15:
 392 00c2 7B68     		ldr	r3, [r7, #4]
 393 00c4 1B68     		ldr	r3, [r3]
 394 00c6 9B68     		ldr	r3, [r3, #8]
 395 00c8 03F00703 		and	r3, r3, #7
 396 00cc BB60     		str	r3, [r7, #8]
 397 00ce BB68     		ldr	r3, [r7, #8]
 398 00d0 062B     		cmp	r3, #6
 399 00d2 10D0     		beq	.L18
 400 00d4 7B68     		ldr	r3, [r7, #4]
 401 00d6 1B68     		ldr	r3, [r3]
 402 00d8 1A68     		ldr	r2, [r3]
 403 00da 7B68     		ldr	r3, [r7, #4]
 404 00dc 1B68     		ldr	r3, [r3]
 405 00de 42F00102 		orr	r2, r2, #1
 406 00e2 1A60     		str	r2, [r3]
 407 00e4 07E0     		b	.L18
 408              	.L16:
ARM GAS  C:\Users\user\AppData\Local\Temp\ccegtlDB.s 			page 8


 409 00e6 7B68     		ldr	r3, [r7, #4]
 410 00e8 1B68     		ldr	r3, [r3]
 411 00ea 1A68     		ldr	r2, [r3]
 412 00ec 7B68     		ldr	r3, [r7, #4]
 413 00ee 1B68     		ldr	r3, [r3]
 414 00f0 42F00102 		orr	r2, r2, #1
 415 00f4 1A60     		str	r2, [r3]
 416              	.L18:
 417 00f6 0023     		movs	r3, #0
 418              	.L14:
 419 00f8 1846     		mov	r0, r3
 420 00fa 1037     		adds	r7, r7, #16
 421 00fc BD46     		mov	sp, r7
 422              		@ sp needed
 423 00fe 80BD     		pop	{r7, pc}
 424              	.L20:
 425              		.align	2
 426              	.L19:
 427 0100 00000140 		.word	1073807360
 428 0104 00040040 		.word	1073742848
 429 0108 00080040 		.word	1073743872
 430 010c 000C0040 		.word	1073744896
 431 0110 00040140 		.word	1073808384
 432 0114 00400140 		.word	1073823744
 433 0118 00180040 		.word	1073747968
 435              		.section	.text.HAL_TIMEx_HallSensor_Stop,"ax",%progbits
 436              		.align	1
 437              		.global	HAL_TIMEx_HallSensor_Stop
 438              		.syntax unified
 439              		.thumb
 440              		.thumb_func
 442              	HAL_TIMEx_HallSensor_Stop:
 443              		@ args = 0, pretend = 0, frame = 8
 444              		@ frame_needed = 1, uses_anonymous_args = 0
 445 0000 80B5     		push	{r7, lr}
 446 0002 82B0     		sub	sp, sp, #8
 447 0004 00AF     		add	r7, sp, #0
 448 0006 7860     		str	r0, [r7, #4]
 449 0008 7B68     		ldr	r3, [r7, #4]
 450 000a 1B68     		ldr	r3, [r3]
 451 000c 0022     		movs	r2, #0
 452 000e 0021     		movs	r1, #0
 453 0010 1846     		mov	r0, r3
 454 0012 FFF7FEFF 		bl	TIM_CCxChannelCmd
 455 0016 7B68     		ldr	r3, [r7, #4]
 456 0018 1B68     		ldr	r3, [r3]
 457 001a 1A6A     		ldr	r2, [r3, #32]
 458 001c 41F21113 		movw	r3, #4369
 459 0020 1340     		ands	r3, r3, r2
 460 0022 002B     		cmp	r3, #0
 461 0024 0FD1     		bne	.L22
 462 0026 7B68     		ldr	r3, [r7, #4]
 463 0028 1B68     		ldr	r3, [r3]
 464 002a 1A6A     		ldr	r2, [r3, #32]
 465 002c 40F24443 		movw	r3, #1092
 466 0030 1340     		ands	r3, r3, r2
 467 0032 002B     		cmp	r3, #0
ARM GAS  C:\Users\user\AppData\Local\Temp\ccegtlDB.s 			page 9


 468 0034 07D1     		bne	.L22
 469 0036 7B68     		ldr	r3, [r7, #4]
 470 0038 1B68     		ldr	r3, [r3]
 471 003a 1A68     		ldr	r2, [r3]
 472 003c 7B68     		ldr	r3, [r7, #4]
 473 003e 1B68     		ldr	r3, [r3]
 474 0040 22F00102 		bic	r2, r2, #1
 475 0044 1A60     		str	r2, [r3]
 476              	.L22:
 477 0046 7B68     		ldr	r3, [r7, #4]
 478 0048 0122     		movs	r2, #1
 479 004a 83F83E20 		strb	r2, [r3, #62]
 480 004e 7B68     		ldr	r3, [r7, #4]
 481 0050 0122     		movs	r2, #1
 482 0052 83F83F20 		strb	r2, [r3, #63]
 483 0056 7B68     		ldr	r3, [r7, #4]
 484 0058 0122     		movs	r2, #1
 485 005a 83F84220 		strb	r2, [r3, #66]
 486 005e 7B68     		ldr	r3, [r7, #4]
 487 0060 0122     		movs	r2, #1
 488 0062 83F84320 		strb	r2, [r3, #67]
 489 0066 0023     		movs	r3, #0
 490 0068 1846     		mov	r0, r3
 491 006a 0837     		adds	r7, r7, #8
 492 006c BD46     		mov	sp, r7
 493              		@ sp needed
 494 006e 80BD     		pop	{r7, pc}
 496              		.section	.text.HAL_TIMEx_HallSensor_Start_IT,"ax",%progbits
 497              		.align	1
 498              		.global	HAL_TIMEx_HallSensor_Start_IT
 499              		.syntax unified
 500              		.thumb
 501              		.thumb_func
 503              	HAL_TIMEx_HallSensor_Start_IT:
 504              		@ args = 0, pretend = 0, frame = 16
 505              		@ frame_needed = 1, uses_anonymous_args = 0
 506 0000 80B5     		push	{r7, lr}
 507 0002 84B0     		sub	sp, sp, #16
 508 0004 00AF     		add	r7, sp, #0
 509 0006 7860     		str	r0, [r7, #4]
 510 0008 7B68     		ldr	r3, [r7, #4]
 511 000a 93F83E30 		ldrb	r3, [r3, #62]
 512 000e FB73     		strb	r3, [r7, #15]
 513 0010 7B68     		ldr	r3, [r7, #4]
 514 0012 93F83F30 		ldrb	r3, [r3, #63]
 515 0016 BB73     		strb	r3, [r7, #14]
 516 0018 7B68     		ldr	r3, [r7, #4]
 517 001a 93F84230 		ldrb	r3, [r3, #66]
 518 001e 7B73     		strb	r3, [r7, #13]
 519 0020 7B68     		ldr	r3, [r7, #4]
 520 0022 93F84330 		ldrb	r3, [r3, #67]
 521 0026 3B73     		strb	r3, [r7, #12]
 522 0028 FB7B     		ldrb	r3, [r7, #15]	@ zero_extendqisi2
 523 002a 012B     		cmp	r3, #1
 524 002c 08D1     		bne	.L25
 525 002e BB7B     		ldrb	r3, [r7, #14]	@ zero_extendqisi2
 526 0030 012B     		cmp	r3, #1
ARM GAS  C:\Users\user\AppData\Local\Temp\ccegtlDB.s 			page 10


 527 0032 05D1     		bne	.L25
 528 0034 7B7B     		ldrb	r3, [r7, #13]	@ zero_extendqisi2
 529 0036 012B     		cmp	r3, #1
 530 0038 02D1     		bne	.L25
 531 003a 3B7B     		ldrb	r3, [r7, #12]	@ zero_extendqisi2
 532 003c 012B     		cmp	r3, #1
 533 003e 01D0     		beq	.L26
 534              	.L25:
 535 0040 0123     		movs	r3, #1
 536 0042 61E0     		b	.L27
 537              	.L26:
 538 0044 7B68     		ldr	r3, [r7, #4]
 539 0046 0222     		movs	r2, #2
 540 0048 83F83E20 		strb	r2, [r3, #62]
 541 004c 7B68     		ldr	r3, [r7, #4]
 542 004e 0222     		movs	r2, #2
 543 0050 83F83F20 		strb	r2, [r3, #63]
 544 0054 7B68     		ldr	r3, [r7, #4]
 545 0056 0222     		movs	r2, #2
 546 0058 83F84220 		strb	r2, [r3, #66]
 547 005c 7B68     		ldr	r3, [r7, #4]
 548 005e 0222     		movs	r2, #2
 549 0060 83F84320 		strb	r2, [r3, #67]
 550 0064 7B68     		ldr	r3, [r7, #4]
 551 0066 1B68     		ldr	r3, [r3]
 552 0068 DA68     		ldr	r2, [r3, #12]
 553 006a 7B68     		ldr	r3, [r7, #4]
 554 006c 1B68     		ldr	r3, [r3]
 555 006e 42F00202 		orr	r2, r2, #2
 556 0072 DA60     		str	r2, [r3, #12]
 557 0074 7B68     		ldr	r3, [r7, #4]
 558 0076 1B68     		ldr	r3, [r3]
 559 0078 0122     		movs	r2, #1
 560 007a 0021     		movs	r1, #0
 561 007c 1846     		mov	r0, r3
 562 007e FFF7FEFF 		bl	TIM_CCxChannelCmd
 563 0082 7B68     		ldr	r3, [r7, #4]
 564 0084 1B68     		ldr	r3, [r3]
 565 0086 224A     		ldr	r2, .L32
 566 0088 9342     		cmp	r3, r2
 567 008a 22D0     		beq	.L28
 568 008c 7B68     		ldr	r3, [r7, #4]
 569 008e 1B68     		ldr	r3, [r3]
 570 0090 B3F1804F 		cmp	r3, #1073741824
 571 0094 1DD0     		beq	.L28
 572 0096 7B68     		ldr	r3, [r7, #4]
 573 0098 1B68     		ldr	r3, [r3]
 574 009a 1E4A     		ldr	r2, .L32+4
 575 009c 9342     		cmp	r3, r2
 576 009e 18D0     		beq	.L28
 577 00a0 7B68     		ldr	r3, [r7, #4]
 578 00a2 1B68     		ldr	r3, [r3]
 579 00a4 1C4A     		ldr	r2, .L32+8
 580 00a6 9342     		cmp	r3, r2
 581 00a8 13D0     		beq	.L28
 582 00aa 7B68     		ldr	r3, [r7, #4]
 583 00ac 1B68     		ldr	r3, [r3]
ARM GAS  C:\Users\user\AppData\Local\Temp\ccegtlDB.s 			page 11


 584 00ae 1B4A     		ldr	r2, .L32+12
 585 00b0 9342     		cmp	r3, r2
 586 00b2 0ED0     		beq	.L28
 587 00b4 7B68     		ldr	r3, [r7, #4]
 588 00b6 1B68     		ldr	r3, [r3]
 589 00b8 194A     		ldr	r2, .L32+16
 590 00ba 9342     		cmp	r3, r2
 591 00bc 09D0     		beq	.L28
 592 00be 7B68     		ldr	r3, [r7, #4]
 593 00c0 1B68     		ldr	r3, [r3]
 594 00c2 184A     		ldr	r2, .L32+20
 595 00c4 9342     		cmp	r3, r2
 596 00c6 04D0     		beq	.L28
 597 00c8 7B68     		ldr	r3, [r7, #4]
 598 00ca 1B68     		ldr	r3, [r3]
 599 00cc 164A     		ldr	r2, .L32+24
 600 00ce 9342     		cmp	r3, r2
 601 00d0 11D1     		bne	.L29
 602              	.L28:
 603 00d2 7B68     		ldr	r3, [r7, #4]
 604 00d4 1B68     		ldr	r3, [r3]
 605 00d6 9B68     		ldr	r3, [r3, #8]
 606 00d8 03F00703 		and	r3, r3, #7
 607 00dc BB60     		str	r3, [r7, #8]
 608 00de BB68     		ldr	r3, [r7, #8]
 609 00e0 062B     		cmp	r3, #6
 610 00e2 10D0     		beq	.L31
 611 00e4 7B68     		ldr	r3, [r7, #4]
 612 00e6 1B68     		ldr	r3, [r3]
 613 00e8 1A68     		ldr	r2, [r3]
 614 00ea 7B68     		ldr	r3, [r7, #4]
 615 00ec 1B68     		ldr	r3, [r3]
 616 00ee 42F00102 		orr	r2, r2, #1
 617 00f2 1A60     		str	r2, [r3]
 618 00f4 07E0     		b	.L31
 619              	.L29:
 620 00f6 7B68     		ldr	r3, [r7, #4]
 621 00f8 1B68     		ldr	r3, [r3]
 622 00fa 1A68     		ldr	r2, [r3]
 623 00fc 7B68     		ldr	r3, [r7, #4]
 624 00fe 1B68     		ldr	r3, [r3]
 625 0100 42F00102 		orr	r2, r2, #1
 626 0104 1A60     		str	r2, [r3]
 627              	.L31:
 628 0106 0023     		movs	r3, #0
 629              	.L27:
 630 0108 1846     		mov	r0, r3
 631 010a 1037     		adds	r7, r7, #16
 632 010c BD46     		mov	sp, r7
 633              		@ sp needed
 634 010e 80BD     		pop	{r7, pc}
 635              	.L33:
 636              		.align	2
 637              	.L32:
 638 0110 00000140 		.word	1073807360
 639 0114 00040040 		.word	1073742848
 640 0118 00080040 		.word	1073743872
ARM GAS  C:\Users\user\AppData\Local\Temp\ccegtlDB.s 			page 12


 641 011c 000C0040 		.word	1073744896
 642 0120 00040140 		.word	1073808384
 643 0124 00400140 		.word	1073823744
 644 0128 00180040 		.word	1073747968
 646              		.section	.text.HAL_TIMEx_HallSensor_Stop_IT,"ax",%progbits
 647              		.align	1
 648              		.global	HAL_TIMEx_HallSensor_Stop_IT
 649              		.syntax unified
 650              		.thumb
 651              		.thumb_func
 653              	HAL_TIMEx_HallSensor_Stop_IT:
 654              		@ args = 0, pretend = 0, frame = 8
 655              		@ frame_needed = 1, uses_anonymous_args = 0
 656 0000 80B5     		push	{r7, lr}
 657 0002 82B0     		sub	sp, sp, #8
 658 0004 00AF     		add	r7, sp, #0
 659 0006 7860     		str	r0, [r7, #4]
 660 0008 7B68     		ldr	r3, [r7, #4]
 661 000a 1B68     		ldr	r3, [r3]
 662 000c 0022     		movs	r2, #0
 663 000e 0021     		movs	r1, #0
 664 0010 1846     		mov	r0, r3
 665 0012 FFF7FEFF 		bl	TIM_CCxChannelCmd
 666 0016 7B68     		ldr	r3, [r7, #4]
 667 0018 1B68     		ldr	r3, [r3]
 668 001a DA68     		ldr	r2, [r3, #12]
 669 001c 7B68     		ldr	r3, [r7, #4]
 670 001e 1B68     		ldr	r3, [r3]
 671 0020 22F00202 		bic	r2, r2, #2
 672 0024 DA60     		str	r2, [r3, #12]
 673 0026 7B68     		ldr	r3, [r7, #4]
 674 0028 1B68     		ldr	r3, [r3]
 675 002a 1A6A     		ldr	r2, [r3, #32]
 676 002c 41F21113 		movw	r3, #4369
 677 0030 1340     		ands	r3, r3, r2
 678 0032 002B     		cmp	r3, #0
 679 0034 0FD1     		bne	.L35
 680 0036 7B68     		ldr	r3, [r7, #4]
 681 0038 1B68     		ldr	r3, [r3]
 682 003a 1A6A     		ldr	r2, [r3, #32]
 683 003c 40F24443 		movw	r3, #1092
 684 0040 1340     		ands	r3, r3, r2
 685 0042 002B     		cmp	r3, #0
 686 0044 07D1     		bne	.L35
 687 0046 7B68     		ldr	r3, [r7, #4]
 688 0048 1B68     		ldr	r3, [r3]
 689 004a 1A68     		ldr	r2, [r3]
 690 004c 7B68     		ldr	r3, [r7, #4]
 691 004e 1B68     		ldr	r3, [r3]
 692 0050 22F00102 		bic	r2, r2, #1
 693 0054 1A60     		str	r2, [r3]
 694              	.L35:
 695 0056 7B68     		ldr	r3, [r7, #4]
 696 0058 0122     		movs	r2, #1
 697 005a 83F83E20 		strb	r2, [r3, #62]
 698 005e 7B68     		ldr	r3, [r7, #4]
 699 0060 0122     		movs	r2, #1
ARM GAS  C:\Users\user\AppData\Local\Temp\ccegtlDB.s 			page 13


 700 0062 83F83F20 		strb	r2, [r3, #63]
 701 0066 7B68     		ldr	r3, [r7, #4]
 702 0068 0122     		movs	r2, #1
 703 006a 83F84220 		strb	r2, [r3, #66]
 704 006e 7B68     		ldr	r3, [r7, #4]
 705 0070 0122     		movs	r2, #1
 706 0072 83F84320 		strb	r2, [r3, #67]
 707 0076 0023     		movs	r3, #0
 708 0078 1846     		mov	r0, r3
 709 007a 0837     		adds	r7, r7, #8
 710 007c BD46     		mov	sp, r7
 711              		@ sp needed
 712 007e 80BD     		pop	{r7, pc}
 714              		.section	.text.HAL_TIMEx_HallSensor_Start_DMA,"ax",%progbits
 715              		.align	1
 716              		.global	HAL_TIMEx_HallSensor_Start_DMA
 717              		.syntax unified
 718              		.thumb
 719              		.thumb_func
 721              	HAL_TIMEx_HallSensor_Start_DMA:
 722              		@ args = 0, pretend = 0, frame = 24
 723              		@ frame_needed = 1, uses_anonymous_args = 0
 724 0000 80B5     		push	{r7, lr}
 725 0002 86B0     		sub	sp, sp, #24
 726 0004 00AF     		add	r7, sp, #0
 727 0006 F860     		str	r0, [r7, #12]
 728 0008 B960     		str	r1, [r7, #8]
 729 000a 1346     		mov	r3, r2
 730 000c FB80     		strh	r3, [r7, #6]	@ movhi
 731 000e FB68     		ldr	r3, [r7, #12]
 732 0010 93F83E30 		ldrb	r3, [r3, #62]
 733 0014 FB75     		strb	r3, [r7, #23]
 734 0016 FB68     		ldr	r3, [r7, #12]
 735 0018 93F84230 		ldrb	r3, [r3, #66]
 736 001c BB75     		strb	r3, [r7, #22]
 737 001e FB7D     		ldrb	r3, [r7, #23]	@ zero_extendqisi2
 738 0020 022B     		cmp	r3, #2
 739 0022 02D0     		beq	.L38
 740 0024 BB7D     		ldrb	r3, [r7, #22]	@ zero_extendqisi2
 741 0026 022B     		cmp	r3, #2
 742 0028 01D1     		bne	.L39
 743              	.L38:
 744 002a 0223     		movs	r3, #2
 745 002c 86E0     		b	.L40
 746              	.L39:
 747 002e FB7D     		ldrb	r3, [r7, #23]	@ zero_extendqisi2
 748 0030 012B     		cmp	r3, #1
 749 0032 34D1     		bne	.L41
 750 0034 BB7D     		ldrb	r3, [r7, #22]	@ zero_extendqisi2
 751 0036 012B     		cmp	r3, #1
 752 0038 31D1     		bne	.L41
 753 003a BB68     		ldr	r3, [r7, #8]
 754 003c 002B     		cmp	r3, #0
 755 003e 04D1     		bne	.L42
 756 0040 FB88     		ldrh	r3, [r7, #6]
 757 0042 002B     		cmp	r3, #0
 758 0044 01D0     		beq	.L42
ARM GAS  C:\Users\user\AppData\Local\Temp\ccegtlDB.s 			page 14


 759 0046 0123     		movs	r3, #1
 760 0048 78E0     		b	.L40
 761              	.L42:
 762 004a FB68     		ldr	r3, [r7, #12]
 763 004c 0222     		movs	r2, #2
 764 004e 83F83E20 		strb	r2, [r3, #62]
 765 0052 FB68     		ldr	r3, [r7, #12]
 766 0054 0222     		movs	r2, #2
 767 0056 83F84220 		strb	r2, [r3, #66]
 768 005a 00BF     		nop
 769 005c FB68     		ldr	r3, [r7, #12]
 770 005e 1B68     		ldr	r3, [r3]
 771 0060 0122     		movs	r2, #1
 772 0062 0021     		movs	r1, #0
 773 0064 1846     		mov	r0, r3
 774 0066 FFF7FEFF 		bl	TIM_CCxChannelCmd
 775 006a FB68     		ldr	r3, [r7, #12]
 776 006c 5B6A     		ldr	r3, [r3, #36]
 777 006e 354A     		ldr	r2, .L50
 778 0070 DA63     		str	r2, [r3, #60]
 779 0072 FB68     		ldr	r3, [r7, #12]
 780 0074 5B6A     		ldr	r3, [r3, #36]
 781 0076 344A     		ldr	r2, .L50+4
 782 0078 1A64     		str	r2, [r3, #64]
 783 007a FB68     		ldr	r3, [r7, #12]
 784 007c 5B6A     		ldr	r3, [r3, #36]
 785 007e 334A     		ldr	r2, .L50+8
 786 0080 DA64     		str	r2, [r3, #76]
 787 0082 FB68     		ldr	r3, [r7, #12]
 788 0084 586A     		ldr	r0, [r3, #36]
 789 0086 FB68     		ldr	r3, [r7, #12]
 790 0088 1B68     		ldr	r3, [r3]
 791 008a 3433     		adds	r3, r3, #52
 792 008c 1946     		mov	r1, r3
 793 008e BA68     		ldr	r2, [r7, #8]
 794 0090 FB88     		ldrh	r3, [r7, #6]
 795 0092 FFF7FEFF 		bl	HAL_DMA_Start_IT
 796 0096 0346     		mov	r3, r0
 797 0098 002B     		cmp	r3, #0
 798 009a 04D0     		beq	.L44
 799 009c 01E0     		b	.L49
 800              	.L41:
 801 009e 0123     		movs	r3, #1
 802 00a0 4CE0     		b	.L40
 803              	.L49:
 804 00a2 0123     		movs	r3, #1
 805 00a4 4AE0     		b	.L40
 806              	.L44:
 807 00a6 FB68     		ldr	r3, [r7, #12]
 808 00a8 1B68     		ldr	r3, [r3]
 809 00aa DA68     		ldr	r2, [r3, #12]
 810 00ac FB68     		ldr	r3, [r7, #12]
 811 00ae 1B68     		ldr	r3, [r3]
 812 00b0 42F40072 		orr	r2, r2, #512
 813 00b4 DA60     		str	r2, [r3, #12]
 814 00b6 FB68     		ldr	r3, [r7, #12]
 815 00b8 1B68     		ldr	r3, [r3]
ARM GAS  C:\Users\user\AppData\Local\Temp\ccegtlDB.s 			page 15


 816 00ba 254A     		ldr	r2, .L50+12
 817 00bc 9342     		cmp	r3, r2
 818 00be 22D0     		beq	.L45
 819 00c0 FB68     		ldr	r3, [r7, #12]
 820 00c2 1B68     		ldr	r3, [r3]
 821 00c4 B3F1804F 		cmp	r3, #1073741824
 822 00c8 1DD0     		beq	.L45
 823 00ca FB68     		ldr	r3, [r7, #12]
 824 00cc 1B68     		ldr	r3, [r3]
 825 00ce 214A     		ldr	r2, .L50+16
 826 00d0 9342     		cmp	r3, r2
 827 00d2 18D0     		beq	.L45
 828 00d4 FB68     		ldr	r3, [r7, #12]
 829 00d6 1B68     		ldr	r3, [r3]
 830 00d8 1F4A     		ldr	r2, .L50+20
 831 00da 9342     		cmp	r3, r2
 832 00dc 13D0     		beq	.L45
 833 00de FB68     		ldr	r3, [r7, #12]
 834 00e0 1B68     		ldr	r3, [r3]
 835 00e2 1E4A     		ldr	r2, .L50+24
 836 00e4 9342     		cmp	r3, r2
 837 00e6 0ED0     		beq	.L45
 838 00e8 FB68     		ldr	r3, [r7, #12]
 839 00ea 1B68     		ldr	r3, [r3]
 840 00ec 1C4A     		ldr	r2, .L50+28
 841 00ee 9342     		cmp	r3, r2
 842 00f0 09D0     		beq	.L45
 843 00f2 FB68     		ldr	r3, [r7, #12]
 844 00f4 1B68     		ldr	r3, [r3]
 845 00f6 1B4A     		ldr	r2, .L50+32
 846 00f8 9342     		cmp	r3, r2
 847 00fa 04D0     		beq	.L45
 848 00fc FB68     		ldr	r3, [r7, #12]
 849 00fe 1B68     		ldr	r3, [r3]
 850 0100 194A     		ldr	r2, .L50+36
 851 0102 9342     		cmp	r3, r2
 852 0104 11D1     		bne	.L46
 853              	.L45:
 854 0106 FB68     		ldr	r3, [r7, #12]
 855 0108 1B68     		ldr	r3, [r3]
 856 010a 9B68     		ldr	r3, [r3, #8]
 857 010c 03F00703 		and	r3, r3, #7
 858 0110 3B61     		str	r3, [r7, #16]
 859 0112 3B69     		ldr	r3, [r7, #16]
 860 0114 062B     		cmp	r3, #6
 861 0116 10D0     		beq	.L48
 862 0118 FB68     		ldr	r3, [r7, #12]
 863 011a 1B68     		ldr	r3, [r3]
 864 011c 1A68     		ldr	r2, [r3]
 865 011e FB68     		ldr	r3, [r7, #12]
 866 0120 1B68     		ldr	r3, [r3]
 867 0122 42F00102 		orr	r2, r2, #1
 868 0126 1A60     		str	r2, [r3]
 869 0128 07E0     		b	.L48
 870              	.L46:
 871 012a FB68     		ldr	r3, [r7, #12]
 872 012c 1B68     		ldr	r3, [r3]
ARM GAS  C:\Users\user\AppData\Local\Temp\ccegtlDB.s 			page 16


 873 012e 1A68     		ldr	r2, [r3]
 874 0130 FB68     		ldr	r3, [r7, #12]
 875 0132 1B68     		ldr	r3, [r3]
 876 0134 42F00102 		orr	r2, r2, #1
 877 0138 1A60     		str	r2, [r3]
 878              	.L48:
 879 013a 0023     		movs	r3, #0
 880              	.L40:
 881 013c 1846     		mov	r0, r3
 882 013e 1837     		adds	r7, r7, #24
 883 0140 BD46     		mov	sp, r7
 884              		@ sp needed
 885 0142 80BD     		pop	{r7, pc}
 886              	.L51:
 887              		.align	2
 888              	.L50:
 889 0144 00000000 		.word	TIM_DMACaptureCplt
 890 0148 00000000 		.word	TIM_DMACaptureHalfCplt
 891 014c 00000000 		.word	TIM_DMAError
 892 0150 00000140 		.word	1073807360
 893 0154 00040040 		.word	1073742848
 894 0158 00080040 		.word	1073743872
 895 015c 000C0040 		.word	1073744896
 896 0160 00040140 		.word	1073808384
 897 0164 00400140 		.word	1073823744
 898 0168 00180040 		.word	1073747968
 900              		.section	.text.HAL_TIMEx_HallSensor_Stop_DMA,"ax",%progbits
 901              		.align	1
 902              		.global	HAL_TIMEx_HallSensor_Stop_DMA
 903              		.syntax unified
 904              		.thumb
 905              		.thumb_func
 907              	HAL_TIMEx_HallSensor_Stop_DMA:
 908              		@ args = 0, pretend = 0, frame = 8
 909              		@ frame_needed = 1, uses_anonymous_args = 0
 910 0000 80B5     		push	{r7, lr}
 911 0002 82B0     		sub	sp, sp, #8
 912 0004 00AF     		add	r7, sp, #0
 913 0006 7860     		str	r0, [r7, #4]
 914 0008 7B68     		ldr	r3, [r7, #4]
 915 000a 1B68     		ldr	r3, [r3]
 916 000c 0022     		movs	r2, #0
 917 000e 0021     		movs	r1, #0
 918 0010 1846     		mov	r0, r3
 919 0012 FFF7FEFF 		bl	TIM_CCxChannelCmd
 920 0016 7B68     		ldr	r3, [r7, #4]
 921 0018 1B68     		ldr	r3, [r3]
 922 001a DA68     		ldr	r2, [r3, #12]
 923 001c 7B68     		ldr	r3, [r7, #4]
 924 001e 1B68     		ldr	r3, [r3]
 925 0020 22F40072 		bic	r2, r2, #512
 926 0024 DA60     		str	r2, [r3, #12]
 927 0026 7B68     		ldr	r3, [r7, #4]
 928 0028 5B6A     		ldr	r3, [r3, #36]
 929 002a 1846     		mov	r0, r3
 930 002c FFF7FEFF 		bl	HAL_DMA_Abort_IT
 931 0030 7B68     		ldr	r3, [r7, #4]
ARM GAS  C:\Users\user\AppData\Local\Temp\ccegtlDB.s 			page 17


 932 0032 1B68     		ldr	r3, [r3]
 933 0034 1A6A     		ldr	r2, [r3, #32]
 934 0036 41F21113 		movw	r3, #4369
 935 003a 1340     		ands	r3, r3, r2
 936 003c 002B     		cmp	r3, #0
 937 003e 0FD1     		bne	.L53
 938 0040 7B68     		ldr	r3, [r7, #4]
 939 0042 1B68     		ldr	r3, [r3]
 940 0044 1A6A     		ldr	r2, [r3, #32]
 941 0046 40F24443 		movw	r3, #1092
 942 004a 1340     		ands	r3, r3, r2
 943 004c 002B     		cmp	r3, #0
 944 004e 07D1     		bne	.L53
 945 0050 7B68     		ldr	r3, [r7, #4]
 946 0052 1B68     		ldr	r3, [r3]
 947 0054 1A68     		ldr	r2, [r3]
 948 0056 7B68     		ldr	r3, [r7, #4]
 949 0058 1B68     		ldr	r3, [r3]
 950 005a 22F00102 		bic	r2, r2, #1
 951 005e 1A60     		str	r2, [r3]
 952              	.L53:
 953 0060 7B68     		ldr	r3, [r7, #4]
 954 0062 0122     		movs	r2, #1
 955 0064 83F83E20 		strb	r2, [r3, #62]
 956 0068 7B68     		ldr	r3, [r7, #4]
 957 006a 0122     		movs	r2, #1
 958 006c 83F84220 		strb	r2, [r3, #66]
 959 0070 0023     		movs	r3, #0
 960 0072 1846     		mov	r0, r3
 961 0074 0837     		adds	r7, r7, #8
 962 0076 BD46     		mov	sp, r7
 963              		@ sp needed
 964 0078 80BD     		pop	{r7, pc}
 966              		.section	.text.HAL_TIMEx_OCN_Start,"ax",%progbits
 967              		.align	1
 968              		.global	HAL_TIMEx_OCN_Start
 969              		.syntax unified
 970              		.thumb
 971              		.thumb_func
 973              	HAL_TIMEx_OCN_Start:
 974              		@ args = 0, pretend = 0, frame = 16
 975              		@ frame_needed = 1, uses_anonymous_args = 0
 976 0000 80B5     		push	{r7, lr}
 977 0002 84B0     		sub	sp, sp, #16
 978 0004 00AF     		add	r7, sp, #0
 979 0006 7860     		str	r0, [r7, #4]
 980 0008 3960     		str	r1, [r7]
 981 000a 3B68     		ldr	r3, [r7]
 982 000c 002B     		cmp	r3, #0
 983 000e 09D1     		bne	.L56
 984 0010 7B68     		ldr	r3, [r7, #4]
 985 0012 93F84230 		ldrb	r3, [r3, #66]
 986 0016 DBB2     		uxtb	r3, r3
 987 0018 012B     		cmp	r3, #1
 988 001a 14BF     		ite	ne
 989 001c 0123     		movne	r3, #1
 990 001e 0023     		moveq	r3, #0
ARM GAS  C:\Users\user\AppData\Local\Temp\ccegtlDB.s 			page 18


 991 0020 DBB2     		uxtb	r3, r3
 992 0022 22E0     		b	.L57
 993              	.L56:
 994 0024 3B68     		ldr	r3, [r7]
 995 0026 042B     		cmp	r3, #4
 996 0028 09D1     		bne	.L58
 997 002a 7B68     		ldr	r3, [r7, #4]
 998 002c 93F84330 		ldrb	r3, [r3, #67]
 999 0030 DBB2     		uxtb	r3, r3
 1000 0032 012B     		cmp	r3, #1
 1001 0034 14BF     		ite	ne
 1002 0036 0123     		movne	r3, #1
 1003 0038 0023     		moveq	r3, #0
 1004 003a DBB2     		uxtb	r3, r3
 1005 003c 15E0     		b	.L57
 1006              	.L58:
 1007 003e 3B68     		ldr	r3, [r7]
 1008 0040 082B     		cmp	r3, #8
 1009 0042 09D1     		bne	.L60
 1010 0044 7B68     		ldr	r3, [r7, #4]
 1011 0046 93F84430 		ldrb	r3, [r3, #68]
 1012 004a DBB2     		uxtb	r3, r3
 1013 004c 012B     		cmp	r3, #1
 1014 004e 14BF     		ite	ne
 1015 0050 0123     		movne	r3, #1
 1016 0052 0023     		moveq	r3, #0
 1017 0054 DBB2     		uxtb	r3, r3
 1018 0056 08E0     		b	.L57
 1019              	.L60:
 1020 0058 7B68     		ldr	r3, [r7, #4]
 1021 005a 93F84530 		ldrb	r3, [r3, #69]
 1022 005e DBB2     		uxtb	r3, r3
 1023 0060 012B     		cmp	r3, #1
 1024 0062 14BF     		ite	ne
 1025 0064 0123     		movne	r3, #1
 1026 0066 0023     		moveq	r3, #0
 1027 0068 DBB2     		uxtb	r3, r3
 1028              	.L57:
 1029 006a 002B     		cmp	r3, #0
 1030 006c 01D0     		beq	.L62
 1031 006e 0123     		movs	r3, #1
 1032 0070 6DE0     		b	.L63
 1033              	.L62:
 1034 0072 3B68     		ldr	r3, [r7]
 1035 0074 002B     		cmp	r3, #0
 1036 0076 04D1     		bne	.L64
 1037 0078 7B68     		ldr	r3, [r7, #4]
 1038 007a 0222     		movs	r2, #2
 1039 007c 83F84220 		strb	r2, [r3, #66]
 1040 0080 13E0     		b	.L65
 1041              	.L64:
 1042 0082 3B68     		ldr	r3, [r7]
 1043 0084 042B     		cmp	r3, #4
 1044 0086 04D1     		bne	.L66
 1045 0088 7B68     		ldr	r3, [r7, #4]
 1046 008a 0222     		movs	r2, #2
 1047 008c 83F84320 		strb	r2, [r3, #67]
ARM GAS  C:\Users\user\AppData\Local\Temp\ccegtlDB.s 			page 19


 1048 0090 0BE0     		b	.L65
 1049              	.L66:
 1050 0092 3B68     		ldr	r3, [r7]
 1051 0094 082B     		cmp	r3, #8
 1052 0096 04D1     		bne	.L68
 1053 0098 7B68     		ldr	r3, [r7, #4]
 1054 009a 0222     		movs	r2, #2
 1055 009c 83F84420 		strb	r2, [r3, #68]
 1056 00a0 03E0     		b	.L65
 1057              	.L68:
 1058 00a2 7B68     		ldr	r3, [r7, #4]
 1059 00a4 0222     		movs	r2, #2
 1060 00a6 83F84520 		strb	r2, [r3, #69]
 1061              	.L65:
 1062 00aa 7B68     		ldr	r3, [r7, #4]
 1063 00ac 1B68     		ldr	r3, [r3]
 1064 00ae 0422     		movs	r2, #4
 1065 00b0 3968     		ldr	r1, [r7]
 1066 00b2 1846     		mov	r0, r3
 1067 00b4 FFF7FEFF 		bl	TIM_CCxNChannelCmd
 1068 00b8 7B68     		ldr	r3, [r7, #4]
 1069 00ba 1B68     		ldr	r3, [r3]
 1070 00bc 5A6C     		ldr	r2, [r3, #68]
 1071 00be 7B68     		ldr	r3, [r7, #4]
 1072 00c0 1B68     		ldr	r3, [r3]
 1073 00c2 42F40042 		orr	r2, r2, #32768
 1074 00c6 5A64     		str	r2, [r3, #68]
 1075 00c8 7B68     		ldr	r3, [r7, #4]
 1076 00ca 1B68     		ldr	r3, [r3]
 1077 00cc 224A     		ldr	r2, .L74
 1078 00ce 9342     		cmp	r3, r2
 1079 00d0 22D0     		beq	.L70
 1080 00d2 7B68     		ldr	r3, [r7, #4]
 1081 00d4 1B68     		ldr	r3, [r3]
 1082 00d6 B3F1804F 		cmp	r3, #1073741824
 1083 00da 1DD0     		beq	.L70
 1084 00dc 7B68     		ldr	r3, [r7, #4]
 1085 00de 1B68     		ldr	r3, [r3]
 1086 00e0 1E4A     		ldr	r2, .L74+4
 1087 00e2 9342     		cmp	r3, r2
 1088 00e4 18D0     		beq	.L70
 1089 00e6 7B68     		ldr	r3, [r7, #4]
 1090 00e8 1B68     		ldr	r3, [r3]
 1091 00ea 1D4A     		ldr	r2, .L74+8
 1092 00ec 9342     		cmp	r3, r2
 1093 00ee 13D0     		beq	.L70
 1094 00f0 7B68     		ldr	r3, [r7, #4]
 1095 00f2 1B68     		ldr	r3, [r3]
 1096 00f4 1B4A     		ldr	r2, .L74+12
 1097 00f6 9342     		cmp	r3, r2
 1098 00f8 0ED0     		beq	.L70
 1099 00fa 7B68     		ldr	r3, [r7, #4]
 1100 00fc 1B68     		ldr	r3, [r3]
 1101 00fe 1A4A     		ldr	r2, .L74+16
 1102 0100 9342     		cmp	r3, r2
 1103 0102 09D0     		beq	.L70
 1104 0104 7B68     		ldr	r3, [r7, #4]
ARM GAS  C:\Users\user\AppData\Local\Temp\ccegtlDB.s 			page 20


 1105 0106 1B68     		ldr	r3, [r3]
 1106 0108 184A     		ldr	r2, .L74+20
 1107 010a 9342     		cmp	r3, r2
 1108 010c 04D0     		beq	.L70
 1109 010e 7B68     		ldr	r3, [r7, #4]
 1110 0110 1B68     		ldr	r3, [r3]
 1111 0112 174A     		ldr	r2, .L74+24
 1112 0114 9342     		cmp	r3, r2
 1113 0116 11D1     		bne	.L71
 1114              	.L70:
 1115 0118 7B68     		ldr	r3, [r7, #4]
 1116 011a 1B68     		ldr	r3, [r3]
 1117 011c 9B68     		ldr	r3, [r3, #8]
 1118 011e 03F00703 		and	r3, r3, #7
 1119 0122 FB60     		str	r3, [r7, #12]
 1120 0124 FB68     		ldr	r3, [r7, #12]
 1121 0126 062B     		cmp	r3, #6
 1122 0128 10D0     		beq	.L73
 1123 012a 7B68     		ldr	r3, [r7, #4]
 1124 012c 1B68     		ldr	r3, [r3]
 1125 012e 1A68     		ldr	r2, [r3]
 1126 0130 7B68     		ldr	r3, [r7, #4]
 1127 0132 1B68     		ldr	r3, [r3]
 1128 0134 42F00102 		orr	r2, r2, #1
 1129 0138 1A60     		str	r2, [r3]
 1130 013a 07E0     		b	.L73
 1131              	.L71:
 1132 013c 7B68     		ldr	r3, [r7, #4]
 1133 013e 1B68     		ldr	r3, [r3]
 1134 0140 1A68     		ldr	r2, [r3]
 1135 0142 7B68     		ldr	r3, [r7, #4]
 1136 0144 1B68     		ldr	r3, [r3]
 1137 0146 42F00102 		orr	r2, r2, #1
 1138 014a 1A60     		str	r2, [r3]
 1139              	.L73:
 1140 014c 0023     		movs	r3, #0
 1141              	.L63:
 1142 014e 1846     		mov	r0, r3
 1143 0150 1037     		adds	r7, r7, #16
 1144 0152 BD46     		mov	sp, r7
 1145              		@ sp needed
 1146 0154 80BD     		pop	{r7, pc}
 1147              	.L75:
 1148 0156 00BF     		.align	2
 1149              	.L74:
 1150 0158 00000140 		.word	1073807360
 1151 015c 00040040 		.word	1073742848
 1152 0160 00080040 		.word	1073743872
 1153 0164 000C0040 		.word	1073744896
 1154 0168 00040140 		.word	1073808384
 1155 016c 00400140 		.word	1073823744
 1156 0170 00180040 		.word	1073747968
 1158              		.section	.text.HAL_TIMEx_OCN_Stop,"ax",%progbits
 1159              		.align	1
 1160              		.global	HAL_TIMEx_OCN_Stop
 1161              		.syntax unified
 1162              		.thumb
ARM GAS  C:\Users\user\AppData\Local\Temp\ccegtlDB.s 			page 21


 1163              		.thumb_func
 1165              	HAL_TIMEx_OCN_Stop:
 1166              		@ args = 0, pretend = 0, frame = 8
 1167              		@ frame_needed = 1, uses_anonymous_args = 0
 1168 0000 80B5     		push	{r7, lr}
 1169 0002 82B0     		sub	sp, sp, #8
 1170 0004 00AF     		add	r7, sp, #0
 1171 0006 7860     		str	r0, [r7, #4]
 1172 0008 3960     		str	r1, [r7]
 1173 000a 7B68     		ldr	r3, [r7, #4]
 1174 000c 1B68     		ldr	r3, [r3]
 1175 000e 0022     		movs	r2, #0
 1176 0010 3968     		ldr	r1, [r7]
 1177 0012 1846     		mov	r0, r3
 1178 0014 FFF7FEFF 		bl	TIM_CCxNChannelCmd
 1179 0018 7B68     		ldr	r3, [r7, #4]
 1180 001a 1B68     		ldr	r3, [r3]
 1181 001c 1A6A     		ldr	r2, [r3, #32]
 1182 001e 41F21113 		movw	r3, #4369
 1183 0022 1340     		ands	r3, r3, r2
 1184 0024 002B     		cmp	r3, #0
 1185 0026 0FD1     		bne	.L77
 1186 0028 7B68     		ldr	r3, [r7, #4]
 1187 002a 1B68     		ldr	r3, [r3]
 1188 002c 1A6A     		ldr	r2, [r3, #32]
 1189 002e 40F24443 		movw	r3, #1092
 1190 0032 1340     		ands	r3, r3, r2
 1191 0034 002B     		cmp	r3, #0
 1192 0036 07D1     		bne	.L77
 1193 0038 7B68     		ldr	r3, [r7, #4]
 1194 003a 1B68     		ldr	r3, [r3]
 1195 003c 5A6C     		ldr	r2, [r3, #68]
 1196 003e 7B68     		ldr	r3, [r7, #4]
 1197 0040 1B68     		ldr	r3, [r3]
 1198 0042 22F40042 		bic	r2, r2, #32768
 1199 0046 5A64     		str	r2, [r3, #68]
 1200              	.L77:
 1201 0048 7B68     		ldr	r3, [r7, #4]
 1202 004a 1B68     		ldr	r3, [r3]
 1203 004c 1A6A     		ldr	r2, [r3, #32]
 1204 004e 41F21113 		movw	r3, #4369
 1205 0052 1340     		ands	r3, r3, r2
 1206 0054 002B     		cmp	r3, #0
 1207 0056 0FD1     		bne	.L78
 1208 0058 7B68     		ldr	r3, [r7, #4]
 1209 005a 1B68     		ldr	r3, [r3]
 1210 005c 1A6A     		ldr	r2, [r3, #32]
 1211 005e 40F24443 		movw	r3, #1092
 1212 0062 1340     		ands	r3, r3, r2
 1213 0064 002B     		cmp	r3, #0
 1214 0066 07D1     		bne	.L78
 1215 0068 7B68     		ldr	r3, [r7, #4]
 1216 006a 1B68     		ldr	r3, [r3]
 1217 006c 1A68     		ldr	r2, [r3]
 1218 006e 7B68     		ldr	r3, [r7, #4]
 1219 0070 1B68     		ldr	r3, [r3]
 1220 0072 22F00102 		bic	r2, r2, #1
ARM GAS  C:\Users\user\AppData\Local\Temp\ccegtlDB.s 			page 22


 1221 0076 1A60     		str	r2, [r3]
 1222              	.L78:
 1223 0078 3B68     		ldr	r3, [r7]
 1224 007a 002B     		cmp	r3, #0
 1225 007c 04D1     		bne	.L79
 1226 007e 7B68     		ldr	r3, [r7, #4]
 1227 0080 0122     		movs	r2, #1
 1228 0082 83F84220 		strb	r2, [r3, #66]
 1229 0086 13E0     		b	.L80
 1230              	.L79:
 1231 0088 3B68     		ldr	r3, [r7]
 1232 008a 042B     		cmp	r3, #4
 1233 008c 04D1     		bne	.L81
 1234 008e 7B68     		ldr	r3, [r7, #4]
 1235 0090 0122     		movs	r2, #1
 1236 0092 83F84320 		strb	r2, [r3, #67]
 1237 0096 0BE0     		b	.L80
 1238              	.L81:
 1239 0098 3B68     		ldr	r3, [r7]
 1240 009a 082B     		cmp	r3, #8
 1241 009c 04D1     		bne	.L83
 1242 009e 7B68     		ldr	r3, [r7, #4]
 1243 00a0 0122     		movs	r2, #1
 1244 00a2 83F84420 		strb	r2, [r3, #68]
 1245 00a6 03E0     		b	.L80
 1246              	.L83:
 1247 00a8 7B68     		ldr	r3, [r7, #4]
 1248 00aa 0122     		movs	r2, #1
 1249 00ac 83F84520 		strb	r2, [r3, #69]
 1250              	.L80:
 1251 00b0 0023     		movs	r3, #0
 1252 00b2 1846     		mov	r0, r3
 1253 00b4 0837     		adds	r7, r7, #8
 1254 00b6 BD46     		mov	sp, r7
 1255              		@ sp needed
 1256 00b8 80BD     		pop	{r7, pc}
 1258              		.section	.text.HAL_TIMEx_OCN_Start_IT,"ax",%progbits
 1259              		.align	1
 1260              		.global	HAL_TIMEx_OCN_Start_IT
 1261              		.syntax unified
 1262              		.thumb
 1263              		.thumb_func
 1265              	HAL_TIMEx_OCN_Start_IT:
 1266              		@ args = 0, pretend = 0, frame = 16
 1267              		@ frame_needed = 1, uses_anonymous_args = 0
 1268 0000 80B5     		push	{r7, lr}
 1269 0002 84B0     		sub	sp, sp, #16
 1270 0004 00AF     		add	r7, sp, #0
 1271 0006 7860     		str	r0, [r7, #4]
 1272 0008 3960     		str	r1, [r7]
 1273 000a 0023     		movs	r3, #0
 1274 000c FB73     		strb	r3, [r7, #15]
 1275 000e 3B68     		ldr	r3, [r7]
 1276 0010 002B     		cmp	r3, #0
 1277 0012 09D1     		bne	.L87
 1278 0014 7B68     		ldr	r3, [r7, #4]
 1279 0016 93F84230 		ldrb	r3, [r3, #66]
ARM GAS  C:\Users\user\AppData\Local\Temp\ccegtlDB.s 			page 23


 1280 001a DBB2     		uxtb	r3, r3
 1281 001c 012B     		cmp	r3, #1
 1282 001e 14BF     		ite	ne
 1283 0020 0123     		movne	r3, #1
 1284 0022 0023     		moveq	r3, #0
 1285 0024 DBB2     		uxtb	r3, r3
 1286 0026 22E0     		b	.L88
 1287              	.L87:
 1288 0028 3B68     		ldr	r3, [r7]
 1289 002a 042B     		cmp	r3, #4
 1290 002c 09D1     		bne	.L89
 1291 002e 7B68     		ldr	r3, [r7, #4]
 1292 0030 93F84330 		ldrb	r3, [r3, #67]
 1293 0034 DBB2     		uxtb	r3, r3
 1294 0036 012B     		cmp	r3, #1
 1295 0038 14BF     		ite	ne
 1296 003a 0123     		movne	r3, #1
 1297 003c 0023     		moveq	r3, #0
 1298 003e DBB2     		uxtb	r3, r3
 1299 0040 15E0     		b	.L88
 1300              	.L89:
 1301 0042 3B68     		ldr	r3, [r7]
 1302 0044 082B     		cmp	r3, #8
 1303 0046 09D1     		bne	.L91
 1304 0048 7B68     		ldr	r3, [r7, #4]
 1305 004a 93F84430 		ldrb	r3, [r3, #68]
 1306 004e DBB2     		uxtb	r3, r3
 1307 0050 012B     		cmp	r3, #1
 1308 0052 14BF     		ite	ne
 1309 0054 0123     		movne	r3, #1
 1310 0056 0023     		moveq	r3, #0
 1311 0058 DBB2     		uxtb	r3, r3
 1312 005a 08E0     		b	.L88
 1313              	.L91:
 1314 005c 7B68     		ldr	r3, [r7, #4]
 1315 005e 93F84530 		ldrb	r3, [r3, #69]
 1316 0062 DBB2     		uxtb	r3, r3
 1317 0064 012B     		cmp	r3, #1
 1318 0066 14BF     		ite	ne
 1319 0068 0123     		movne	r3, #1
 1320 006a 0023     		moveq	r3, #0
 1321 006c DBB2     		uxtb	r3, r3
 1322              	.L88:
 1323 006e 002B     		cmp	r3, #0
 1324 0070 01D0     		beq	.L93
 1325 0072 0123     		movs	r3, #1
 1326 0074 A3E0     		b	.L94
 1327              	.L93:
 1328 0076 3B68     		ldr	r3, [r7]
 1329 0078 002B     		cmp	r3, #0
 1330 007a 04D1     		bne	.L95
 1331 007c 7B68     		ldr	r3, [r7, #4]
 1332 007e 0222     		movs	r2, #2
 1333 0080 83F84220 		strb	r2, [r3, #66]
 1334 0084 13E0     		b	.L96
 1335              	.L95:
 1336 0086 3B68     		ldr	r3, [r7]
ARM GAS  C:\Users\user\AppData\Local\Temp\ccegtlDB.s 			page 24


 1337 0088 042B     		cmp	r3, #4
 1338 008a 04D1     		bne	.L97
 1339 008c 7B68     		ldr	r3, [r7, #4]
 1340 008e 0222     		movs	r2, #2
 1341 0090 83F84320 		strb	r2, [r3, #67]
 1342 0094 0BE0     		b	.L96
 1343              	.L97:
 1344 0096 3B68     		ldr	r3, [r7]
 1345 0098 082B     		cmp	r3, #8
 1346 009a 04D1     		bne	.L99
 1347 009c 7B68     		ldr	r3, [r7, #4]
 1348 009e 0222     		movs	r2, #2
 1349 00a0 83F84420 		strb	r2, [r3, #68]
 1350 00a4 03E0     		b	.L96
 1351              	.L99:
 1352 00a6 7B68     		ldr	r3, [r7, #4]
 1353 00a8 0222     		movs	r2, #2
 1354 00aa 83F84520 		strb	r2, [r3, #69]
 1355              	.L96:
 1356 00ae 3B68     		ldr	r3, [r7]
 1357 00b0 082B     		cmp	r3, #8
 1358 00b2 1BD0     		beq	.L101
 1359 00b4 3B68     		ldr	r3, [r7]
 1360 00b6 082B     		cmp	r3, #8
 1361 00b8 21D8     		bhi	.L102
 1362 00ba 3B68     		ldr	r3, [r7]
 1363 00bc 002B     		cmp	r3, #0
 1364 00be 03D0     		beq	.L103
 1365 00c0 3B68     		ldr	r3, [r7]
 1366 00c2 042B     		cmp	r3, #4
 1367 00c4 09D0     		beq	.L104
 1368 00c6 1AE0     		b	.L102
 1369              	.L103:
 1370 00c8 7B68     		ldr	r3, [r7, #4]
 1371 00ca 1B68     		ldr	r3, [r3]
 1372 00cc DA68     		ldr	r2, [r3, #12]
 1373 00ce 7B68     		ldr	r3, [r7, #4]
 1374 00d0 1B68     		ldr	r3, [r3]
 1375 00d2 42F00202 		orr	r2, r2, #2
 1376 00d6 DA60     		str	r2, [r3, #12]
 1377 00d8 14E0     		b	.L105
 1378              	.L104:
 1379 00da 7B68     		ldr	r3, [r7, #4]
 1380 00dc 1B68     		ldr	r3, [r3]
 1381 00de DA68     		ldr	r2, [r3, #12]
 1382 00e0 7B68     		ldr	r3, [r7, #4]
 1383 00e2 1B68     		ldr	r3, [r3]
 1384 00e4 42F00402 		orr	r2, r2, #4
 1385 00e8 DA60     		str	r2, [r3, #12]
 1386 00ea 0BE0     		b	.L105
 1387              	.L101:
 1388 00ec 7B68     		ldr	r3, [r7, #4]
 1389 00ee 1B68     		ldr	r3, [r3]
 1390 00f0 DA68     		ldr	r2, [r3, #12]
 1391 00f2 7B68     		ldr	r3, [r7, #4]
 1392 00f4 1B68     		ldr	r3, [r3]
 1393 00f6 42F00802 		orr	r2, r2, #8
ARM GAS  C:\Users\user\AppData\Local\Temp\ccegtlDB.s 			page 25


 1394 00fa DA60     		str	r2, [r3, #12]
 1395 00fc 02E0     		b	.L105
 1396              	.L102:
 1397 00fe 0123     		movs	r3, #1
 1398 0100 FB73     		strb	r3, [r7, #15]
 1399 0102 00BF     		nop
 1400              	.L105:
 1401 0104 FB7B     		ldrb	r3, [r7, #15]	@ zero_extendqisi2
 1402 0106 002B     		cmp	r3, #0
 1403 0108 58D1     		bne	.L106
 1404 010a 7B68     		ldr	r3, [r7, #4]
 1405 010c 1B68     		ldr	r3, [r3]
 1406 010e DA68     		ldr	r2, [r3, #12]
 1407 0110 7B68     		ldr	r3, [r7, #4]
 1408 0112 1B68     		ldr	r3, [r3]
 1409 0114 42F08002 		orr	r2, r2, #128
 1410 0118 DA60     		str	r2, [r3, #12]
 1411 011a 7B68     		ldr	r3, [r7, #4]
 1412 011c 1B68     		ldr	r3, [r3]
 1413 011e 0422     		movs	r2, #4
 1414 0120 3968     		ldr	r1, [r7]
 1415 0122 1846     		mov	r0, r3
 1416 0124 FFF7FEFF 		bl	TIM_CCxNChannelCmd
 1417 0128 7B68     		ldr	r3, [r7, #4]
 1418 012a 1B68     		ldr	r3, [r3]
 1419 012c 5A6C     		ldr	r2, [r3, #68]
 1420 012e 7B68     		ldr	r3, [r7, #4]
 1421 0130 1B68     		ldr	r3, [r3]
 1422 0132 42F40042 		orr	r2, r2, #32768
 1423 0136 5A64     		str	r2, [r3, #68]
 1424 0138 7B68     		ldr	r3, [r7, #4]
 1425 013a 1B68     		ldr	r3, [r3]
 1426 013c 224A     		ldr	r2, .L110
 1427 013e 9342     		cmp	r3, r2
 1428 0140 22D0     		beq	.L107
 1429 0142 7B68     		ldr	r3, [r7, #4]
 1430 0144 1B68     		ldr	r3, [r3]
 1431 0146 B3F1804F 		cmp	r3, #1073741824
 1432 014a 1DD0     		beq	.L107
 1433 014c 7B68     		ldr	r3, [r7, #4]
 1434 014e 1B68     		ldr	r3, [r3]
 1435 0150 1E4A     		ldr	r2, .L110+4
 1436 0152 9342     		cmp	r3, r2
 1437 0154 18D0     		beq	.L107
 1438 0156 7B68     		ldr	r3, [r7, #4]
 1439 0158 1B68     		ldr	r3, [r3]
 1440 015a 1D4A     		ldr	r2, .L110+8
 1441 015c 9342     		cmp	r3, r2
 1442 015e 13D0     		beq	.L107
 1443 0160 7B68     		ldr	r3, [r7, #4]
 1444 0162 1B68     		ldr	r3, [r3]
 1445 0164 1B4A     		ldr	r2, .L110+12
 1446 0166 9342     		cmp	r3, r2
 1447 0168 0ED0     		beq	.L107
 1448 016a 7B68     		ldr	r3, [r7, #4]
 1449 016c 1B68     		ldr	r3, [r3]
 1450 016e 1A4A     		ldr	r2, .L110+16
ARM GAS  C:\Users\user\AppData\Local\Temp\ccegtlDB.s 			page 26


 1451 0170 9342     		cmp	r3, r2
 1452 0172 09D0     		beq	.L107
 1453 0174 7B68     		ldr	r3, [r7, #4]
 1454 0176 1B68     		ldr	r3, [r3]
 1455 0178 184A     		ldr	r2, .L110+20
 1456 017a 9342     		cmp	r3, r2
 1457 017c 04D0     		beq	.L107
 1458 017e 7B68     		ldr	r3, [r7, #4]
 1459 0180 1B68     		ldr	r3, [r3]
 1460 0182 174A     		ldr	r2, .L110+24
 1461 0184 9342     		cmp	r3, r2
 1462 0186 11D1     		bne	.L108
 1463              	.L107:
 1464 0188 7B68     		ldr	r3, [r7, #4]
 1465 018a 1B68     		ldr	r3, [r3]
 1466 018c 9B68     		ldr	r3, [r3, #8]
 1467 018e 03F00703 		and	r3, r3, #7
 1468 0192 BB60     		str	r3, [r7, #8]
 1469 0194 BB68     		ldr	r3, [r7, #8]
 1470 0196 062B     		cmp	r3, #6
 1471 0198 10D0     		beq	.L106
 1472 019a 7B68     		ldr	r3, [r7, #4]
 1473 019c 1B68     		ldr	r3, [r3]
 1474 019e 1A68     		ldr	r2, [r3]
 1475 01a0 7B68     		ldr	r3, [r7, #4]
 1476 01a2 1B68     		ldr	r3, [r3]
 1477 01a4 42F00102 		orr	r2, r2, #1
 1478 01a8 1A60     		str	r2, [r3]
 1479 01aa 07E0     		b	.L106
 1480              	.L108:
 1481 01ac 7B68     		ldr	r3, [r7, #4]
 1482 01ae 1B68     		ldr	r3, [r3]
 1483 01b0 1A68     		ldr	r2, [r3]
 1484 01b2 7B68     		ldr	r3, [r7, #4]
 1485 01b4 1B68     		ldr	r3, [r3]
 1486 01b6 42F00102 		orr	r2, r2, #1
 1487 01ba 1A60     		str	r2, [r3]
 1488              	.L106:
 1489 01bc FB7B     		ldrb	r3, [r7, #15]	@ zero_extendqisi2
 1490              	.L94:
 1491 01be 1846     		mov	r0, r3
 1492 01c0 1037     		adds	r7, r7, #16
 1493 01c2 BD46     		mov	sp, r7
 1494              		@ sp needed
 1495 01c4 80BD     		pop	{r7, pc}
 1496              	.L111:
 1497 01c6 00BF     		.align	2
 1498              	.L110:
 1499 01c8 00000140 		.word	1073807360
 1500 01cc 00040040 		.word	1073742848
 1501 01d0 00080040 		.word	1073743872
 1502 01d4 000C0040 		.word	1073744896
 1503 01d8 00040140 		.word	1073808384
 1504 01dc 00400140 		.word	1073823744
 1505 01e0 00180040 		.word	1073747968
 1507              		.section	.text.HAL_TIMEx_OCN_Stop_IT,"ax",%progbits
 1508              		.align	1
ARM GAS  C:\Users\user\AppData\Local\Temp\ccegtlDB.s 			page 27


 1509              		.global	HAL_TIMEx_OCN_Stop_IT
 1510              		.syntax unified
 1511              		.thumb
 1512              		.thumb_func
 1514              	HAL_TIMEx_OCN_Stop_IT:
 1515              		@ args = 0, pretend = 0, frame = 16
 1516              		@ frame_needed = 1, uses_anonymous_args = 0
 1517 0000 80B5     		push	{r7, lr}
 1518 0002 84B0     		sub	sp, sp, #16
 1519 0004 00AF     		add	r7, sp, #0
 1520 0006 7860     		str	r0, [r7, #4]
 1521 0008 3960     		str	r1, [r7]
 1522 000a 0023     		movs	r3, #0
 1523 000c FB73     		strb	r3, [r7, #15]
 1524 000e 3B68     		ldr	r3, [r7]
 1525 0010 082B     		cmp	r3, #8
 1526 0012 1BD0     		beq	.L113
 1527 0014 3B68     		ldr	r3, [r7]
 1528 0016 082B     		cmp	r3, #8
 1529 0018 21D8     		bhi	.L114
 1530 001a 3B68     		ldr	r3, [r7]
 1531 001c 002B     		cmp	r3, #0
 1532 001e 03D0     		beq	.L115
 1533 0020 3B68     		ldr	r3, [r7]
 1534 0022 042B     		cmp	r3, #4
 1535 0024 09D0     		beq	.L116
 1536 0026 1AE0     		b	.L114
 1537              	.L115:
 1538 0028 7B68     		ldr	r3, [r7, #4]
 1539 002a 1B68     		ldr	r3, [r3]
 1540 002c DA68     		ldr	r2, [r3, #12]
 1541 002e 7B68     		ldr	r3, [r7, #4]
 1542 0030 1B68     		ldr	r3, [r3]
 1543 0032 22F00202 		bic	r2, r2, #2
 1544 0036 DA60     		str	r2, [r3, #12]
 1545 0038 14E0     		b	.L117
 1546              	.L116:
 1547 003a 7B68     		ldr	r3, [r7, #4]
 1548 003c 1B68     		ldr	r3, [r3]
 1549 003e DA68     		ldr	r2, [r3, #12]
 1550 0040 7B68     		ldr	r3, [r7, #4]
 1551 0042 1B68     		ldr	r3, [r3]
 1552 0044 22F00402 		bic	r2, r2, #4
 1553 0048 DA60     		str	r2, [r3, #12]
 1554 004a 0BE0     		b	.L117
 1555              	.L113:
 1556 004c 7B68     		ldr	r3, [r7, #4]
 1557 004e 1B68     		ldr	r3, [r3]
 1558 0050 DA68     		ldr	r2, [r3, #12]
 1559 0052 7B68     		ldr	r3, [r7, #4]
 1560 0054 1B68     		ldr	r3, [r3]
 1561 0056 22F00802 		bic	r2, r2, #8
 1562 005a DA60     		str	r2, [r3, #12]
 1563 005c 02E0     		b	.L117
 1564              	.L114:
 1565 005e 0123     		movs	r3, #1
 1566 0060 FB73     		strb	r3, [r7, #15]
ARM GAS  C:\Users\user\AppData\Local\Temp\ccegtlDB.s 			page 28


 1567 0062 00BF     		nop
 1568              	.L117:
 1569 0064 FB7B     		ldrb	r3, [r7, #15]	@ zero_extendqisi2
 1570 0066 002B     		cmp	r3, #0
 1571 0068 64D1     		bne	.L118
 1572 006a 7B68     		ldr	r3, [r7, #4]
 1573 006c 1B68     		ldr	r3, [r3]
 1574 006e 0022     		movs	r2, #0
 1575 0070 3968     		ldr	r1, [r7]
 1576 0072 1846     		mov	r0, r3
 1577 0074 FFF7FEFF 		bl	TIM_CCxNChannelCmd
 1578 0078 7B68     		ldr	r3, [r7, #4]
 1579 007a 1B68     		ldr	r3, [r3]
 1580 007c 1B6A     		ldr	r3, [r3, #32]
 1581 007e BB60     		str	r3, [r7, #8]
 1582 0080 BA68     		ldr	r2, [r7, #8]
 1583 0082 40F24443 		movw	r3, #1092
 1584 0086 1340     		ands	r3, r3, r2
 1585 0088 002B     		cmp	r3, #0
 1586 008a 07D1     		bne	.L119
 1587 008c 7B68     		ldr	r3, [r7, #4]
 1588 008e 1B68     		ldr	r3, [r3]
 1589 0090 DA68     		ldr	r2, [r3, #12]
 1590 0092 7B68     		ldr	r3, [r7, #4]
 1591 0094 1B68     		ldr	r3, [r3]
 1592 0096 22F08002 		bic	r2, r2, #128
 1593 009a DA60     		str	r2, [r3, #12]
 1594              	.L119:
 1595 009c 7B68     		ldr	r3, [r7, #4]
 1596 009e 1B68     		ldr	r3, [r3]
 1597 00a0 1A6A     		ldr	r2, [r3, #32]
 1598 00a2 41F21113 		movw	r3, #4369
 1599 00a6 1340     		ands	r3, r3, r2
 1600 00a8 002B     		cmp	r3, #0
 1601 00aa 0FD1     		bne	.L120
 1602 00ac 7B68     		ldr	r3, [r7, #4]
 1603 00ae 1B68     		ldr	r3, [r3]
 1604 00b0 1A6A     		ldr	r2, [r3, #32]
 1605 00b2 40F24443 		movw	r3, #1092
 1606 00b6 1340     		ands	r3, r3, r2
 1607 00b8 002B     		cmp	r3, #0
 1608 00ba 07D1     		bne	.L120
 1609 00bc 7B68     		ldr	r3, [r7, #4]
 1610 00be 1B68     		ldr	r3, [r3]
 1611 00c0 5A6C     		ldr	r2, [r3, #68]
 1612 00c2 7B68     		ldr	r3, [r7, #4]
 1613 00c4 1B68     		ldr	r3, [r3]
 1614 00c6 22F40042 		bic	r2, r2, #32768
 1615 00ca 5A64     		str	r2, [r3, #68]
 1616              	.L120:
 1617 00cc 7B68     		ldr	r3, [r7, #4]
 1618 00ce 1B68     		ldr	r3, [r3]
 1619 00d0 1A6A     		ldr	r2, [r3, #32]
 1620 00d2 41F21113 		movw	r3, #4369
 1621 00d6 1340     		ands	r3, r3, r2
 1622 00d8 002B     		cmp	r3, #0
 1623 00da 0FD1     		bne	.L121
ARM GAS  C:\Users\user\AppData\Local\Temp\ccegtlDB.s 			page 29


 1624 00dc 7B68     		ldr	r3, [r7, #4]
 1625 00de 1B68     		ldr	r3, [r3]
 1626 00e0 1A6A     		ldr	r2, [r3, #32]
 1627 00e2 40F24443 		movw	r3, #1092
 1628 00e6 1340     		ands	r3, r3, r2
 1629 00e8 002B     		cmp	r3, #0
 1630 00ea 07D1     		bne	.L121
 1631 00ec 7B68     		ldr	r3, [r7, #4]
 1632 00ee 1B68     		ldr	r3, [r3]
 1633 00f0 1A68     		ldr	r2, [r3]
 1634 00f2 7B68     		ldr	r3, [r7, #4]
 1635 00f4 1B68     		ldr	r3, [r3]
 1636 00f6 22F00102 		bic	r2, r2, #1
 1637 00fa 1A60     		str	r2, [r3]
 1638              	.L121:
 1639 00fc 3B68     		ldr	r3, [r7]
 1640 00fe 002B     		cmp	r3, #0
 1641 0100 04D1     		bne	.L122
 1642 0102 7B68     		ldr	r3, [r7, #4]
 1643 0104 0122     		movs	r2, #1
 1644 0106 83F84220 		strb	r2, [r3, #66]
 1645 010a 13E0     		b	.L118
 1646              	.L122:
 1647 010c 3B68     		ldr	r3, [r7]
 1648 010e 042B     		cmp	r3, #4
 1649 0110 04D1     		bne	.L123
 1650 0112 7B68     		ldr	r3, [r7, #4]
 1651 0114 0122     		movs	r2, #1
 1652 0116 83F84320 		strb	r2, [r3, #67]
 1653 011a 0BE0     		b	.L118
 1654              	.L123:
 1655 011c 3B68     		ldr	r3, [r7]
 1656 011e 082B     		cmp	r3, #8
 1657 0120 04D1     		bne	.L125
 1658 0122 7B68     		ldr	r3, [r7, #4]
 1659 0124 0122     		movs	r2, #1
 1660 0126 83F84420 		strb	r2, [r3, #68]
 1661 012a 03E0     		b	.L118
 1662              	.L125:
 1663 012c 7B68     		ldr	r3, [r7, #4]
 1664 012e 0122     		movs	r2, #1
 1665 0130 83F84520 		strb	r2, [r3, #69]
 1666              	.L118:
 1667 0134 FB7B     		ldrb	r3, [r7, #15]	@ zero_extendqisi2
 1668 0136 1846     		mov	r0, r3
 1669 0138 1037     		adds	r7, r7, #16
 1670 013a BD46     		mov	sp, r7
 1671              		@ sp needed
 1672 013c 80BD     		pop	{r7, pc}
 1674              		.section	.text.HAL_TIMEx_OCN_Start_DMA,"ax",%progbits
 1675              		.align	1
 1676              		.global	HAL_TIMEx_OCN_Start_DMA
 1677              		.syntax unified
 1678              		.thumb
 1679              		.thumb_func
 1681              	HAL_TIMEx_OCN_Start_DMA:
 1682              		@ args = 0, pretend = 0, frame = 24
ARM GAS  C:\Users\user\AppData\Local\Temp\ccegtlDB.s 			page 30


 1683              		@ frame_needed = 1, uses_anonymous_args = 0
 1684 0000 80B5     		push	{r7, lr}
 1685 0002 86B0     		sub	sp, sp, #24
 1686 0004 00AF     		add	r7, sp, #0
 1687 0006 F860     		str	r0, [r7, #12]
 1688 0008 B960     		str	r1, [r7, #8]
 1689 000a 7A60     		str	r2, [r7, #4]
 1690 000c 7B80     		strh	r3, [r7, #2]	@ movhi
 1691 000e 0023     		movs	r3, #0
 1692 0010 FB75     		strb	r3, [r7, #23]
 1693 0012 BB68     		ldr	r3, [r7, #8]
 1694 0014 002B     		cmp	r3, #0
 1695 0016 09D1     		bne	.L129
 1696 0018 FB68     		ldr	r3, [r7, #12]
 1697 001a 93F84230 		ldrb	r3, [r3, #66]
 1698 001e DBB2     		uxtb	r3, r3
 1699 0020 022B     		cmp	r3, #2
 1700 0022 0CBF     		ite	eq
 1701 0024 0123     		moveq	r3, #1
 1702 0026 0023     		movne	r3, #0
 1703 0028 DBB2     		uxtb	r3, r3
 1704 002a 22E0     		b	.L130
 1705              	.L129:
 1706 002c BB68     		ldr	r3, [r7, #8]
 1707 002e 042B     		cmp	r3, #4
 1708 0030 09D1     		bne	.L131
 1709 0032 FB68     		ldr	r3, [r7, #12]
 1710 0034 93F84330 		ldrb	r3, [r3, #67]
 1711 0038 DBB2     		uxtb	r3, r3
 1712 003a 022B     		cmp	r3, #2
 1713 003c 0CBF     		ite	eq
 1714 003e 0123     		moveq	r3, #1
 1715 0040 0023     		movne	r3, #0
 1716 0042 DBB2     		uxtb	r3, r3
 1717 0044 15E0     		b	.L130
 1718              	.L131:
 1719 0046 BB68     		ldr	r3, [r7, #8]
 1720 0048 082B     		cmp	r3, #8
 1721 004a 09D1     		bne	.L133
 1722 004c FB68     		ldr	r3, [r7, #12]
 1723 004e 93F84430 		ldrb	r3, [r3, #68]
 1724 0052 DBB2     		uxtb	r3, r3
 1725 0054 022B     		cmp	r3, #2
 1726 0056 0CBF     		ite	eq
 1727 0058 0123     		moveq	r3, #1
 1728 005a 0023     		movne	r3, #0
 1729 005c DBB2     		uxtb	r3, r3
 1730 005e 08E0     		b	.L130
 1731              	.L133:
 1732 0060 FB68     		ldr	r3, [r7, #12]
 1733 0062 93F84530 		ldrb	r3, [r3, #69]
 1734 0066 DBB2     		uxtb	r3, r3
 1735 0068 022B     		cmp	r3, #2
 1736 006a 0CBF     		ite	eq
 1737 006c 0123     		moveq	r3, #1
 1738 006e 0023     		movne	r3, #0
 1739 0070 DBB2     		uxtb	r3, r3
ARM GAS  C:\Users\user\AppData\Local\Temp\ccegtlDB.s 			page 31


 1740              	.L130:
 1741 0072 002B     		cmp	r3, #0
 1742 0074 01D0     		beq	.L135
 1743 0076 0223     		movs	r3, #2
 1744 0078 29E1     		b	.L136
 1745              	.L135:
 1746 007a BB68     		ldr	r3, [r7, #8]
 1747 007c 002B     		cmp	r3, #0
 1748 007e 09D1     		bne	.L137
 1749 0080 FB68     		ldr	r3, [r7, #12]
 1750 0082 93F84230 		ldrb	r3, [r3, #66]
 1751 0086 DBB2     		uxtb	r3, r3
 1752 0088 012B     		cmp	r3, #1
 1753 008a 0CBF     		ite	eq
 1754 008c 0123     		moveq	r3, #1
 1755 008e 0023     		movne	r3, #0
 1756 0090 DBB2     		uxtb	r3, r3
 1757 0092 22E0     		b	.L138
 1758              	.L137:
 1759 0094 BB68     		ldr	r3, [r7, #8]
 1760 0096 042B     		cmp	r3, #4
 1761 0098 09D1     		bne	.L139
 1762 009a FB68     		ldr	r3, [r7, #12]
 1763 009c 93F84330 		ldrb	r3, [r3, #67]
 1764 00a0 DBB2     		uxtb	r3, r3
 1765 00a2 012B     		cmp	r3, #1
 1766 00a4 0CBF     		ite	eq
 1767 00a6 0123     		moveq	r3, #1
 1768 00a8 0023     		movne	r3, #0
 1769 00aa DBB2     		uxtb	r3, r3
 1770 00ac 15E0     		b	.L138
 1771              	.L139:
 1772 00ae BB68     		ldr	r3, [r7, #8]
 1773 00b0 082B     		cmp	r3, #8
 1774 00b2 09D1     		bne	.L141
 1775 00b4 FB68     		ldr	r3, [r7, #12]
 1776 00b6 93F84430 		ldrb	r3, [r3, #68]
 1777 00ba DBB2     		uxtb	r3, r3
 1778 00bc 012B     		cmp	r3, #1
 1779 00be 0CBF     		ite	eq
 1780 00c0 0123     		moveq	r3, #1
 1781 00c2 0023     		movne	r3, #0
 1782 00c4 DBB2     		uxtb	r3, r3
 1783 00c6 08E0     		b	.L138
 1784              	.L141:
 1785 00c8 FB68     		ldr	r3, [r7, #12]
 1786 00ca 93F84530 		ldrb	r3, [r3, #69]
 1787 00ce DBB2     		uxtb	r3, r3
 1788 00d0 012B     		cmp	r3, #1
 1789 00d2 0CBF     		ite	eq
 1790 00d4 0123     		moveq	r3, #1
 1791 00d6 0023     		movne	r3, #0
 1792 00d8 DBB2     		uxtb	r3, r3
 1793              	.L138:
 1794 00da 002B     		cmp	r3, #0
 1795 00dc 24D0     		beq	.L143
 1796 00de 7B68     		ldr	r3, [r7, #4]
ARM GAS  C:\Users\user\AppData\Local\Temp\ccegtlDB.s 			page 32


 1797 00e0 002B     		cmp	r3, #0
 1798 00e2 04D1     		bne	.L144
 1799 00e4 7B88     		ldrh	r3, [r7, #2]
 1800 00e6 002B     		cmp	r3, #0
 1801 00e8 01D0     		beq	.L144
 1802 00ea 0123     		movs	r3, #1
 1803 00ec EFE0     		b	.L136
 1804              	.L144:
 1805 00ee BB68     		ldr	r3, [r7, #8]
 1806 00f0 002B     		cmp	r3, #0
 1807 00f2 04D1     		bne	.L145
 1808 00f4 FB68     		ldr	r3, [r7, #12]
 1809 00f6 0222     		movs	r2, #2
 1810 00f8 83F84220 		strb	r2, [r3, #66]
 1811 00fc 16E0     		b	.L146
 1812              	.L145:
 1813 00fe BB68     		ldr	r3, [r7, #8]
 1814 0100 042B     		cmp	r3, #4
 1815 0102 04D1     		bne	.L147
 1816 0104 FB68     		ldr	r3, [r7, #12]
 1817 0106 0222     		movs	r2, #2
 1818 0108 83F84320 		strb	r2, [r3, #67]
 1819 010c 0EE0     		b	.L146
 1820              	.L147:
 1821 010e BB68     		ldr	r3, [r7, #8]
 1822 0110 082B     		cmp	r3, #8
 1823 0112 04D1     		bne	.L149
 1824 0114 FB68     		ldr	r3, [r7, #12]
 1825 0116 0222     		movs	r2, #2
 1826 0118 83F84420 		strb	r2, [r3, #68]
 1827 011c 06E0     		b	.L146
 1828              	.L149:
 1829 011e FB68     		ldr	r3, [r7, #12]
 1830 0120 0222     		movs	r2, #2
 1831 0122 83F84520 		strb	r2, [r3, #69]
 1832 0126 01E0     		b	.L146
 1833              	.L143:
 1834 0128 0123     		movs	r3, #1
 1835 012a D0E0     		b	.L136
 1836              	.L146:
 1837 012c BB68     		ldr	r3, [r7, #8]
 1838 012e 082B     		cmp	r3, #8
 1839 0130 51D0     		beq	.L151
 1840 0132 BB68     		ldr	r3, [r7, #8]
 1841 0134 082B     		cmp	r3, #8
 1842 0136 72D8     		bhi	.L152
 1843 0138 BB68     		ldr	r3, [r7, #8]
 1844 013a 002B     		cmp	r3, #0
 1845 013c 03D0     		beq	.L153
 1846 013e BB68     		ldr	r3, [r7, #8]
 1847 0140 042B     		cmp	r3, #4
 1848 0142 24D0     		beq	.L154
 1849 0144 6BE0     		b	.L152
 1850              	.L153:
 1851 0146 FB68     		ldr	r3, [r7, #12]
 1852 0148 5B6A     		ldr	r3, [r3, #36]
 1853 014a 634A     		ldr	r2, .L163
ARM GAS  C:\Users\user\AppData\Local\Temp\ccegtlDB.s 			page 33


 1854 014c DA63     		str	r2, [r3, #60]
 1855 014e FB68     		ldr	r3, [r7, #12]
 1856 0150 5B6A     		ldr	r3, [r3, #36]
 1857 0152 624A     		ldr	r2, .L163+4
 1858 0154 1A64     		str	r2, [r3, #64]
 1859 0156 FB68     		ldr	r3, [r7, #12]
 1860 0158 5B6A     		ldr	r3, [r3, #36]
 1861 015a 614A     		ldr	r2, .L163+8
 1862 015c DA64     		str	r2, [r3, #76]
 1863 015e FB68     		ldr	r3, [r7, #12]
 1864 0160 586A     		ldr	r0, [r3, #36]
 1865 0162 7968     		ldr	r1, [r7, #4]
 1866 0164 FB68     		ldr	r3, [r7, #12]
 1867 0166 1B68     		ldr	r3, [r3]
 1868 0168 3433     		adds	r3, r3, #52
 1869 016a 1A46     		mov	r2, r3
 1870 016c 7B88     		ldrh	r3, [r7, #2]
 1871 016e FFF7FEFF 		bl	HAL_DMA_Start_IT
 1872 0172 0346     		mov	r3, r0
 1873 0174 002B     		cmp	r3, #0
 1874 0176 01D0     		beq	.L155
 1875 0178 0123     		movs	r3, #1
 1876 017a A8E0     		b	.L136
 1877              	.L155:
 1878 017c FB68     		ldr	r3, [r7, #12]
 1879 017e 1B68     		ldr	r3, [r3]
 1880 0180 DA68     		ldr	r2, [r3, #12]
 1881 0182 FB68     		ldr	r3, [r7, #12]
 1882 0184 1B68     		ldr	r3, [r3]
 1883 0186 42F40072 		orr	r2, r2, #512
 1884 018a DA60     		str	r2, [r3, #12]
 1885 018c 4AE0     		b	.L156
 1886              	.L154:
 1887 018e FB68     		ldr	r3, [r7, #12]
 1888 0190 9B6A     		ldr	r3, [r3, #40]
 1889 0192 514A     		ldr	r2, .L163
 1890 0194 DA63     		str	r2, [r3, #60]
 1891 0196 FB68     		ldr	r3, [r7, #12]
 1892 0198 9B6A     		ldr	r3, [r3, #40]
 1893 019a 504A     		ldr	r2, .L163+4
 1894 019c 1A64     		str	r2, [r3, #64]
 1895 019e FB68     		ldr	r3, [r7, #12]
 1896 01a0 9B6A     		ldr	r3, [r3, #40]
 1897 01a2 4F4A     		ldr	r2, .L163+8
 1898 01a4 DA64     		str	r2, [r3, #76]
 1899 01a6 FB68     		ldr	r3, [r7, #12]
 1900 01a8 986A     		ldr	r0, [r3, #40]
 1901 01aa 7968     		ldr	r1, [r7, #4]
 1902 01ac FB68     		ldr	r3, [r7, #12]
 1903 01ae 1B68     		ldr	r3, [r3]
 1904 01b0 3833     		adds	r3, r3, #56
 1905 01b2 1A46     		mov	r2, r3
 1906 01b4 7B88     		ldrh	r3, [r7, #2]
 1907 01b6 FFF7FEFF 		bl	HAL_DMA_Start_IT
 1908 01ba 0346     		mov	r3, r0
 1909 01bc 002B     		cmp	r3, #0
 1910 01be 01D0     		beq	.L157
ARM GAS  C:\Users\user\AppData\Local\Temp\ccegtlDB.s 			page 34


 1911 01c0 0123     		movs	r3, #1
 1912 01c2 84E0     		b	.L136
 1913              	.L157:
 1914 01c4 FB68     		ldr	r3, [r7, #12]
 1915 01c6 1B68     		ldr	r3, [r3]
 1916 01c8 DA68     		ldr	r2, [r3, #12]
 1917 01ca FB68     		ldr	r3, [r7, #12]
 1918 01cc 1B68     		ldr	r3, [r3]
 1919 01ce 42F48062 		orr	r2, r2, #1024
 1920 01d2 DA60     		str	r2, [r3, #12]
 1921 01d4 26E0     		b	.L156
 1922              	.L151:
 1923 01d6 FB68     		ldr	r3, [r7, #12]
 1924 01d8 DB6A     		ldr	r3, [r3, #44]
 1925 01da 3F4A     		ldr	r2, .L163
 1926 01dc DA63     		str	r2, [r3, #60]
 1927 01de FB68     		ldr	r3, [r7, #12]
 1928 01e0 DB6A     		ldr	r3, [r3, #44]
 1929 01e2 3E4A     		ldr	r2, .L163+4
 1930 01e4 1A64     		str	r2, [r3, #64]
 1931 01e6 FB68     		ldr	r3, [r7, #12]
 1932 01e8 DB6A     		ldr	r3, [r3, #44]
 1933 01ea 3D4A     		ldr	r2, .L163+8
 1934 01ec DA64     		str	r2, [r3, #76]
 1935 01ee FB68     		ldr	r3, [r7, #12]
 1936 01f0 D86A     		ldr	r0, [r3, #44]
 1937 01f2 7968     		ldr	r1, [r7, #4]
 1938 01f4 FB68     		ldr	r3, [r7, #12]
 1939 01f6 1B68     		ldr	r3, [r3]
 1940 01f8 3C33     		adds	r3, r3, #60
 1941 01fa 1A46     		mov	r2, r3
 1942 01fc 7B88     		ldrh	r3, [r7, #2]
 1943 01fe FFF7FEFF 		bl	HAL_DMA_Start_IT
 1944 0202 0346     		mov	r3, r0
 1945 0204 002B     		cmp	r3, #0
 1946 0206 01D0     		beq	.L158
 1947 0208 0123     		movs	r3, #1
 1948 020a 60E0     		b	.L136
 1949              	.L158:
 1950 020c FB68     		ldr	r3, [r7, #12]
 1951 020e 1B68     		ldr	r3, [r3]
 1952 0210 DA68     		ldr	r2, [r3, #12]
 1953 0212 FB68     		ldr	r3, [r7, #12]
 1954 0214 1B68     		ldr	r3, [r3]
 1955 0216 42F40062 		orr	r2, r2, #2048
 1956 021a DA60     		str	r2, [r3, #12]
 1957 021c 02E0     		b	.L156
 1958              	.L152:
 1959 021e 0123     		movs	r3, #1
 1960 0220 FB75     		strb	r3, [r7, #23]
 1961 0222 00BF     		nop
 1962              	.L156:
 1963 0224 FB7D     		ldrb	r3, [r7, #23]	@ zero_extendqisi2
 1964 0226 002B     		cmp	r3, #0
 1965 0228 50D1     		bne	.L159
 1966 022a FB68     		ldr	r3, [r7, #12]
 1967 022c 1B68     		ldr	r3, [r3]
ARM GAS  C:\Users\user\AppData\Local\Temp\ccegtlDB.s 			page 35


 1968 022e 0422     		movs	r2, #4
 1969 0230 B968     		ldr	r1, [r7, #8]
 1970 0232 1846     		mov	r0, r3
 1971 0234 FFF7FEFF 		bl	TIM_CCxNChannelCmd
 1972 0238 FB68     		ldr	r3, [r7, #12]
 1973 023a 1B68     		ldr	r3, [r3]
 1974 023c 5A6C     		ldr	r2, [r3, #68]
 1975 023e FB68     		ldr	r3, [r7, #12]
 1976 0240 1B68     		ldr	r3, [r3]
 1977 0242 42F40042 		orr	r2, r2, #32768
 1978 0246 5A64     		str	r2, [r3, #68]
 1979 0248 FB68     		ldr	r3, [r7, #12]
 1980 024a 1B68     		ldr	r3, [r3]
 1981 024c 254A     		ldr	r2, .L163+12
 1982 024e 9342     		cmp	r3, r2
 1983 0250 22D0     		beq	.L160
 1984 0252 FB68     		ldr	r3, [r7, #12]
 1985 0254 1B68     		ldr	r3, [r3]
 1986 0256 B3F1804F 		cmp	r3, #1073741824
 1987 025a 1DD0     		beq	.L160
 1988 025c FB68     		ldr	r3, [r7, #12]
 1989 025e 1B68     		ldr	r3, [r3]
 1990 0260 214A     		ldr	r2, .L163+16
 1991 0262 9342     		cmp	r3, r2
 1992 0264 18D0     		beq	.L160
 1993 0266 FB68     		ldr	r3, [r7, #12]
 1994 0268 1B68     		ldr	r3, [r3]
 1995 026a 204A     		ldr	r2, .L163+20
 1996 026c 9342     		cmp	r3, r2
 1997 026e 13D0     		beq	.L160
 1998 0270 FB68     		ldr	r3, [r7, #12]
 1999 0272 1B68     		ldr	r3, [r3]
 2000 0274 1E4A     		ldr	r2, .L163+24
 2001 0276 9342     		cmp	r3, r2
 2002 0278 0ED0     		beq	.L160
 2003 027a FB68     		ldr	r3, [r7, #12]
 2004 027c 1B68     		ldr	r3, [r3]
 2005 027e 1D4A     		ldr	r2, .L163+28
 2006 0280 9342     		cmp	r3, r2
 2007 0282 09D0     		beq	.L160
 2008 0284 FB68     		ldr	r3, [r7, #12]
 2009 0286 1B68     		ldr	r3, [r3]
 2010 0288 1B4A     		ldr	r2, .L163+32
 2011 028a 9342     		cmp	r3, r2
 2012 028c 04D0     		beq	.L160
 2013 028e FB68     		ldr	r3, [r7, #12]
 2014 0290 1B68     		ldr	r3, [r3]
 2015 0292 1A4A     		ldr	r2, .L163+36
 2016 0294 9342     		cmp	r3, r2
 2017 0296 11D1     		bne	.L161
 2018              	.L160:
 2019 0298 FB68     		ldr	r3, [r7, #12]
 2020 029a 1B68     		ldr	r3, [r3]
 2021 029c 9B68     		ldr	r3, [r3, #8]
 2022 029e 03F00703 		and	r3, r3, #7
 2023 02a2 3B61     		str	r3, [r7, #16]
 2024 02a4 3B69     		ldr	r3, [r7, #16]
ARM GAS  C:\Users\user\AppData\Local\Temp\ccegtlDB.s 			page 36


 2025 02a6 062B     		cmp	r3, #6
 2026 02a8 10D0     		beq	.L159
 2027 02aa FB68     		ldr	r3, [r7, #12]
 2028 02ac 1B68     		ldr	r3, [r3]
 2029 02ae 1A68     		ldr	r2, [r3]
 2030 02b0 FB68     		ldr	r3, [r7, #12]
 2031 02b2 1B68     		ldr	r3, [r3]
 2032 02b4 42F00102 		orr	r2, r2, #1
 2033 02b8 1A60     		str	r2, [r3]
 2034 02ba 07E0     		b	.L159
 2035              	.L161:
 2036 02bc FB68     		ldr	r3, [r7, #12]
 2037 02be 1B68     		ldr	r3, [r3]
 2038 02c0 1A68     		ldr	r2, [r3]
 2039 02c2 FB68     		ldr	r3, [r7, #12]
 2040 02c4 1B68     		ldr	r3, [r3]
 2041 02c6 42F00102 		orr	r2, r2, #1
 2042 02ca 1A60     		str	r2, [r3]
 2043              	.L159:
 2044 02cc FB7D     		ldrb	r3, [r7, #23]	@ zero_extendqisi2
 2045              	.L136:
 2046 02ce 1846     		mov	r0, r3
 2047 02d0 1837     		adds	r7, r7, #24
 2048 02d2 BD46     		mov	sp, r7
 2049              		@ sp needed
 2050 02d4 80BD     		pop	{r7, pc}
 2051              	.L164:
 2052 02d6 00BF     		.align	2
 2053              	.L163:
 2054 02d8 00000000 		.word	TIM_DMADelayPulseNCplt
 2055 02dc 00000000 		.word	TIM_DMADelayPulseHalfCplt
 2056 02e0 00000000 		.word	TIM_DMAErrorCCxN
 2057 02e4 00000140 		.word	1073807360
 2058 02e8 00040040 		.word	1073742848
 2059 02ec 00080040 		.word	1073743872
 2060 02f0 000C0040 		.word	1073744896
 2061 02f4 00040140 		.word	1073808384
 2062 02f8 00400140 		.word	1073823744
 2063 02fc 00180040 		.word	1073747968
 2065              		.section	.text.HAL_TIMEx_OCN_Stop_DMA,"ax",%progbits
 2066              		.align	1
 2067              		.global	HAL_TIMEx_OCN_Stop_DMA
 2068              		.syntax unified
 2069              		.thumb
 2070              		.thumb_func
 2072              	HAL_TIMEx_OCN_Stop_DMA:
 2073              		@ args = 0, pretend = 0, frame = 16
 2074              		@ frame_needed = 1, uses_anonymous_args = 0
 2075 0000 80B5     		push	{r7, lr}
 2076 0002 84B0     		sub	sp, sp, #16
 2077 0004 00AF     		add	r7, sp, #0
 2078 0006 7860     		str	r0, [r7, #4]
 2079 0008 3960     		str	r1, [r7]
 2080 000a 0023     		movs	r3, #0
 2081 000c FB73     		strb	r3, [r7, #15]
 2082 000e 3B68     		ldr	r3, [r7]
 2083 0010 082B     		cmp	r3, #8
ARM GAS  C:\Users\user\AppData\Local\Temp\ccegtlDB.s 			page 37


 2084 0012 25D0     		beq	.L166
 2085 0014 3B68     		ldr	r3, [r7]
 2086 0016 082B     		cmp	r3, #8
 2087 0018 30D8     		bhi	.L167
 2088 001a 3B68     		ldr	r3, [r7]
 2089 001c 002B     		cmp	r3, #0
 2090 001e 03D0     		beq	.L168
 2091 0020 3B68     		ldr	r3, [r7]
 2092 0022 042B     		cmp	r3, #4
 2093 0024 0ED0     		beq	.L169
 2094 0026 29E0     		b	.L167
 2095              	.L168:
 2096 0028 7B68     		ldr	r3, [r7, #4]
 2097 002a 1B68     		ldr	r3, [r3]
 2098 002c DA68     		ldr	r2, [r3, #12]
 2099 002e 7B68     		ldr	r3, [r7, #4]
 2100 0030 1B68     		ldr	r3, [r3]
 2101 0032 22F40072 		bic	r2, r2, #512
 2102 0036 DA60     		str	r2, [r3, #12]
 2103 0038 7B68     		ldr	r3, [r7, #4]
 2104 003a 5B6A     		ldr	r3, [r3, #36]
 2105 003c 1846     		mov	r0, r3
 2106 003e FFF7FEFF 		bl	HAL_DMA_Abort_IT
 2107 0042 1EE0     		b	.L170
 2108              	.L169:
 2109 0044 7B68     		ldr	r3, [r7, #4]
 2110 0046 1B68     		ldr	r3, [r3]
 2111 0048 DA68     		ldr	r2, [r3, #12]
 2112 004a 7B68     		ldr	r3, [r7, #4]
 2113 004c 1B68     		ldr	r3, [r3]
 2114 004e 22F48062 		bic	r2, r2, #1024
 2115 0052 DA60     		str	r2, [r3, #12]
 2116 0054 7B68     		ldr	r3, [r7, #4]
 2117 0056 9B6A     		ldr	r3, [r3, #40]
 2118 0058 1846     		mov	r0, r3
 2119 005a FFF7FEFF 		bl	HAL_DMA_Abort_IT
 2120 005e 10E0     		b	.L170
 2121              	.L166:
 2122 0060 7B68     		ldr	r3, [r7, #4]
 2123 0062 1B68     		ldr	r3, [r3]
 2124 0064 DA68     		ldr	r2, [r3, #12]
 2125 0066 7B68     		ldr	r3, [r7, #4]
 2126 0068 1B68     		ldr	r3, [r3]
 2127 006a 22F40062 		bic	r2, r2, #2048
 2128 006e DA60     		str	r2, [r3, #12]
 2129 0070 7B68     		ldr	r3, [r7, #4]
 2130 0072 DB6A     		ldr	r3, [r3, #44]
 2131 0074 1846     		mov	r0, r3
 2132 0076 FFF7FEFF 		bl	HAL_DMA_Abort_IT
 2133 007a 02E0     		b	.L170
 2134              	.L167:
 2135 007c 0123     		movs	r3, #1
 2136 007e FB73     		strb	r3, [r7, #15]
 2137 0080 00BF     		nop
 2138              	.L170:
 2139 0082 FB7B     		ldrb	r3, [r7, #15]	@ zero_extendqisi2
 2140 0084 002B     		cmp	r3, #0
ARM GAS  C:\Users\user\AppData\Local\Temp\ccegtlDB.s 			page 38


 2141 0086 52D1     		bne	.L171
 2142 0088 7B68     		ldr	r3, [r7, #4]
 2143 008a 1B68     		ldr	r3, [r3]
 2144 008c 0022     		movs	r2, #0
 2145 008e 3968     		ldr	r1, [r7]
 2146 0090 1846     		mov	r0, r3
 2147 0092 FFF7FEFF 		bl	TIM_CCxNChannelCmd
 2148 0096 7B68     		ldr	r3, [r7, #4]
 2149 0098 1B68     		ldr	r3, [r3]
 2150 009a 1A6A     		ldr	r2, [r3, #32]
 2151 009c 41F21113 		movw	r3, #4369
 2152 00a0 1340     		ands	r3, r3, r2
 2153 00a2 002B     		cmp	r3, #0
 2154 00a4 0FD1     		bne	.L172
 2155 00a6 7B68     		ldr	r3, [r7, #4]
 2156 00a8 1B68     		ldr	r3, [r3]
 2157 00aa 1A6A     		ldr	r2, [r3, #32]
 2158 00ac 40F24443 		movw	r3, #1092
 2159 00b0 1340     		ands	r3, r3, r2
 2160 00b2 002B     		cmp	r3, #0
 2161 00b4 07D1     		bne	.L172
 2162 00b6 7B68     		ldr	r3, [r7, #4]
 2163 00b8 1B68     		ldr	r3, [r3]
 2164 00ba 5A6C     		ldr	r2, [r3, #68]
 2165 00bc 7B68     		ldr	r3, [r7, #4]
 2166 00be 1B68     		ldr	r3, [r3]
 2167 00c0 22F40042 		bic	r2, r2, #32768
 2168 00c4 5A64     		str	r2, [r3, #68]
 2169              	.L172:
 2170 00c6 7B68     		ldr	r3, [r7, #4]
 2171 00c8 1B68     		ldr	r3, [r3]
 2172 00ca 1A6A     		ldr	r2, [r3, #32]
 2173 00cc 41F21113 		movw	r3, #4369
 2174 00d0 1340     		ands	r3, r3, r2
 2175 00d2 002B     		cmp	r3, #0
 2176 00d4 0FD1     		bne	.L173
 2177 00d6 7B68     		ldr	r3, [r7, #4]
 2178 00d8 1B68     		ldr	r3, [r3]
 2179 00da 1A6A     		ldr	r2, [r3, #32]
 2180 00dc 40F24443 		movw	r3, #1092
 2181 00e0 1340     		ands	r3, r3, r2
 2182 00e2 002B     		cmp	r3, #0
 2183 00e4 07D1     		bne	.L173
 2184 00e6 7B68     		ldr	r3, [r7, #4]
 2185 00e8 1B68     		ldr	r3, [r3]
 2186 00ea 1A68     		ldr	r2, [r3]
 2187 00ec 7B68     		ldr	r3, [r7, #4]
 2188 00ee 1B68     		ldr	r3, [r3]
 2189 00f0 22F00102 		bic	r2, r2, #1
 2190 00f4 1A60     		str	r2, [r3]
 2191              	.L173:
 2192 00f6 3B68     		ldr	r3, [r7]
 2193 00f8 002B     		cmp	r3, #0
 2194 00fa 04D1     		bne	.L174
 2195 00fc 7B68     		ldr	r3, [r7, #4]
 2196 00fe 0122     		movs	r2, #1
 2197 0100 83F84220 		strb	r2, [r3, #66]
ARM GAS  C:\Users\user\AppData\Local\Temp\ccegtlDB.s 			page 39


 2198 0104 13E0     		b	.L171
 2199              	.L174:
 2200 0106 3B68     		ldr	r3, [r7]
 2201 0108 042B     		cmp	r3, #4
 2202 010a 04D1     		bne	.L175
 2203 010c 7B68     		ldr	r3, [r7, #4]
 2204 010e 0122     		movs	r2, #1
 2205 0110 83F84320 		strb	r2, [r3, #67]
 2206 0114 0BE0     		b	.L171
 2207              	.L175:
 2208 0116 3B68     		ldr	r3, [r7]
 2209 0118 082B     		cmp	r3, #8
 2210 011a 04D1     		bne	.L177
 2211 011c 7B68     		ldr	r3, [r7, #4]
 2212 011e 0122     		movs	r2, #1
 2213 0120 83F84420 		strb	r2, [r3, #68]
 2214 0124 03E0     		b	.L171
 2215              	.L177:
 2216 0126 7B68     		ldr	r3, [r7, #4]
 2217 0128 0122     		movs	r2, #1
 2218 012a 83F84520 		strb	r2, [r3, #69]
 2219              	.L171:
 2220 012e FB7B     		ldrb	r3, [r7, #15]	@ zero_extendqisi2
 2221 0130 1846     		mov	r0, r3
 2222 0132 1037     		adds	r7, r7, #16
 2223 0134 BD46     		mov	sp, r7
 2224              		@ sp needed
 2225 0136 80BD     		pop	{r7, pc}
 2227              		.section	.text.HAL_TIMEx_PWMN_Start,"ax",%progbits
 2228              		.align	1
 2229              		.global	HAL_TIMEx_PWMN_Start
 2230              		.syntax unified
 2231              		.thumb
 2232              		.thumb_func
 2234              	HAL_TIMEx_PWMN_Start:
 2235              		@ args = 0, pretend = 0, frame = 16
 2236              		@ frame_needed = 1, uses_anonymous_args = 0
 2237 0000 80B5     		push	{r7, lr}
 2238 0002 84B0     		sub	sp, sp, #16
 2239 0004 00AF     		add	r7, sp, #0
 2240 0006 7860     		str	r0, [r7, #4]
 2241 0008 3960     		str	r1, [r7]
 2242 000a 3B68     		ldr	r3, [r7]
 2243 000c 002B     		cmp	r3, #0
 2244 000e 09D1     		bne	.L181
 2245 0010 7B68     		ldr	r3, [r7, #4]
 2246 0012 93F84230 		ldrb	r3, [r3, #66]
 2247 0016 DBB2     		uxtb	r3, r3
 2248 0018 012B     		cmp	r3, #1
 2249 001a 14BF     		ite	ne
 2250 001c 0123     		movne	r3, #1
 2251 001e 0023     		moveq	r3, #0
 2252 0020 DBB2     		uxtb	r3, r3
 2253 0022 22E0     		b	.L182
 2254              	.L181:
 2255 0024 3B68     		ldr	r3, [r7]
 2256 0026 042B     		cmp	r3, #4
ARM GAS  C:\Users\user\AppData\Local\Temp\ccegtlDB.s 			page 40


 2257 0028 09D1     		bne	.L183
 2258 002a 7B68     		ldr	r3, [r7, #4]
 2259 002c 93F84330 		ldrb	r3, [r3, #67]
 2260 0030 DBB2     		uxtb	r3, r3
 2261 0032 012B     		cmp	r3, #1
 2262 0034 14BF     		ite	ne
 2263 0036 0123     		movne	r3, #1
 2264 0038 0023     		moveq	r3, #0
 2265 003a DBB2     		uxtb	r3, r3
 2266 003c 15E0     		b	.L182
 2267              	.L183:
 2268 003e 3B68     		ldr	r3, [r7]
 2269 0040 082B     		cmp	r3, #8
 2270 0042 09D1     		bne	.L185
 2271 0044 7B68     		ldr	r3, [r7, #4]
 2272 0046 93F84430 		ldrb	r3, [r3, #68]
 2273 004a DBB2     		uxtb	r3, r3
 2274 004c 012B     		cmp	r3, #1
 2275 004e 14BF     		ite	ne
 2276 0050 0123     		movne	r3, #1
 2277 0052 0023     		moveq	r3, #0
 2278 0054 DBB2     		uxtb	r3, r3
 2279 0056 08E0     		b	.L182
 2280              	.L185:
 2281 0058 7B68     		ldr	r3, [r7, #4]
 2282 005a 93F84530 		ldrb	r3, [r3, #69]
 2283 005e DBB2     		uxtb	r3, r3
 2284 0060 012B     		cmp	r3, #1
 2285 0062 14BF     		ite	ne
 2286 0064 0123     		movne	r3, #1
 2287 0066 0023     		moveq	r3, #0
 2288 0068 DBB2     		uxtb	r3, r3
 2289              	.L182:
 2290 006a 002B     		cmp	r3, #0
 2291 006c 01D0     		beq	.L187
 2292 006e 0123     		movs	r3, #1
 2293 0070 6DE0     		b	.L188
 2294              	.L187:
 2295 0072 3B68     		ldr	r3, [r7]
 2296 0074 002B     		cmp	r3, #0
 2297 0076 04D1     		bne	.L189
 2298 0078 7B68     		ldr	r3, [r7, #4]
 2299 007a 0222     		movs	r2, #2
 2300 007c 83F84220 		strb	r2, [r3, #66]
 2301 0080 13E0     		b	.L190
 2302              	.L189:
 2303 0082 3B68     		ldr	r3, [r7]
 2304 0084 042B     		cmp	r3, #4
 2305 0086 04D1     		bne	.L191
 2306 0088 7B68     		ldr	r3, [r7, #4]
 2307 008a 0222     		movs	r2, #2
 2308 008c 83F84320 		strb	r2, [r3, #67]
 2309 0090 0BE0     		b	.L190
 2310              	.L191:
 2311 0092 3B68     		ldr	r3, [r7]
 2312 0094 082B     		cmp	r3, #8
 2313 0096 04D1     		bne	.L193
ARM GAS  C:\Users\user\AppData\Local\Temp\ccegtlDB.s 			page 41


 2314 0098 7B68     		ldr	r3, [r7, #4]
 2315 009a 0222     		movs	r2, #2
 2316 009c 83F84420 		strb	r2, [r3, #68]
 2317 00a0 03E0     		b	.L190
 2318              	.L193:
 2319 00a2 7B68     		ldr	r3, [r7, #4]
 2320 00a4 0222     		movs	r2, #2
 2321 00a6 83F84520 		strb	r2, [r3, #69]
 2322              	.L190:
 2323 00aa 7B68     		ldr	r3, [r7, #4]
 2324 00ac 1B68     		ldr	r3, [r3]
 2325 00ae 0422     		movs	r2, #4
 2326 00b0 3968     		ldr	r1, [r7]
 2327 00b2 1846     		mov	r0, r3
 2328 00b4 FFF7FEFF 		bl	TIM_CCxNChannelCmd
 2329 00b8 7B68     		ldr	r3, [r7, #4]
 2330 00ba 1B68     		ldr	r3, [r3]
 2331 00bc 5A6C     		ldr	r2, [r3, #68]
 2332 00be 7B68     		ldr	r3, [r7, #4]
 2333 00c0 1B68     		ldr	r3, [r3]
 2334 00c2 42F40042 		orr	r2, r2, #32768
 2335 00c6 5A64     		str	r2, [r3, #68]
 2336 00c8 7B68     		ldr	r3, [r7, #4]
 2337 00ca 1B68     		ldr	r3, [r3]
 2338 00cc 224A     		ldr	r2, .L199
 2339 00ce 9342     		cmp	r3, r2
 2340 00d0 22D0     		beq	.L195
 2341 00d2 7B68     		ldr	r3, [r7, #4]
 2342 00d4 1B68     		ldr	r3, [r3]
 2343 00d6 B3F1804F 		cmp	r3, #1073741824
 2344 00da 1DD0     		beq	.L195
 2345 00dc 7B68     		ldr	r3, [r7, #4]
 2346 00de 1B68     		ldr	r3, [r3]
 2347 00e0 1E4A     		ldr	r2, .L199+4
 2348 00e2 9342     		cmp	r3, r2
 2349 00e4 18D0     		beq	.L195
 2350 00e6 7B68     		ldr	r3, [r7, #4]
 2351 00e8 1B68     		ldr	r3, [r3]
 2352 00ea 1D4A     		ldr	r2, .L199+8
 2353 00ec 9342     		cmp	r3, r2
 2354 00ee 13D0     		beq	.L195
 2355 00f0 7B68     		ldr	r3, [r7, #4]
 2356 00f2 1B68     		ldr	r3, [r3]
 2357 00f4 1B4A     		ldr	r2, .L199+12
 2358 00f6 9342     		cmp	r3, r2
 2359 00f8 0ED0     		beq	.L195
 2360 00fa 7B68     		ldr	r3, [r7, #4]
 2361 00fc 1B68     		ldr	r3, [r3]
 2362 00fe 1A4A     		ldr	r2, .L199+16
 2363 0100 9342     		cmp	r3, r2
 2364 0102 09D0     		beq	.L195
 2365 0104 7B68     		ldr	r3, [r7, #4]
 2366 0106 1B68     		ldr	r3, [r3]
 2367 0108 184A     		ldr	r2, .L199+20
 2368 010a 9342     		cmp	r3, r2
 2369 010c 04D0     		beq	.L195
 2370 010e 7B68     		ldr	r3, [r7, #4]
ARM GAS  C:\Users\user\AppData\Local\Temp\ccegtlDB.s 			page 42


 2371 0110 1B68     		ldr	r3, [r3]
 2372 0112 174A     		ldr	r2, .L199+24
 2373 0114 9342     		cmp	r3, r2
 2374 0116 11D1     		bne	.L196
 2375              	.L195:
 2376 0118 7B68     		ldr	r3, [r7, #4]
 2377 011a 1B68     		ldr	r3, [r3]
 2378 011c 9B68     		ldr	r3, [r3, #8]
 2379 011e 03F00703 		and	r3, r3, #7
 2380 0122 FB60     		str	r3, [r7, #12]
 2381 0124 FB68     		ldr	r3, [r7, #12]
 2382 0126 062B     		cmp	r3, #6
 2383 0128 10D0     		beq	.L198
 2384 012a 7B68     		ldr	r3, [r7, #4]
 2385 012c 1B68     		ldr	r3, [r3]
 2386 012e 1A68     		ldr	r2, [r3]
 2387 0130 7B68     		ldr	r3, [r7, #4]
 2388 0132 1B68     		ldr	r3, [r3]
 2389 0134 42F00102 		orr	r2, r2, #1
 2390 0138 1A60     		str	r2, [r3]
 2391 013a 07E0     		b	.L198
 2392              	.L196:
 2393 013c 7B68     		ldr	r3, [r7, #4]
 2394 013e 1B68     		ldr	r3, [r3]
 2395 0140 1A68     		ldr	r2, [r3]
 2396 0142 7B68     		ldr	r3, [r7, #4]
 2397 0144 1B68     		ldr	r3, [r3]
 2398 0146 42F00102 		orr	r2, r2, #1
 2399 014a 1A60     		str	r2, [r3]
 2400              	.L198:
 2401 014c 0023     		movs	r3, #0
 2402              	.L188:
 2403 014e 1846     		mov	r0, r3
 2404 0150 1037     		adds	r7, r7, #16
 2405 0152 BD46     		mov	sp, r7
 2406              		@ sp needed
 2407 0154 80BD     		pop	{r7, pc}
 2408              	.L200:
 2409 0156 00BF     		.align	2
 2410              	.L199:
 2411 0158 00000140 		.word	1073807360
 2412 015c 00040040 		.word	1073742848
 2413 0160 00080040 		.word	1073743872
 2414 0164 000C0040 		.word	1073744896
 2415 0168 00040140 		.word	1073808384
 2416 016c 00400140 		.word	1073823744
 2417 0170 00180040 		.word	1073747968
 2419              		.section	.text.HAL_TIMEx_PWMN_Stop,"ax",%progbits
 2420              		.align	1
 2421              		.global	HAL_TIMEx_PWMN_Stop
 2422              		.syntax unified
 2423              		.thumb
 2424              		.thumb_func
 2426              	HAL_TIMEx_PWMN_Stop:
 2427              		@ args = 0, pretend = 0, frame = 8
 2428              		@ frame_needed = 1, uses_anonymous_args = 0
 2429 0000 80B5     		push	{r7, lr}
ARM GAS  C:\Users\user\AppData\Local\Temp\ccegtlDB.s 			page 43


 2430 0002 82B0     		sub	sp, sp, #8
 2431 0004 00AF     		add	r7, sp, #0
 2432 0006 7860     		str	r0, [r7, #4]
 2433 0008 3960     		str	r1, [r7]
 2434 000a 7B68     		ldr	r3, [r7, #4]
 2435 000c 1B68     		ldr	r3, [r3]
 2436 000e 0022     		movs	r2, #0
 2437 0010 3968     		ldr	r1, [r7]
 2438 0012 1846     		mov	r0, r3
 2439 0014 FFF7FEFF 		bl	TIM_CCxNChannelCmd
 2440 0018 7B68     		ldr	r3, [r7, #4]
 2441 001a 1B68     		ldr	r3, [r3]
 2442 001c 1A6A     		ldr	r2, [r3, #32]
 2443 001e 41F21113 		movw	r3, #4369
 2444 0022 1340     		ands	r3, r3, r2
 2445 0024 002B     		cmp	r3, #0
 2446 0026 0FD1     		bne	.L202
 2447 0028 7B68     		ldr	r3, [r7, #4]
 2448 002a 1B68     		ldr	r3, [r3]
 2449 002c 1A6A     		ldr	r2, [r3, #32]
 2450 002e 40F24443 		movw	r3, #1092
 2451 0032 1340     		ands	r3, r3, r2
 2452 0034 002B     		cmp	r3, #0
 2453 0036 07D1     		bne	.L202
 2454 0038 7B68     		ldr	r3, [r7, #4]
 2455 003a 1B68     		ldr	r3, [r3]
 2456 003c 5A6C     		ldr	r2, [r3, #68]
 2457 003e 7B68     		ldr	r3, [r7, #4]
 2458 0040 1B68     		ldr	r3, [r3]
 2459 0042 22F40042 		bic	r2, r2, #32768
 2460 0046 5A64     		str	r2, [r3, #68]
 2461              	.L202:
 2462 0048 7B68     		ldr	r3, [r7, #4]
 2463 004a 1B68     		ldr	r3, [r3]
 2464 004c 1A6A     		ldr	r2, [r3, #32]
 2465 004e 41F21113 		movw	r3, #4369
 2466 0052 1340     		ands	r3, r3, r2
 2467 0054 002B     		cmp	r3, #0
 2468 0056 0FD1     		bne	.L203
 2469 0058 7B68     		ldr	r3, [r7, #4]
 2470 005a 1B68     		ldr	r3, [r3]
 2471 005c 1A6A     		ldr	r2, [r3, #32]
 2472 005e 40F24443 		movw	r3, #1092
 2473 0062 1340     		ands	r3, r3, r2
 2474 0064 002B     		cmp	r3, #0
 2475 0066 07D1     		bne	.L203
 2476 0068 7B68     		ldr	r3, [r7, #4]
 2477 006a 1B68     		ldr	r3, [r3]
 2478 006c 1A68     		ldr	r2, [r3]
 2479 006e 7B68     		ldr	r3, [r7, #4]
 2480 0070 1B68     		ldr	r3, [r3]
 2481 0072 22F00102 		bic	r2, r2, #1
 2482 0076 1A60     		str	r2, [r3]
 2483              	.L203:
 2484 0078 3B68     		ldr	r3, [r7]
 2485 007a 002B     		cmp	r3, #0
 2486 007c 04D1     		bne	.L204
ARM GAS  C:\Users\user\AppData\Local\Temp\ccegtlDB.s 			page 44


 2487 007e 7B68     		ldr	r3, [r7, #4]
 2488 0080 0122     		movs	r2, #1
 2489 0082 83F84220 		strb	r2, [r3, #66]
 2490 0086 13E0     		b	.L205
 2491              	.L204:
 2492 0088 3B68     		ldr	r3, [r7]
 2493 008a 042B     		cmp	r3, #4
 2494 008c 04D1     		bne	.L206
 2495 008e 7B68     		ldr	r3, [r7, #4]
 2496 0090 0122     		movs	r2, #1
 2497 0092 83F84320 		strb	r2, [r3, #67]
 2498 0096 0BE0     		b	.L205
 2499              	.L206:
 2500 0098 3B68     		ldr	r3, [r7]
 2501 009a 082B     		cmp	r3, #8
 2502 009c 04D1     		bne	.L208
 2503 009e 7B68     		ldr	r3, [r7, #4]
 2504 00a0 0122     		movs	r2, #1
 2505 00a2 83F84420 		strb	r2, [r3, #68]
 2506 00a6 03E0     		b	.L205
 2507              	.L208:
 2508 00a8 7B68     		ldr	r3, [r7, #4]
 2509 00aa 0122     		movs	r2, #1
 2510 00ac 83F84520 		strb	r2, [r3, #69]
 2511              	.L205:
 2512 00b0 0023     		movs	r3, #0
 2513 00b2 1846     		mov	r0, r3
 2514 00b4 0837     		adds	r7, r7, #8
 2515 00b6 BD46     		mov	sp, r7
 2516              		@ sp needed
 2517 00b8 80BD     		pop	{r7, pc}
 2519              		.section	.text.HAL_TIMEx_PWMN_Start_IT,"ax",%progbits
 2520              		.align	1
 2521              		.global	HAL_TIMEx_PWMN_Start_IT
 2522              		.syntax unified
 2523              		.thumb
 2524              		.thumb_func
 2526              	HAL_TIMEx_PWMN_Start_IT:
 2527              		@ args = 0, pretend = 0, frame = 16
 2528              		@ frame_needed = 1, uses_anonymous_args = 0
 2529 0000 80B5     		push	{r7, lr}
 2530 0002 84B0     		sub	sp, sp, #16
 2531 0004 00AF     		add	r7, sp, #0
 2532 0006 7860     		str	r0, [r7, #4]
 2533 0008 3960     		str	r1, [r7]
 2534 000a 0023     		movs	r3, #0
 2535 000c FB73     		strb	r3, [r7, #15]
 2536 000e 3B68     		ldr	r3, [r7]
 2537 0010 002B     		cmp	r3, #0
 2538 0012 09D1     		bne	.L212
 2539 0014 7B68     		ldr	r3, [r7, #4]
 2540 0016 93F84230 		ldrb	r3, [r3, #66]
 2541 001a DBB2     		uxtb	r3, r3
 2542 001c 012B     		cmp	r3, #1
 2543 001e 14BF     		ite	ne
 2544 0020 0123     		movne	r3, #1
 2545 0022 0023     		moveq	r3, #0
ARM GAS  C:\Users\user\AppData\Local\Temp\ccegtlDB.s 			page 45


 2546 0024 DBB2     		uxtb	r3, r3
 2547 0026 22E0     		b	.L213
 2548              	.L212:
 2549 0028 3B68     		ldr	r3, [r7]
 2550 002a 042B     		cmp	r3, #4
 2551 002c 09D1     		bne	.L214
 2552 002e 7B68     		ldr	r3, [r7, #4]
 2553 0030 93F84330 		ldrb	r3, [r3, #67]
 2554 0034 DBB2     		uxtb	r3, r3
 2555 0036 012B     		cmp	r3, #1
 2556 0038 14BF     		ite	ne
 2557 003a 0123     		movne	r3, #1
 2558 003c 0023     		moveq	r3, #0
 2559 003e DBB2     		uxtb	r3, r3
 2560 0040 15E0     		b	.L213
 2561              	.L214:
 2562 0042 3B68     		ldr	r3, [r7]
 2563 0044 082B     		cmp	r3, #8
 2564 0046 09D1     		bne	.L216
 2565 0048 7B68     		ldr	r3, [r7, #4]
 2566 004a 93F84430 		ldrb	r3, [r3, #68]
 2567 004e DBB2     		uxtb	r3, r3
 2568 0050 012B     		cmp	r3, #1
 2569 0052 14BF     		ite	ne
 2570 0054 0123     		movne	r3, #1
 2571 0056 0023     		moveq	r3, #0
 2572 0058 DBB2     		uxtb	r3, r3
 2573 005a 08E0     		b	.L213
 2574              	.L216:
 2575 005c 7B68     		ldr	r3, [r7, #4]
 2576 005e 93F84530 		ldrb	r3, [r3, #69]
 2577 0062 DBB2     		uxtb	r3, r3
 2578 0064 012B     		cmp	r3, #1
 2579 0066 14BF     		ite	ne
 2580 0068 0123     		movne	r3, #1
 2581 006a 0023     		moveq	r3, #0
 2582 006c DBB2     		uxtb	r3, r3
 2583              	.L213:
 2584 006e 002B     		cmp	r3, #0
 2585 0070 01D0     		beq	.L218
 2586 0072 0123     		movs	r3, #1
 2587 0074 A3E0     		b	.L219
 2588              	.L218:
 2589 0076 3B68     		ldr	r3, [r7]
 2590 0078 002B     		cmp	r3, #0
 2591 007a 04D1     		bne	.L220
 2592 007c 7B68     		ldr	r3, [r7, #4]
 2593 007e 0222     		movs	r2, #2
 2594 0080 83F84220 		strb	r2, [r3, #66]
 2595 0084 13E0     		b	.L221
 2596              	.L220:
 2597 0086 3B68     		ldr	r3, [r7]
 2598 0088 042B     		cmp	r3, #4
 2599 008a 04D1     		bne	.L222
 2600 008c 7B68     		ldr	r3, [r7, #4]
 2601 008e 0222     		movs	r2, #2
 2602 0090 83F84320 		strb	r2, [r3, #67]
ARM GAS  C:\Users\user\AppData\Local\Temp\ccegtlDB.s 			page 46


 2603 0094 0BE0     		b	.L221
 2604              	.L222:
 2605 0096 3B68     		ldr	r3, [r7]
 2606 0098 082B     		cmp	r3, #8
 2607 009a 04D1     		bne	.L224
 2608 009c 7B68     		ldr	r3, [r7, #4]
 2609 009e 0222     		movs	r2, #2
 2610 00a0 83F84420 		strb	r2, [r3, #68]
 2611 00a4 03E0     		b	.L221
 2612              	.L224:
 2613 00a6 7B68     		ldr	r3, [r7, #4]
 2614 00a8 0222     		movs	r2, #2
 2615 00aa 83F84520 		strb	r2, [r3, #69]
 2616              	.L221:
 2617 00ae 3B68     		ldr	r3, [r7]
 2618 00b0 082B     		cmp	r3, #8
 2619 00b2 1BD0     		beq	.L226
 2620 00b4 3B68     		ldr	r3, [r7]
 2621 00b6 082B     		cmp	r3, #8
 2622 00b8 21D8     		bhi	.L227
 2623 00ba 3B68     		ldr	r3, [r7]
 2624 00bc 002B     		cmp	r3, #0
 2625 00be 03D0     		beq	.L228
 2626 00c0 3B68     		ldr	r3, [r7]
 2627 00c2 042B     		cmp	r3, #4
 2628 00c4 09D0     		beq	.L229
 2629 00c6 1AE0     		b	.L227
 2630              	.L228:
 2631 00c8 7B68     		ldr	r3, [r7, #4]
 2632 00ca 1B68     		ldr	r3, [r3]
 2633 00cc DA68     		ldr	r2, [r3, #12]
 2634 00ce 7B68     		ldr	r3, [r7, #4]
 2635 00d0 1B68     		ldr	r3, [r3]
 2636 00d2 42F00202 		orr	r2, r2, #2
 2637 00d6 DA60     		str	r2, [r3, #12]
 2638 00d8 14E0     		b	.L230
 2639              	.L229:
 2640 00da 7B68     		ldr	r3, [r7, #4]
 2641 00dc 1B68     		ldr	r3, [r3]
 2642 00de DA68     		ldr	r2, [r3, #12]
 2643 00e0 7B68     		ldr	r3, [r7, #4]
 2644 00e2 1B68     		ldr	r3, [r3]
 2645 00e4 42F00402 		orr	r2, r2, #4
 2646 00e8 DA60     		str	r2, [r3, #12]
 2647 00ea 0BE0     		b	.L230
 2648              	.L226:
 2649 00ec 7B68     		ldr	r3, [r7, #4]
 2650 00ee 1B68     		ldr	r3, [r3]
 2651 00f0 DA68     		ldr	r2, [r3, #12]
 2652 00f2 7B68     		ldr	r3, [r7, #4]
 2653 00f4 1B68     		ldr	r3, [r3]
 2654 00f6 42F00802 		orr	r2, r2, #8
 2655 00fa DA60     		str	r2, [r3, #12]
 2656 00fc 02E0     		b	.L230
 2657              	.L227:
 2658 00fe 0123     		movs	r3, #1
 2659 0100 FB73     		strb	r3, [r7, #15]
ARM GAS  C:\Users\user\AppData\Local\Temp\ccegtlDB.s 			page 47


 2660 0102 00BF     		nop
 2661              	.L230:
 2662 0104 FB7B     		ldrb	r3, [r7, #15]	@ zero_extendqisi2
 2663 0106 002B     		cmp	r3, #0
 2664 0108 58D1     		bne	.L231
 2665 010a 7B68     		ldr	r3, [r7, #4]
 2666 010c 1B68     		ldr	r3, [r3]
 2667 010e DA68     		ldr	r2, [r3, #12]
 2668 0110 7B68     		ldr	r3, [r7, #4]
 2669 0112 1B68     		ldr	r3, [r3]
 2670 0114 42F08002 		orr	r2, r2, #128
 2671 0118 DA60     		str	r2, [r3, #12]
 2672 011a 7B68     		ldr	r3, [r7, #4]
 2673 011c 1B68     		ldr	r3, [r3]
 2674 011e 0422     		movs	r2, #4
 2675 0120 3968     		ldr	r1, [r7]
 2676 0122 1846     		mov	r0, r3
 2677 0124 FFF7FEFF 		bl	TIM_CCxNChannelCmd
 2678 0128 7B68     		ldr	r3, [r7, #4]
 2679 012a 1B68     		ldr	r3, [r3]
 2680 012c 5A6C     		ldr	r2, [r3, #68]
 2681 012e 7B68     		ldr	r3, [r7, #4]
 2682 0130 1B68     		ldr	r3, [r3]
 2683 0132 42F40042 		orr	r2, r2, #32768
 2684 0136 5A64     		str	r2, [r3, #68]
 2685 0138 7B68     		ldr	r3, [r7, #4]
 2686 013a 1B68     		ldr	r3, [r3]
 2687 013c 224A     		ldr	r2, .L235
 2688 013e 9342     		cmp	r3, r2
 2689 0140 22D0     		beq	.L232
 2690 0142 7B68     		ldr	r3, [r7, #4]
 2691 0144 1B68     		ldr	r3, [r3]
 2692 0146 B3F1804F 		cmp	r3, #1073741824
 2693 014a 1DD0     		beq	.L232
 2694 014c 7B68     		ldr	r3, [r7, #4]
 2695 014e 1B68     		ldr	r3, [r3]
 2696 0150 1E4A     		ldr	r2, .L235+4
 2697 0152 9342     		cmp	r3, r2
 2698 0154 18D0     		beq	.L232
 2699 0156 7B68     		ldr	r3, [r7, #4]
 2700 0158 1B68     		ldr	r3, [r3]
 2701 015a 1D4A     		ldr	r2, .L235+8
 2702 015c 9342     		cmp	r3, r2
 2703 015e 13D0     		beq	.L232
 2704 0160 7B68     		ldr	r3, [r7, #4]
 2705 0162 1B68     		ldr	r3, [r3]
 2706 0164 1B4A     		ldr	r2, .L235+12
 2707 0166 9342     		cmp	r3, r2
 2708 0168 0ED0     		beq	.L232
 2709 016a 7B68     		ldr	r3, [r7, #4]
 2710 016c 1B68     		ldr	r3, [r3]
 2711 016e 1A4A     		ldr	r2, .L235+16
 2712 0170 9342     		cmp	r3, r2
 2713 0172 09D0     		beq	.L232
 2714 0174 7B68     		ldr	r3, [r7, #4]
 2715 0176 1B68     		ldr	r3, [r3]
 2716 0178 184A     		ldr	r2, .L235+20
ARM GAS  C:\Users\user\AppData\Local\Temp\ccegtlDB.s 			page 48


 2717 017a 9342     		cmp	r3, r2
 2718 017c 04D0     		beq	.L232
 2719 017e 7B68     		ldr	r3, [r7, #4]
 2720 0180 1B68     		ldr	r3, [r3]
 2721 0182 174A     		ldr	r2, .L235+24
 2722 0184 9342     		cmp	r3, r2
 2723 0186 11D1     		bne	.L233
 2724              	.L232:
 2725 0188 7B68     		ldr	r3, [r7, #4]
 2726 018a 1B68     		ldr	r3, [r3]
 2727 018c 9B68     		ldr	r3, [r3, #8]
 2728 018e 03F00703 		and	r3, r3, #7
 2729 0192 BB60     		str	r3, [r7, #8]
 2730 0194 BB68     		ldr	r3, [r7, #8]
 2731 0196 062B     		cmp	r3, #6
 2732 0198 10D0     		beq	.L231
 2733 019a 7B68     		ldr	r3, [r7, #4]
 2734 019c 1B68     		ldr	r3, [r3]
 2735 019e 1A68     		ldr	r2, [r3]
 2736 01a0 7B68     		ldr	r3, [r7, #4]
 2737 01a2 1B68     		ldr	r3, [r3]
 2738 01a4 42F00102 		orr	r2, r2, #1
 2739 01a8 1A60     		str	r2, [r3]
 2740 01aa 07E0     		b	.L231
 2741              	.L233:
 2742 01ac 7B68     		ldr	r3, [r7, #4]
 2743 01ae 1B68     		ldr	r3, [r3]
 2744 01b0 1A68     		ldr	r2, [r3]
 2745 01b2 7B68     		ldr	r3, [r7, #4]
 2746 01b4 1B68     		ldr	r3, [r3]
 2747 01b6 42F00102 		orr	r2, r2, #1
 2748 01ba 1A60     		str	r2, [r3]
 2749              	.L231:
 2750 01bc FB7B     		ldrb	r3, [r7, #15]	@ zero_extendqisi2
 2751              	.L219:
 2752 01be 1846     		mov	r0, r3
 2753 01c0 1037     		adds	r7, r7, #16
 2754 01c2 BD46     		mov	sp, r7
 2755              		@ sp needed
 2756 01c4 80BD     		pop	{r7, pc}
 2757              	.L236:
 2758 01c6 00BF     		.align	2
 2759              	.L235:
 2760 01c8 00000140 		.word	1073807360
 2761 01cc 00040040 		.word	1073742848
 2762 01d0 00080040 		.word	1073743872
 2763 01d4 000C0040 		.word	1073744896
 2764 01d8 00040140 		.word	1073808384
 2765 01dc 00400140 		.word	1073823744
 2766 01e0 00180040 		.word	1073747968
 2768              		.section	.text.HAL_TIMEx_PWMN_Stop_IT,"ax",%progbits
 2769              		.align	1
 2770              		.global	HAL_TIMEx_PWMN_Stop_IT
 2771              		.syntax unified
 2772              		.thumb
 2773              		.thumb_func
 2775              	HAL_TIMEx_PWMN_Stop_IT:
ARM GAS  C:\Users\user\AppData\Local\Temp\ccegtlDB.s 			page 49


 2776              		@ args = 0, pretend = 0, frame = 16
 2777              		@ frame_needed = 1, uses_anonymous_args = 0
 2778 0000 80B5     		push	{r7, lr}
 2779 0002 84B0     		sub	sp, sp, #16
 2780 0004 00AF     		add	r7, sp, #0
 2781 0006 7860     		str	r0, [r7, #4]
 2782 0008 3960     		str	r1, [r7]
 2783 000a 0023     		movs	r3, #0
 2784 000c FB73     		strb	r3, [r7, #15]
 2785 000e 3B68     		ldr	r3, [r7]
 2786 0010 082B     		cmp	r3, #8
 2787 0012 1BD0     		beq	.L238
 2788 0014 3B68     		ldr	r3, [r7]
 2789 0016 082B     		cmp	r3, #8
 2790 0018 21D8     		bhi	.L239
 2791 001a 3B68     		ldr	r3, [r7]
 2792 001c 002B     		cmp	r3, #0
 2793 001e 03D0     		beq	.L240
 2794 0020 3B68     		ldr	r3, [r7]
 2795 0022 042B     		cmp	r3, #4
 2796 0024 09D0     		beq	.L241
 2797 0026 1AE0     		b	.L239
 2798              	.L240:
 2799 0028 7B68     		ldr	r3, [r7, #4]
 2800 002a 1B68     		ldr	r3, [r3]
 2801 002c DA68     		ldr	r2, [r3, #12]
 2802 002e 7B68     		ldr	r3, [r7, #4]
 2803 0030 1B68     		ldr	r3, [r3]
 2804 0032 22F00202 		bic	r2, r2, #2
 2805 0036 DA60     		str	r2, [r3, #12]
 2806 0038 14E0     		b	.L242
 2807              	.L241:
 2808 003a 7B68     		ldr	r3, [r7, #4]
 2809 003c 1B68     		ldr	r3, [r3]
 2810 003e DA68     		ldr	r2, [r3, #12]
 2811 0040 7B68     		ldr	r3, [r7, #4]
 2812 0042 1B68     		ldr	r3, [r3]
 2813 0044 22F00402 		bic	r2, r2, #4
 2814 0048 DA60     		str	r2, [r3, #12]
 2815 004a 0BE0     		b	.L242
 2816              	.L238:
 2817 004c 7B68     		ldr	r3, [r7, #4]
 2818 004e 1B68     		ldr	r3, [r3]
 2819 0050 DA68     		ldr	r2, [r3, #12]
 2820 0052 7B68     		ldr	r3, [r7, #4]
 2821 0054 1B68     		ldr	r3, [r3]
 2822 0056 22F00802 		bic	r2, r2, #8
 2823 005a DA60     		str	r2, [r3, #12]
 2824 005c 02E0     		b	.L242
 2825              	.L239:
 2826 005e 0123     		movs	r3, #1
 2827 0060 FB73     		strb	r3, [r7, #15]
 2828 0062 00BF     		nop
 2829              	.L242:
 2830 0064 FB7B     		ldrb	r3, [r7, #15]	@ zero_extendqisi2
 2831 0066 002B     		cmp	r3, #0
 2832 0068 64D1     		bne	.L243
ARM GAS  C:\Users\user\AppData\Local\Temp\ccegtlDB.s 			page 50


 2833 006a 7B68     		ldr	r3, [r7, #4]
 2834 006c 1B68     		ldr	r3, [r3]
 2835 006e 0022     		movs	r2, #0
 2836 0070 3968     		ldr	r1, [r7]
 2837 0072 1846     		mov	r0, r3
 2838 0074 FFF7FEFF 		bl	TIM_CCxNChannelCmd
 2839 0078 7B68     		ldr	r3, [r7, #4]
 2840 007a 1B68     		ldr	r3, [r3]
 2841 007c 1B6A     		ldr	r3, [r3, #32]
 2842 007e BB60     		str	r3, [r7, #8]
 2843 0080 BA68     		ldr	r2, [r7, #8]
 2844 0082 40F24443 		movw	r3, #1092
 2845 0086 1340     		ands	r3, r3, r2
 2846 0088 002B     		cmp	r3, #0
 2847 008a 07D1     		bne	.L244
 2848 008c 7B68     		ldr	r3, [r7, #4]
 2849 008e 1B68     		ldr	r3, [r3]
 2850 0090 DA68     		ldr	r2, [r3, #12]
 2851 0092 7B68     		ldr	r3, [r7, #4]
 2852 0094 1B68     		ldr	r3, [r3]
 2853 0096 22F08002 		bic	r2, r2, #128
 2854 009a DA60     		str	r2, [r3, #12]
 2855              	.L244:
 2856 009c 7B68     		ldr	r3, [r7, #4]
 2857 009e 1B68     		ldr	r3, [r3]
 2858 00a0 1A6A     		ldr	r2, [r3, #32]
 2859 00a2 41F21113 		movw	r3, #4369
 2860 00a6 1340     		ands	r3, r3, r2
 2861 00a8 002B     		cmp	r3, #0
 2862 00aa 0FD1     		bne	.L245
 2863 00ac 7B68     		ldr	r3, [r7, #4]
 2864 00ae 1B68     		ldr	r3, [r3]
 2865 00b0 1A6A     		ldr	r2, [r3, #32]
 2866 00b2 40F24443 		movw	r3, #1092
 2867 00b6 1340     		ands	r3, r3, r2
 2868 00b8 002B     		cmp	r3, #0
 2869 00ba 07D1     		bne	.L245
 2870 00bc 7B68     		ldr	r3, [r7, #4]
 2871 00be 1B68     		ldr	r3, [r3]
 2872 00c0 5A6C     		ldr	r2, [r3, #68]
 2873 00c2 7B68     		ldr	r3, [r7, #4]
 2874 00c4 1B68     		ldr	r3, [r3]
 2875 00c6 22F40042 		bic	r2, r2, #32768
 2876 00ca 5A64     		str	r2, [r3, #68]
 2877              	.L245:
 2878 00cc 7B68     		ldr	r3, [r7, #4]
 2879 00ce 1B68     		ldr	r3, [r3]
 2880 00d0 1A6A     		ldr	r2, [r3, #32]
 2881 00d2 41F21113 		movw	r3, #4369
 2882 00d6 1340     		ands	r3, r3, r2
 2883 00d8 002B     		cmp	r3, #0
 2884 00da 0FD1     		bne	.L246
 2885 00dc 7B68     		ldr	r3, [r7, #4]
 2886 00de 1B68     		ldr	r3, [r3]
 2887 00e0 1A6A     		ldr	r2, [r3, #32]
 2888 00e2 40F24443 		movw	r3, #1092
 2889 00e6 1340     		ands	r3, r3, r2
ARM GAS  C:\Users\user\AppData\Local\Temp\ccegtlDB.s 			page 51


 2890 00e8 002B     		cmp	r3, #0
 2891 00ea 07D1     		bne	.L246
 2892 00ec 7B68     		ldr	r3, [r7, #4]
 2893 00ee 1B68     		ldr	r3, [r3]
 2894 00f0 1A68     		ldr	r2, [r3]
 2895 00f2 7B68     		ldr	r3, [r7, #4]
 2896 00f4 1B68     		ldr	r3, [r3]
 2897 00f6 22F00102 		bic	r2, r2, #1
 2898 00fa 1A60     		str	r2, [r3]
 2899              	.L246:
 2900 00fc 3B68     		ldr	r3, [r7]
 2901 00fe 002B     		cmp	r3, #0
 2902 0100 04D1     		bne	.L247
 2903 0102 7B68     		ldr	r3, [r7, #4]
 2904 0104 0122     		movs	r2, #1
 2905 0106 83F84220 		strb	r2, [r3, #66]
 2906 010a 13E0     		b	.L243
 2907              	.L247:
 2908 010c 3B68     		ldr	r3, [r7]
 2909 010e 042B     		cmp	r3, #4
 2910 0110 04D1     		bne	.L248
 2911 0112 7B68     		ldr	r3, [r7, #4]
 2912 0114 0122     		movs	r2, #1
 2913 0116 83F84320 		strb	r2, [r3, #67]
 2914 011a 0BE0     		b	.L243
 2915              	.L248:
 2916 011c 3B68     		ldr	r3, [r7]
 2917 011e 082B     		cmp	r3, #8
 2918 0120 04D1     		bne	.L250
 2919 0122 7B68     		ldr	r3, [r7, #4]
 2920 0124 0122     		movs	r2, #1
 2921 0126 83F84420 		strb	r2, [r3, #68]
 2922 012a 03E0     		b	.L243
 2923              	.L250:
 2924 012c 7B68     		ldr	r3, [r7, #4]
 2925 012e 0122     		movs	r2, #1
 2926 0130 83F84520 		strb	r2, [r3, #69]
 2927              	.L243:
 2928 0134 FB7B     		ldrb	r3, [r7, #15]	@ zero_extendqisi2
 2929 0136 1846     		mov	r0, r3
 2930 0138 1037     		adds	r7, r7, #16
 2931 013a BD46     		mov	sp, r7
 2932              		@ sp needed
 2933 013c 80BD     		pop	{r7, pc}
 2935              		.section	.text.HAL_TIMEx_PWMN_Start_DMA,"ax",%progbits
 2936              		.align	1
 2937              		.global	HAL_TIMEx_PWMN_Start_DMA
 2938              		.syntax unified
 2939              		.thumb
 2940              		.thumb_func
 2942              	HAL_TIMEx_PWMN_Start_DMA:
 2943              		@ args = 0, pretend = 0, frame = 24
 2944              		@ frame_needed = 1, uses_anonymous_args = 0
 2945 0000 80B5     		push	{r7, lr}
 2946 0002 86B0     		sub	sp, sp, #24
 2947 0004 00AF     		add	r7, sp, #0
 2948 0006 F860     		str	r0, [r7, #12]
ARM GAS  C:\Users\user\AppData\Local\Temp\ccegtlDB.s 			page 52


 2949 0008 B960     		str	r1, [r7, #8]
 2950 000a 7A60     		str	r2, [r7, #4]
 2951 000c 7B80     		strh	r3, [r7, #2]	@ movhi
 2952 000e 0023     		movs	r3, #0
 2953 0010 FB75     		strb	r3, [r7, #23]
 2954 0012 BB68     		ldr	r3, [r7, #8]
 2955 0014 002B     		cmp	r3, #0
 2956 0016 09D1     		bne	.L254
 2957 0018 FB68     		ldr	r3, [r7, #12]
 2958 001a 93F84230 		ldrb	r3, [r3, #66]
 2959 001e DBB2     		uxtb	r3, r3
 2960 0020 022B     		cmp	r3, #2
 2961 0022 0CBF     		ite	eq
 2962 0024 0123     		moveq	r3, #1
 2963 0026 0023     		movne	r3, #0
 2964 0028 DBB2     		uxtb	r3, r3
 2965 002a 22E0     		b	.L255
 2966              	.L254:
 2967 002c BB68     		ldr	r3, [r7, #8]
 2968 002e 042B     		cmp	r3, #4
 2969 0030 09D1     		bne	.L256
 2970 0032 FB68     		ldr	r3, [r7, #12]
 2971 0034 93F84330 		ldrb	r3, [r3, #67]
 2972 0038 DBB2     		uxtb	r3, r3
 2973 003a 022B     		cmp	r3, #2
 2974 003c 0CBF     		ite	eq
 2975 003e 0123     		moveq	r3, #1
 2976 0040 0023     		movne	r3, #0
 2977 0042 DBB2     		uxtb	r3, r3
 2978 0044 15E0     		b	.L255
 2979              	.L256:
 2980 0046 BB68     		ldr	r3, [r7, #8]
 2981 0048 082B     		cmp	r3, #8
 2982 004a 09D1     		bne	.L258
 2983 004c FB68     		ldr	r3, [r7, #12]
 2984 004e 93F84430 		ldrb	r3, [r3, #68]
 2985 0052 DBB2     		uxtb	r3, r3
 2986 0054 022B     		cmp	r3, #2
 2987 0056 0CBF     		ite	eq
 2988 0058 0123     		moveq	r3, #1
 2989 005a 0023     		movne	r3, #0
 2990 005c DBB2     		uxtb	r3, r3
 2991 005e 08E0     		b	.L255
 2992              	.L258:
 2993 0060 FB68     		ldr	r3, [r7, #12]
 2994 0062 93F84530 		ldrb	r3, [r3, #69]
 2995 0066 DBB2     		uxtb	r3, r3
 2996 0068 022B     		cmp	r3, #2
 2997 006a 0CBF     		ite	eq
 2998 006c 0123     		moveq	r3, #1
 2999 006e 0023     		movne	r3, #0
 3000 0070 DBB2     		uxtb	r3, r3
 3001              	.L255:
 3002 0072 002B     		cmp	r3, #0
 3003 0074 01D0     		beq	.L260
 3004 0076 0223     		movs	r3, #2
 3005 0078 29E1     		b	.L261
ARM GAS  C:\Users\user\AppData\Local\Temp\ccegtlDB.s 			page 53


 3006              	.L260:
 3007 007a BB68     		ldr	r3, [r7, #8]
 3008 007c 002B     		cmp	r3, #0
 3009 007e 09D1     		bne	.L262
 3010 0080 FB68     		ldr	r3, [r7, #12]
 3011 0082 93F84230 		ldrb	r3, [r3, #66]
 3012 0086 DBB2     		uxtb	r3, r3
 3013 0088 012B     		cmp	r3, #1
 3014 008a 0CBF     		ite	eq
 3015 008c 0123     		moveq	r3, #1
 3016 008e 0023     		movne	r3, #0
 3017 0090 DBB2     		uxtb	r3, r3
 3018 0092 22E0     		b	.L263
 3019              	.L262:
 3020 0094 BB68     		ldr	r3, [r7, #8]
 3021 0096 042B     		cmp	r3, #4
 3022 0098 09D1     		bne	.L264
 3023 009a FB68     		ldr	r3, [r7, #12]
 3024 009c 93F84330 		ldrb	r3, [r3, #67]
 3025 00a0 DBB2     		uxtb	r3, r3
 3026 00a2 012B     		cmp	r3, #1
 3027 00a4 0CBF     		ite	eq
 3028 00a6 0123     		moveq	r3, #1
 3029 00a8 0023     		movne	r3, #0
 3030 00aa DBB2     		uxtb	r3, r3
 3031 00ac 15E0     		b	.L263
 3032              	.L264:
 3033 00ae BB68     		ldr	r3, [r7, #8]
 3034 00b0 082B     		cmp	r3, #8
 3035 00b2 09D1     		bne	.L266
 3036 00b4 FB68     		ldr	r3, [r7, #12]
 3037 00b6 93F84430 		ldrb	r3, [r3, #68]
 3038 00ba DBB2     		uxtb	r3, r3
 3039 00bc 012B     		cmp	r3, #1
 3040 00be 0CBF     		ite	eq
 3041 00c0 0123     		moveq	r3, #1
 3042 00c2 0023     		movne	r3, #0
 3043 00c4 DBB2     		uxtb	r3, r3
 3044 00c6 08E0     		b	.L263
 3045              	.L266:
 3046 00c8 FB68     		ldr	r3, [r7, #12]
 3047 00ca 93F84530 		ldrb	r3, [r3, #69]
 3048 00ce DBB2     		uxtb	r3, r3
 3049 00d0 012B     		cmp	r3, #1
 3050 00d2 0CBF     		ite	eq
 3051 00d4 0123     		moveq	r3, #1
 3052 00d6 0023     		movne	r3, #0
 3053 00d8 DBB2     		uxtb	r3, r3
 3054              	.L263:
 3055 00da 002B     		cmp	r3, #0
 3056 00dc 24D0     		beq	.L268
 3057 00de 7B68     		ldr	r3, [r7, #4]
 3058 00e0 002B     		cmp	r3, #0
 3059 00e2 04D1     		bne	.L269
 3060 00e4 7B88     		ldrh	r3, [r7, #2]
 3061 00e6 002B     		cmp	r3, #0
 3062 00e8 01D0     		beq	.L269
ARM GAS  C:\Users\user\AppData\Local\Temp\ccegtlDB.s 			page 54


 3063 00ea 0123     		movs	r3, #1
 3064 00ec EFE0     		b	.L261
 3065              	.L269:
 3066 00ee BB68     		ldr	r3, [r7, #8]
 3067 00f0 002B     		cmp	r3, #0
 3068 00f2 04D1     		bne	.L270
 3069 00f4 FB68     		ldr	r3, [r7, #12]
 3070 00f6 0222     		movs	r2, #2
 3071 00f8 83F84220 		strb	r2, [r3, #66]
 3072 00fc 16E0     		b	.L271
 3073              	.L270:
 3074 00fe BB68     		ldr	r3, [r7, #8]
 3075 0100 042B     		cmp	r3, #4
 3076 0102 04D1     		bne	.L272
 3077 0104 FB68     		ldr	r3, [r7, #12]
 3078 0106 0222     		movs	r2, #2
 3079 0108 83F84320 		strb	r2, [r3, #67]
 3080 010c 0EE0     		b	.L271
 3081              	.L272:
 3082 010e BB68     		ldr	r3, [r7, #8]
 3083 0110 082B     		cmp	r3, #8
 3084 0112 04D1     		bne	.L274
 3085 0114 FB68     		ldr	r3, [r7, #12]
 3086 0116 0222     		movs	r2, #2
 3087 0118 83F84420 		strb	r2, [r3, #68]
 3088 011c 06E0     		b	.L271
 3089              	.L274:
 3090 011e FB68     		ldr	r3, [r7, #12]
 3091 0120 0222     		movs	r2, #2
 3092 0122 83F84520 		strb	r2, [r3, #69]
 3093 0126 01E0     		b	.L271
 3094              	.L268:
 3095 0128 0123     		movs	r3, #1
 3096 012a D0E0     		b	.L261
 3097              	.L271:
 3098 012c BB68     		ldr	r3, [r7, #8]
 3099 012e 082B     		cmp	r3, #8
 3100 0130 51D0     		beq	.L276
 3101 0132 BB68     		ldr	r3, [r7, #8]
 3102 0134 082B     		cmp	r3, #8
 3103 0136 72D8     		bhi	.L277
 3104 0138 BB68     		ldr	r3, [r7, #8]
 3105 013a 002B     		cmp	r3, #0
 3106 013c 03D0     		beq	.L278
 3107 013e BB68     		ldr	r3, [r7, #8]
 3108 0140 042B     		cmp	r3, #4
 3109 0142 24D0     		beq	.L279
 3110 0144 6BE0     		b	.L277
 3111              	.L278:
 3112 0146 FB68     		ldr	r3, [r7, #12]
 3113 0148 5B6A     		ldr	r3, [r3, #36]
 3114 014a 634A     		ldr	r2, .L288
 3115 014c DA63     		str	r2, [r3, #60]
 3116 014e FB68     		ldr	r3, [r7, #12]
 3117 0150 5B6A     		ldr	r3, [r3, #36]
 3118 0152 624A     		ldr	r2, .L288+4
 3119 0154 1A64     		str	r2, [r3, #64]
ARM GAS  C:\Users\user\AppData\Local\Temp\ccegtlDB.s 			page 55


 3120 0156 FB68     		ldr	r3, [r7, #12]
 3121 0158 5B6A     		ldr	r3, [r3, #36]
 3122 015a 614A     		ldr	r2, .L288+8
 3123 015c DA64     		str	r2, [r3, #76]
 3124 015e FB68     		ldr	r3, [r7, #12]
 3125 0160 586A     		ldr	r0, [r3, #36]
 3126 0162 7968     		ldr	r1, [r7, #4]
 3127 0164 FB68     		ldr	r3, [r7, #12]
 3128 0166 1B68     		ldr	r3, [r3]
 3129 0168 3433     		adds	r3, r3, #52
 3130 016a 1A46     		mov	r2, r3
 3131 016c 7B88     		ldrh	r3, [r7, #2]
 3132 016e FFF7FEFF 		bl	HAL_DMA_Start_IT
 3133 0172 0346     		mov	r3, r0
 3134 0174 002B     		cmp	r3, #0
 3135 0176 01D0     		beq	.L280
 3136 0178 0123     		movs	r3, #1
 3137 017a A8E0     		b	.L261
 3138              	.L280:
 3139 017c FB68     		ldr	r3, [r7, #12]
 3140 017e 1B68     		ldr	r3, [r3]
 3141 0180 DA68     		ldr	r2, [r3, #12]
 3142 0182 FB68     		ldr	r3, [r7, #12]
 3143 0184 1B68     		ldr	r3, [r3]
 3144 0186 42F40072 		orr	r2, r2, #512
 3145 018a DA60     		str	r2, [r3, #12]
 3146 018c 4AE0     		b	.L281
 3147              	.L279:
 3148 018e FB68     		ldr	r3, [r7, #12]
 3149 0190 9B6A     		ldr	r3, [r3, #40]
 3150 0192 514A     		ldr	r2, .L288
 3151 0194 DA63     		str	r2, [r3, #60]
 3152 0196 FB68     		ldr	r3, [r7, #12]
 3153 0198 9B6A     		ldr	r3, [r3, #40]
 3154 019a 504A     		ldr	r2, .L288+4
 3155 019c 1A64     		str	r2, [r3, #64]
 3156 019e FB68     		ldr	r3, [r7, #12]
 3157 01a0 9B6A     		ldr	r3, [r3, #40]
 3158 01a2 4F4A     		ldr	r2, .L288+8
 3159 01a4 DA64     		str	r2, [r3, #76]
 3160 01a6 FB68     		ldr	r3, [r7, #12]
 3161 01a8 986A     		ldr	r0, [r3, #40]
 3162 01aa 7968     		ldr	r1, [r7, #4]
 3163 01ac FB68     		ldr	r3, [r7, #12]
 3164 01ae 1B68     		ldr	r3, [r3]
 3165 01b0 3833     		adds	r3, r3, #56
 3166 01b2 1A46     		mov	r2, r3
 3167 01b4 7B88     		ldrh	r3, [r7, #2]
 3168 01b6 FFF7FEFF 		bl	HAL_DMA_Start_IT
 3169 01ba 0346     		mov	r3, r0
 3170 01bc 002B     		cmp	r3, #0
 3171 01be 01D0     		beq	.L282
 3172 01c0 0123     		movs	r3, #1
 3173 01c2 84E0     		b	.L261
 3174              	.L282:
 3175 01c4 FB68     		ldr	r3, [r7, #12]
 3176 01c6 1B68     		ldr	r3, [r3]
ARM GAS  C:\Users\user\AppData\Local\Temp\ccegtlDB.s 			page 56


 3177 01c8 DA68     		ldr	r2, [r3, #12]
 3178 01ca FB68     		ldr	r3, [r7, #12]
 3179 01cc 1B68     		ldr	r3, [r3]
 3180 01ce 42F48062 		orr	r2, r2, #1024
 3181 01d2 DA60     		str	r2, [r3, #12]
 3182 01d4 26E0     		b	.L281
 3183              	.L276:
 3184 01d6 FB68     		ldr	r3, [r7, #12]
 3185 01d8 DB6A     		ldr	r3, [r3, #44]
 3186 01da 3F4A     		ldr	r2, .L288
 3187 01dc DA63     		str	r2, [r3, #60]
 3188 01de FB68     		ldr	r3, [r7, #12]
 3189 01e0 DB6A     		ldr	r3, [r3, #44]
 3190 01e2 3E4A     		ldr	r2, .L288+4
 3191 01e4 1A64     		str	r2, [r3, #64]
 3192 01e6 FB68     		ldr	r3, [r7, #12]
 3193 01e8 DB6A     		ldr	r3, [r3, #44]
 3194 01ea 3D4A     		ldr	r2, .L288+8
 3195 01ec DA64     		str	r2, [r3, #76]
 3196 01ee FB68     		ldr	r3, [r7, #12]
 3197 01f0 D86A     		ldr	r0, [r3, #44]
 3198 01f2 7968     		ldr	r1, [r7, #4]
 3199 01f4 FB68     		ldr	r3, [r7, #12]
 3200 01f6 1B68     		ldr	r3, [r3]
 3201 01f8 3C33     		adds	r3, r3, #60
 3202 01fa 1A46     		mov	r2, r3
 3203 01fc 7B88     		ldrh	r3, [r7, #2]
 3204 01fe FFF7FEFF 		bl	HAL_DMA_Start_IT
 3205 0202 0346     		mov	r3, r0
 3206 0204 002B     		cmp	r3, #0
 3207 0206 01D0     		beq	.L283
 3208 0208 0123     		movs	r3, #1
 3209 020a 60E0     		b	.L261
 3210              	.L283:
 3211 020c FB68     		ldr	r3, [r7, #12]
 3212 020e 1B68     		ldr	r3, [r3]
 3213 0210 DA68     		ldr	r2, [r3, #12]
 3214 0212 FB68     		ldr	r3, [r7, #12]
 3215 0214 1B68     		ldr	r3, [r3]
 3216 0216 42F40062 		orr	r2, r2, #2048
 3217 021a DA60     		str	r2, [r3, #12]
 3218 021c 02E0     		b	.L281
 3219              	.L277:
 3220 021e 0123     		movs	r3, #1
 3221 0220 FB75     		strb	r3, [r7, #23]
 3222 0222 00BF     		nop
 3223              	.L281:
 3224 0224 FB7D     		ldrb	r3, [r7, #23]	@ zero_extendqisi2
 3225 0226 002B     		cmp	r3, #0
 3226 0228 50D1     		bne	.L284
 3227 022a FB68     		ldr	r3, [r7, #12]
 3228 022c 1B68     		ldr	r3, [r3]
 3229 022e 0422     		movs	r2, #4
 3230 0230 B968     		ldr	r1, [r7, #8]
 3231 0232 1846     		mov	r0, r3
 3232 0234 FFF7FEFF 		bl	TIM_CCxNChannelCmd
 3233 0238 FB68     		ldr	r3, [r7, #12]
ARM GAS  C:\Users\user\AppData\Local\Temp\ccegtlDB.s 			page 57


 3234 023a 1B68     		ldr	r3, [r3]
 3235 023c 5A6C     		ldr	r2, [r3, #68]
 3236 023e FB68     		ldr	r3, [r7, #12]
 3237 0240 1B68     		ldr	r3, [r3]
 3238 0242 42F40042 		orr	r2, r2, #32768
 3239 0246 5A64     		str	r2, [r3, #68]
 3240 0248 FB68     		ldr	r3, [r7, #12]
 3241 024a 1B68     		ldr	r3, [r3]
 3242 024c 254A     		ldr	r2, .L288+12
 3243 024e 9342     		cmp	r3, r2
 3244 0250 22D0     		beq	.L285
 3245 0252 FB68     		ldr	r3, [r7, #12]
 3246 0254 1B68     		ldr	r3, [r3]
 3247 0256 B3F1804F 		cmp	r3, #1073741824
 3248 025a 1DD0     		beq	.L285
 3249 025c FB68     		ldr	r3, [r7, #12]
 3250 025e 1B68     		ldr	r3, [r3]
 3251 0260 214A     		ldr	r2, .L288+16
 3252 0262 9342     		cmp	r3, r2
 3253 0264 18D0     		beq	.L285
 3254 0266 FB68     		ldr	r3, [r7, #12]
 3255 0268 1B68     		ldr	r3, [r3]
 3256 026a 204A     		ldr	r2, .L288+20
 3257 026c 9342     		cmp	r3, r2
 3258 026e 13D0     		beq	.L285
 3259 0270 FB68     		ldr	r3, [r7, #12]
 3260 0272 1B68     		ldr	r3, [r3]
 3261 0274 1E4A     		ldr	r2, .L288+24
 3262 0276 9342     		cmp	r3, r2
 3263 0278 0ED0     		beq	.L285
 3264 027a FB68     		ldr	r3, [r7, #12]
 3265 027c 1B68     		ldr	r3, [r3]
 3266 027e 1D4A     		ldr	r2, .L288+28
 3267 0280 9342     		cmp	r3, r2
 3268 0282 09D0     		beq	.L285
 3269 0284 FB68     		ldr	r3, [r7, #12]
 3270 0286 1B68     		ldr	r3, [r3]
 3271 0288 1B4A     		ldr	r2, .L288+32
 3272 028a 9342     		cmp	r3, r2
 3273 028c 04D0     		beq	.L285
 3274 028e FB68     		ldr	r3, [r7, #12]
 3275 0290 1B68     		ldr	r3, [r3]
 3276 0292 1A4A     		ldr	r2, .L288+36
 3277 0294 9342     		cmp	r3, r2
 3278 0296 11D1     		bne	.L286
 3279              	.L285:
 3280 0298 FB68     		ldr	r3, [r7, #12]
 3281 029a 1B68     		ldr	r3, [r3]
 3282 029c 9B68     		ldr	r3, [r3, #8]
 3283 029e 03F00703 		and	r3, r3, #7
 3284 02a2 3B61     		str	r3, [r7, #16]
 3285 02a4 3B69     		ldr	r3, [r7, #16]
 3286 02a6 062B     		cmp	r3, #6
 3287 02a8 10D0     		beq	.L284
 3288 02aa FB68     		ldr	r3, [r7, #12]
 3289 02ac 1B68     		ldr	r3, [r3]
 3290 02ae 1A68     		ldr	r2, [r3]
ARM GAS  C:\Users\user\AppData\Local\Temp\ccegtlDB.s 			page 58


 3291 02b0 FB68     		ldr	r3, [r7, #12]
 3292 02b2 1B68     		ldr	r3, [r3]
 3293 02b4 42F00102 		orr	r2, r2, #1
 3294 02b8 1A60     		str	r2, [r3]
 3295 02ba 07E0     		b	.L284
 3296              	.L286:
 3297 02bc FB68     		ldr	r3, [r7, #12]
 3298 02be 1B68     		ldr	r3, [r3]
 3299 02c0 1A68     		ldr	r2, [r3]
 3300 02c2 FB68     		ldr	r3, [r7, #12]
 3301 02c4 1B68     		ldr	r3, [r3]
 3302 02c6 42F00102 		orr	r2, r2, #1
 3303 02ca 1A60     		str	r2, [r3]
 3304              	.L284:
 3305 02cc FB7D     		ldrb	r3, [r7, #23]	@ zero_extendqisi2
 3306              	.L261:
 3307 02ce 1846     		mov	r0, r3
 3308 02d0 1837     		adds	r7, r7, #24
 3309 02d2 BD46     		mov	sp, r7
 3310              		@ sp needed
 3311 02d4 80BD     		pop	{r7, pc}
 3312              	.L289:
 3313 02d6 00BF     		.align	2
 3314              	.L288:
 3315 02d8 00000000 		.word	TIM_DMADelayPulseNCplt
 3316 02dc 00000000 		.word	TIM_DMADelayPulseHalfCplt
 3317 02e0 00000000 		.word	TIM_DMAErrorCCxN
 3318 02e4 00000140 		.word	1073807360
 3319 02e8 00040040 		.word	1073742848
 3320 02ec 00080040 		.word	1073743872
 3321 02f0 000C0040 		.word	1073744896
 3322 02f4 00040140 		.word	1073808384
 3323 02f8 00400140 		.word	1073823744
 3324 02fc 00180040 		.word	1073747968
 3326              		.section	.text.HAL_TIMEx_PWMN_Stop_DMA,"ax",%progbits
 3327              		.align	1
 3328              		.global	HAL_TIMEx_PWMN_Stop_DMA
 3329              		.syntax unified
 3330              		.thumb
 3331              		.thumb_func
 3333              	HAL_TIMEx_PWMN_Stop_DMA:
 3334              		@ args = 0, pretend = 0, frame = 16
 3335              		@ frame_needed = 1, uses_anonymous_args = 0
 3336 0000 80B5     		push	{r7, lr}
 3337 0002 84B0     		sub	sp, sp, #16
 3338 0004 00AF     		add	r7, sp, #0
 3339 0006 7860     		str	r0, [r7, #4]
 3340 0008 3960     		str	r1, [r7]
 3341 000a 0023     		movs	r3, #0
 3342 000c FB73     		strb	r3, [r7, #15]
 3343 000e 3B68     		ldr	r3, [r7]
 3344 0010 082B     		cmp	r3, #8
 3345 0012 25D0     		beq	.L291
 3346 0014 3B68     		ldr	r3, [r7]
 3347 0016 082B     		cmp	r3, #8
 3348 0018 30D8     		bhi	.L292
 3349 001a 3B68     		ldr	r3, [r7]
ARM GAS  C:\Users\user\AppData\Local\Temp\ccegtlDB.s 			page 59


 3350 001c 002B     		cmp	r3, #0
 3351 001e 03D0     		beq	.L293
 3352 0020 3B68     		ldr	r3, [r7]
 3353 0022 042B     		cmp	r3, #4
 3354 0024 0ED0     		beq	.L294
 3355 0026 29E0     		b	.L292
 3356              	.L293:
 3357 0028 7B68     		ldr	r3, [r7, #4]
 3358 002a 1B68     		ldr	r3, [r3]
 3359 002c DA68     		ldr	r2, [r3, #12]
 3360 002e 7B68     		ldr	r3, [r7, #4]
 3361 0030 1B68     		ldr	r3, [r3]
 3362 0032 22F40072 		bic	r2, r2, #512
 3363 0036 DA60     		str	r2, [r3, #12]
 3364 0038 7B68     		ldr	r3, [r7, #4]
 3365 003a 5B6A     		ldr	r3, [r3, #36]
 3366 003c 1846     		mov	r0, r3
 3367 003e FFF7FEFF 		bl	HAL_DMA_Abort_IT
 3368 0042 1EE0     		b	.L295
 3369              	.L294:
 3370 0044 7B68     		ldr	r3, [r7, #4]
 3371 0046 1B68     		ldr	r3, [r3]
 3372 0048 DA68     		ldr	r2, [r3, #12]
 3373 004a 7B68     		ldr	r3, [r7, #4]
 3374 004c 1B68     		ldr	r3, [r3]
 3375 004e 22F48062 		bic	r2, r2, #1024
 3376 0052 DA60     		str	r2, [r3, #12]
 3377 0054 7B68     		ldr	r3, [r7, #4]
 3378 0056 9B6A     		ldr	r3, [r3, #40]
 3379 0058 1846     		mov	r0, r3
 3380 005a FFF7FEFF 		bl	HAL_DMA_Abort_IT
 3381 005e 10E0     		b	.L295
 3382              	.L291:
 3383 0060 7B68     		ldr	r3, [r7, #4]
 3384 0062 1B68     		ldr	r3, [r3]
 3385 0064 DA68     		ldr	r2, [r3, #12]
 3386 0066 7B68     		ldr	r3, [r7, #4]
 3387 0068 1B68     		ldr	r3, [r3]
 3388 006a 22F40062 		bic	r2, r2, #2048
 3389 006e DA60     		str	r2, [r3, #12]
 3390 0070 7B68     		ldr	r3, [r7, #4]
 3391 0072 DB6A     		ldr	r3, [r3, #44]
 3392 0074 1846     		mov	r0, r3
 3393 0076 FFF7FEFF 		bl	HAL_DMA_Abort_IT
 3394 007a 02E0     		b	.L295
 3395              	.L292:
 3396 007c 0123     		movs	r3, #1
 3397 007e FB73     		strb	r3, [r7, #15]
 3398 0080 00BF     		nop
 3399              	.L295:
 3400 0082 FB7B     		ldrb	r3, [r7, #15]	@ zero_extendqisi2
 3401 0084 002B     		cmp	r3, #0
 3402 0086 52D1     		bne	.L296
 3403 0088 7B68     		ldr	r3, [r7, #4]
 3404 008a 1B68     		ldr	r3, [r3]
 3405 008c 0022     		movs	r2, #0
 3406 008e 3968     		ldr	r1, [r7]
ARM GAS  C:\Users\user\AppData\Local\Temp\ccegtlDB.s 			page 60


 3407 0090 1846     		mov	r0, r3
 3408 0092 FFF7FEFF 		bl	TIM_CCxNChannelCmd
 3409 0096 7B68     		ldr	r3, [r7, #4]
 3410 0098 1B68     		ldr	r3, [r3]
 3411 009a 1A6A     		ldr	r2, [r3, #32]
 3412 009c 41F21113 		movw	r3, #4369
 3413 00a0 1340     		ands	r3, r3, r2
 3414 00a2 002B     		cmp	r3, #0
 3415 00a4 0FD1     		bne	.L297
 3416 00a6 7B68     		ldr	r3, [r7, #4]
 3417 00a8 1B68     		ldr	r3, [r3]
 3418 00aa 1A6A     		ldr	r2, [r3, #32]
 3419 00ac 40F24443 		movw	r3, #1092
 3420 00b0 1340     		ands	r3, r3, r2
 3421 00b2 002B     		cmp	r3, #0
 3422 00b4 07D1     		bne	.L297
 3423 00b6 7B68     		ldr	r3, [r7, #4]
 3424 00b8 1B68     		ldr	r3, [r3]
 3425 00ba 5A6C     		ldr	r2, [r3, #68]
 3426 00bc 7B68     		ldr	r3, [r7, #4]
 3427 00be 1B68     		ldr	r3, [r3]
 3428 00c0 22F40042 		bic	r2, r2, #32768
 3429 00c4 5A64     		str	r2, [r3, #68]
 3430              	.L297:
 3431 00c6 7B68     		ldr	r3, [r7, #4]
 3432 00c8 1B68     		ldr	r3, [r3]
 3433 00ca 1A6A     		ldr	r2, [r3, #32]
 3434 00cc 41F21113 		movw	r3, #4369
 3435 00d0 1340     		ands	r3, r3, r2
 3436 00d2 002B     		cmp	r3, #0
 3437 00d4 0FD1     		bne	.L298
 3438 00d6 7B68     		ldr	r3, [r7, #4]
 3439 00d8 1B68     		ldr	r3, [r3]
 3440 00da 1A6A     		ldr	r2, [r3, #32]
 3441 00dc 40F24443 		movw	r3, #1092
 3442 00e0 1340     		ands	r3, r3, r2
 3443 00e2 002B     		cmp	r3, #0
 3444 00e4 07D1     		bne	.L298
 3445 00e6 7B68     		ldr	r3, [r7, #4]
 3446 00e8 1B68     		ldr	r3, [r3]
 3447 00ea 1A68     		ldr	r2, [r3]
 3448 00ec 7B68     		ldr	r3, [r7, #4]
 3449 00ee 1B68     		ldr	r3, [r3]
 3450 00f0 22F00102 		bic	r2, r2, #1
 3451 00f4 1A60     		str	r2, [r3]
 3452              	.L298:
 3453 00f6 3B68     		ldr	r3, [r7]
 3454 00f8 002B     		cmp	r3, #0
 3455 00fa 04D1     		bne	.L299
 3456 00fc 7B68     		ldr	r3, [r7, #4]
 3457 00fe 0122     		movs	r2, #1
 3458 0100 83F84220 		strb	r2, [r3, #66]
 3459 0104 13E0     		b	.L296
 3460              	.L299:
 3461 0106 3B68     		ldr	r3, [r7]
 3462 0108 042B     		cmp	r3, #4
 3463 010a 04D1     		bne	.L300
ARM GAS  C:\Users\user\AppData\Local\Temp\ccegtlDB.s 			page 61


 3464 010c 7B68     		ldr	r3, [r7, #4]
 3465 010e 0122     		movs	r2, #1
 3466 0110 83F84320 		strb	r2, [r3, #67]
 3467 0114 0BE0     		b	.L296
 3468              	.L300:
 3469 0116 3B68     		ldr	r3, [r7]
 3470 0118 082B     		cmp	r3, #8
 3471 011a 04D1     		bne	.L302
 3472 011c 7B68     		ldr	r3, [r7, #4]
 3473 011e 0122     		movs	r2, #1
 3474 0120 83F84420 		strb	r2, [r3, #68]
 3475 0124 03E0     		b	.L296
 3476              	.L302:
 3477 0126 7B68     		ldr	r3, [r7, #4]
 3478 0128 0122     		movs	r2, #1
 3479 012a 83F84520 		strb	r2, [r3, #69]
 3480              	.L296:
 3481 012e FB7B     		ldrb	r3, [r7, #15]	@ zero_extendqisi2
 3482 0130 1846     		mov	r0, r3
 3483 0132 1037     		adds	r7, r7, #16
 3484 0134 BD46     		mov	sp, r7
 3485              		@ sp needed
 3486 0136 80BD     		pop	{r7, pc}
 3488              		.section	.text.HAL_TIMEx_OnePulseN_Start,"ax",%progbits
 3489              		.align	1
 3490              		.global	HAL_TIMEx_OnePulseN_Start
 3491              		.syntax unified
 3492              		.thumb
 3493              		.thumb_func
 3495              	HAL_TIMEx_OnePulseN_Start:
 3496              		@ args = 0, pretend = 0, frame = 16
 3497              		@ frame_needed = 1, uses_anonymous_args = 0
 3498 0000 80B5     		push	{r7, lr}
 3499 0002 84B0     		sub	sp, sp, #16
 3500 0004 00AF     		add	r7, sp, #0
 3501 0006 7860     		str	r0, [r7, #4]
 3502 0008 3960     		str	r1, [r7]
 3503 000a 3B68     		ldr	r3, [r7]
 3504 000c 002B     		cmp	r3, #0
 3505 000e 01D1     		bne	.L306
 3506 0010 0423     		movs	r3, #4
 3507 0012 00E0     		b	.L307
 3508              	.L306:
 3509 0014 0023     		movs	r3, #0
 3510              	.L307:
 3511 0016 FB60     		str	r3, [r7, #12]
 3512 0018 7B68     		ldr	r3, [r7, #4]
 3513 001a 93F83E30 		ldrb	r3, [r3, #62]
 3514 001e FB72     		strb	r3, [r7, #11]
 3515 0020 7B68     		ldr	r3, [r7, #4]
 3516 0022 93F83F30 		ldrb	r3, [r3, #63]
 3517 0026 BB72     		strb	r3, [r7, #10]
 3518 0028 7B68     		ldr	r3, [r7, #4]
 3519 002a 93F84230 		ldrb	r3, [r3, #66]
 3520 002e 7B72     		strb	r3, [r7, #9]
 3521 0030 7B68     		ldr	r3, [r7, #4]
 3522 0032 93F84330 		ldrb	r3, [r3, #67]
ARM GAS  C:\Users\user\AppData\Local\Temp\ccegtlDB.s 			page 62


 3523 0036 3B72     		strb	r3, [r7, #8]
 3524 0038 FB7A     		ldrb	r3, [r7, #11]	@ zero_extendqisi2
 3525 003a 012B     		cmp	r3, #1
 3526 003c 08D1     		bne	.L308
 3527 003e BB7A     		ldrb	r3, [r7, #10]	@ zero_extendqisi2
 3528 0040 012B     		cmp	r3, #1
 3529 0042 05D1     		bne	.L308
 3530 0044 7B7A     		ldrb	r3, [r7, #9]	@ zero_extendqisi2
 3531 0046 012B     		cmp	r3, #1
 3532 0048 02D1     		bne	.L308
 3533 004a 3B7A     		ldrb	r3, [r7, #8]	@ zero_extendqisi2
 3534 004c 012B     		cmp	r3, #1
 3535 004e 01D0     		beq	.L309
 3536              	.L308:
 3537 0050 0123     		movs	r3, #1
 3538 0052 26E0     		b	.L310
 3539              	.L309:
 3540 0054 7B68     		ldr	r3, [r7, #4]
 3541 0056 0222     		movs	r2, #2
 3542 0058 83F83E20 		strb	r2, [r3, #62]
 3543 005c 7B68     		ldr	r3, [r7, #4]
 3544 005e 0222     		movs	r2, #2
 3545 0060 83F83F20 		strb	r2, [r3, #63]
 3546 0064 7B68     		ldr	r3, [r7, #4]
 3547 0066 0222     		movs	r2, #2
 3548 0068 83F84220 		strb	r2, [r3, #66]
 3549 006c 7B68     		ldr	r3, [r7, #4]
 3550 006e 0222     		movs	r2, #2
 3551 0070 83F84320 		strb	r2, [r3, #67]
 3552 0074 7B68     		ldr	r3, [r7, #4]
 3553 0076 1B68     		ldr	r3, [r3]
 3554 0078 0422     		movs	r2, #4
 3555 007a 3968     		ldr	r1, [r7]
 3556 007c 1846     		mov	r0, r3
 3557 007e FFF7FEFF 		bl	TIM_CCxNChannelCmd
 3558 0082 7B68     		ldr	r3, [r7, #4]
 3559 0084 1B68     		ldr	r3, [r3]
 3560 0086 0122     		movs	r2, #1
 3561 0088 F968     		ldr	r1, [r7, #12]
 3562 008a 1846     		mov	r0, r3
 3563 008c FFF7FEFF 		bl	TIM_CCxChannelCmd
 3564 0090 7B68     		ldr	r3, [r7, #4]
 3565 0092 1B68     		ldr	r3, [r3]
 3566 0094 5A6C     		ldr	r2, [r3, #68]
 3567 0096 7B68     		ldr	r3, [r7, #4]
 3568 0098 1B68     		ldr	r3, [r3]
 3569 009a 42F40042 		orr	r2, r2, #32768
 3570 009e 5A64     		str	r2, [r3, #68]
 3571 00a0 0023     		movs	r3, #0
 3572              	.L310:
 3573 00a2 1846     		mov	r0, r3
 3574 00a4 1037     		adds	r7, r7, #16
 3575 00a6 BD46     		mov	sp, r7
 3576              		@ sp needed
 3577 00a8 80BD     		pop	{r7, pc}
 3579              		.section	.text.HAL_TIMEx_OnePulseN_Stop,"ax",%progbits
 3580              		.align	1
ARM GAS  C:\Users\user\AppData\Local\Temp\ccegtlDB.s 			page 63


 3581              		.global	HAL_TIMEx_OnePulseN_Stop
 3582              		.syntax unified
 3583              		.thumb
 3584              		.thumb_func
 3586              	HAL_TIMEx_OnePulseN_Stop:
 3587              		@ args = 0, pretend = 0, frame = 16
 3588              		@ frame_needed = 1, uses_anonymous_args = 0
 3589 0000 80B5     		push	{r7, lr}
 3590 0002 84B0     		sub	sp, sp, #16
 3591 0004 00AF     		add	r7, sp, #0
 3592 0006 7860     		str	r0, [r7, #4]
 3593 0008 3960     		str	r1, [r7]
 3594 000a 3B68     		ldr	r3, [r7]
 3595 000c 002B     		cmp	r3, #0
 3596 000e 01D1     		bne	.L312
 3597 0010 0423     		movs	r3, #4
 3598 0012 00E0     		b	.L313
 3599              	.L312:
 3600 0014 0023     		movs	r3, #0
 3601              	.L313:
 3602 0016 FB60     		str	r3, [r7, #12]
 3603 0018 7B68     		ldr	r3, [r7, #4]
 3604 001a 1B68     		ldr	r3, [r3]
 3605 001c 0022     		movs	r2, #0
 3606 001e 3968     		ldr	r1, [r7]
 3607 0020 1846     		mov	r0, r3
 3608 0022 FFF7FEFF 		bl	TIM_CCxNChannelCmd
 3609 0026 7B68     		ldr	r3, [r7, #4]
 3610 0028 1B68     		ldr	r3, [r3]
 3611 002a 0022     		movs	r2, #0
 3612 002c F968     		ldr	r1, [r7, #12]
 3613 002e 1846     		mov	r0, r3
 3614 0030 FFF7FEFF 		bl	TIM_CCxChannelCmd
 3615 0034 7B68     		ldr	r3, [r7, #4]
 3616 0036 1B68     		ldr	r3, [r3]
 3617 0038 1A6A     		ldr	r2, [r3, #32]
 3618 003a 41F21113 		movw	r3, #4369
 3619 003e 1340     		ands	r3, r3, r2
 3620 0040 002B     		cmp	r3, #0
 3621 0042 0FD1     		bne	.L314
 3622 0044 7B68     		ldr	r3, [r7, #4]
 3623 0046 1B68     		ldr	r3, [r3]
 3624 0048 1A6A     		ldr	r2, [r3, #32]
 3625 004a 40F24443 		movw	r3, #1092
 3626 004e 1340     		ands	r3, r3, r2
 3627 0050 002B     		cmp	r3, #0
 3628 0052 07D1     		bne	.L314
 3629 0054 7B68     		ldr	r3, [r7, #4]
 3630 0056 1B68     		ldr	r3, [r3]
 3631 0058 5A6C     		ldr	r2, [r3, #68]
 3632 005a 7B68     		ldr	r3, [r7, #4]
 3633 005c 1B68     		ldr	r3, [r3]
 3634 005e 22F40042 		bic	r2, r2, #32768
 3635 0062 5A64     		str	r2, [r3, #68]
 3636              	.L314:
 3637 0064 7B68     		ldr	r3, [r7, #4]
 3638 0066 1B68     		ldr	r3, [r3]
ARM GAS  C:\Users\user\AppData\Local\Temp\ccegtlDB.s 			page 64


 3639 0068 1A6A     		ldr	r2, [r3, #32]
 3640 006a 41F21113 		movw	r3, #4369
 3641 006e 1340     		ands	r3, r3, r2
 3642 0070 002B     		cmp	r3, #0
 3643 0072 0FD1     		bne	.L315
 3644 0074 7B68     		ldr	r3, [r7, #4]
 3645 0076 1B68     		ldr	r3, [r3]
 3646 0078 1A6A     		ldr	r2, [r3, #32]
 3647 007a 40F24443 		movw	r3, #1092
 3648 007e 1340     		ands	r3, r3, r2
 3649 0080 002B     		cmp	r3, #0
 3650 0082 07D1     		bne	.L315
 3651 0084 7B68     		ldr	r3, [r7, #4]
 3652 0086 1B68     		ldr	r3, [r3]
 3653 0088 1A68     		ldr	r2, [r3]
 3654 008a 7B68     		ldr	r3, [r7, #4]
 3655 008c 1B68     		ldr	r3, [r3]
 3656 008e 22F00102 		bic	r2, r2, #1
 3657 0092 1A60     		str	r2, [r3]
 3658              	.L315:
 3659 0094 7B68     		ldr	r3, [r7, #4]
 3660 0096 0122     		movs	r2, #1
 3661 0098 83F83E20 		strb	r2, [r3, #62]
 3662 009c 7B68     		ldr	r3, [r7, #4]
 3663 009e 0122     		movs	r2, #1
 3664 00a0 83F83F20 		strb	r2, [r3, #63]
 3665 00a4 7B68     		ldr	r3, [r7, #4]
 3666 00a6 0122     		movs	r2, #1
 3667 00a8 83F84220 		strb	r2, [r3, #66]
 3668 00ac 7B68     		ldr	r3, [r7, #4]
 3669 00ae 0122     		movs	r2, #1
 3670 00b0 83F84320 		strb	r2, [r3, #67]
 3671 00b4 0023     		movs	r3, #0
 3672 00b6 1846     		mov	r0, r3
 3673 00b8 1037     		adds	r7, r7, #16
 3674 00ba BD46     		mov	sp, r7
 3675              		@ sp needed
 3676 00bc 80BD     		pop	{r7, pc}
 3678              		.section	.text.HAL_TIMEx_OnePulseN_Start_IT,"ax",%progbits
 3679              		.align	1
 3680              		.global	HAL_TIMEx_OnePulseN_Start_IT
 3681              		.syntax unified
 3682              		.thumb
 3683              		.thumb_func
 3685              	HAL_TIMEx_OnePulseN_Start_IT:
 3686              		@ args = 0, pretend = 0, frame = 16
 3687              		@ frame_needed = 1, uses_anonymous_args = 0
 3688 0000 80B5     		push	{r7, lr}
 3689 0002 84B0     		sub	sp, sp, #16
 3690 0004 00AF     		add	r7, sp, #0
 3691 0006 7860     		str	r0, [r7, #4]
 3692 0008 3960     		str	r1, [r7]
 3693 000a 3B68     		ldr	r3, [r7]
 3694 000c 002B     		cmp	r3, #0
 3695 000e 01D1     		bne	.L318
 3696 0010 0423     		movs	r3, #4
 3697 0012 00E0     		b	.L319
ARM GAS  C:\Users\user\AppData\Local\Temp\ccegtlDB.s 			page 65


 3698              	.L318:
 3699 0014 0023     		movs	r3, #0
 3700              	.L319:
 3701 0016 FB60     		str	r3, [r7, #12]
 3702 0018 7B68     		ldr	r3, [r7, #4]
 3703 001a 93F83E30 		ldrb	r3, [r3, #62]
 3704 001e FB72     		strb	r3, [r7, #11]
 3705 0020 7B68     		ldr	r3, [r7, #4]
 3706 0022 93F83F30 		ldrb	r3, [r3, #63]
 3707 0026 BB72     		strb	r3, [r7, #10]
 3708 0028 7B68     		ldr	r3, [r7, #4]
 3709 002a 93F84230 		ldrb	r3, [r3, #66]
 3710 002e 7B72     		strb	r3, [r7, #9]
 3711 0030 7B68     		ldr	r3, [r7, #4]
 3712 0032 93F84330 		ldrb	r3, [r3, #67]
 3713 0036 3B72     		strb	r3, [r7, #8]
 3714 0038 FB7A     		ldrb	r3, [r7, #11]	@ zero_extendqisi2
 3715 003a 012B     		cmp	r3, #1
 3716 003c 08D1     		bne	.L320
 3717 003e BB7A     		ldrb	r3, [r7, #10]	@ zero_extendqisi2
 3718 0040 012B     		cmp	r3, #1
 3719 0042 05D1     		bne	.L320
 3720 0044 7B7A     		ldrb	r3, [r7, #9]	@ zero_extendqisi2
 3721 0046 012B     		cmp	r3, #1
 3722 0048 02D1     		bne	.L320
 3723 004a 3B7A     		ldrb	r3, [r7, #8]	@ zero_extendqisi2
 3724 004c 012B     		cmp	r3, #1
 3725 004e 01D0     		beq	.L321
 3726              	.L320:
 3727 0050 0123     		movs	r3, #1
 3728 0052 36E0     		b	.L322
 3729              	.L321:
 3730 0054 7B68     		ldr	r3, [r7, #4]
 3731 0056 0222     		movs	r2, #2
 3732 0058 83F83E20 		strb	r2, [r3, #62]
 3733 005c 7B68     		ldr	r3, [r7, #4]
 3734 005e 0222     		movs	r2, #2
 3735 0060 83F83F20 		strb	r2, [r3, #63]
 3736 0064 7B68     		ldr	r3, [r7, #4]
 3737 0066 0222     		movs	r2, #2
 3738 0068 83F84220 		strb	r2, [r3, #66]
 3739 006c 7B68     		ldr	r3, [r7, #4]
 3740 006e 0222     		movs	r2, #2
 3741 0070 83F84320 		strb	r2, [r3, #67]
 3742 0074 7B68     		ldr	r3, [r7, #4]
 3743 0076 1B68     		ldr	r3, [r3]
 3744 0078 DA68     		ldr	r2, [r3, #12]
 3745 007a 7B68     		ldr	r3, [r7, #4]
 3746 007c 1B68     		ldr	r3, [r3]
 3747 007e 42F00202 		orr	r2, r2, #2
 3748 0082 DA60     		str	r2, [r3, #12]
 3749 0084 7B68     		ldr	r3, [r7, #4]
 3750 0086 1B68     		ldr	r3, [r3]
 3751 0088 DA68     		ldr	r2, [r3, #12]
 3752 008a 7B68     		ldr	r3, [r7, #4]
 3753 008c 1B68     		ldr	r3, [r3]
 3754 008e 42F00402 		orr	r2, r2, #4
ARM GAS  C:\Users\user\AppData\Local\Temp\ccegtlDB.s 			page 66


 3755 0092 DA60     		str	r2, [r3, #12]
 3756 0094 7B68     		ldr	r3, [r7, #4]
 3757 0096 1B68     		ldr	r3, [r3]
 3758 0098 0422     		movs	r2, #4
 3759 009a 3968     		ldr	r1, [r7]
 3760 009c 1846     		mov	r0, r3
 3761 009e FFF7FEFF 		bl	TIM_CCxNChannelCmd
 3762 00a2 7B68     		ldr	r3, [r7, #4]
 3763 00a4 1B68     		ldr	r3, [r3]
 3764 00a6 0122     		movs	r2, #1
 3765 00a8 F968     		ldr	r1, [r7, #12]
 3766 00aa 1846     		mov	r0, r3
 3767 00ac FFF7FEFF 		bl	TIM_CCxChannelCmd
 3768 00b0 7B68     		ldr	r3, [r7, #4]
 3769 00b2 1B68     		ldr	r3, [r3]
 3770 00b4 5A6C     		ldr	r2, [r3, #68]
 3771 00b6 7B68     		ldr	r3, [r7, #4]
 3772 00b8 1B68     		ldr	r3, [r3]
 3773 00ba 42F40042 		orr	r2, r2, #32768
 3774 00be 5A64     		str	r2, [r3, #68]
 3775 00c0 0023     		movs	r3, #0
 3776              	.L322:
 3777 00c2 1846     		mov	r0, r3
 3778 00c4 1037     		adds	r7, r7, #16
 3779 00c6 BD46     		mov	sp, r7
 3780              		@ sp needed
 3781 00c8 80BD     		pop	{r7, pc}
 3783              		.section	.text.HAL_TIMEx_OnePulseN_Stop_IT,"ax",%progbits
 3784              		.align	1
 3785              		.global	HAL_TIMEx_OnePulseN_Stop_IT
 3786              		.syntax unified
 3787              		.thumb
 3788              		.thumb_func
 3790              	HAL_TIMEx_OnePulseN_Stop_IT:
 3791              		@ args = 0, pretend = 0, frame = 16
 3792              		@ frame_needed = 1, uses_anonymous_args = 0
 3793 0000 80B5     		push	{r7, lr}
 3794 0002 84B0     		sub	sp, sp, #16
 3795 0004 00AF     		add	r7, sp, #0
 3796 0006 7860     		str	r0, [r7, #4]
 3797 0008 3960     		str	r1, [r7]
 3798 000a 3B68     		ldr	r3, [r7]
 3799 000c 002B     		cmp	r3, #0
 3800 000e 01D1     		bne	.L324
 3801 0010 0423     		movs	r3, #4
 3802 0012 00E0     		b	.L325
 3803              	.L324:
 3804 0014 0023     		movs	r3, #0
 3805              	.L325:
 3806 0016 FB60     		str	r3, [r7, #12]
 3807 0018 7B68     		ldr	r3, [r7, #4]
 3808 001a 1B68     		ldr	r3, [r3]
 3809 001c DA68     		ldr	r2, [r3, #12]
 3810 001e 7B68     		ldr	r3, [r7, #4]
 3811 0020 1B68     		ldr	r3, [r3]
 3812 0022 22F00202 		bic	r2, r2, #2
 3813 0026 DA60     		str	r2, [r3, #12]
ARM GAS  C:\Users\user\AppData\Local\Temp\ccegtlDB.s 			page 67


 3814 0028 7B68     		ldr	r3, [r7, #4]
 3815 002a 1B68     		ldr	r3, [r3]
 3816 002c DA68     		ldr	r2, [r3, #12]
 3817 002e 7B68     		ldr	r3, [r7, #4]
 3818 0030 1B68     		ldr	r3, [r3]
 3819 0032 22F00402 		bic	r2, r2, #4
 3820 0036 DA60     		str	r2, [r3, #12]
 3821 0038 7B68     		ldr	r3, [r7, #4]
 3822 003a 1B68     		ldr	r3, [r3]
 3823 003c 0022     		movs	r2, #0
 3824 003e 3968     		ldr	r1, [r7]
 3825 0040 1846     		mov	r0, r3
 3826 0042 FFF7FEFF 		bl	TIM_CCxNChannelCmd
 3827 0046 7B68     		ldr	r3, [r7, #4]
 3828 0048 1B68     		ldr	r3, [r3]
 3829 004a 0022     		movs	r2, #0
 3830 004c F968     		ldr	r1, [r7, #12]
 3831 004e 1846     		mov	r0, r3
 3832 0050 FFF7FEFF 		bl	TIM_CCxChannelCmd
 3833 0054 7B68     		ldr	r3, [r7, #4]
 3834 0056 1B68     		ldr	r3, [r3]
 3835 0058 1A6A     		ldr	r2, [r3, #32]
 3836 005a 41F21113 		movw	r3, #4369
 3837 005e 1340     		ands	r3, r3, r2
 3838 0060 002B     		cmp	r3, #0
 3839 0062 0FD1     		bne	.L326
 3840 0064 7B68     		ldr	r3, [r7, #4]
 3841 0066 1B68     		ldr	r3, [r3]
 3842 0068 1A6A     		ldr	r2, [r3, #32]
 3843 006a 40F24443 		movw	r3, #1092
 3844 006e 1340     		ands	r3, r3, r2
 3845 0070 002B     		cmp	r3, #0
 3846 0072 07D1     		bne	.L326
 3847 0074 7B68     		ldr	r3, [r7, #4]
 3848 0076 1B68     		ldr	r3, [r3]
 3849 0078 5A6C     		ldr	r2, [r3, #68]
 3850 007a 7B68     		ldr	r3, [r7, #4]
 3851 007c 1B68     		ldr	r3, [r3]
 3852 007e 22F40042 		bic	r2, r2, #32768
 3853 0082 5A64     		str	r2, [r3, #68]
 3854              	.L326:
 3855 0084 7B68     		ldr	r3, [r7, #4]
 3856 0086 1B68     		ldr	r3, [r3]
 3857 0088 1A6A     		ldr	r2, [r3, #32]
 3858 008a 41F21113 		movw	r3, #4369
 3859 008e 1340     		ands	r3, r3, r2
 3860 0090 002B     		cmp	r3, #0
 3861 0092 0FD1     		bne	.L327
 3862 0094 7B68     		ldr	r3, [r7, #4]
 3863 0096 1B68     		ldr	r3, [r3]
 3864 0098 1A6A     		ldr	r2, [r3, #32]
 3865 009a 40F24443 		movw	r3, #1092
 3866 009e 1340     		ands	r3, r3, r2
 3867 00a0 002B     		cmp	r3, #0
 3868 00a2 07D1     		bne	.L327
 3869 00a4 7B68     		ldr	r3, [r7, #4]
 3870 00a6 1B68     		ldr	r3, [r3]
ARM GAS  C:\Users\user\AppData\Local\Temp\ccegtlDB.s 			page 68


 3871 00a8 1A68     		ldr	r2, [r3]
 3872 00aa 7B68     		ldr	r3, [r7, #4]
 3873 00ac 1B68     		ldr	r3, [r3]
 3874 00ae 22F00102 		bic	r2, r2, #1
 3875 00b2 1A60     		str	r2, [r3]
 3876              	.L327:
 3877 00b4 7B68     		ldr	r3, [r7, #4]
 3878 00b6 0122     		movs	r2, #1
 3879 00b8 83F83E20 		strb	r2, [r3, #62]
 3880 00bc 7B68     		ldr	r3, [r7, #4]
 3881 00be 0122     		movs	r2, #1
 3882 00c0 83F83F20 		strb	r2, [r3, #63]
 3883 00c4 7B68     		ldr	r3, [r7, #4]
 3884 00c6 0122     		movs	r2, #1
 3885 00c8 83F84220 		strb	r2, [r3, #66]
 3886 00cc 7B68     		ldr	r3, [r7, #4]
 3887 00ce 0122     		movs	r2, #1
 3888 00d0 83F84320 		strb	r2, [r3, #67]
 3889 00d4 0023     		movs	r3, #0
 3890 00d6 1846     		mov	r0, r3
 3891 00d8 1037     		adds	r7, r7, #16
 3892 00da BD46     		mov	sp, r7
 3893              		@ sp needed
 3894 00dc 80BD     		pop	{r7, pc}
 3896              		.section	.text.HAL_TIMEx_ConfigCommutEvent,"ax",%progbits
 3897              		.align	1
 3898              		.global	HAL_TIMEx_ConfigCommutEvent
 3899              		.syntax unified
 3900              		.thumb
 3901              		.thumb_func
 3903              	HAL_TIMEx_ConfigCommutEvent:
 3904              		@ args = 0, pretend = 0, frame = 16
 3905              		@ frame_needed = 1, uses_anonymous_args = 0
 3906              		@ link register save eliminated.
 3907 0000 80B4     		push	{r7}
 3908 0002 85B0     		sub	sp, sp, #20
 3909 0004 00AF     		add	r7, sp, #0
 3910 0006 F860     		str	r0, [r7, #12]
 3911 0008 B960     		str	r1, [r7, #8]
 3912 000a 7A60     		str	r2, [r7, #4]
 3913 000c FB68     		ldr	r3, [r7, #12]
 3914 000e 93F83C30 		ldrb	r3, [r3, #60]	@ zero_extendqisi2
 3915 0012 012B     		cmp	r3, #1
 3916 0014 01D1     		bne	.L330
 3917 0016 0223     		movs	r3, #2
 3918 0018 4CE0     		b	.L331
 3919              	.L330:
 3920 001a FB68     		ldr	r3, [r7, #12]
 3921 001c 0122     		movs	r2, #1
 3922 001e 83F83C20 		strb	r2, [r3, #60]
 3923 0022 BB68     		ldr	r3, [r7, #8]
 3924 0024 002B     		cmp	r3, #0
 3925 0026 08D0     		beq	.L332
 3926 0028 BB68     		ldr	r3, [r7, #8]
 3927 002a 102B     		cmp	r3, #16
 3928 002c 05D0     		beq	.L332
 3929 002e BB68     		ldr	r3, [r7, #8]
ARM GAS  C:\Users\user\AppData\Local\Temp\ccegtlDB.s 			page 69


 3930 0030 202B     		cmp	r3, #32
 3931 0032 02D0     		beq	.L332
 3932 0034 BB68     		ldr	r3, [r7, #8]
 3933 0036 302B     		cmp	r3, #48
 3934 0038 0FD1     		bne	.L333
 3935              	.L332:
 3936 003a FB68     		ldr	r3, [r7, #12]
 3937 003c 1B68     		ldr	r3, [r3]
 3938 003e 9A68     		ldr	r2, [r3, #8]
 3939 0040 FB68     		ldr	r3, [r7, #12]
 3940 0042 1B68     		ldr	r3, [r3]
 3941 0044 22F07002 		bic	r2, r2, #112
 3942 0048 9A60     		str	r2, [r3, #8]
 3943 004a FB68     		ldr	r3, [r7, #12]
 3944 004c 1B68     		ldr	r3, [r3]
 3945 004e 9968     		ldr	r1, [r3, #8]
 3946 0050 FB68     		ldr	r3, [r7, #12]
 3947 0052 1B68     		ldr	r3, [r3]
 3948 0054 BA68     		ldr	r2, [r7, #8]
 3949 0056 0A43     		orrs	r2, r2, r1
 3950 0058 9A60     		str	r2, [r3, #8]
 3951              	.L333:
 3952 005a FB68     		ldr	r3, [r7, #12]
 3953 005c 1B68     		ldr	r3, [r3]
 3954 005e 5A68     		ldr	r2, [r3, #4]
 3955 0060 FB68     		ldr	r3, [r7, #12]
 3956 0062 1B68     		ldr	r3, [r3]
 3957 0064 42F00102 		orr	r2, r2, #1
 3958 0068 5A60     		str	r2, [r3, #4]
 3959 006a FB68     		ldr	r3, [r7, #12]
 3960 006c 1B68     		ldr	r3, [r3]
 3961 006e 5A68     		ldr	r2, [r3, #4]
 3962 0070 FB68     		ldr	r3, [r7, #12]
 3963 0072 1B68     		ldr	r3, [r3]
 3964 0074 22F00402 		bic	r2, r2, #4
 3965 0078 5A60     		str	r2, [r3, #4]
 3966 007a FB68     		ldr	r3, [r7, #12]
 3967 007c 1B68     		ldr	r3, [r3]
 3968 007e 5968     		ldr	r1, [r3, #4]
 3969 0080 FB68     		ldr	r3, [r7, #12]
 3970 0082 1B68     		ldr	r3, [r3]
 3971 0084 7A68     		ldr	r2, [r7, #4]
 3972 0086 0A43     		orrs	r2, r2, r1
 3973 0088 5A60     		str	r2, [r3, #4]
 3974 008a FB68     		ldr	r3, [r7, #12]
 3975 008c 1B68     		ldr	r3, [r3]
 3976 008e DA68     		ldr	r2, [r3, #12]
 3977 0090 FB68     		ldr	r3, [r7, #12]
 3978 0092 1B68     		ldr	r3, [r3]
 3979 0094 22F02002 		bic	r2, r2, #32
 3980 0098 DA60     		str	r2, [r3, #12]
 3981 009a FB68     		ldr	r3, [r7, #12]
 3982 009c 1B68     		ldr	r3, [r3]
 3983 009e DA68     		ldr	r2, [r3, #12]
 3984 00a0 FB68     		ldr	r3, [r7, #12]
 3985 00a2 1B68     		ldr	r3, [r3]
 3986 00a4 22F40052 		bic	r2, r2, #8192
ARM GAS  C:\Users\user\AppData\Local\Temp\ccegtlDB.s 			page 70


 3987 00a8 DA60     		str	r2, [r3, #12]
 3988 00aa FB68     		ldr	r3, [r7, #12]
 3989 00ac 0022     		movs	r2, #0
 3990 00ae 83F83C20 		strb	r2, [r3, #60]
 3991 00b2 0023     		movs	r3, #0
 3992              	.L331:
 3993 00b4 1846     		mov	r0, r3
 3994 00b6 1437     		adds	r7, r7, #20
 3995 00b8 BD46     		mov	sp, r7
 3996              		@ sp needed
 3997 00ba 5DF8047B 		ldr	r7, [sp], #4
 3998 00be 7047     		bx	lr
 4000              		.section	.text.HAL_TIMEx_ConfigCommutEvent_IT,"ax",%progbits
 4001              		.align	1
 4002              		.global	HAL_TIMEx_ConfigCommutEvent_IT
 4003              		.syntax unified
 4004              		.thumb
 4005              		.thumb_func
 4007              	HAL_TIMEx_ConfigCommutEvent_IT:
 4008              		@ args = 0, pretend = 0, frame = 16
 4009              		@ frame_needed = 1, uses_anonymous_args = 0
 4010              		@ link register save eliminated.
 4011 0000 80B4     		push	{r7}
 4012 0002 85B0     		sub	sp, sp, #20
 4013 0004 00AF     		add	r7, sp, #0
 4014 0006 F860     		str	r0, [r7, #12]
 4015 0008 B960     		str	r1, [r7, #8]
 4016 000a 7A60     		str	r2, [r7, #4]
 4017 000c FB68     		ldr	r3, [r7, #12]
 4018 000e 93F83C30 		ldrb	r3, [r3, #60]	@ zero_extendqisi2
 4019 0012 012B     		cmp	r3, #1
 4020 0014 01D1     		bne	.L335
 4021 0016 0223     		movs	r3, #2
 4022 0018 4CE0     		b	.L336
 4023              	.L335:
 4024 001a FB68     		ldr	r3, [r7, #12]
 4025 001c 0122     		movs	r2, #1
 4026 001e 83F83C20 		strb	r2, [r3, #60]
 4027 0022 BB68     		ldr	r3, [r7, #8]
 4028 0024 002B     		cmp	r3, #0
 4029 0026 08D0     		beq	.L337
 4030 0028 BB68     		ldr	r3, [r7, #8]
 4031 002a 102B     		cmp	r3, #16
 4032 002c 05D0     		beq	.L337
 4033 002e BB68     		ldr	r3, [r7, #8]
 4034 0030 202B     		cmp	r3, #32
 4035 0032 02D0     		beq	.L337
 4036 0034 BB68     		ldr	r3, [r7, #8]
 4037 0036 302B     		cmp	r3, #48
 4038 0038 0FD1     		bne	.L338
 4039              	.L337:
 4040 003a FB68     		ldr	r3, [r7, #12]
 4041 003c 1B68     		ldr	r3, [r3]
 4042 003e 9A68     		ldr	r2, [r3, #8]
 4043 0040 FB68     		ldr	r3, [r7, #12]
 4044 0042 1B68     		ldr	r3, [r3]
 4045 0044 22F07002 		bic	r2, r2, #112
ARM GAS  C:\Users\user\AppData\Local\Temp\ccegtlDB.s 			page 71


 4046 0048 9A60     		str	r2, [r3, #8]
 4047 004a FB68     		ldr	r3, [r7, #12]
 4048 004c 1B68     		ldr	r3, [r3]
 4049 004e 9968     		ldr	r1, [r3, #8]
 4050 0050 FB68     		ldr	r3, [r7, #12]
 4051 0052 1B68     		ldr	r3, [r3]
 4052 0054 BA68     		ldr	r2, [r7, #8]
 4053 0056 0A43     		orrs	r2, r2, r1
 4054 0058 9A60     		str	r2, [r3, #8]
 4055              	.L338:
 4056 005a FB68     		ldr	r3, [r7, #12]
 4057 005c 1B68     		ldr	r3, [r3]
 4058 005e 5A68     		ldr	r2, [r3, #4]
 4059 0060 FB68     		ldr	r3, [r7, #12]
 4060 0062 1B68     		ldr	r3, [r3]
 4061 0064 42F00102 		orr	r2, r2, #1
 4062 0068 5A60     		str	r2, [r3, #4]
 4063 006a FB68     		ldr	r3, [r7, #12]
 4064 006c 1B68     		ldr	r3, [r3]
 4065 006e 5A68     		ldr	r2, [r3, #4]
 4066 0070 FB68     		ldr	r3, [r7, #12]
 4067 0072 1B68     		ldr	r3, [r3]
 4068 0074 22F00402 		bic	r2, r2, #4
 4069 0078 5A60     		str	r2, [r3, #4]
 4070 007a FB68     		ldr	r3, [r7, #12]
 4071 007c 1B68     		ldr	r3, [r3]
 4072 007e 5968     		ldr	r1, [r3, #4]
 4073 0080 FB68     		ldr	r3, [r7, #12]
 4074 0082 1B68     		ldr	r3, [r3]
 4075 0084 7A68     		ldr	r2, [r7, #4]
 4076 0086 0A43     		orrs	r2, r2, r1
 4077 0088 5A60     		str	r2, [r3, #4]
 4078 008a FB68     		ldr	r3, [r7, #12]
 4079 008c 1B68     		ldr	r3, [r3]
 4080 008e DA68     		ldr	r2, [r3, #12]
 4081 0090 FB68     		ldr	r3, [r7, #12]
 4082 0092 1B68     		ldr	r3, [r3]
 4083 0094 22F40052 		bic	r2, r2, #8192
 4084 0098 DA60     		str	r2, [r3, #12]
 4085 009a FB68     		ldr	r3, [r7, #12]
 4086 009c 1B68     		ldr	r3, [r3]
 4087 009e DA68     		ldr	r2, [r3, #12]
 4088 00a0 FB68     		ldr	r3, [r7, #12]
 4089 00a2 1B68     		ldr	r3, [r3]
 4090 00a4 42F02002 		orr	r2, r2, #32
 4091 00a8 DA60     		str	r2, [r3, #12]
 4092 00aa FB68     		ldr	r3, [r7, #12]
 4093 00ac 0022     		movs	r2, #0
 4094 00ae 83F83C20 		strb	r2, [r3, #60]
 4095 00b2 0023     		movs	r3, #0
 4096              	.L336:
 4097 00b4 1846     		mov	r0, r3
 4098 00b6 1437     		adds	r7, r7, #20
 4099 00b8 BD46     		mov	sp, r7
 4100              		@ sp needed
 4101 00ba 5DF8047B 		ldr	r7, [sp], #4
 4102 00be 7047     		bx	lr
ARM GAS  C:\Users\user\AppData\Local\Temp\ccegtlDB.s 			page 72


 4104              		.section	.text.HAL_TIMEx_ConfigCommutEvent_DMA,"ax",%progbits
 4105              		.align	1
 4106              		.global	HAL_TIMEx_ConfigCommutEvent_DMA
 4107              		.syntax unified
 4108              		.thumb
 4109              		.thumb_func
 4111              	HAL_TIMEx_ConfigCommutEvent_DMA:
 4112              		@ args = 0, pretend = 0, frame = 16
 4113              		@ frame_needed = 1, uses_anonymous_args = 0
 4114              		@ link register save eliminated.
 4115 0000 80B4     		push	{r7}
 4116 0002 85B0     		sub	sp, sp, #20
 4117 0004 00AF     		add	r7, sp, #0
 4118 0006 F860     		str	r0, [r7, #12]
 4119 0008 B960     		str	r1, [r7, #8]
 4120 000a 7A60     		str	r2, [r7, #4]
 4121 000c FB68     		ldr	r3, [r7, #12]
 4122 000e 93F83C30 		ldrb	r3, [r3, #60]	@ zero_extendqisi2
 4123 0012 012B     		cmp	r3, #1
 4124 0014 01D1     		bne	.L340
 4125 0016 0223     		movs	r3, #2
 4126 0018 58E0     		b	.L341
 4127              	.L340:
 4128 001a FB68     		ldr	r3, [r7, #12]
 4129 001c 0122     		movs	r2, #1
 4130 001e 83F83C20 		strb	r2, [r3, #60]
 4131 0022 BB68     		ldr	r3, [r7, #8]
 4132 0024 002B     		cmp	r3, #0
 4133 0026 08D0     		beq	.L342
 4134 0028 BB68     		ldr	r3, [r7, #8]
 4135 002a 102B     		cmp	r3, #16
 4136 002c 05D0     		beq	.L342
 4137 002e BB68     		ldr	r3, [r7, #8]
 4138 0030 202B     		cmp	r3, #32
 4139 0032 02D0     		beq	.L342
 4140 0034 BB68     		ldr	r3, [r7, #8]
 4141 0036 302B     		cmp	r3, #48
 4142 0038 0FD1     		bne	.L343
 4143              	.L342:
 4144 003a FB68     		ldr	r3, [r7, #12]
 4145 003c 1B68     		ldr	r3, [r3]
 4146 003e 9A68     		ldr	r2, [r3, #8]
 4147 0040 FB68     		ldr	r3, [r7, #12]
 4148 0042 1B68     		ldr	r3, [r3]
 4149 0044 22F07002 		bic	r2, r2, #112
 4150 0048 9A60     		str	r2, [r3, #8]
 4151 004a FB68     		ldr	r3, [r7, #12]
 4152 004c 1B68     		ldr	r3, [r3]
 4153 004e 9968     		ldr	r1, [r3, #8]
 4154 0050 FB68     		ldr	r3, [r7, #12]
 4155 0052 1B68     		ldr	r3, [r3]
 4156 0054 BA68     		ldr	r2, [r7, #8]
 4157 0056 0A43     		orrs	r2, r2, r1
 4158 0058 9A60     		str	r2, [r3, #8]
 4159              	.L343:
 4160 005a FB68     		ldr	r3, [r7, #12]
 4161 005c 1B68     		ldr	r3, [r3]
ARM GAS  C:\Users\user\AppData\Local\Temp\ccegtlDB.s 			page 73


 4162 005e 5A68     		ldr	r2, [r3, #4]
 4163 0060 FB68     		ldr	r3, [r7, #12]
 4164 0062 1B68     		ldr	r3, [r3]
 4165 0064 42F00102 		orr	r2, r2, #1
 4166 0068 5A60     		str	r2, [r3, #4]
 4167 006a FB68     		ldr	r3, [r7, #12]
 4168 006c 1B68     		ldr	r3, [r3]
 4169 006e 5A68     		ldr	r2, [r3, #4]
 4170 0070 FB68     		ldr	r3, [r7, #12]
 4171 0072 1B68     		ldr	r3, [r3]
 4172 0074 22F00402 		bic	r2, r2, #4
 4173 0078 5A60     		str	r2, [r3, #4]
 4174 007a FB68     		ldr	r3, [r7, #12]
 4175 007c 1B68     		ldr	r3, [r3]
 4176 007e 5968     		ldr	r1, [r3, #4]
 4177 0080 FB68     		ldr	r3, [r7, #12]
 4178 0082 1B68     		ldr	r3, [r3]
 4179 0084 7A68     		ldr	r2, [r7, #4]
 4180 0086 0A43     		orrs	r2, r2, r1
 4181 0088 5A60     		str	r2, [r3, #4]
 4182 008a FB68     		ldr	r3, [r7, #12]
 4183 008c 5B6B     		ldr	r3, [r3, #52]
 4184 008e 124A     		ldr	r2, .L344
 4185 0090 DA63     		str	r2, [r3, #60]
 4186 0092 FB68     		ldr	r3, [r7, #12]
 4187 0094 5B6B     		ldr	r3, [r3, #52]
 4188 0096 114A     		ldr	r2, .L344+4
 4189 0098 1A64     		str	r2, [r3, #64]
 4190 009a FB68     		ldr	r3, [r7, #12]
 4191 009c 5B6B     		ldr	r3, [r3, #52]
 4192 009e 104A     		ldr	r2, .L344+8
 4193 00a0 DA64     		str	r2, [r3, #76]
 4194 00a2 FB68     		ldr	r3, [r7, #12]
 4195 00a4 1B68     		ldr	r3, [r3]
 4196 00a6 DA68     		ldr	r2, [r3, #12]
 4197 00a8 FB68     		ldr	r3, [r7, #12]
 4198 00aa 1B68     		ldr	r3, [r3]
 4199 00ac 22F02002 		bic	r2, r2, #32
 4200 00b0 DA60     		str	r2, [r3, #12]
 4201 00b2 FB68     		ldr	r3, [r7, #12]
 4202 00b4 1B68     		ldr	r3, [r3]
 4203 00b6 DA68     		ldr	r2, [r3, #12]
 4204 00b8 FB68     		ldr	r3, [r7, #12]
 4205 00ba 1B68     		ldr	r3, [r3]
 4206 00bc 42F40052 		orr	r2, r2, #8192
 4207 00c0 DA60     		str	r2, [r3, #12]
 4208 00c2 FB68     		ldr	r3, [r7, #12]
 4209 00c4 0022     		movs	r2, #0
 4210 00c6 83F83C20 		strb	r2, [r3, #60]
 4211 00ca 0023     		movs	r3, #0
 4212              	.L341:
 4213 00cc 1846     		mov	r0, r3
 4214 00ce 1437     		adds	r7, r7, #20
 4215 00d0 BD46     		mov	sp, r7
 4216              		@ sp needed
 4217 00d2 5DF8047B 		ldr	r7, [sp], #4
 4218 00d6 7047     		bx	lr
ARM GAS  C:\Users\user\AppData\Local\Temp\ccegtlDB.s 			page 74


 4219              	.L345:
 4220              		.align	2
 4221              	.L344:
 4222 00d8 00000000 		.word	TIMEx_DMACommutationCplt
 4223 00dc 00000000 		.word	TIMEx_DMACommutationHalfCplt
 4224 00e0 00000000 		.word	TIM_DMAError
 4226              		.section	.text.HAL_TIMEx_MasterConfigSynchronization,"ax",%progbits
 4227              		.align	1
 4228              		.global	HAL_TIMEx_MasterConfigSynchronization
 4229              		.syntax unified
 4230              		.thumb
 4231              		.thumb_func
 4233              	HAL_TIMEx_MasterConfigSynchronization:
 4234              		@ args = 0, pretend = 0, frame = 16
 4235              		@ frame_needed = 1, uses_anonymous_args = 0
 4236              		@ link register save eliminated.
 4237 0000 80B4     		push	{r7}
 4238 0002 85B0     		sub	sp, sp, #20
 4239 0004 00AF     		add	r7, sp, #0
 4240 0006 7860     		str	r0, [r7, #4]
 4241 0008 3960     		str	r1, [r7]
 4242 000a 7B68     		ldr	r3, [r7, #4]
 4243 000c 93F83C30 		ldrb	r3, [r3, #60]	@ zero_extendqisi2
 4244 0010 012B     		cmp	r3, #1
 4245 0012 01D1     		bne	.L347
 4246 0014 0223     		movs	r3, #2
 4247 0016 5AE0     		b	.L348
 4248              	.L347:
 4249 0018 7B68     		ldr	r3, [r7, #4]
 4250 001a 0122     		movs	r2, #1
 4251 001c 83F83C20 		strb	r2, [r3, #60]
 4252 0020 7B68     		ldr	r3, [r7, #4]
 4253 0022 0222     		movs	r2, #2
 4254 0024 83F83D20 		strb	r2, [r3, #61]
 4255 0028 7B68     		ldr	r3, [r7, #4]
 4256 002a 1B68     		ldr	r3, [r3]
 4257 002c 5B68     		ldr	r3, [r3, #4]
 4258 002e FB60     		str	r3, [r7, #12]
 4259 0030 7B68     		ldr	r3, [r7, #4]
 4260 0032 1B68     		ldr	r3, [r3]
 4261 0034 9B68     		ldr	r3, [r3, #8]
 4262 0036 BB60     		str	r3, [r7, #8]
 4263 0038 FB68     		ldr	r3, [r7, #12]
 4264 003a 23F07003 		bic	r3, r3, #112
 4265 003e FB60     		str	r3, [r7, #12]
 4266 0040 3B68     		ldr	r3, [r7]
 4267 0042 1B68     		ldr	r3, [r3]
 4268 0044 FA68     		ldr	r2, [r7, #12]
 4269 0046 1343     		orrs	r3, r3, r2
 4270 0048 FB60     		str	r3, [r7, #12]
 4271 004a 7B68     		ldr	r3, [r7, #4]
 4272 004c 1B68     		ldr	r3, [r3]
 4273 004e FA68     		ldr	r2, [r7, #12]
 4274 0050 5A60     		str	r2, [r3, #4]
 4275 0052 7B68     		ldr	r3, [r7, #4]
 4276 0054 1B68     		ldr	r3, [r3]
 4277 0056 214A     		ldr	r2, .L351
ARM GAS  C:\Users\user\AppData\Local\Temp\ccegtlDB.s 			page 75


 4278 0058 9342     		cmp	r3, r2
 4279 005a 22D0     		beq	.L349
 4280 005c 7B68     		ldr	r3, [r7, #4]
 4281 005e 1B68     		ldr	r3, [r3]
 4282 0060 B3F1804F 		cmp	r3, #1073741824
 4283 0064 1DD0     		beq	.L349
 4284 0066 7B68     		ldr	r3, [r7, #4]
 4285 0068 1B68     		ldr	r3, [r3]
 4286 006a 1D4A     		ldr	r2, .L351+4
 4287 006c 9342     		cmp	r3, r2
 4288 006e 18D0     		beq	.L349
 4289 0070 7B68     		ldr	r3, [r7, #4]
 4290 0072 1B68     		ldr	r3, [r3]
 4291 0074 1B4A     		ldr	r2, .L351+8
 4292 0076 9342     		cmp	r3, r2
 4293 0078 13D0     		beq	.L349
 4294 007a 7B68     		ldr	r3, [r7, #4]
 4295 007c 1B68     		ldr	r3, [r3]
 4296 007e 1A4A     		ldr	r2, .L351+12
 4297 0080 9342     		cmp	r3, r2
 4298 0082 0ED0     		beq	.L349
 4299 0084 7B68     		ldr	r3, [r7, #4]
 4300 0086 1B68     		ldr	r3, [r3]
 4301 0088 184A     		ldr	r2, .L351+16
 4302 008a 9342     		cmp	r3, r2
 4303 008c 09D0     		beq	.L349
 4304 008e 7B68     		ldr	r3, [r7, #4]
 4305 0090 1B68     		ldr	r3, [r3]
 4306 0092 174A     		ldr	r2, .L351+20
 4307 0094 9342     		cmp	r3, r2
 4308 0096 04D0     		beq	.L349
 4309 0098 7B68     		ldr	r3, [r7, #4]
 4310 009a 1B68     		ldr	r3, [r3]
 4311 009c 154A     		ldr	r2, .L351+24
 4312 009e 9342     		cmp	r3, r2
 4313 00a0 0CD1     		bne	.L350
 4314              	.L349:
 4315 00a2 BB68     		ldr	r3, [r7, #8]
 4316 00a4 23F08003 		bic	r3, r3, #128
 4317 00a8 BB60     		str	r3, [r7, #8]
 4318 00aa 3B68     		ldr	r3, [r7]
 4319 00ac 5B68     		ldr	r3, [r3, #4]
 4320 00ae BA68     		ldr	r2, [r7, #8]
 4321 00b0 1343     		orrs	r3, r3, r2
 4322 00b2 BB60     		str	r3, [r7, #8]
 4323 00b4 7B68     		ldr	r3, [r7, #4]
 4324 00b6 1B68     		ldr	r3, [r3]
 4325 00b8 BA68     		ldr	r2, [r7, #8]
 4326 00ba 9A60     		str	r2, [r3, #8]
 4327              	.L350:
 4328 00bc 7B68     		ldr	r3, [r7, #4]
 4329 00be 0122     		movs	r2, #1
 4330 00c0 83F83D20 		strb	r2, [r3, #61]
 4331 00c4 7B68     		ldr	r3, [r7, #4]
 4332 00c6 0022     		movs	r2, #0
 4333 00c8 83F83C20 		strb	r2, [r3, #60]
 4334 00cc 0023     		movs	r3, #0
ARM GAS  C:\Users\user\AppData\Local\Temp\ccegtlDB.s 			page 76


 4335              	.L348:
 4336 00ce 1846     		mov	r0, r3
 4337 00d0 1437     		adds	r7, r7, #20
 4338 00d2 BD46     		mov	sp, r7
 4339              		@ sp needed
 4340 00d4 5DF8047B 		ldr	r7, [sp], #4
 4341 00d8 7047     		bx	lr
 4342              	.L352:
 4343 00da 00BF     		.align	2
 4344              	.L351:
 4345 00dc 00000140 		.word	1073807360
 4346 00e0 00040040 		.word	1073742848
 4347 00e4 00080040 		.word	1073743872
 4348 00e8 000C0040 		.word	1073744896
 4349 00ec 00040140 		.word	1073808384
 4350 00f0 00400140 		.word	1073823744
 4351 00f4 00180040 		.word	1073747968
 4353              		.section	.text.HAL_TIMEx_ConfigBreakDeadTime,"ax",%progbits
 4354              		.align	1
 4355              		.global	HAL_TIMEx_ConfigBreakDeadTime
 4356              		.syntax unified
 4357              		.thumb
 4358              		.thumb_func
 4360              	HAL_TIMEx_ConfigBreakDeadTime:
 4361              		@ args = 0, pretend = 0, frame = 16
 4362              		@ frame_needed = 1, uses_anonymous_args = 0
 4363              		@ link register save eliminated.
 4364 0000 80B4     		push	{r7}
 4365 0002 85B0     		sub	sp, sp, #20
 4366 0004 00AF     		add	r7, sp, #0
 4367 0006 7860     		str	r0, [r7, #4]
 4368 0008 3960     		str	r1, [r7]
 4369 000a 0023     		movs	r3, #0
 4370 000c FB60     		str	r3, [r7, #12]
 4371 000e 7B68     		ldr	r3, [r7, #4]
 4372 0010 93F83C30 		ldrb	r3, [r3, #60]	@ zero_extendqisi2
 4373 0014 012B     		cmp	r3, #1
 4374 0016 01D1     		bne	.L354
 4375 0018 0223     		movs	r3, #2
 4376 001a 3DE0     		b	.L355
 4377              	.L354:
 4378 001c 7B68     		ldr	r3, [r7, #4]
 4379 001e 0122     		movs	r2, #1
 4380 0020 83F83C20 		strb	r2, [r3, #60]
 4381 0024 FB68     		ldr	r3, [r7, #12]
 4382 0026 23F0FF02 		bic	r2, r3, #255
 4383 002a 3B68     		ldr	r3, [r7]
 4384 002c DB68     		ldr	r3, [r3, #12]
 4385 002e 1343     		orrs	r3, r3, r2
 4386 0030 FB60     		str	r3, [r7, #12]
 4387 0032 FB68     		ldr	r3, [r7, #12]
 4388 0034 23F44072 		bic	r2, r3, #768
 4389 0038 3B68     		ldr	r3, [r7]
 4390 003a 9B68     		ldr	r3, [r3, #8]
 4391 003c 1343     		orrs	r3, r3, r2
 4392 003e FB60     		str	r3, [r7, #12]
 4393 0040 FB68     		ldr	r3, [r7, #12]
ARM GAS  C:\Users\user\AppData\Local\Temp\ccegtlDB.s 			page 77


 4394 0042 23F48062 		bic	r2, r3, #1024
 4395 0046 3B68     		ldr	r3, [r7]
 4396 0048 5B68     		ldr	r3, [r3, #4]
 4397 004a 1343     		orrs	r3, r3, r2
 4398 004c FB60     		str	r3, [r7, #12]
 4399 004e FB68     		ldr	r3, [r7, #12]
 4400 0050 23F40062 		bic	r2, r3, #2048
 4401 0054 3B68     		ldr	r3, [r7]
 4402 0056 1B68     		ldr	r3, [r3]
 4403 0058 1343     		orrs	r3, r3, r2
 4404 005a FB60     		str	r3, [r7, #12]
 4405 005c FB68     		ldr	r3, [r7, #12]
 4406 005e 23F48052 		bic	r2, r3, #4096
 4407 0062 3B68     		ldr	r3, [r7]
 4408 0064 1B69     		ldr	r3, [r3, #16]
 4409 0066 1343     		orrs	r3, r3, r2
 4410 0068 FB60     		str	r3, [r7, #12]
 4411 006a FB68     		ldr	r3, [r7, #12]
 4412 006c 23F40052 		bic	r2, r3, #8192
 4413 0070 3B68     		ldr	r3, [r7]
 4414 0072 5B69     		ldr	r3, [r3, #20]
 4415 0074 1343     		orrs	r3, r3, r2
 4416 0076 FB60     		str	r3, [r7, #12]
 4417 0078 FB68     		ldr	r3, [r7, #12]
 4418 007a 23F48042 		bic	r2, r3, #16384
 4419 007e 3B68     		ldr	r3, [r7]
 4420 0080 DB69     		ldr	r3, [r3, #28]
 4421 0082 1343     		orrs	r3, r3, r2
 4422 0084 FB60     		str	r3, [r7, #12]
 4423 0086 7B68     		ldr	r3, [r7, #4]
 4424 0088 1B68     		ldr	r3, [r3]
 4425 008a FA68     		ldr	r2, [r7, #12]
 4426 008c 5A64     		str	r2, [r3, #68]
 4427 008e 7B68     		ldr	r3, [r7, #4]
 4428 0090 0022     		movs	r2, #0
 4429 0092 83F83C20 		strb	r2, [r3, #60]
 4430 0096 0023     		movs	r3, #0
 4431              	.L355:
 4432 0098 1846     		mov	r0, r3
 4433 009a 1437     		adds	r7, r7, #20
 4434 009c BD46     		mov	sp, r7
 4435              		@ sp needed
 4436 009e 5DF8047B 		ldr	r7, [sp], #4
 4437 00a2 7047     		bx	lr
 4439              		.section	.text.HAL_TIMEx_RemapConfig,"ax",%progbits
 4440              		.align	1
 4441              		.global	HAL_TIMEx_RemapConfig
 4442              		.syntax unified
 4443              		.thumb
 4444              		.thumb_func
 4446              	HAL_TIMEx_RemapConfig:
 4447              		@ args = 0, pretend = 0, frame = 8
 4448              		@ frame_needed = 1, uses_anonymous_args = 0
 4449              		@ link register save eliminated.
 4450 0000 80B4     		push	{r7}
 4451 0002 83B0     		sub	sp, sp, #12
 4452 0004 00AF     		add	r7, sp, #0
ARM GAS  C:\Users\user\AppData\Local\Temp\ccegtlDB.s 			page 78


 4453 0006 7860     		str	r0, [r7, #4]
 4454 0008 3960     		str	r1, [r7]
 4455 000a 7B68     		ldr	r3, [r7, #4]
 4456 000c 93F83C30 		ldrb	r3, [r3, #60]	@ zero_extendqisi2
 4457 0010 012B     		cmp	r3, #1
 4458 0012 01D1     		bne	.L357
 4459 0014 0223     		movs	r3, #2
 4460 0016 0CE0     		b	.L358
 4461              	.L357:
 4462 0018 7B68     		ldr	r3, [r7, #4]
 4463 001a 0122     		movs	r2, #1
 4464 001c 83F83C20 		strb	r2, [r3, #60]
 4465 0020 7B68     		ldr	r3, [r7, #4]
 4466 0022 1B68     		ldr	r3, [r3]
 4467 0024 3A68     		ldr	r2, [r7]
 4468 0026 1A65     		str	r2, [r3, #80]
 4469 0028 7B68     		ldr	r3, [r7, #4]
 4470 002a 0022     		movs	r2, #0
 4471 002c 83F83C20 		strb	r2, [r3, #60]
 4472 0030 0023     		movs	r3, #0
 4473              	.L358:
 4474 0032 1846     		mov	r0, r3
 4475 0034 0C37     		adds	r7, r7, #12
 4476 0036 BD46     		mov	sp, r7
 4477              		@ sp needed
 4478 0038 5DF8047B 		ldr	r7, [sp], #4
 4479 003c 7047     		bx	lr
 4481              		.section	.text.HAL_TIMEx_CommutCallback,"ax",%progbits
 4482              		.align	1
 4483              		.weak	HAL_TIMEx_CommutCallback
 4484              		.syntax unified
 4485              		.thumb
 4486              		.thumb_func
 4488              	HAL_TIMEx_CommutCallback:
 4489              		@ args = 0, pretend = 0, frame = 8
 4490              		@ frame_needed = 1, uses_anonymous_args = 0
 4491              		@ link register save eliminated.
 4492 0000 80B4     		push	{r7}
 4493 0002 83B0     		sub	sp, sp, #12
 4494 0004 00AF     		add	r7, sp, #0
 4495 0006 7860     		str	r0, [r7, #4]
 4496 0008 00BF     		nop
 4497 000a 0C37     		adds	r7, r7, #12
 4498 000c BD46     		mov	sp, r7
 4499              		@ sp needed
 4500 000e 5DF8047B 		ldr	r7, [sp], #4
 4501 0012 7047     		bx	lr
 4503              		.section	.text.HAL_TIMEx_CommutHalfCpltCallback,"ax",%progbits
 4504              		.align	1
 4505              		.weak	HAL_TIMEx_CommutHalfCpltCallback
 4506              		.syntax unified
 4507              		.thumb
 4508              		.thumb_func
 4510              	HAL_TIMEx_CommutHalfCpltCallback:
 4511              		@ args = 0, pretend = 0, frame = 8
 4512              		@ frame_needed = 1, uses_anonymous_args = 0
 4513              		@ link register save eliminated.
ARM GAS  C:\Users\user\AppData\Local\Temp\ccegtlDB.s 			page 79


 4514 0000 80B4     		push	{r7}
 4515 0002 83B0     		sub	sp, sp, #12
 4516 0004 00AF     		add	r7, sp, #0
 4517 0006 7860     		str	r0, [r7, #4]
 4518 0008 00BF     		nop
 4519 000a 0C37     		adds	r7, r7, #12
 4520 000c BD46     		mov	sp, r7
 4521              		@ sp needed
 4522 000e 5DF8047B 		ldr	r7, [sp], #4
 4523 0012 7047     		bx	lr
 4525              		.section	.text.HAL_TIMEx_BreakCallback,"ax",%progbits
 4526              		.align	1
 4527              		.weak	HAL_TIMEx_BreakCallback
 4528              		.syntax unified
 4529              		.thumb
 4530              		.thumb_func
 4532              	HAL_TIMEx_BreakCallback:
 4533              		@ args = 0, pretend = 0, frame = 8
 4534              		@ frame_needed = 1, uses_anonymous_args = 0
 4535              		@ link register save eliminated.
 4536 0000 80B4     		push	{r7}
 4537 0002 83B0     		sub	sp, sp, #12
 4538 0004 00AF     		add	r7, sp, #0
 4539 0006 7860     		str	r0, [r7, #4]
 4540 0008 00BF     		nop
 4541 000a 0C37     		adds	r7, r7, #12
 4542 000c BD46     		mov	sp, r7
 4543              		@ sp needed
 4544 000e 5DF8047B 		ldr	r7, [sp], #4
 4545 0012 7047     		bx	lr
 4547              		.section	.text.HAL_TIMEx_HallSensor_GetState,"ax",%progbits
 4548              		.align	1
 4549              		.global	HAL_TIMEx_HallSensor_GetState
 4550              		.syntax unified
 4551              		.thumb
 4552              		.thumb_func
 4554              	HAL_TIMEx_HallSensor_GetState:
 4555              		@ args = 0, pretend = 0, frame = 8
 4556              		@ frame_needed = 1, uses_anonymous_args = 0
 4557              		@ link register save eliminated.
 4558 0000 80B4     		push	{r7}
 4559 0002 83B0     		sub	sp, sp, #12
 4560 0004 00AF     		add	r7, sp, #0
 4561 0006 7860     		str	r0, [r7, #4]
 4562 0008 7B68     		ldr	r3, [r7, #4]
 4563 000a 93F83D30 		ldrb	r3, [r3, #61]
 4564 000e DBB2     		uxtb	r3, r3
 4565 0010 1846     		mov	r0, r3
 4566 0012 0C37     		adds	r7, r7, #12
 4567 0014 BD46     		mov	sp, r7
 4568              		@ sp needed
 4569 0016 5DF8047B 		ldr	r7, [sp], #4
 4570 001a 7047     		bx	lr
 4572              		.section	.text.HAL_TIMEx_GetChannelNState,"ax",%progbits
 4573              		.align	1
 4574              		.global	HAL_TIMEx_GetChannelNState
 4575              		.syntax unified
ARM GAS  C:\Users\user\AppData\Local\Temp\ccegtlDB.s 			page 80


 4576              		.thumb
 4577              		.thumb_func
 4579              	HAL_TIMEx_GetChannelNState:
 4580              		@ args = 0, pretend = 0, frame = 16
 4581              		@ frame_needed = 1, uses_anonymous_args = 0
 4582              		@ link register save eliminated.
 4583 0000 80B4     		push	{r7}
 4584 0002 85B0     		sub	sp, sp, #20
 4585 0004 00AF     		add	r7, sp, #0
 4586 0006 7860     		str	r0, [r7, #4]
 4587 0008 3960     		str	r1, [r7]
 4588 000a 3B68     		ldr	r3, [r7]
 4589 000c 002B     		cmp	r3, #0
 4590 000e 04D1     		bne	.L365
 4591 0010 7B68     		ldr	r3, [r7, #4]
 4592 0012 93F84230 		ldrb	r3, [r3, #66]
 4593 0016 DBB2     		uxtb	r3, r3
 4594 0018 13E0     		b	.L366
 4595              	.L365:
 4596 001a 3B68     		ldr	r3, [r7]
 4597 001c 042B     		cmp	r3, #4
 4598 001e 04D1     		bne	.L367
 4599 0020 7B68     		ldr	r3, [r7, #4]
 4600 0022 93F84330 		ldrb	r3, [r3, #67]
 4601 0026 DBB2     		uxtb	r3, r3
 4602 0028 0BE0     		b	.L366
 4603              	.L367:
 4604 002a 3B68     		ldr	r3, [r7]
 4605 002c 082B     		cmp	r3, #8
 4606 002e 04D1     		bne	.L369
 4607 0030 7B68     		ldr	r3, [r7, #4]
 4608 0032 93F84430 		ldrb	r3, [r3, #68]
 4609 0036 DBB2     		uxtb	r3, r3
 4610 0038 03E0     		b	.L366
 4611              	.L369:
 4612 003a 7B68     		ldr	r3, [r7, #4]
 4613 003c 93F84530 		ldrb	r3, [r3, #69]
 4614 0040 DBB2     		uxtb	r3, r3
 4615              	.L366:
 4616 0042 FB73     		strb	r3, [r7, #15]
 4617 0044 FB7B     		ldrb	r3, [r7, #15]	@ zero_extendqisi2
 4618 0046 1846     		mov	r0, r3
 4619 0048 1437     		adds	r7, r7, #20
 4620 004a BD46     		mov	sp, r7
 4621              		@ sp needed
 4622 004c 5DF8047B 		ldr	r7, [sp], #4
 4623 0050 7047     		bx	lr
 4625              		.section	.text.TIMEx_DMACommutationCplt,"ax",%progbits
 4626              		.align	1
 4627              		.global	TIMEx_DMACommutationCplt
 4628              		.syntax unified
 4629              		.thumb
 4630              		.thumb_func
 4632              	TIMEx_DMACommutationCplt:
 4633              		@ args = 0, pretend = 0, frame = 16
 4634              		@ frame_needed = 1, uses_anonymous_args = 0
 4635 0000 80B5     		push	{r7, lr}
ARM GAS  C:\Users\user\AppData\Local\Temp\ccegtlDB.s 			page 81


 4636 0002 84B0     		sub	sp, sp, #16
 4637 0004 00AF     		add	r7, sp, #0
 4638 0006 7860     		str	r0, [r7, #4]
 4639 0008 7B68     		ldr	r3, [r7, #4]
 4640 000a 9B6B     		ldr	r3, [r3, #56]
 4641 000c FB60     		str	r3, [r7, #12]
 4642 000e FB68     		ldr	r3, [r7, #12]
 4643 0010 0122     		movs	r2, #1
 4644 0012 83F83D20 		strb	r2, [r3, #61]
 4645 0016 F868     		ldr	r0, [r7, #12]
 4646 0018 FFF7FEFF 		bl	HAL_TIMEx_CommutCallback
 4647 001c 00BF     		nop
 4648 001e 1037     		adds	r7, r7, #16
 4649 0020 BD46     		mov	sp, r7
 4650              		@ sp needed
 4651 0022 80BD     		pop	{r7, pc}
 4653              		.section	.text.TIMEx_DMACommutationHalfCplt,"ax",%progbits
 4654              		.align	1
 4655              		.global	TIMEx_DMACommutationHalfCplt
 4656              		.syntax unified
 4657              		.thumb
 4658              		.thumb_func
 4660              	TIMEx_DMACommutationHalfCplt:
 4661              		@ args = 0, pretend = 0, frame = 16
 4662              		@ frame_needed = 1, uses_anonymous_args = 0
 4663 0000 80B5     		push	{r7, lr}
 4664 0002 84B0     		sub	sp, sp, #16
 4665 0004 00AF     		add	r7, sp, #0
 4666 0006 7860     		str	r0, [r7, #4]
 4667 0008 7B68     		ldr	r3, [r7, #4]
 4668 000a 9B6B     		ldr	r3, [r3, #56]
 4669 000c FB60     		str	r3, [r7, #12]
 4670 000e FB68     		ldr	r3, [r7, #12]
 4671 0010 0122     		movs	r2, #1
 4672 0012 83F83D20 		strb	r2, [r3, #61]
 4673 0016 F868     		ldr	r0, [r7, #12]
 4674 0018 FFF7FEFF 		bl	HAL_TIMEx_CommutHalfCpltCallback
 4675 001c 00BF     		nop
 4676 001e 1037     		adds	r7, r7, #16
 4677 0020 BD46     		mov	sp, r7
 4678              		@ sp needed
 4679 0022 80BD     		pop	{r7, pc}
 4681              		.section	.text.TIM_DMADelayPulseNCplt,"ax",%progbits
 4682              		.align	1
 4683              		.syntax unified
 4684              		.thumb
 4685              		.thumb_func
 4687              	TIM_DMADelayPulseNCplt:
 4688              		@ args = 0, pretend = 0, frame = 16
 4689              		@ frame_needed = 1, uses_anonymous_args = 0
 4690 0000 80B5     		push	{r7, lr}
 4691 0002 84B0     		sub	sp, sp, #16
 4692 0004 00AF     		add	r7, sp, #0
 4693 0006 7860     		str	r0, [r7, #4]
 4694 0008 7B68     		ldr	r3, [r7, #4]
 4695 000a 9B6B     		ldr	r3, [r3, #56]
 4696 000c FB60     		str	r3, [r7, #12]
ARM GAS  C:\Users\user\AppData\Local\Temp\ccegtlDB.s 			page 82


 4697 000e FB68     		ldr	r3, [r7, #12]
 4698 0010 5B6A     		ldr	r3, [r3, #36]
 4699 0012 7A68     		ldr	r2, [r7, #4]
 4700 0014 9A42     		cmp	r2, r3
 4701 0016 0BD1     		bne	.L375
 4702 0018 FB68     		ldr	r3, [r7, #12]
 4703 001a 0122     		movs	r2, #1
 4704 001c 1A77     		strb	r2, [r3, #28]
 4705 001e 7B68     		ldr	r3, [r7, #4]
 4706 0020 DB69     		ldr	r3, [r3, #28]
 4707 0022 002B     		cmp	r3, #0
 4708 0024 36D1     		bne	.L376
 4709 0026 FB68     		ldr	r3, [r7, #12]
 4710 0028 0122     		movs	r2, #1
 4711 002a 83F84220 		strb	r2, [r3, #66]
 4712 002e 31E0     		b	.L376
 4713              	.L375:
 4714 0030 FB68     		ldr	r3, [r7, #12]
 4715 0032 9B6A     		ldr	r3, [r3, #40]
 4716 0034 7A68     		ldr	r2, [r7, #4]
 4717 0036 9A42     		cmp	r2, r3
 4718 0038 0BD1     		bne	.L377
 4719 003a FB68     		ldr	r3, [r7, #12]
 4720 003c 0222     		movs	r2, #2
 4721 003e 1A77     		strb	r2, [r3, #28]
 4722 0040 7B68     		ldr	r3, [r7, #4]
 4723 0042 DB69     		ldr	r3, [r3, #28]
 4724 0044 002B     		cmp	r3, #0
 4725 0046 25D1     		bne	.L376
 4726 0048 FB68     		ldr	r3, [r7, #12]
 4727 004a 0122     		movs	r2, #1
 4728 004c 83F84320 		strb	r2, [r3, #67]
 4729 0050 20E0     		b	.L376
 4730              	.L377:
 4731 0052 FB68     		ldr	r3, [r7, #12]
 4732 0054 DB6A     		ldr	r3, [r3, #44]
 4733 0056 7A68     		ldr	r2, [r7, #4]
 4734 0058 9A42     		cmp	r2, r3
 4735 005a 0BD1     		bne	.L378
 4736 005c FB68     		ldr	r3, [r7, #12]
 4737 005e 0422     		movs	r2, #4
 4738 0060 1A77     		strb	r2, [r3, #28]
 4739 0062 7B68     		ldr	r3, [r7, #4]
 4740 0064 DB69     		ldr	r3, [r3, #28]
 4741 0066 002B     		cmp	r3, #0
 4742 0068 14D1     		bne	.L376
 4743 006a FB68     		ldr	r3, [r7, #12]
 4744 006c 0122     		movs	r2, #1
 4745 006e 83F84420 		strb	r2, [r3, #68]
 4746 0072 0FE0     		b	.L376
 4747              	.L378:
 4748 0074 FB68     		ldr	r3, [r7, #12]
 4749 0076 1B6B     		ldr	r3, [r3, #48]
 4750 0078 7A68     		ldr	r2, [r7, #4]
 4751 007a 9A42     		cmp	r2, r3
 4752 007c 0AD1     		bne	.L376
 4753 007e FB68     		ldr	r3, [r7, #12]
ARM GAS  C:\Users\user\AppData\Local\Temp\ccegtlDB.s 			page 83


 4754 0080 0822     		movs	r2, #8
 4755 0082 1A77     		strb	r2, [r3, #28]
 4756 0084 7B68     		ldr	r3, [r7, #4]
 4757 0086 DB69     		ldr	r3, [r3, #28]
 4758 0088 002B     		cmp	r3, #0
 4759 008a 03D1     		bne	.L376
 4760 008c FB68     		ldr	r3, [r7, #12]
 4761 008e 0122     		movs	r2, #1
 4762 0090 83F84520 		strb	r2, [r3, #69]
 4763              	.L376:
 4764 0094 F868     		ldr	r0, [r7, #12]
 4765 0096 FFF7FEFF 		bl	HAL_TIM_PWM_PulseFinishedCallback
 4766 009a FB68     		ldr	r3, [r7, #12]
 4767 009c 0022     		movs	r2, #0
 4768 009e 1A77     		strb	r2, [r3, #28]
 4769 00a0 00BF     		nop
 4770 00a2 1037     		adds	r7, r7, #16
 4771 00a4 BD46     		mov	sp, r7
 4772              		@ sp needed
 4773 00a6 80BD     		pop	{r7, pc}
 4775              		.section	.text.TIM_DMAErrorCCxN,"ax",%progbits
 4776              		.align	1
 4777              		.syntax unified
 4778              		.thumb
 4779              		.thumb_func
 4781              	TIM_DMAErrorCCxN:
 4782              		@ args = 0, pretend = 0, frame = 16
 4783              		@ frame_needed = 1, uses_anonymous_args = 0
 4784 0000 80B5     		push	{r7, lr}
 4785 0002 84B0     		sub	sp, sp, #16
 4786 0004 00AF     		add	r7, sp, #0
 4787 0006 7860     		str	r0, [r7, #4]
 4788 0008 7B68     		ldr	r3, [r7, #4]
 4789 000a 9B6B     		ldr	r3, [r3, #56]
 4790 000c FB60     		str	r3, [r7, #12]
 4791 000e FB68     		ldr	r3, [r7, #12]
 4792 0010 5B6A     		ldr	r3, [r3, #36]
 4793 0012 7A68     		ldr	r2, [r7, #4]
 4794 0014 9A42     		cmp	r2, r3
 4795 0016 07D1     		bne	.L380
 4796 0018 FB68     		ldr	r3, [r7, #12]
 4797 001a 0122     		movs	r2, #1
 4798 001c 1A77     		strb	r2, [r3, #28]
 4799 001e FB68     		ldr	r3, [r7, #12]
 4800 0020 0122     		movs	r2, #1
 4801 0022 83F84220 		strb	r2, [r3, #66]
 4802 0026 18E0     		b	.L381
 4803              	.L380:
 4804 0028 FB68     		ldr	r3, [r7, #12]
 4805 002a 9B6A     		ldr	r3, [r3, #40]
 4806 002c 7A68     		ldr	r2, [r7, #4]
 4807 002e 9A42     		cmp	r2, r3
 4808 0030 07D1     		bne	.L382
 4809 0032 FB68     		ldr	r3, [r7, #12]
 4810 0034 0222     		movs	r2, #2
 4811 0036 1A77     		strb	r2, [r3, #28]
 4812 0038 FB68     		ldr	r3, [r7, #12]
ARM GAS  C:\Users\user\AppData\Local\Temp\ccegtlDB.s 			page 84


 4813 003a 0122     		movs	r2, #1
 4814 003c 83F84320 		strb	r2, [r3, #67]
 4815 0040 0BE0     		b	.L381
 4816              	.L382:
 4817 0042 FB68     		ldr	r3, [r7, #12]
 4818 0044 DB6A     		ldr	r3, [r3, #44]
 4819 0046 7A68     		ldr	r2, [r7, #4]
 4820 0048 9A42     		cmp	r2, r3
 4821 004a 06D1     		bne	.L381
 4822 004c FB68     		ldr	r3, [r7, #12]
 4823 004e 0422     		movs	r2, #4
 4824 0050 1A77     		strb	r2, [r3, #28]
 4825 0052 FB68     		ldr	r3, [r7, #12]
 4826 0054 0122     		movs	r2, #1
 4827 0056 83F84420 		strb	r2, [r3, #68]
 4828              	.L381:
 4829 005a F868     		ldr	r0, [r7, #12]
 4830 005c FFF7FEFF 		bl	HAL_TIM_ErrorCallback
 4831 0060 FB68     		ldr	r3, [r7, #12]
 4832 0062 0022     		movs	r2, #0
 4833 0064 1A77     		strb	r2, [r3, #28]
 4834 0066 00BF     		nop
 4835 0068 1037     		adds	r7, r7, #16
 4836 006a BD46     		mov	sp, r7
 4837              		@ sp needed
 4838 006c 80BD     		pop	{r7, pc}
 4840              		.section	.text.TIM_CCxNChannelCmd,"ax",%progbits
 4841              		.align	1
 4842              		.syntax unified
 4843              		.thumb
 4844              		.thumb_func
 4846              	TIM_CCxNChannelCmd:
 4847              		@ args = 0, pretend = 0, frame = 24
 4848              		@ frame_needed = 1, uses_anonymous_args = 0
 4849              		@ link register save eliminated.
 4850 0000 80B4     		push	{r7}
 4851 0002 87B0     		sub	sp, sp, #28
 4852 0004 00AF     		add	r7, sp, #0
 4853 0006 F860     		str	r0, [r7, #12]
 4854 0008 B960     		str	r1, [r7, #8]
 4855 000a 7A60     		str	r2, [r7, #4]
 4856 000c BB68     		ldr	r3, [r7, #8]
 4857 000e 03F01F03 		and	r3, r3, #31
 4858 0012 0422     		movs	r2, #4
 4859 0014 02FA03F3 		lsl	r3, r2, r3
 4860 0018 7B61     		str	r3, [r7, #20]
 4861 001a FB68     		ldr	r3, [r7, #12]
 4862 001c 1A6A     		ldr	r2, [r3, #32]
 4863 001e 7B69     		ldr	r3, [r7, #20]
 4864 0020 DB43     		mvns	r3, r3
 4865 0022 1A40     		ands	r2, r2, r3
 4866 0024 FB68     		ldr	r3, [r7, #12]
 4867 0026 1A62     		str	r2, [r3, #32]
 4868 0028 FB68     		ldr	r3, [r7, #12]
 4869 002a 1A6A     		ldr	r2, [r3, #32]
 4870 002c BB68     		ldr	r3, [r7, #8]
 4871 002e 03F01F03 		and	r3, r3, #31
ARM GAS  C:\Users\user\AppData\Local\Temp\ccegtlDB.s 			page 85


 4872 0032 7968     		ldr	r1, [r7, #4]
 4873 0034 01FA03F3 		lsl	r3, r1, r3
 4874 0038 1A43     		orrs	r2, r2, r3
 4875 003a FB68     		ldr	r3, [r7, #12]
 4876 003c 1A62     		str	r2, [r3, #32]
 4877 003e 00BF     		nop
 4878 0040 1C37     		adds	r7, r7, #28
 4879 0042 BD46     		mov	sp, r7
 4880              		@ sp needed
 4881 0044 5DF8047B 		ldr	r7, [sp], #4
 4882 0048 7047     		bx	lr
 4884              		.ident	"GCC: (GNU Tools for STM32 12.3.rel1.20240306-1730) 12.3.1 20230626"
ARM GAS  C:\Users\user\AppData\Local\Temp\ccegtlDB.s 			page 86

