ARM GAS  C:\Users\user\AppData\Local\Temp\ccqJnHtz.s 			page 1


   1              		.cpu cortex-m4
   2              		.arch armv7e-m
   3              		.fpu fpv4-sp-d16
   4              		.eabi_attribute 27, 1
   5              		.eabi_attribute 28, 1
   6              		.eabi_attribute 20, 1
   7              		.eabi_attribute 21, 1
   8              		.eabi_attribute 23, 3
   9              		.eabi_attribute 24, 1
  10              		.eabi_attribute 25, 1
  11              		.eabi_attribute 26, 1
  12              		.eabi_attribute 30, 6
  13              		.eabi_attribute 34, 1
  14              		.eabi_attribute 18, 4
  15              		.file	"stm32f4xx_hal_adc.c"
  16              		.text
  17              		.section	.text.HAL_ADC_Init,"ax",%progbits
  18              		.align	1
  19              		.global	HAL_ADC_Init
  20              		.syntax unified
  21              		.thumb
  22              		.thumb_func
  24              	HAL_ADC_Init:
  25              		@ args = 0, pretend = 0, frame = 16
  26              		@ frame_needed = 1, uses_anonymous_args = 0
  27 0000 80B5     		push	{r7, lr}
  28 0002 84B0     		sub	sp, sp, #16
  29 0004 00AF     		add	r7, sp, #0
  30 0006 7860     		str	r0, [r7, #4]
  31 0008 0023     		movs	r3, #0
  32 000a FB73     		strb	r3, [r7, #15]
  33 000c 7B68     		ldr	r3, [r7, #4]
  34 000e 002B     		cmp	r3, #0
  35 0010 01D1     		bne	.L2
  36 0012 0123     		movs	r3, #1
  37 0014 33E0     		b	.L3
  38              	.L2:
  39 0016 7B68     		ldr	r3, [r7, #4]
  40 0018 1B6C     		ldr	r3, [r3, #64]
  41 001a 002B     		cmp	r3, #0
  42 001c 09D1     		bne	.L4
  43 001e 7868     		ldr	r0, [r7, #4]
  44 0020 FFF7FEFF 		bl	HAL_ADC_MspInit
  45 0024 7B68     		ldr	r3, [r7, #4]
  46 0026 0022     		movs	r2, #0
  47 0028 5A64     		str	r2, [r3, #68]
  48 002a 7B68     		ldr	r3, [r7, #4]
  49 002c 0022     		movs	r2, #0
  50 002e 83F83C20 		strb	r2, [r3, #60]
  51              	.L4:
  52 0032 7B68     		ldr	r3, [r7, #4]
  53 0034 1B6C     		ldr	r3, [r3, #64]
  54 0036 03F01003 		and	r3, r3, #16
  55 003a 002B     		cmp	r3, #0
  56 003c 18D1     		bne	.L5
  57 003e 7B68     		ldr	r3, [r7, #4]
  58 0040 1B6C     		ldr	r3, [r3, #64]
ARM GAS  C:\Users\user\AppData\Local\Temp\ccqJnHtz.s 			page 2


  59 0042 23F48853 		bic	r3, r3, #4352
  60 0046 23F00203 		bic	r3, r3, #2
  61 004a 43F00202 		orr	r2, r3, #2
  62 004e 7B68     		ldr	r3, [r7, #4]
  63 0050 1A64     		str	r2, [r3, #64]
  64 0052 7868     		ldr	r0, [r7, #4]
  65 0054 FFF7FEFF 		bl	ADC_Init
  66 0058 7B68     		ldr	r3, [r7, #4]
  67 005a 0022     		movs	r2, #0
  68 005c 5A64     		str	r2, [r3, #68]
  69 005e 7B68     		ldr	r3, [r7, #4]
  70 0060 1B6C     		ldr	r3, [r3, #64]
  71 0062 23F00303 		bic	r3, r3, #3
  72 0066 43F00102 		orr	r2, r3, #1
  73 006a 7B68     		ldr	r3, [r7, #4]
  74 006c 1A64     		str	r2, [r3, #64]
  75 006e 01E0     		b	.L6
  76              	.L5:
  77 0070 0123     		movs	r3, #1
  78 0072 FB73     		strb	r3, [r7, #15]
  79              	.L6:
  80 0074 7B68     		ldr	r3, [r7, #4]
  81 0076 0022     		movs	r2, #0
  82 0078 83F83C20 		strb	r2, [r3, #60]
  83 007c FB7B     		ldrb	r3, [r7, #15]	@ zero_extendqisi2
  84              	.L3:
  85 007e 1846     		mov	r0, r3
  86 0080 1037     		adds	r7, r7, #16
  87 0082 BD46     		mov	sp, r7
  88              		@ sp needed
  89 0084 80BD     		pop	{r7, pc}
  91              		.section	.text.HAL_ADC_DeInit,"ax",%progbits
  92              		.align	1
  93              		.global	HAL_ADC_DeInit
  94              		.syntax unified
  95              		.thumb
  96              		.thumb_func
  98              	HAL_ADC_DeInit:
  99              		@ args = 0, pretend = 0, frame = 16
 100              		@ frame_needed = 1, uses_anonymous_args = 0
 101 0000 80B5     		push	{r7, lr}
 102 0002 84B0     		sub	sp, sp, #16
 103 0004 00AF     		add	r7, sp, #0
 104 0006 7860     		str	r0, [r7, #4]
 105 0008 0023     		movs	r3, #0
 106 000a FB73     		strb	r3, [r7, #15]
 107 000c 7B68     		ldr	r3, [r7, #4]
 108 000e 002B     		cmp	r3, #0
 109 0010 01D1     		bne	.L8
 110 0012 0123     		movs	r3, #1
 111 0014 22E0     		b	.L9
 112              	.L8:
 113 0016 7B68     		ldr	r3, [r7, #4]
 114 0018 1B6C     		ldr	r3, [r3, #64]
 115 001a 43F00202 		orr	r2, r3, #2
 116 001e 7B68     		ldr	r3, [r7, #4]
 117 0020 1A64     		str	r2, [r3, #64]
ARM GAS  C:\Users\user\AppData\Local\Temp\ccqJnHtz.s 			page 3


 118 0022 7B68     		ldr	r3, [r7, #4]
 119 0024 1B68     		ldr	r3, [r3]
 120 0026 9A68     		ldr	r2, [r3, #8]
 121 0028 7B68     		ldr	r3, [r7, #4]
 122 002a 1B68     		ldr	r3, [r3]
 123 002c 22F00102 		bic	r2, r2, #1
 124 0030 9A60     		str	r2, [r3, #8]
 125 0032 7B68     		ldr	r3, [r7, #4]
 126 0034 1B68     		ldr	r3, [r3]
 127 0036 9B68     		ldr	r3, [r3, #8]
 128 0038 03F00103 		and	r3, r3, #1
 129 003c 002B     		cmp	r3, #0
 130 003e 08D1     		bne	.L10
 131 0040 7868     		ldr	r0, [r7, #4]
 132 0042 FFF7FEFF 		bl	HAL_ADC_MspDeInit
 133 0046 7B68     		ldr	r3, [r7, #4]
 134 0048 0022     		movs	r2, #0
 135 004a 5A64     		str	r2, [r3, #68]
 136 004c 7B68     		ldr	r3, [r7, #4]
 137 004e 0022     		movs	r2, #0
 138 0050 1A64     		str	r2, [r3, #64]
 139              	.L10:
 140 0052 7B68     		ldr	r3, [r7, #4]
 141 0054 0022     		movs	r2, #0
 142 0056 83F83C20 		strb	r2, [r3, #60]
 143 005a FB7B     		ldrb	r3, [r7, #15]	@ zero_extendqisi2
 144              	.L9:
 145 005c 1846     		mov	r0, r3
 146 005e 1037     		adds	r7, r7, #16
 147 0060 BD46     		mov	sp, r7
 148              		@ sp needed
 149 0062 80BD     		pop	{r7, pc}
 151              		.section	.text.HAL_ADC_MspInit,"ax",%progbits
 152              		.align	1
 153              		.weak	HAL_ADC_MspInit
 154              		.syntax unified
 155              		.thumb
 156              		.thumb_func
 158              	HAL_ADC_MspInit:
 159              		@ args = 0, pretend = 0, frame = 8
 160              		@ frame_needed = 1, uses_anonymous_args = 0
 161              		@ link register save eliminated.
 162 0000 80B4     		push	{r7}
 163 0002 83B0     		sub	sp, sp, #12
 164 0004 00AF     		add	r7, sp, #0
 165 0006 7860     		str	r0, [r7, #4]
 166 0008 00BF     		nop
 167 000a 0C37     		adds	r7, r7, #12
 168 000c BD46     		mov	sp, r7
 169              		@ sp needed
 170 000e 5DF8047B 		ldr	r7, [sp], #4
 171 0012 7047     		bx	lr
 173              		.section	.text.HAL_ADC_MspDeInit,"ax",%progbits
 174              		.align	1
 175              		.weak	HAL_ADC_MspDeInit
 176              		.syntax unified
 177              		.thumb
ARM GAS  C:\Users\user\AppData\Local\Temp\ccqJnHtz.s 			page 4


 178              		.thumb_func
 180              	HAL_ADC_MspDeInit:
 181              		@ args = 0, pretend = 0, frame = 8
 182              		@ frame_needed = 1, uses_anonymous_args = 0
 183              		@ link register save eliminated.
 184 0000 80B4     		push	{r7}
 185 0002 83B0     		sub	sp, sp, #12
 186 0004 00AF     		add	r7, sp, #0
 187 0006 7860     		str	r0, [r7, #4]
 188 0008 00BF     		nop
 189 000a 0C37     		adds	r7, r7, #12
 190 000c BD46     		mov	sp, r7
 191              		@ sp needed
 192 000e 5DF8047B 		ldr	r7, [sp], #4
 193 0012 7047     		bx	lr
 195              		.section	.text.HAL_ADC_Start,"ax",%progbits
 196              		.align	1
 197              		.global	HAL_ADC_Start
 198              		.syntax unified
 199              		.thumb
 200              		.thumb_func
 202              	HAL_ADC_Start:
 203              		@ args = 0, pretend = 0, frame = 16
 204              		@ frame_needed = 1, uses_anonymous_args = 0
 205              		@ link register save eliminated.
 206 0000 80B4     		push	{r7}
 207 0002 85B0     		sub	sp, sp, #20
 208 0004 00AF     		add	r7, sp, #0
 209 0006 7860     		str	r0, [r7, #4]
 210 0008 0023     		movs	r3, #0
 211 000a BB60     		str	r3, [r7, #8]
 212 000c 7B68     		ldr	r3, [r7, #4]
 213 000e 93F83C30 		ldrb	r3, [r3, #60]	@ zero_extendqisi2
 214 0012 012B     		cmp	r3, #1
 215 0014 01D1     		bne	.L14
 216 0016 0223     		movs	r3, #2
 217 0018 B2E0     		b	.L15
 218              	.L14:
 219 001a 7B68     		ldr	r3, [r7, #4]
 220 001c 0122     		movs	r2, #1
 221 001e 83F83C20 		strb	r2, [r3, #60]
 222 0022 7B68     		ldr	r3, [r7, #4]
 223 0024 1B68     		ldr	r3, [r3]
 224 0026 9B68     		ldr	r3, [r3, #8]
 225 0028 03F00103 		and	r3, r3, #1
 226 002c 012B     		cmp	r3, #1
 227 002e 18D0     		beq	.L16
 228 0030 7B68     		ldr	r3, [r7, #4]
 229 0032 1B68     		ldr	r3, [r3]
 230 0034 9A68     		ldr	r2, [r3, #8]
 231 0036 7B68     		ldr	r3, [r7, #4]
 232 0038 1B68     		ldr	r3, [r3]
 233 003a 42F00102 		orr	r2, r2, #1
 234 003e 9A60     		str	r2, [r3, #8]
 235 0040 524B     		ldr	r3, .L27
 236 0042 1B68     		ldr	r3, [r3]
 237 0044 524A     		ldr	r2, .L27+4
ARM GAS  C:\Users\user\AppData\Local\Temp\ccqJnHtz.s 			page 5


 238 0046 A2FB0323 		umull	r2, r3, r2, r3
 239 004a 9A0C     		lsrs	r2, r3, #18
 240 004c 1346     		mov	r3, r2
 241 004e 5B00     		lsls	r3, r3, #1
 242 0050 1344     		add	r3, r3, r2
 243 0052 BB60     		str	r3, [r7, #8]
 244 0054 02E0     		b	.L17
 245              	.L18:
 246 0056 BB68     		ldr	r3, [r7, #8]
 247 0058 013B     		subs	r3, r3, #1
 248 005a BB60     		str	r3, [r7, #8]
 249              	.L17:
 250 005c BB68     		ldr	r3, [r7, #8]
 251 005e 002B     		cmp	r3, #0
 252 0060 F9D1     		bne	.L18
 253              	.L16:
 254 0062 7B68     		ldr	r3, [r7, #4]
 255 0064 1B68     		ldr	r3, [r3]
 256 0066 9B68     		ldr	r3, [r3, #8]
 257 0068 03F00103 		and	r3, r3, #1
 258 006c 012B     		cmp	r3, #1
 259 006e 7AD1     		bne	.L19
 260 0070 7B68     		ldr	r3, [r7, #4]
 261 0072 1B6C     		ldr	r3, [r3, #64]
 262 0074 23F4E063 		bic	r3, r3, #1792
 263 0078 23F00103 		bic	r3, r3, #1
 264 007c 43F48072 		orr	r2, r3, #256
 265 0080 7B68     		ldr	r3, [r7, #4]
 266 0082 1A64     		str	r2, [r3, #64]
 267 0084 7B68     		ldr	r3, [r7, #4]
 268 0086 1B68     		ldr	r3, [r3]
 269 0088 5B68     		ldr	r3, [r3, #4]
 270 008a 03F48063 		and	r3, r3, #1024
 271 008e 002B     		cmp	r3, #0
 272 0090 07D0     		beq	.L20
 273 0092 7B68     		ldr	r3, [r7, #4]
 274 0094 1B6C     		ldr	r3, [r3, #64]
 275 0096 23F44053 		bic	r3, r3, #12288
 276 009a 43F48052 		orr	r2, r3, #4096
 277 009e 7B68     		ldr	r3, [r7, #4]
 278 00a0 1A64     		str	r2, [r3, #64]
 279              	.L20:
 280 00a2 7B68     		ldr	r3, [r7, #4]
 281 00a4 1B6C     		ldr	r3, [r3, #64]
 282 00a6 03F48053 		and	r3, r3, #4096
 283 00aa B3F5805F 		cmp	r3, #4096
 284 00ae 06D1     		bne	.L21
 285 00b0 7B68     		ldr	r3, [r7, #4]
 286 00b2 5B6C     		ldr	r3, [r3, #68]
 287 00b4 23F00602 		bic	r2, r3, #6
 288 00b8 7B68     		ldr	r3, [r7, #4]
 289 00ba 5A64     		str	r2, [r3, #68]
 290 00bc 02E0     		b	.L22
 291              	.L21:
 292 00be 7B68     		ldr	r3, [r7, #4]
 293 00c0 0022     		movs	r2, #0
 294 00c2 5A64     		str	r2, [r3, #68]
ARM GAS  C:\Users\user\AppData\Local\Temp\ccqJnHtz.s 			page 6


 295              	.L22:
 296 00c4 7B68     		ldr	r3, [r7, #4]
 297 00c6 0022     		movs	r2, #0
 298 00c8 83F83C20 		strb	r2, [r3, #60]
 299 00cc 314B     		ldr	r3, .L27+8
 300 00ce FB60     		str	r3, [r7, #12]
 301 00d0 7B68     		ldr	r3, [r7, #4]
 302 00d2 1B68     		ldr	r3, [r3]
 303 00d4 6FF02202 		mvn	r2, #34
 304 00d8 1A60     		str	r2, [r3]
 305 00da FB68     		ldr	r3, [r7, #12]
 306 00dc 5B68     		ldr	r3, [r3, #4]
 307 00de 03F01F03 		and	r3, r3, #31
 308 00e2 002B     		cmp	r3, #0
 309 00e4 2AD1     		bne	.L23
 310 00e6 7B68     		ldr	r3, [r7, #4]
 311 00e8 1B68     		ldr	r3, [r3]
 312 00ea 2B4A     		ldr	r2, .L27+12
 313 00ec 9342     		cmp	r3, r2
 314 00ee 15D0     		beq	.L24
 315 00f0 7B68     		ldr	r3, [r7, #4]
 316 00f2 1B68     		ldr	r3, [r3]
 317 00f4 294A     		ldr	r2, .L27+16
 318 00f6 9342     		cmp	r3, r2
 319 00f8 05D1     		bne	.L25
 320 00fa 264B     		ldr	r3, .L27+8
 321 00fc 5B68     		ldr	r3, [r3, #4]
 322 00fe 03F01F03 		and	r3, r3, #31
 323 0102 002B     		cmp	r3, #0
 324 0104 0AD0     		beq	.L24
 325              	.L25:
 326 0106 7B68     		ldr	r3, [r7, #4]
 327 0108 1B68     		ldr	r3, [r3]
 328 010a 254A     		ldr	r2, .L27+20
 329 010c 9342     		cmp	r3, r2
 330 010e 36D1     		bne	.L26
 331 0110 204B     		ldr	r3, .L27+8
 332 0112 5B68     		ldr	r3, [r3, #4]
 333 0114 03F01003 		and	r3, r3, #16
 334 0118 002B     		cmp	r3, #0
 335 011a 30D1     		bne	.L26
 336              	.L24:
 337 011c 7B68     		ldr	r3, [r7, #4]
 338 011e 1B68     		ldr	r3, [r3]
 339 0120 9B68     		ldr	r3, [r3, #8]
 340 0122 03F04053 		and	r3, r3, #805306368
 341 0126 002B     		cmp	r3, #0
 342 0128 29D1     		bne	.L26
 343 012a 7B68     		ldr	r3, [r7, #4]
 344 012c 1B68     		ldr	r3, [r3]
 345 012e 9A68     		ldr	r2, [r3, #8]
 346 0130 7B68     		ldr	r3, [r7, #4]
 347 0132 1B68     		ldr	r3, [r3]
 348 0134 42F08042 		orr	r2, r2, #1073741824
 349 0138 9A60     		str	r2, [r3, #8]
 350 013a 20E0     		b	.L26
 351              	.L23:
ARM GAS  C:\Users\user\AppData\Local\Temp\ccqJnHtz.s 			page 7


 352 013c 7B68     		ldr	r3, [r7, #4]
 353 013e 1B68     		ldr	r3, [r3]
 354 0140 154A     		ldr	r2, .L27+12
 355 0142 9342     		cmp	r3, r2
 356 0144 1BD1     		bne	.L26
 357 0146 7B68     		ldr	r3, [r7, #4]
 358 0148 1B68     		ldr	r3, [r3]
 359 014a 9B68     		ldr	r3, [r3, #8]
 360 014c 03F04053 		and	r3, r3, #805306368
 361 0150 002B     		cmp	r3, #0
 362 0152 14D1     		bne	.L26
 363 0154 7B68     		ldr	r3, [r7, #4]
 364 0156 1B68     		ldr	r3, [r3]
 365 0158 9A68     		ldr	r2, [r3, #8]
 366 015a 7B68     		ldr	r3, [r7, #4]
 367 015c 1B68     		ldr	r3, [r3]
 368 015e 42F08042 		orr	r2, r2, #1073741824
 369 0162 9A60     		str	r2, [r3, #8]
 370 0164 0BE0     		b	.L26
 371              	.L19:
 372 0166 7B68     		ldr	r3, [r7, #4]
 373 0168 1B6C     		ldr	r3, [r3, #64]
 374 016a 43F01002 		orr	r2, r3, #16
 375 016e 7B68     		ldr	r3, [r7, #4]
 376 0170 1A64     		str	r2, [r3, #64]
 377 0172 7B68     		ldr	r3, [r7, #4]
 378 0174 5B6C     		ldr	r3, [r3, #68]
 379 0176 43F00102 		orr	r2, r3, #1
 380 017a 7B68     		ldr	r3, [r7, #4]
 381 017c 5A64     		str	r2, [r3, #68]
 382              	.L26:
 383 017e 0023     		movs	r3, #0
 384              	.L15:
 385 0180 1846     		mov	r0, r3
 386 0182 1437     		adds	r7, r7, #20
 387 0184 BD46     		mov	sp, r7
 388              		@ sp needed
 389 0186 5DF8047B 		ldr	r7, [sp], #4
 390 018a 7047     		bx	lr
 391              	.L28:
 392              		.align	2
 393              	.L27:
 394 018c 00000000 		.word	SystemCoreClock
 395 0190 83DE1B43 		.word	1125899907
 396 0194 00230140 		.word	1073816320
 397 0198 00200140 		.word	1073815552
 398 019c 00210140 		.word	1073815808
 399 01a0 00220140 		.word	1073816064
 401              		.section	.text.HAL_ADC_Stop,"ax",%progbits
 402              		.align	1
 403              		.global	HAL_ADC_Stop
 404              		.syntax unified
 405              		.thumb
 406              		.thumb_func
 408              	HAL_ADC_Stop:
 409              		@ args = 0, pretend = 0, frame = 8
 410              		@ frame_needed = 1, uses_anonymous_args = 0
ARM GAS  C:\Users\user\AppData\Local\Temp\ccqJnHtz.s 			page 8


 411              		@ link register save eliminated.
 412 0000 80B4     		push	{r7}
 413 0002 83B0     		sub	sp, sp, #12
 414 0004 00AF     		add	r7, sp, #0
 415 0006 7860     		str	r0, [r7, #4]
 416 0008 7B68     		ldr	r3, [r7, #4]
 417 000a 93F83C30 		ldrb	r3, [r3, #60]	@ zero_extendqisi2
 418 000e 012B     		cmp	r3, #1
 419 0010 01D1     		bne	.L30
 420 0012 0223     		movs	r3, #2
 421 0014 21E0     		b	.L31
 422              	.L30:
 423 0016 7B68     		ldr	r3, [r7, #4]
 424 0018 0122     		movs	r2, #1
 425 001a 83F83C20 		strb	r2, [r3, #60]
 426 001e 7B68     		ldr	r3, [r7, #4]
 427 0020 1B68     		ldr	r3, [r3]
 428 0022 9A68     		ldr	r2, [r3, #8]
 429 0024 7B68     		ldr	r3, [r7, #4]
 430 0026 1B68     		ldr	r3, [r3]
 431 0028 22F00102 		bic	r2, r2, #1
 432 002c 9A60     		str	r2, [r3, #8]
 433 002e 7B68     		ldr	r3, [r7, #4]
 434 0030 1B68     		ldr	r3, [r3]
 435 0032 9B68     		ldr	r3, [r3, #8]
 436 0034 03F00103 		and	r3, r3, #1
 437 0038 002B     		cmp	r3, #0
 438 003a 09D1     		bne	.L32
 439 003c 7B68     		ldr	r3, [r7, #4]
 440 003e 1B6C     		ldr	r3, [r3, #64]
 441 0040 23F48853 		bic	r3, r3, #4352
 442 0044 23F00103 		bic	r3, r3, #1
 443 0048 43F00102 		orr	r2, r3, #1
 444 004c 7B68     		ldr	r3, [r7, #4]
 445 004e 1A64     		str	r2, [r3, #64]
 446              	.L32:
 447 0050 7B68     		ldr	r3, [r7, #4]
 448 0052 0022     		movs	r2, #0
 449 0054 83F83C20 		strb	r2, [r3, #60]
 450 0058 0023     		movs	r3, #0
 451              	.L31:
 452 005a 1846     		mov	r0, r3
 453 005c 0C37     		adds	r7, r7, #12
 454 005e BD46     		mov	sp, r7
 455              		@ sp needed
 456 0060 5DF8047B 		ldr	r7, [sp], #4
 457 0064 7047     		bx	lr
 459              		.section	.text.HAL_ADC_PollForConversion,"ax",%progbits
 460              		.align	1
 461              		.global	HAL_ADC_PollForConversion
 462              		.syntax unified
 463              		.thumb
 464              		.thumb_func
 466              	HAL_ADC_PollForConversion:
 467              		@ args = 0, pretend = 0, frame = 16
 468              		@ frame_needed = 1, uses_anonymous_args = 0
 469 0000 80B5     		push	{r7, lr}
ARM GAS  C:\Users\user\AppData\Local\Temp\ccqJnHtz.s 			page 9


 470 0002 84B0     		sub	sp, sp, #16
 471 0004 00AF     		add	r7, sp, #0
 472 0006 7860     		str	r0, [r7, #4]
 473 0008 3960     		str	r1, [r7]
 474 000a 0023     		movs	r3, #0
 475 000c FB60     		str	r3, [r7, #12]
 476 000e 7B68     		ldr	r3, [r7, #4]
 477 0010 1B68     		ldr	r3, [r3]
 478 0012 9B68     		ldr	r3, [r3, #8]
 479 0014 03F48063 		and	r3, r3, #1024
 480 0018 B3F5806F 		cmp	r3, #1024
 481 001c 13D1     		bne	.L34
 482 001e 7B68     		ldr	r3, [r7, #4]
 483 0020 1B68     		ldr	r3, [r3]
 484 0022 9B68     		ldr	r3, [r3, #8]
 485 0024 03F48073 		and	r3, r3, #256
 486 0028 B3F5807F 		cmp	r3, #256
 487 002c 0BD1     		bne	.L34
 488 002e 7B68     		ldr	r3, [r7, #4]
 489 0030 1B6C     		ldr	r3, [r3, #64]
 490 0032 43F02002 		orr	r2, r3, #32
 491 0036 7B68     		ldr	r3, [r7, #4]
 492 0038 1A64     		str	r2, [r3, #64]
 493 003a 7B68     		ldr	r3, [r7, #4]
 494 003c 0022     		movs	r2, #0
 495 003e 83F83C20 		strb	r2, [r3, #60]
 496 0042 0123     		movs	r3, #1
 497 0044 63E0     		b	.L35
 498              	.L34:
 499 0046 FFF7FEFF 		bl	HAL_GetTick
 500 004a F860     		str	r0, [r7, #12]
 501 004c 21E0     		b	.L37
 502              	.L40:
 503 004e 3B68     		ldr	r3, [r7]
 504 0050 B3F1FF3F 		cmp	r3, #-1
 505 0054 1DD0     		beq	.L37
 506 0056 3B68     		ldr	r3, [r7]
 507 0058 002B     		cmp	r3, #0
 508 005a 07D0     		beq	.L38
 509 005c FFF7FEFF 		bl	HAL_GetTick
 510 0060 0246     		mov	r2, r0
 511 0062 FB68     		ldr	r3, [r7, #12]
 512 0064 D31A     		subs	r3, r2, r3
 513 0066 3A68     		ldr	r2, [r7]
 514 0068 9A42     		cmp	r2, r3
 515 006a 12D2     		bcs	.L37
 516              	.L38:
 517 006c 7B68     		ldr	r3, [r7, #4]
 518 006e 1B68     		ldr	r3, [r3]
 519 0070 1B68     		ldr	r3, [r3]
 520 0072 03F00203 		and	r3, r3, #2
 521 0076 022B     		cmp	r3, #2
 522 0078 0BD0     		beq	.L37
 523 007a 7B68     		ldr	r3, [r7, #4]
 524 007c 1B6C     		ldr	r3, [r3, #64]
 525 007e 43F00402 		orr	r2, r3, #4
 526 0082 7B68     		ldr	r3, [r7, #4]
ARM GAS  C:\Users\user\AppData\Local\Temp\ccqJnHtz.s 			page 10


 527 0084 1A64     		str	r2, [r3, #64]
 528 0086 7B68     		ldr	r3, [r7, #4]
 529 0088 0022     		movs	r2, #0
 530 008a 83F83C20 		strb	r2, [r3, #60]
 531 008e 0323     		movs	r3, #3
 532 0090 3DE0     		b	.L35
 533              	.L37:
 534 0092 7B68     		ldr	r3, [r7, #4]
 535 0094 1B68     		ldr	r3, [r3]
 536 0096 1B68     		ldr	r3, [r3]
 537 0098 03F00203 		and	r3, r3, #2
 538 009c 022B     		cmp	r3, #2
 539 009e D6D1     		bne	.L40
 540 00a0 7B68     		ldr	r3, [r7, #4]
 541 00a2 1B68     		ldr	r3, [r3]
 542 00a4 6FF01202 		mvn	r2, #18
 543 00a8 1A60     		str	r2, [r3]
 544 00aa 7B68     		ldr	r3, [r7, #4]
 545 00ac 1B6C     		ldr	r3, [r3, #64]
 546 00ae 43F40072 		orr	r2, r3, #512
 547 00b2 7B68     		ldr	r3, [r7, #4]
 548 00b4 1A64     		str	r2, [r3, #64]
 549 00b6 7B68     		ldr	r3, [r7, #4]
 550 00b8 1B68     		ldr	r3, [r3]
 551 00ba 9B68     		ldr	r3, [r3, #8]
 552 00bc 03F04053 		and	r3, r3, #805306368
 553 00c0 002B     		cmp	r3, #0
 554 00c2 23D1     		bne	.L41
 555 00c4 7B68     		ldr	r3, [r7, #4]
 556 00c6 1B7E     		ldrb	r3, [r3, #24]	@ zero_extendqisi2
 557 00c8 002B     		cmp	r3, #0
 558 00ca 1FD1     		bne	.L41
 559 00cc 7B68     		ldr	r3, [r7, #4]
 560 00ce 1B68     		ldr	r3, [r3]
 561 00d0 DB6A     		ldr	r3, [r3, #44]
 562 00d2 03F47003 		and	r3, r3, #15728640
 563 00d6 002B     		cmp	r3, #0
 564 00d8 06D0     		beq	.L42
 565 00da 7B68     		ldr	r3, [r7, #4]
 566 00dc 1B68     		ldr	r3, [r3]
 567 00de 9B68     		ldr	r3, [r3, #8]
 568 00e0 03F48063 		and	r3, r3, #1024
 569 00e4 002B     		cmp	r3, #0
 570 00e6 11D1     		bne	.L41
 571              	.L42:
 572 00e8 7B68     		ldr	r3, [r7, #4]
 573 00ea 1B6C     		ldr	r3, [r3, #64]
 574 00ec 23F48072 		bic	r2, r3, #256
 575 00f0 7B68     		ldr	r3, [r7, #4]
 576 00f2 1A64     		str	r2, [r3, #64]
 577 00f4 7B68     		ldr	r3, [r7, #4]
 578 00f6 1B6C     		ldr	r3, [r3, #64]
 579 00f8 03F48053 		and	r3, r3, #4096
 580 00fc 002B     		cmp	r3, #0
 581 00fe 05D1     		bne	.L41
 582 0100 7B68     		ldr	r3, [r7, #4]
 583 0102 1B6C     		ldr	r3, [r3, #64]
ARM GAS  C:\Users\user\AppData\Local\Temp\ccqJnHtz.s 			page 11


 584 0104 43F00102 		orr	r2, r3, #1
 585 0108 7B68     		ldr	r3, [r7, #4]
 586 010a 1A64     		str	r2, [r3, #64]
 587              	.L41:
 588 010c 0023     		movs	r3, #0
 589              	.L35:
 590 010e 1846     		mov	r0, r3
 591 0110 1037     		adds	r7, r7, #16
 592 0112 BD46     		mov	sp, r7
 593              		@ sp needed
 594 0114 80BD     		pop	{r7, pc}
 596              		.section	.text.HAL_ADC_PollForEvent,"ax",%progbits
 597              		.align	1
 598              		.global	HAL_ADC_PollForEvent
 599              		.syntax unified
 600              		.thumb
 601              		.thumb_func
 603              	HAL_ADC_PollForEvent:
 604              		@ args = 0, pretend = 0, frame = 24
 605              		@ frame_needed = 1, uses_anonymous_args = 0
 606 0000 80B5     		push	{r7, lr}
 607 0002 86B0     		sub	sp, sp, #24
 608 0004 00AF     		add	r7, sp, #0
 609 0006 F860     		str	r0, [r7, #12]
 610 0008 B960     		str	r1, [r7, #8]
 611 000a 7A60     		str	r2, [r7, #4]
 612 000c 0023     		movs	r3, #0
 613 000e 7B61     		str	r3, [r7, #20]
 614 0010 FFF7FEFF 		bl	HAL_GetTick
 615 0014 7861     		str	r0, [r7, #20]
 616 0016 22E0     		b	.L45
 617              	.L49:
 618 0018 7B68     		ldr	r3, [r7, #4]
 619 001a B3F1FF3F 		cmp	r3, #-1
 620 001e 1ED0     		beq	.L45
 621 0020 7B68     		ldr	r3, [r7, #4]
 622 0022 002B     		cmp	r3, #0
 623 0024 07D0     		beq	.L46
 624 0026 FFF7FEFF 		bl	HAL_GetTick
 625 002a 0246     		mov	r2, r0
 626 002c 7B69     		ldr	r3, [r7, #20]
 627 002e D31A     		subs	r3, r2, r3
 628 0030 7A68     		ldr	r2, [r7, #4]
 629 0032 9A42     		cmp	r2, r3
 630 0034 13D2     		bcs	.L45
 631              	.L46:
 632 0036 FB68     		ldr	r3, [r7, #12]
 633 0038 1B68     		ldr	r3, [r3]
 634 003a 1A68     		ldr	r2, [r3]
 635 003c BB68     		ldr	r3, [r7, #8]
 636 003e 1340     		ands	r3, r3, r2
 637 0040 BA68     		ldr	r2, [r7, #8]
 638 0042 9A42     		cmp	r2, r3
 639 0044 0BD0     		beq	.L45
 640 0046 FB68     		ldr	r3, [r7, #12]
 641 0048 1B6C     		ldr	r3, [r3, #64]
 642 004a 43F00402 		orr	r2, r3, #4
ARM GAS  C:\Users\user\AppData\Local\Temp\ccqJnHtz.s 			page 12


 643 004e FB68     		ldr	r3, [r7, #12]
 644 0050 1A64     		str	r2, [r3, #64]
 645 0052 FB68     		ldr	r3, [r7, #12]
 646 0054 0022     		movs	r2, #0
 647 0056 83F83C20 		strb	r2, [r3, #60]
 648 005a 0323     		movs	r3, #3
 649 005c 28E0     		b	.L48
 650              	.L45:
 651 005e FB68     		ldr	r3, [r7, #12]
 652 0060 1B68     		ldr	r3, [r3]
 653 0062 1A68     		ldr	r2, [r3]
 654 0064 BB68     		ldr	r3, [r7, #8]
 655 0066 1340     		ands	r3, r3, r2
 656 0068 BA68     		ldr	r2, [r7, #8]
 657 006a 9A42     		cmp	r2, r3
 658 006c D4D1     		bne	.L49
 659 006e BB68     		ldr	r3, [r7, #8]
 660 0070 012B     		cmp	r3, #1
 661 0072 0BD1     		bne	.L50
 662 0074 FB68     		ldr	r3, [r7, #12]
 663 0076 1B6C     		ldr	r3, [r3, #64]
 664 0078 43F48032 		orr	r2, r3, #65536
 665 007c FB68     		ldr	r3, [r7, #12]
 666 007e 1A64     		str	r2, [r3, #64]
 667 0080 FB68     		ldr	r3, [r7, #12]
 668 0082 1B68     		ldr	r3, [r3]
 669 0084 6FF00102 		mvn	r2, #1
 670 0088 1A60     		str	r2, [r3]
 671 008a 10E0     		b	.L51
 672              	.L50:
 673 008c FB68     		ldr	r3, [r7, #12]
 674 008e 1B6C     		ldr	r3, [r3, #64]
 675 0090 43F48062 		orr	r2, r3, #1024
 676 0094 FB68     		ldr	r3, [r7, #12]
 677 0096 1A64     		str	r2, [r3, #64]
 678 0098 FB68     		ldr	r3, [r7, #12]
 679 009a 5B6C     		ldr	r3, [r3, #68]
 680 009c 43F00202 		orr	r2, r3, #2
 681 00a0 FB68     		ldr	r3, [r7, #12]
 682 00a2 5A64     		str	r2, [r3, #68]
 683 00a4 FB68     		ldr	r3, [r7, #12]
 684 00a6 1B68     		ldr	r3, [r3]
 685 00a8 6FF02002 		mvn	r2, #32
 686 00ac 1A60     		str	r2, [r3]
 687              	.L51:
 688 00ae 0023     		movs	r3, #0
 689              	.L48:
 690 00b0 1846     		mov	r0, r3
 691 00b2 1837     		adds	r7, r7, #24
 692 00b4 BD46     		mov	sp, r7
 693              		@ sp needed
 694 00b6 80BD     		pop	{r7, pc}
 696              		.section	.text.HAL_ADC_Start_IT,"ax",%progbits
 697              		.align	1
 698              		.global	HAL_ADC_Start_IT
 699              		.syntax unified
 700              		.thumb
ARM GAS  C:\Users\user\AppData\Local\Temp\ccqJnHtz.s 			page 13


 701              		.thumb_func
 703              	HAL_ADC_Start_IT:
 704              		@ args = 0, pretend = 0, frame = 16
 705              		@ frame_needed = 1, uses_anonymous_args = 0
 706              		@ link register save eliminated.
 707 0000 80B4     		push	{r7}
 708 0002 85B0     		sub	sp, sp, #20
 709 0004 00AF     		add	r7, sp, #0
 710 0006 7860     		str	r0, [r7, #4]
 711 0008 0023     		movs	r3, #0
 712 000a BB60     		str	r3, [r7, #8]
 713 000c 7B68     		ldr	r3, [r7, #4]
 714 000e 93F83C30 		ldrb	r3, [r3, #60]	@ zero_extendqisi2
 715 0012 012B     		cmp	r3, #1
 716 0014 01D1     		bne	.L53
 717 0016 0223     		movs	r3, #2
 718 0018 BDE0     		b	.L54
 719              	.L53:
 720 001a 7B68     		ldr	r3, [r7, #4]
 721 001c 0122     		movs	r2, #1
 722 001e 83F83C20 		strb	r2, [r3, #60]
 723 0022 7B68     		ldr	r3, [r7, #4]
 724 0024 1B68     		ldr	r3, [r3]
 725 0026 9B68     		ldr	r3, [r3, #8]
 726 0028 03F00103 		and	r3, r3, #1
 727 002c 012B     		cmp	r3, #1
 728 002e 18D0     		beq	.L55
 729 0030 7B68     		ldr	r3, [r7, #4]
 730 0032 1B68     		ldr	r3, [r3]
 731 0034 9A68     		ldr	r2, [r3, #8]
 732 0036 7B68     		ldr	r3, [r7, #4]
 733 0038 1B68     		ldr	r3, [r3]
 734 003a 42F00102 		orr	r2, r2, #1
 735 003e 9A60     		str	r2, [r3, #8]
 736 0040 584B     		ldr	r3, .L66
 737 0042 1B68     		ldr	r3, [r3]
 738 0044 584A     		ldr	r2, .L66+4
 739 0046 A2FB0323 		umull	r2, r3, r2, r3
 740 004a 9A0C     		lsrs	r2, r3, #18
 741 004c 1346     		mov	r3, r2
 742 004e 5B00     		lsls	r3, r3, #1
 743 0050 1344     		add	r3, r3, r2
 744 0052 BB60     		str	r3, [r7, #8]
 745 0054 02E0     		b	.L56
 746              	.L57:
 747 0056 BB68     		ldr	r3, [r7, #8]
 748 0058 013B     		subs	r3, r3, #1
 749 005a BB60     		str	r3, [r7, #8]
 750              	.L56:
 751 005c BB68     		ldr	r3, [r7, #8]
 752 005e 002B     		cmp	r3, #0
 753 0060 F9D1     		bne	.L57
 754              	.L55:
 755 0062 7B68     		ldr	r3, [r7, #4]
 756 0064 1B68     		ldr	r3, [r3]
 757 0066 9B68     		ldr	r3, [r3, #8]
 758 0068 03F00103 		and	r3, r3, #1
ARM GAS  C:\Users\user\AppData\Local\Temp\ccqJnHtz.s 			page 14


 759 006c 012B     		cmp	r3, #1
 760 006e 40F08580 		bne	.L58
 761 0072 7B68     		ldr	r3, [r7, #4]
 762 0074 1B6C     		ldr	r3, [r3, #64]
 763 0076 23F4E063 		bic	r3, r3, #1792
 764 007a 23F00103 		bic	r3, r3, #1
 765 007e 43F48072 		orr	r2, r3, #256
 766 0082 7B68     		ldr	r3, [r7, #4]
 767 0084 1A64     		str	r2, [r3, #64]
 768 0086 7B68     		ldr	r3, [r7, #4]
 769 0088 1B68     		ldr	r3, [r3]
 770 008a 5B68     		ldr	r3, [r3, #4]
 771 008c 03F48063 		and	r3, r3, #1024
 772 0090 002B     		cmp	r3, #0
 773 0092 07D0     		beq	.L59
 774 0094 7B68     		ldr	r3, [r7, #4]
 775 0096 1B6C     		ldr	r3, [r3, #64]
 776 0098 23F44053 		bic	r3, r3, #12288
 777 009c 43F48052 		orr	r2, r3, #4096
 778 00a0 7B68     		ldr	r3, [r7, #4]
 779 00a2 1A64     		str	r2, [r3, #64]
 780              	.L59:
 781 00a4 7B68     		ldr	r3, [r7, #4]
 782 00a6 1B6C     		ldr	r3, [r3, #64]
 783 00a8 03F48053 		and	r3, r3, #4096
 784 00ac B3F5805F 		cmp	r3, #4096
 785 00b0 06D1     		bne	.L60
 786 00b2 7B68     		ldr	r3, [r7, #4]
 787 00b4 5B6C     		ldr	r3, [r3, #68]
 788 00b6 23F00602 		bic	r2, r3, #6
 789 00ba 7B68     		ldr	r3, [r7, #4]
 790 00bc 5A64     		str	r2, [r3, #68]
 791 00be 02E0     		b	.L61
 792              	.L60:
 793 00c0 7B68     		ldr	r3, [r7, #4]
 794 00c2 0022     		movs	r2, #0
 795 00c4 5A64     		str	r2, [r3, #68]
 796              	.L61:
 797 00c6 7B68     		ldr	r3, [r7, #4]
 798 00c8 0022     		movs	r2, #0
 799 00ca 83F83C20 		strb	r2, [r3, #60]
 800 00ce 374B     		ldr	r3, .L66+8
 801 00d0 FB60     		str	r3, [r7, #12]
 802 00d2 7B68     		ldr	r3, [r7, #4]
 803 00d4 1B68     		ldr	r3, [r3]
 804 00d6 6FF02202 		mvn	r2, #34
 805 00da 1A60     		str	r2, [r3]
 806 00dc 7B68     		ldr	r3, [r7, #4]
 807 00de 1B68     		ldr	r3, [r3]
 808 00e0 5B68     		ldr	r3, [r3, #4]
 809 00e2 7A68     		ldr	r2, [r7, #4]
 810 00e4 1268     		ldr	r2, [r2]
 811 00e6 43F08063 		orr	r3, r3, #67108864
 812 00ea 43F02003 		orr	r3, r3, #32
 813 00ee 5360     		str	r3, [r2, #4]
 814 00f0 FB68     		ldr	r3, [r7, #12]
 815 00f2 5B68     		ldr	r3, [r3, #4]
ARM GAS  C:\Users\user\AppData\Local\Temp\ccqJnHtz.s 			page 15


 816 00f4 03F01F03 		and	r3, r3, #31
 817 00f8 002B     		cmp	r3, #0
 818 00fa 2AD1     		bne	.L62
 819 00fc 7B68     		ldr	r3, [r7, #4]
 820 00fe 1B68     		ldr	r3, [r3]
 821 0100 2B4A     		ldr	r2, .L66+12
 822 0102 9342     		cmp	r3, r2
 823 0104 15D0     		beq	.L63
 824 0106 7B68     		ldr	r3, [r7, #4]
 825 0108 1B68     		ldr	r3, [r3]
 826 010a 2A4A     		ldr	r2, .L66+16
 827 010c 9342     		cmp	r3, r2
 828 010e 05D1     		bne	.L64
 829 0110 264B     		ldr	r3, .L66+8
 830 0112 5B68     		ldr	r3, [r3, #4]
 831 0114 03F01F03 		and	r3, r3, #31
 832 0118 002B     		cmp	r3, #0
 833 011a 0AD0     		beq	.L63
 834              	.L64:
 835 011c 7B68     		ldr	r3, [r7, #4]
 836 011e 1B68     		ldr	r3, [r3]
 837 0120 254A     		ldr	r2, .L66+20
 838 0122 9342     		cmp	r3, r2
 839 0124 36D1     		bne	.L65
 840 0126 214B     		ldr	r3, .L66+8
 841 0128 5B68     		ldr	r3, [r3, #4]
 842 012a 03F01003 		and	r3, r3, #16
 843 012e 002B     		cmp	r3, #0
 844 0130 30D1     		bne	.L65
 845              	.L63:
 846 0132 7B68     		ldr	r3, [r7, #4]
 847 0134 1B68     		ldr	r3, [r3]
 848 0136 9B68     		ldr	r3, [r3, #8]
 849 0138 03F04053 		and	r3, r3, #805306368
 850 013c 002B     		cmp	r3, #0
 851 013e 29D1     		bne	.L65
 852 0140 7B68     		ldr	r3, [r7, #4]
 853 0142 1B68     		ldr	r3, [r3]
 854 0144 9A68     		ldr	r2, [r3, #8]
 855 0146 7B68     		ldr	r3, [r7, #4]
 856 0148 1B68     		ldr	r3, [r3]
 857 014a 42F08042 		orr	r2, r2, #1073741824
 858 014e 9A60     		str	r2, [r3, #8]
 859 0150 20E0     		b	.L65
 860              	.L62:
 861 0152 7B68     		ldr	r3, [r7, #4]
 862 0154 1B68     		ldr	r3, [r3]
 863 0156 164A     		ldr	r2, .L66+12
 864 0158 9342     		cmp	r3, r2
 865 015a 1BD1     		bne	.L65
 866 015c 7B68     		ldr	r3, [r7, #4]
 867 015e 1B68     		ldr	r3, [r3]
 868 0160 9B68     		ldr	r3, [r3, #8]
 869 0162 03F04053 		and	r3, r3, #805306368
 870 0166 002B     		cmp	r3, #0
 871 0168 14D1     		bne	.L65
 872 016a 7B68     		ldr	r3, [r7, #4]
ARM GAS  C:\Users\user\AppData\Local\Temp\ccqJnHtz.s 			page 16


 873 016c 1B68     		ldr	r3, [r3]
 874 016e 9A68     		ldr	r2, [r3, #8]
 875 0170 7B68     		ldr	r3, [r7, #4]
 876 0172 1B68     		ldr	r3, [r3]
 877 0174 42F08042 		orr	r2, r2, #1073741824
 878 0178 9A60     		str	r2, [r3, #8]
 879 017a 0BE0     		b	.L65
 880              	.L58:
 881 017c 7B68     		ldr	r3, [r7, #4]
 882 017e 1B6C     		ldr	r3, [r3, #64]
 883 0180 43F01002 		orr	r2, r3, #16
 884 0184 7B68     		ldr	r3, [r7, #4]
 885 0186 1A64     		str	r2, [r3, #64]
 886 0188 7B68     		ldr	r3, [r7, #4]
 887 018a 5B6C     		ldr	r3, [r3, #68]
 888 018c 43F00102 		orr	r2, r3, #1
 889 0190 7B68     		ldr	r3, [r7, #4]
 890 0192 5A64     		str	r2, [r3, #68]
 891              	.L65:
 892 0194 0023     		movs	r3, #0
 893              	.L54:
 894 0196 1846     		mov	r0, r3
 895 0198 1437     		adds	r7, r7, #20
 896 019a BD46     		mov	sp, r7
 897              		@ sp needed
 898 019c 5DF8047B 		ldr	r7, [sp], #4
 899 01a0 7047     		bx	lr
 900              	.L67:
 901 01a2 00BF     		.align	2
 902              	.L66:
 903 01a4 00000000 		.word	SystemCoreClock
 904 01a8 83DE1B43 		.word	1125899907
 905 01ac 00230140 		.word	1073816320
 906 01b0 00200140 		.word	1073815552
 907 01b4 00210140 		.word	1073815808
 908 01b8 00220140 		.word	1073816064
 910              		.section	.text.HAL_ADC_Stop_IT,"ax",%progbits
 911              		.align	1
 912              		.global	HAL_ADC_Stop_IT
 913              		.syntax unified
 914              		.thumb
 915              		.thumb_func
 917              	HAL_ADC_Stop_IT:
 918              		@ args = 0, pretend = 0, frame = 8
 919              		@ frame_needed = 1, uses_anonymous_args = 0
 920              		@ link register save eliminated.
 921 0000 80B4     		push	{r7}
 922 0002 83B0     		sub	sp, sp, #12
 923 0004 00AF     		add	r7, sp, #0
 924 0006 7860     		str	r0, [r7, #4]
 925 0008 7B68     		ldr	r3, [r7, #4]
 926 000a 93F83C30 		ldrb	r3, [r3, #60]	@ zero_extendqisi2
 927 000e 012B     		cmp	r3, #1
 928 0010 01D1     		bne	.L69
 929 0012 0223     		movs	r3, #2
 930 0014 2BE0     		b	.L70
 931              	.L69:
ARM GAS  C:\Users\user\AppData\Local\Temp\ccqJnHtz.s 			page 17


 932 0016 7B68     		ldr	r3, [r7, #4]
 933 0018 0122     		movs	r2, #1
 934 001a 83F83C20 		strb	r2, [r3, #60]
 935 001e 7B68     		ldr	r3, [r7, #4]
 936 0020 1B68     		ldr	r3, [r3]
 937 0022 9A68     		ldr	r2, [r3, #8]
 938 0024 7B68     		ldr	r3, [r7, #4]
 939 0026 1B68     		ldr	r3, [r3]
 940 0028 22F00102 		bic	r2, r2, #1
 941 002c 9A60     		str	r2, [r3, #8]
 942 002e 7B68     		ldr	r3, [r7, #4]
 943 0030 1B68     		ldr	r3, [r3]
 944 0032 9B68     		ldr	r3, [r3, #8]
 945 0034 03F00103 		and	r3, r3, #1
 946 0038 002B     		cmp	r3, #0
 947 003a 13D1     		bne	.L71
 948 003c 7B68     		ldr	r3, [r7, #4]
 949 003e 1B68     		ldr	r3, [r3]
 950 0040 5B68     		ldr	r3, [r3, #4]
 951 0042 7A68     		ldr	r2, [r7, #4]
 952 0044 1268     		ldr	r2, [r2]
 953 0046 23F08063 		bic	r3, r3, #67108864
 954 004a 23F02003 		bic	r3, r3, #32
 955 004e 5360     		str	r3, [r2, #4]
 956 0050 7B68     		ldr	r3, [r7, #4]
 957 0052 1B6C     		ldr	r3, [r3, #64]
 958 0054 23F48853 		bic	r3, r3, #4352
 959 0058 23F00103 		bic	r3, r3, #1
 960 005c 43F00102 		orr	r2, r3, #1
 961 0060 7B68     		ldr	r3, [r7, #4]
 962 0062 1A64     		str	r2, [r3, #64]
 963              	.L71:
 964 0064 7B68     		ldr	r3, [r7, #4]
 965 0066 0022     		movs	r2, #0
 966 0068 83F83C20 		strb	r2, [r3, #60]
 967 006c 0023     		movs	r3, #0
 968              	.L70:
 969 006e 1846     		mov	r0, r3
 970 0070 0C37     		adds	r7, r7, #12
 971 0072 BD46     		mov	sp, r7
 972              		@ sp needed
 973 0074 5DF8047B 		ldr	r7, [sp], #4
 974 0078 7047     		bx	lr
 976              		.section	.text.HAL_ADC_IRQHandler,"ax",%progbits
 977              		.align	1
 978              		.global	HAL_ADC_IRQHandler
 979              		.syntax unified
 980              		.thumb
 981              		.thumb_func
 983              	HAL_ADC_IRQHandler:
 984              		@ args = 0, pretend = 0, frame = 24
 985              		@ frame_needed = 1, uses_anonymous_args = 0
 986 0000 80B5     		push	{r7, lr}
 987 0002 86B0     		sub	sp, sp, #24
 988 0004 00AF     		add	r7, sp, #0
 989 0006 7860     		str	r0, [r7, #4]
 990 0008 0023     		movs	r3, #0
ARM GAS  C:\Users\user\AppData\Local\Temp\ccqJnHtz.s 			page 18


 991 000a 7B61     		str	r3, [r7, #20]
 992 000c 0023     		movs	r3, #0
 993 000e 3B61     		str	r3, [r7, #16]
 994 0010 7B68     		ldr	r3, [r7, #4]
 995 0012 1B68     		ldr	r3, [r3]
 996 0014 1B68     		ldr	r3, [r3]
 997 0016 FB60     		str	r3, [r7, #12]
 998 0018 7B68     		ldr	r3, [r7, #4]
 999 001a 1B68     		ldr	r3, [r3]
 1000 001c 5B68     		ldr	r3, [r3, #4]
 1001 001e BB60     		str	r3, [r7, #8]
 1002 0020 FB68     		ldr	r3, [r7, #12]
 1003 0022 03F00203 		and	r3, r3, #2
 1004 0026 7B61     		str	r3, [r7, #20]
 1005 0028 BB68     		ldr	r3, [r7, #8]
 1006 002a 03F02003 		and	r3, r3, #32
 1007 002e 3B61     		str	r3, [r7, #16]
 1008 0030 7B69     		ldr	r3, [r7, #20]
 1009 0032 002B     		cmp	r3, #0
 1010 0034 49D0     		beq	.L73
 1011 0036 3B69     		ldr	r3, [r7, #16]
 1012 0038 002B     		cmp	r3, #0
 1013 003a 46D0     		beq	.L73
 1014 003c 7B68     		ldr	r3, [r7, #4]
 1015 003e 1B6C     		ldr	r3, [r3, #64]
 1016 0040 03F01003 		and	r3, r3, #16
 1017 0044 002B     		cmp	r3, #0
 1018 0046 05D1     		bne	.L74
 1019 0048 7B68     		ldr	r3, [r7, #4]
 1020 004a 1B6C     		ldr	r3, [r3, #64]
 1021 004c 43F40072 		orr	r2, r3, #512
 1022 0050 7B68     		ldr	r3, [r7, #4]
 1023 0052 1A64     		str	r2, [r3, #64]
 1024              	.L74:
 1025 0054 7B68     		ldr	r3, [r7, #4]
 1026 0056 1B68     		ldr	r3, [r3]
 1027 0058 9B68     		ldr	r3, [r3, #8]
 1028 005a 03F04053 		and	r3, r3, #805306368
 1029 005e 002B     		cmp	r3, #0
 1030 0060 2BD1     		bne	.L75
 1031 0062 7B68     		ldr	r3, [r7, #4]
 1032 0064 1B7E     		ldrb	r3, [r3, #24]	@ zero_extendqisi2
 1033 0066 002B     		cmp	r3, #0
 1034 0068 27D1     		bne	.L75
 1035 006a 7B68     		ldr	r3, [r7, #4]
 1036 006c 1B68     		ldr	r3, [r3]
 1037 006e DB6A     		ldr	r3, [r3, #44]
 1038 0070 03F47003 		and	r3, r3, #15728640
 1039 0074 002B     		cmp	r3, #0
 1040 0076 06D0     		beq	.L76
 1041 0078 7B68     		ldr	r3, [r7, #4]
 1042 007a 1B68     		ldr	r3, [r3]
 1043 007c 9B68     		ldr	r3, [r3, #8]
 1044 007e 03F48063 		and	r3, r3, #1024
 1045 0082 002B     		cmp	r3, #0
 1046 0084 19D1     		bne	.L75
 1047              	.L76:
ARM GAS  C:\Users\user\AppData\Local\Temp\ccqJnHtz.s 			page 19


 1048 0086 7B68     		ldr	r3, [r7, #4]
 1049 0088 1B68     		ldr	r3, [r3]
 1050 008a 5A68     		ldr	r2, [r3, #4]
 1051 008c 7B68     		ldr	r3, [r7, #4]
 1052 008e 1B68     		ldr	r3, [r3]
 1053 0090 22F02002 		bic	r2, r2, #32
 1054 0094 5A60     		str	r2, [r3, #4]
 1055 0096 7B68     		ldr	r3, [r7, #4]
 1056 0098 1B6C     		ldr	r3, [r3, #64]
 1057 009a 23F48072 		bic	r2, r3, #256
 1058 009e 7B68     		ldr	r3, [r7, #4]
 1059 00a0 1A64     		str	r2, [r3, #64]
 1060 00a2 7B68     		ldr	r3, [r7, #4]
 1061 00a4 1B6C     		ldr	r3, [r3, #64]
 1062 00a6 03F48053 		and	r3, r3, #4096
 1063 00aa 002B     		cmp	r3, #0
 1064 00ac 05D1     		bne	.L75
 1065 00ae 7B68     		ldr	r3, [r7, #4]
 1066 00b0 1B6C     		ldr	r3, [r3, #64]
 1067 00b2 43F00102 		orr	r2, r3, #1
 1068 00b6 7B68     		ldr	r3, [r7, #4]
 1069 00b8 1A64     		str	r2, [r3, #64]
 1070              	.L75:
 1071 00ba 7868     		ldr	r0, [r7, #4]
 1072 00bc FFF7FEFF 		bl	HAL_ADC_ConvCpltCallback
 1073 00c0 7B68     		ldr	r3, [r7, #4]
 1074 00c2 1B68     		ldr	r3, [r3]
 1075 00c4 6FF01202 		mvn	r2, #18
 1076 00c8 1A60     		str	r2, [r3]
 1077              	.L73:
 1078 00ca FB68     		ldr	r3, [r7, #12]
 1079 00cc 03F00403 		and	r3, r3, #4
 1080 00d0 7B61     		str	r3, [r7, #20]
 1081 00d2 BB68     		ldr	r3, [r7, #8]
 1082 00d4 03F08003 		and	r3, r3, #128
 1083 00d8 3B61     		str	r3, [r7, #16]
 1084 00da 7B69     		ldr	r3, [r7, #20]
 1085 00dc 002B     		cmp	r3, #0
 1086 00de 57D0     		beq	.L77
 1087 00e0 3B69     		ldr	r3, [r7, #16]
 1088 00e2 002B     		cmp	r3, #0
 1089 00e4 54D0     		beq	.L77
 1090 00e6 7B68     		ldr	r3, [r7, #4]
 1091 00e8 1B6C     		ldr	r3, [r3, #64]
 1092 00ea 03F01003 		and	r3, r3, #16
 1093 00ee 002B     		cmp	r3, #0
 1094 00f0 05D1     		bne	.L78
 1095 00f2 7B68     		ldr	r3, [r7, #4]
 1096 00f4 1B6C     		ldr	r3, [r3, #64]
 1097 00f6 43F40052 		orr	r2, r3, #8192
 1098 00fa 7B68     		ldr	r3, [r7, #4]
 1099 00fc 1A64     		str	r2, [r3, #64]
 1100              	.L78:
 1101 00fe 7B68     		ldr	r3, [r7, #4]
 1102 0100 1B68     		ldr	r3, [r3]
 1103 0102 9B68     		ldr	r3, [r3, #8]
 1104 0104 03F44013 		and	r3, r3, #3145728
ARM GAS  C:\Users\user\AppData\Local\Temp\ccqJnHtz.s 			page 20


 1105 0108 002B     		cmp	r3, #0
 1106 010a 39D1     		bne	.L79
 1107 010c 7B68     		ldr	r3, [r7, #4]
 1108 010e 1B68     		ldr	r3, [r3]
 1109 0110 9B6B     		ldr	r3, [r3, #56]
 1110 0112 03F44013 		and	r3, r3, #3145728
 1111 0116 002B     		cmp	r3, #0
 1112 0118 06D0     		beq	.L80
 1113 011a 7B68     		ldr	r3, [r7, #4]
 1114 011c 1B68     		ldr	r3, [r3]
 1115 011e 9B68     		ldr	r3, [r3, #8]
 1116 0120 03F48063 		and	r3, r3, #1024
 1117 0124 002B     		cmp	r3, #0
 1118 0126 2BD1     		bne	.L79
 1119              	.L80:
 1120 0128 7B68     		ldr	r3, [r7, #4]
 1121 012a 1B68     		ldr	r3, [r3]
 1122 012c 5B68     		ldr	r3, [r3, #4]
 1123 012e 03F48063 		and	r3, r3, #1024
 1124 0132 002B     		cmp	r3, #0
 1125 0134 24D1     		bne	.L79
 1126 0136 7B68     		ldr	r3, [r7, #4]
 1127 0138 1B68     		ldr	r3, [r3]
 1128 013a 9B68     		ldr	r3, [r3, #8]
 1129 013c 03F04053 		and	r3, r3, #805306368
 1130 0140 002B     		cmp	r3, #0
 1131 0142 1DD1     		bne	.L79
 1132 0144 7B68     		ldr	r3, [r7, #4]
 1133 0146 1B7E     		ldrb	r3, [r3, #24]	@ zero_extendqisi2
 1134 0148 002B     		cmp	r3, #0
 1135 014a 19D1     		bne	.L79
 1136 014c 7B68     		ldr	r3, [r7, #4]
 1137 014e 1B68     		ldr	r3, [r3]
 1138 0150 5A68     		ldr	r2, [r3, #4]
 1139 0152 7B68     		ldr	r3, [r7, #4]
 1140 0154 1B68     		ldr	r3, [r3]
 1141 0156 22F08002 		bic	r2, r2, #128
 1142 015a 5A60     		str	r2, [r3, #4]
 1143 015c 7B68     		ldr	r3, [r7, #4]
 1144 015e 1B6C     		ldr	r3, [r3, #64]
 1145 0160 23F48052 		bic	r2, r3, #4096
 1146 0164 7B68     		ldr	r3, [r7, #4]
 1147 0166 1A64     		str	r2, [r3, #64]
 1148 0168 7B68     		ldr	r3, [r7, #4]
 1149 016a 1B6C     		ldr	r3, [r3, #64]
 1150 016c 03F48073 		and	r3, r3, #256
 1151 0170 002B     		cmp	r3, #0
 1152 0172 05D1     		bne	.L79
 1153 0174 7B68     		ldr	r3, [r7, #4]
 1154 0176 1B6C     		ldr	r3, [r3, #64]
 1155 0178 43F00102 		orr	r2, r3, #1
 1156 017c 7B68     		ldr	r3, [r7, #4]
 1157 017e 1A64     		str	r2, [r3, #64]
 1158              	.L79:
 1159 0180 7868     		ldr	r0, [r7, #4]
 1160 0182 FFF7FEFF 		bl	HAL_ADCEx_InjectedConvCpltCallback
 1161 0186 7B68     		ldr	r3, [r7, #4]
ARM GAS  C:\Users\user\AppData\Local\Temp\ccqJnHtz.s 			page 21


 1162 0188 1B68     		ldr	r3, [r3]
 1163 018a 6FF00C02 		mvn	r2, #12
 1164 018e 1A60     		str	r2, [r3]
 1165              	.L77:
 1166 0190 FB68     		ldr	r3, [r7, #12]
 1167 0192 03F00103 		and	r3, r3, #1
 1168 0196 7B61     		str	r3, [r7, #20]
 1169 0198 BB68     		ldr	r3, [r7, #8]
 1170 019a 03F04003 		and	r3, r3, #64
 1171 019e 3B61     		str	r3, [r7, #16]
 1172 01a0 7B69     		ldr	r3, [r7, #20]
 1173 01a2 002B     		cmp	r3, #0
 1174 01a4 17D0     		beq	.L81
 1175 01a6 3B69     		ldr	r3, [r7, #16]
 1176 01a8 002B     		cmp	r3, #0
 1177 01aa 14D0     		beq	.L81
 1178 01ac 7B68     		ldr	r3, [r7, #4]
 1179 01ae 1B68     		ldr	r3, [r3]
 1180 01b0 1B68     		ldr	r3, [r3]
 1181 01b2 03F00103 		and	r3, r3, #1
 1182 01b6 012B     		cmp	r3, #1
 1183 01b8 0DD1     		bne	.L81
 1184 01ba 7B68     		ldr	r3, [r7, #4]
 1185 01bc 1B6C     		ldr	r3, [r3, #64]
 1186 01be 43F48032 		orr	r2, r3, #65536
 1187 01c2 7B68     		ldr	r3, [r7, #4]
 1188 01c4 1A64     		str	r2, [r3, #64]
 1189 01c6 7868     		ldr	r0, [r7, #4]
 1190 01c8 FFF7FEFF 		bl	HAL_ADC_LevelOutOfWindowCallback
 1191 01cc 7B68     		ldr	r3, [r7, #4]
 1192 01ce 1B68     		ldr	r3, [r3]
 1193 01d0 6FF00102 		mvn	r2, #1
 1194 01d4 1A60     		str	r2, [r3]
 1195              	.L81:
 1196 01d6 FB68     		ldr	r3, [r7, #12]
 1197 01d8 03F02003 		and	r3, r3, #32
 1198 01dc 7B61     		str	r3, [r7, #20]
 1199 01de BB68     		ldr	r3, [r7, #8]
 1200 01e0 03F08063 		and	r3, r3, #67108864
 1201 01e4 3B61     		str	r3, [r7, #16]
 1202 01e6 7B69     		ldr	r3, [r7, #20]
 1203 01e8 002B     		cmp	r3, #0
 1204 01ea 15D0     		beq	.L83
 1205 01ec 3B69     		ldr	r3, [r7, #16]
 1206 01ee 002B     		cmp	r3, #0
 1207 01f0 12D0     		beq	.L83
 1208 01f2 7B68     		ldr	r3, [r7, #4]
 1209 01f4 5B6C     		ldr	r3, [r3, #68]
 1210 01f6 43F00202 		orr	r2, r3, #2
 1211 01fa 7B68     		ldr	r3, [r7, #4]
 1212 01fc 5A64     		str	r2, [r3, #68]
 1213 01fe 7B68     		ldr	r3, [r7, #4]
 1214 0200 1B68     		ldr	r3, [r3]
 1215 0202 6FF02002 		mvn	r2, #32
 1216 0206 1A60     		str	r2, [r3]
 1217 0208 7868     		ldr	r0, [r7, #4]
 1218 020a FFF7FEFF 		bl	HAL_ADC_ErrorCallback
ARM GAS  C:\Users\user\AppData\Local\Temp\ccqJnHtz.s 			page 22


 1219 020e 7B68     		ldr	r3, [r7, #4]
 1220 0210 1B68     		ldr	r3, [r3]
 1221 0212 6FF02002 		mvn	r2, #32
 1222 0216 1A60     		str	r2, [r3]
 1223              	.L83:
 1224 0218 00BF     		nop
 1225 021a 1837     		adds	r7, r7, #24
 1226 021c BD46     		mov	sp, r7
 1227              		@ sp needed
 1228 021e 80BD     		pop	{r7, pc}
 1230              		.section	.text.HAL_ADC_Start_DMA,"ax",%progbits
 1231              		.align	1
 1232              		.global	HAL_ADC_Start_DMA
 1233              		.syntax unified
 1234              		.thumb
 1235              		.thumb_func
 1237              	HAL_ADC_Start_DMA:
 1238              		@ args = 0, pretend = 0, frame = 24
 1239              		@ frame_needed = 1, uses_anonymous_args = 0
 1240 0000 80B5     		push	{r7, lr}
 1241 0002 86B0     		sub	sp, sp, #24
 1242 0004 00AF     		add	r7, sp, #0
 1243 0006 F860     		str	r0, [r7, #12]
 1244 0008 B960     		str	r1, [r7, #8]
 1245 000a 7A60     		str	r2, [r7, #4]
 1246 000c 0023     		movs	r3, #0
 1247 000e 3B61     		str	r3, [r7, #16]
 1248 0010 FB68     		ldr	r3, [r7, #12]
 1249 0012 93F83C30 		ldrb	r3, [r3, #60]	@ zero_extendqisi2
 1250 0016 012B     		cmp	r3, #1
 1251 0018 01D1     		bne	.L85
 1252 001a 0223     		movs	r3, #2
 1253 001c E9E0     		b	.L86
 1254              	.L85:
 1255 001e FB68     		ldr	r3, [r7, #12]
 1256 0020 0122     		movs	r2, #1
 1257 0022 83F83C20 		strb	r2, [r3, #60]
 1258 0026 FB68     		ldr	r3, [r7, #12]
 1259 0028 1B68     		ldr	r3, [r3]
 1260 002a 9B68     		ldr	r3, [r3, #8]
 1261 002c 03F00103 		and	r3, r3, #1
 1262 0030 012B     		cmp	r3, #1
 1263 0032 18D0     		beq	.L87
 1264 0034 FB68     		ldr	r3, [r7, #12]
 1265 0036 1B68     		ldr	r3, [r3]
 1266 0038 9A68     		ldr	r2, [r3, #8]
 1267 003a FB68     		ldr	r3, [r7, #12]
 1268 003c 1B68     		ldr	r3, [r3]
 1269 003e 42F00102 		orr	r2, r2, #1
 1270 0042 9A60     		str	r2, [r3, #8]
 1271 0044 6D4B     		ldr	r3, .L99
 1272 0046 1B68     		ldr	r3, [r3]
 1273 0048 6D4A     		ldr	r2, .L99+4
 1274 004a A2FB0323 		umull	r2, r3, r2, r3
 1275 004e 9A0C     		lsrs	r2, r3, #18
 1276 0050 1346     		mov	r3, r2
 1277 0052 5B00     		lsls	r3, r3, #1
ARM GAS  C:\Users\user\AppData\Local\Temp\ccqJnHtz.s 			page 23


 1278 0054 1344     		add	r3, r3, r2
 1279 0056 3B61     		str	r3, [r7, #16]
 1280 0058 02E0     		b	.L88
 1281              	.L89:
 1282 005a 3B69     		ldr	r3, [r7, #16]
 1283 005c 013B     		subs	r3, r3, #1
 1284 005e 3B61     		str	r3, [r7, #16]
 1285              	.L88:
 1286 0060 3B69     		ldr	r3, [r7, #16]
 1287 0062 002B     		cmp	r3, #0
 1288 0064 F9D1     		bne	.L89
 1289              	.L87:
 1290 0066 FB68     		ldr	r3, [r7, #12]
 1291 0068 1B68     		ldr	r3, [r3]
 1292 006a 9B68     		ldr	r3, [r3, #8]
 1293 006c 03F48073 		and	r3, r3, #256
 1294 0070 B3F5807F 		cmp	r3, #256
 1295 0074 07D1     		bne	.L90
 1296 0076 FB68     		ldr	r3, [r7, #12]
 1297 0078 1B68     		ldr	r3, [r3]
 1298 007a 9A68     		ldr	r2, [r3, #8]
 1299 007c FB68     		ldr	r3, [r7, #12]
 1300 007e 1B68     		ldr	r3, [r3]
 1301 0080 22F48072 		bic	r2, r2, #256
 1302 0084 9A60     		str	r2, [r3, #8]
 1303              	.L90:
 1304 0086 FB68     		ldr	r3, [r7, #12]
 1305 0088 1B68     		ldr	r3, [r3]
 1306 008a 9B68     		ldr	r3, [r3, #8]
 1307 008c 03F00103 		and	r3, r3, #1
 1308 0090 012B     		cmp	r3, #1
 1309 0092 40F0A180 		bne	.L91
 1310 0096 FB68     		ldr	r3, [r7, #12]
 1311 0098 1B6C     		ldr	r3, [r3, #64]
 1312 009a 23F4E063 		bic	r3, r3, #1792
 1313 009e 23F00103 		bic	r3, r3, #1
 1314 00a2 43F48072 		orr	r2, r3, #256
 1315 00a6 FB68     		ldr	r3, [r7, #12]
 1316 00a8 1A64     		str	r2, [r3, #64]
 1317 00aa FB68     		ldr	r3, [r7, #12]
 1318 00ac 1B68     		ldr	r3, [r3]
 1319 00ae 5B68     		ldr	r3, [r3, #4]
 1320 00b0 03F48063 		and	r3, r3, #1024
 1321 00b4 002B     		cmp	r3, #0
 1322 00b6 07D0     		beq	.L92
 1323 00b8 FB68     		ldr	r3, [r7, #12]
 1324 00ba 1B6C     		ldr	r3, [r3, #64]
 1325 00bc 23F44053 		bic	r3, r3, #12288
 1326 00c0 43F48052 		orr	r2, r3, #4096
 1327 00c4 FB68     		ldr	r3, [r7, #12]
 1328 00c6 1A64     		str	r2, [r3, #64]
 1329              	.L92:
 1330 00c8 FB68     		ldr	r3, [r7, #12]
 1331 00ca 1B6C     		ldr	r3, [r3, #64]
 1332 00cc 03F48053 		and	r3, r3, #4096
 1333 00d0 B3F5805F 		cmp	r3, #4096
 1334 00d4 06D1     		bne	.L93
ARM GAS  C:\Users\user\AppData\Local\Temp\ccqJnHtz.s 			page 24


 1335 00d6 FB68     		ldr	r3, [r7, #12]
 1336 00d8 5B6C     		ldr	r3, [r3, #68]
 1337 00da 23F00602 		bic	r2, r3, #6
 1338 00de FB68     		ldr	r3, [r7, #12]
 1339 00e0 5A64     		str	r2, [r3, #68]
 1340 00e2 02E0     		b	.L94
 1341              	.L93:
 1342 00e4 FB68     		ldr	r3, [r7, #12]
 1343 00e6 0022     		movs	r2, #0
 1344 00e8 5A64     		str	r2, [r3, #68]
 1345              	.L94:
 1346 00ea FB68     		ldr	r3, [r7, #12]
 1347 00ec 0022     		movs	r2, #0
 1348 00ee 83F83C20 		strb	r2, [r3, #60]
 1349 00f2 444B     		ldr	r3, .L99+8
 1350 00f4 7B61     		str	r3, [r7, #20]
 1351 00f6 FB68     		ldr	r3, [r7, #12]
 1352 00f8 9B6B     		ldr	r3, [r3, #56]
 1353 00fa 434A     		ldr	r2, .L99+12
 1354 00fc DA63     		str	r2, [r3, #60]
 1355 00fe FB68     		ldr	r3, [r7, #12]
 1356 0100 9B6B     		ldr	r3, [r3, #56]
 1357 0102 424A     		ldr	r2, .L99+16
 1358 0104 1A64     		str	r2, [r3, #64]
 1359 0106 FB68     		ldr	r3, [r7, #12]
 1360 0108 9B6B     		ldr	r3, [r3, #56]
 1361 010a 414A     		ldr	r2, .L99+20
 1362 010c DA64     		str	r2, [r3, #76]
 1363 010e FB68     		ldr	r3, [r7, #12]
 1364 0110 1B68     		ldr	r3, [r3]
 1365 0112 6FF02202 		mvn	r2, #34
 1366 0116 1A60     		str	r2, [r3]
 1367 0118 FB68     		ldr	r3, [r7, #12]
 1368 011a 1B68     		ldr	r3, [r3]
 1369 011c 5A68     		ldr	r2, [r3, #4]
 1370 011e FB68     		ldr	r3, [r7, #12]
 1371 0120 1B68     		ldr	r3, [r3]
 1372 0122 42F08062 		orr	r2, r2, #67108864
 1373 0126 5A60     		str	r2, [r3, #4]
 1374 0128 FB68     		ldr	r3, [r7, #12]
 1375 012a 1B68     		ldr	r3, [r3]
 1376 012c 9A68     		ldr	r2, [r3, #8]
 1377 012e FB68     		ldr	r3, [r7, #12]
 1378 0130 1B68     		ldr	r3, [r3]
 1379 0132 42F48072 		orr	r2, r2, #256
 1380 0136 9A60     		str	r2, [r3, #8]
 1381 0138 FB68     		ldr	r3, [r7, #12]
 1382 013a 986B     		ldr	r0, [r3, #56]
 1383 013c FB68     		ldr	r3, [r7, #12]
 1384 013e 1B68     		ldr	r3, [r3]
 1385 0140 4C33     		adds	r3, r3, #76
 1386 0142 1946     		mov	r1, r3
 1387 0144 BA68     		ldr	r2, [r7, #8]
 1388 0146 7B68     		ldr	r3, [r7, #4]
 1389 0148 FFF7FEFF 		bl	HAL_DMA_Start_IT
 1390 014c 7B69     		ldr	r3, [r7, #20]
 1391 014e 5B68     		ldr	r3, [r3, #4]
ARM GAS  C:\Users\user\AppData\Local\Temp\ccqJnHtz.s 			page 25


 1392 0150 03F01F03 		and	r3, r3, #31
 1393 0154 002B     		cmp	r3, #0
 1394 0156 2AD1     		bne	.L95
 1395 0158 FB68     		ldr	r3, [r7, #12]
 1396 015a 1B68     		ldr	r3, [r3]
 1397 015c 2D4A     		ldr	r2, .L99+24
 1398 015e 9342     		cmp	r3, r2
 1399 0160 15D0     		beq	.L96
 1400 0162 FB68     		ldr	r3, [r7, #12]
 1401 0164 1B68     		ldr	r3, [r3]
 1402 0166 2C4A     		ldr	r2, .L99+28
 1403 0168 9342     		cmp	r3, r2
 1404 016a 05D1     		bne	.L97
 1405 016c 254B     		ldr	r3, .L99+8
 1406 016e 5B68     		ldr	r3, [r3, #4]
 1407 0170 03F01F03 		and	r3, r3, #31
 1408 0174 002B     		cmp	r3, #0
 1409 0176 0AD0     		beq	.L96
 1410              	.L97:
 1411 0178 FB68     		ldr	r3, [r7, #12]
 1412 017a 1B68     		ldr	r3, [r3]
 1413 017c 274A     		ldr	r2, .L99+32
 1414 017e 9342     		cmp	r3, r2
 1415 0180 36D1     		bne	.L98
 1416 0182 204B     		ldr	r3, .L99+8
 1417 0184 5B68     		ldr	r3, [r3, #4]
 1418 0186 03F01003 		and	r3, r3, #16
 1419 018a 002B     		cmp	r3, #0
 1420 018c 30D1     		bne	.L98
 1421              	.L96:
 1422 018e FB68     		ldr	r3, [r7, #12]
 1423 0190 1B68     		ldr	r3, [r3]
 1424 0192 9B68     		ldr	r3, [r3, #8]
 1425 0194 03F04053 		and	r3, r3, #805306368
 1426 0198 002B     		cmp	r3, #0
 1427 019a 29D1     		bne	.L98
 1428 019c FB68     		ldr	r3, [r7, #12]
 1429 019e 1B68     		ldr	r3, [r3]
 1430 01a0 9A68     		ldr	r2, [r3, #8]
 1431 01a2 FB68     		ldr	r3, [r7, #12]
 1432 01a4 1B68     		ldr	r3, [r3]
 1433 01a6 42F08042 		orr	r2, r2, #1073741824
 1434 01aa 9A60     		str	r2, [r3, #8]
 1435 01ac 20E0     		b	.L98
 1436              	.L95:
 1437 01ae FB68     		ldr	r3, [r7, #12]
 1438 01b0 1B68     		ldr	r3, [r3]
 1439 01b2 184A     		ldr	r2, .L99+24
 1440 01b4 9342     		cmp	r3, r2
 1441 01b6 1BD1     		bne	.L98
 1442 01b8 FB68     		ldr	r3, [r7, #12]
 1443 01ba 1B68     		ldr	r3, [r3]
 1444 01bc 9B68     		ldr	r3, [r3, #8]
 1445 01be 03F04053 		and	r3, r3, #805306368
 1446 01c2 002B     		cmp	r3, #0
 1447 01c4 14D1     		bne	.L98
 1448 01c6 FB68     		ldr	r3, [r7, #12]
ARM GAS  C:\Users\user\AppData\Local\Temp\ccqJnHtz.s 			page 26


 1449 01c8 1B68     		ldr	r3, [r3]
 1450 01ca 9A68     		ldr	r2, [r3, #8]
 1451 01cc FB68     		ldr	r3, [r7, #12]
 1452 01ce 1B68     		ldr	r3, [r3]
 1453 01d0 42F08042 		orr	r2, r2, #1073741824
 1454 01d4 9A60     		str	r2, [r3, #8]
 1455 01d6 0BE0     		b	.L98
 1456              	.L91:
 1457 01d8 FB68     		ldr	r3, [r7, #12]
 1458 01da 1B6C     		ldr	r3, [r3, #64]
 1459 01dc 43F01002 		orr	r2, r3, #16
 1460 01e0 FB68     		ldr	r3, [r7, #12]
 1461 01e2 1A64     		str	r2, [r3, #64]
 1462 01e4 FB68     		ldr	r3, [r7, #12]
 1463 01e6 5B6C     		ldr	r3, [r3, #68]
 1464 01e8 43F00102 		orr	r2, r3, #1
 1465 01ec FB68     		ldr	r3, [r7, #12]
 1466 01ee 5A64     		str	r2, [r3, #68]
 1467              	.L98:
 1468 01f0 0023     		movs	r3, #0
 1469              	.L86:
 1470 01f2 1846     		mov	r0, r3
 1471 01f4 1837     		adds	r7, r7, #24
 1472 01f6 BD46     		mov	sp, r7
 1473              		@ sp needed
 1474 01f8 80BD     		pop	{r7, pc}
 1475              	.L100:
 1476 01fa 00BF     		.align	2
 1477              	.L99:
 1478 01fc 00000000 		.word	SystemCoreClock
 1479 0200 83DE1B43 		.word	1125899907
 1480 0204 00230140 		.word	1073816320
 1481 0208 00000000 		.word	ADC_DMAConvCplt
 1482 020c 00000000 		.word	ADC_DMAHalfConvCplt
 1483 0210 00000000 		.word	ADC_DMAError
 1484 0214 00200140 		.word	1073815552
 1485 0218 00210140 		.word	1073815808
 1486 021c 00220140 		.word	1073816064
 1488              		.section	.text.HAL_ADC_Stop_DMA,"ax",%progbits
 1489              		.align	1
 1490              		.global	HAL_ADC_Stop_DMA
 1491              		.syntax unified
 1492              		.thumb
 1493              		.thumb_func
 1495              	HAL_ADC_Stop_DMA:
 1496              		@ args = 0, pretend = 0, frame = 16
 1497              		@ frame_needed = 1, uses_anonymous_args = 0
 1498 0000 80B5     		push	{r7, lr}
 1499 0002 84B0     		sub	sp, sp, #16
 1500 0004 00AF     		add	r7, sp, #0
 1501 0006 7860     		str	r0, [r7, #4]
 1502 0008 0023     		movs	r3, #0
 1503 000a FB73     		strb	r3, [r7, #15]
 1504 000c 7B68     		ldr	r3, [r7, #4]
 1505 000e 93F83C30 		ldrb	r3, [r3, #60]	@ zero_extendqisi2
 1506 0012 012B     		cmp	r3, #1
 1507 0014 01D1     		bne	.L102
ARM GAS  C:\Users\user\AppData\Local\Temp\ccqJnHtz.s 			page 27


 1508 0016 0223     		movs	r3, #2
 1509 0018 48E0     		b	.L103
 1510              	.L102:
 1511 001a 7B68     		ldr	r3, [r7, #4]
 1512 001c 0122     		movs	r2, #1
 1513 001e 83F83C20 		strb	r2, [r3, #60]
 1514 0022 7B68     		ldr	r3, [r7, #4]
 1515 0024 1B68     		ldr	r3, [r3]
 1516 0026 9A68     		ldr	r2, [r3, #8]
 1517 0028 7B68     		ldr	r3, [r7, #4]
 1518 002a 1B68     		ldr	r3, [r3]
 1519 002c 22F00102 		bic	r2, r2, #1
 1520 0030 9A60     		str	r2, [r3, #8]
 1521 0032 7B68     		ldr	r3, [r7, #4]
 1522 0034 1B68     		ldr	r3, [r3]
 1523 0036 9B68     		ldr	r3, [r3, #8]
 1524 0038 03F00103 		and	r3, r3, #1
 1525 003c 002B     		cmp	r3, #0
 1526 003e 30D1     		bne	.L104
 1527 0040 7B68     		ldr	r3, [r7, #4]
 1528 0042 1B68     		ldr	r3, [r3]
 1529 0044 9A68     		ldr	r2, [r3, #8]
 1530 0046 7B68     		ldr	r3, [r7, #4]
 1531 0048 1B68     		ldr	r3, [r3]
 1532 004a 22F48072 		bic	r2, r2, #256
 1533 004e 9A60     		str	r2, [r3, #8]
 1534 0050 7B68     		ldr	r3, [r7, #4]
 1535 0052 9B6B     		ldr	r3, [r3, #56]
 1536 0054 93F83530 		ldrb	r3, [r3, #53]
 1537 0058 DBB2     		uxtb	r3, r3
 1538 005a 022B     		cmp	r3, #2
 1539 005c 0FD1     		bne	.L105
 1540 005e 7B68     		ldr	r3, [r7, #4]
 1541 0060 9B6B     		ldr	r3, [r3, #56]
 1542 0062 1846     		mov	r0, r3
 1543 0064 FFF7FEFF 		bl	HAL_DMA_Abort
 1544 0068 0346     		mov	r3, r0
 1545 006a FB73     		strb	r3, [r7, #15]
 1546 006c FB7B     		ldrb	r3, [r7, #15]	@ zero_extendqisi2
 1547 006e 002B     		cmp	r3, #0
 1548 0070 05D0     		beq	.L105
 1549 0072 7B68     		ldr	r3, [r7, #4]
 1550 0074 1B6C     		ldr	r3, [r3, #64]
 1551 0076 43F04002 		orr	r2, r3, #64
 1552 007a 7B68     		ldr	r3, [r7, #4]
 1553 007c 1A64     		str	r2, [r3, #64]
 1554              	.L105:
 1555 007e 7B68     		ldr	r3, [r7, #4]
 1556 0080 1B68     		ldr	r3, [r3]
 1557 0082 5A68     		ldr	r2, [r3, #4]
 1558 0084 7B68     		ldr	r3, [r7, #4]
 1559 0086 1B68     		ldr	r3, [r3]
 1560 0088 22F08062 		bic	r2, r2, #67108864
 1561 008c 5A60     		str	r2, [r3, #4]
 1562 008e 7B68     		ldr	r3, [r7, #4]
 1563 0090 1B6C     		ldr	r3, [r3, #64]
 1564 0092 23F48853 		bic	r3, r3, #4352
ARM GAS  C:\Users\user\AppData\Local\Temp\ccqJnHtz.s 			page 28


 1565 0096 23F00103 		bic	r3, r3, #1
 1566 009a 43F00102 		orr	r2, r3, #1
 1567 009e 7B68     		ldr	r3, [r7, #4]
 1568 00a0 1A64     		str	r2, [r3, #64]
 1569              	.L104:
 1570 00a2 7B68     		ldr	r3, [r7, #4]
 1571 00a4 0022     		movs	r2, #0
 1572 00a6 83F83C20 		strb	r2, [r3, #60]
 1573 00aa FB7B     		ldrb	r3, [r7, #15]	@ zero_extendqisi2
 1574              	.L103:
 1575 00ac 1846     		mov	r0, r3
 1576 00ae 1037     		adds	r7, r7, #16
 1577 00b0 BD46     		mov	sp, r7
 1578              		@ sp needed
 1579 00b2 80BD     		pop	{r7, pc}
 1581              		.section	.text.HAL_ADC_GetValue,"ax",%progbits
 1582              		.align	1
 1583              		.global	HAL_ADC_GetValue
 1584              		.syntax unified
 1585              		.thumb
 1586              		.thumb_func
 1588              	HAL_ADC_GetValue:
 1589              		@ args = 0, pretend = 0, frame = 8
 1590              		@ frame_needed = 1, uses_anonymous_args = 0
 1591              		@ link register save eliminated.
 1592 0000 80B4     		push	{r7}
 1593 0002 83B0     		sub	sp, sp, #12
 1594 0004 00AF     		add	r7, sp, #0
 1595 0006 7860     		str	r0, [r7, #4]
 1596 0008 7B68     		ldr	r3, [r7, #4]
 1597 000a 1B68     		ldr	r3, [r3]
 1598 000c DB6C     		ldr	r3, [r3, #76]
 1599 000e 1846     		mov	r0, r3
 1600 0010 0C37     		adds	r7, r7, #12
 1601 0012 BD46     		mov	sp, r7
 1602              		@ sp needed
 1603 0014 5DF8047B 		ldr	r7, [sp], #4
 1604 0018 7047     		bx	lr
 1606              		.section	.text.HAL_ADC_ConvCpltCallback,"ax",%progbits
 1607              		.align	1
 1608              		.weak	HAL_ADC_ConvCpltCallback
 1609              		.syntax unified
 1610              		.thumb
 1611              		.thumb_func
 1613              	HAL_ADC_ConvCpltCallback:
 1614              		@ args = 0, pretend = 0, frame = 8
 1615              		@ frame_needed = 1, uses_anonymous_args = 0
 1616              		@ link register save eliminated.
 1617 0000 80B4     		push	{r7}
 1618 0002 83B0     		sub	sp, sp, #12
 1619 0004 00AF     		add	r7, sp, #0
 1620 0006 7860     		str	r0, [r7, #4]
 1621 0008 00BF     		nop
 1622 000a 0C37     		adds	r7, r7, #12
 1623 000c BD46     		mov	sp, r7
 1624              		@ sp needed
 1625 000e 5DF8047B 		ldr	r7, [sp], #4
ARM GAS  C:\Users\user\AppData\Local\Temp\ccqJnHtz.s 			page 29


 1626 0012 7047     		bx	lr
 1628              		.section	.text.HAL_ADC_ConvHalfCpltCallback,"ax",%progbits
 1629              		.align	1
 1630              		.weak	HAL_ADC_ConvHalfCpltCallback
 1631              		.syntax unified
 1632              		.thumb
 1633              		.thumb_func
 1635              	HAL_ADC_ConvHalfCpltCallback:
 1636              		@ args = 0, pretend = 0, frame = 8
 1637              		@ frame_needed = 1, uses_anonymous_args = 0
 1638              		@ link register save eliminated.
 1639 0000 80B4     		push	{r7}
 1640 0002 83B0     		sub	sp, sp, #12
 1641 0004 00AF     		add	r7, sp, #0
 1642 0006 7860     		str	r0, [r7, #4]
 1643 0008 00BF     		nop
 1644 000a 0C37     		adds	r7, r7, #12
 1645 000c BD46     		mov	sp, r7
 1646              		@ sp needed
 1647 000e 5DF8047B 		ldr	r7, [sp], #4
 1648 0012 7047     		bx	lr
 1650              		.section	.text.HAL_ADC_LevelOutOfWindowCallback,"ax",%progbits
 1651              		.align	1
 1652              		.weak	HAL_ADC_LevelOutOfWindowCallback
 1653              		.syntax unified
 1654              		.thumb
 1655              		.thumb_func
 1657              	HAL_ADC_LevelOutOfWindowCallback:
 1658              		@ args = 0, pretend = 0, frame = 8
 1659              		@ frame_needed = 1, uses_anonymous_args = 0
 1660              		@ link register save eliminated.
 1661 0000 80B4     		push	{r7}
 1662 0002 83B0     		sub	sp, sp, #12
 1663 0004 00AF     		add	r7, sp, #0
 1664 0006 7860     		str	r0, [r7, #4]
 1665 0008 00BF     		nop
 1666 000a 0C37     		adds	r7, r7, #12
 1667 000c BD46     		mov	sp, r7
 1668              		@ sp needed
 1669 000e 5DF8047B 		ldr	r7, [sp], #4
 1670 0012 7047     		bx	lr
 1672              		.section	.text.HAL_ADC_ErrorCallback,"ax",%progbits
 1673              		.align	1
 1674              		.weak	HAL_ADC_ErrorCallback
 1675              		.syntax unified
 1676              		.thumb
 1677              		.thumb_func
 1679              	HAL_ADC_ErrorCallback:
 1680              		@ args = 0, pretend = 0, frame = 8
 1681              		@ frame_needed = 1, uses_anonymous_args = 0
 1682              		@ link register save eliminated.
 1683 0000 80B4     		push	{r7}
 1684 0002 83B0     		sub	sp, sp, #12
 1685 0004 00AF     		add	r7, sp, #0
 1686 0006 7860     		str	r0, [r7, #4]
 1687 0008 00BF     		nop
 1688 000a 0C37     		adds	r7, r7, #12
ARM GAS  C:\Users\user\AppData\Local\Temp\ccqJnHtz.s 			page 30


 1689 000c BD46     		mov	sp, r7
 1690              		@ sp needed
 1691 000e 5DF8047B 		ldr	r7, [sp], #4
 1692 0012 7047     		bx	lr
 1694              		.section	.text.HAL_ADC_ConfigChannel,"ax",%progbits
 1695              		.align	1
 1696              		.global	HAL_ADC_ConfigChannel
 1697              		.syntax unified
 1698              		.thumb
 1699              		.thumb_func
 1701              	HAL_ADC_ConfigChannel:
 1702              		@ args = 0, pretend = 0, frame = 16
 1703              		@ frame_needed = 1, uses_anonymous_args = 0
 1704              		@ link register save eliminated.
 1705 0000 80B4     		push	{r7}
 1706 0002 85B0     		sub	sp, sp, #20
 1707 0004 00AF     		add	r7, sp, #0
 1708 0006 7860     		str	r0, [r7, #4]
 1709 0008 3960     		str	r1, [r7]
 1710 000a 0023     		movs	r3, #0
 1711 000c BB60     		str	r3, [r7, #8]
 1712 000e 7B68     		ldr	r3, [r7, #4]
 1713 0010 93F83C30 		ldrb	r3, [r3, #60]	@ zero_extendqisi2
 1714 0014 012B     		cmp	r3, #1
 1715 0016 01D1     		bne	.L113
 1716 0018 0223     		movs	r3, #2
 1717 001a 05E1     		b	.L114
 1718              	.L113:
 1719 001c 7B68     		ldr	r3, [r7, #4]
 1720 001e 0122     		movs	r2, #1
 1721 0020 83F83C20 		strb	r2, [r3, #60]
 1722 0024 3B68     		ldr	r3, [r7]
 1723 0026 1B68     		ldr	r3, [r3]
 1724 0028 092B     		cmp	r3, #9
 1725 002a 25D9     		bls	.L115
 1726 002c 7B68     		ldr	r3, [r7, #4]
 1727 002e 1B68     		ldr	r3, [r3]
 1728 0030 D968     		ldr	r1, [r3, #12]
 1729 0032 3B68     		ldr	r3, [r7]
 1730 0034 1B68     		ldr	r3, [r3]
 1731 0036 9BB2     		uxth	r3, r3
 1732 0038 1A46     		mov	r2, r3
 1733 003a 1346     		mov	r3, r2
 1734 003c 5B00     		lsls	r3, r3, #1
 1735 003e 1344     		add	r3, r3, r2
 1736 0040 1E3B     		subs	r3, r3, #30
 1737 0042 0722     		movs	r2, #7
 1738 0044 02FA03F3 		lsl	r3, r2, r3
 1739 0048 DA43     		mvns	r2, r3
 1740 004a 7B68     		ldr	r3, [r7, #4]
 1741 004c 1B68     		ldr	r3, [r3]
 1742 004e 0A40     		ands	r2, r2, r1
 1743 0050 DA60     		str	r2, [r3, #12]
 1744 0052 7B68     		ldr	r3, [r7, #4]
 1745 0054 1B68     		ldr	r3, [r3]
 1746 0056 D968     		ldr	r1, [r3, #12]
 1747 0058 3B68     		ldr	r3, [r7]
ARM GAS  C:\Users\user\AppData\Local\Temp\ccqJnHtz.s 			page 31


 1748 005a 9A68     		ldr	r2, [r3, #8]
 1749 005c 3B68     		ldr	r3, [r7]
 1750 005e 1B68     		ldr	r3, [r3]
 1751 0060 9BB2     		uxth	r3, r3
 1752 0062 1846     		mov	r0, r3
 1753 0064 0346     		mov	r3, r0
 1754 0066 5B00     		lsls	r3, r3, #1
 1755 0068 0344     		add	r3, r3, r0
 1756 006a 1E3B     		subs	r3, r3, #30
 1757 006c 9A40     		lsls	r2, r2, r3
 1758 006e 7B68     		ldr	r3, [r7, #4]
 1759 0070 1B68     		ldr	r3, [r3]
 1760 0072 0A43     		orrs	r2, r2, r1
 1761 0074 DA60     		str	r2, [r3, #12]
 1762 0076 22E0     		b	.L116
 1763              	.L115:
 1764 0078 7B68     		ldr	r3, [r7, #4]
 1765 007a 1B68     		ldr	r3, [r3]
 1766 007c 1969     		ldr	r1, [r3, #16]
 1767 007e 3B68     		ldr	r3, [r7]
 1768 0080 1B68     		ldr	r3, [r3]
 1769 0082 9BB2     		uxth	r3, r3
 1770 0084 1A46     		mov	r2, r3
 1771 0086 1346     		mov	r3, r2
 1772 0088 5B00     		lsls	r3, r3, #1
 1773 008a 1344     		add	r3, r3, r2
 1774 008c 0722     		movs	r2, #7
 1775 008e 02FA03F3 		lsl	r3, r2, r3
 1776 0092 DA43     		mvns	r2, r3
 1777 0094 7B68     		ldr	r3, [r7, #4]
 1778 0096 1B68     		ldr	r3, [r3]
 1779 0098 0A40     		ands	r2, r2, r1
 1780 009a 1A61     		str	r2, [r3, #16]
 1781 009c 7B68     		ldr	r3, [r7, #4]
 1782 009e 1B68     		ldr	r3, [r3]
 1783 00a0 1969     		ldr	r1, [r3, #16]
 1784 00a2 3B68     		ldr	r3, [r7]
 1785 00a4 9A68     		ldr	r2, [r3, #8]
 1786 00a6 3B68     		ldr	r3, [r7]
 1787 00a8 1B68     		ldr	r3, [r3]
 1788 00aa 9BB2     		uxth	r3, r3
 1789 00ac 1846     		mov	r0, r3
 1790 00ae 0346     		mov	r3, r0
 1791 00b0 5B00     		lsls	r3, r3, #1
 1792 00b2 0344     		add	r3, r3, r0
 1793 00b4 9A40     		lsls	r2, r2, r3
 1794 00b6 7B68     		ldr	r3, [r7, #4]
 1795 00b8 1B68     		ldr	r3, [r3]
 1796 00ba 0A43     		orrs	r2, r2, r1
 1797 00bc 1A61     		str	r2, [r3, #16]
 1798              	.L116:
 1799 00be 3B68     		ldr	r3, [r7]
 1800 00c0 5B68     		ldr	r3, [r3, #4]
 1801 00c2 062B     		cmp	r3, #6
 1802 00c4 24D8     		bhi	.L117
 1803 00c6 7B68     		ldr	r3, [r7, #4]
 1804 00c8 1B68     		ldr	r3, [r3]
ARM GAS  C:\Users\user\AppData\Local\Temp\ccqJnHtz.s 			page 32


 1805 00ca 596B     		ldr	r1, [r3, #52]
 1806 00cc 3B68     		ldr	r3, [r7]
 1807 00ce 5A68     		ldr	r2, [r3, #4]
 1808 00d0 1346     		mov	r3, r2
 1809 00d2 9B00     		lsls	r3, r3, #2
 1810 00d4 1344     		add	r3, r3, r2
 1811 00d6 053B     		subs	r3, r3, #5
 1812 00d8 1F22     		movs	r2, #31
 1813 00da 02FA03F3 		lsl	r3, r2, r3
 1814 00de DA43     		mvns	r2, r3
 1815 00e0 7B68     		ldr	r3, [r7, #4]
 1816 00e2 1B68     		ldr	r3, [r3]
 1817 00e4 0A40     		ands	r2, r2, r1
 1818 00e6 5A63     		str	r2, [r3, #52]
 1819 00e8 7B68     		ldr	r3, [r7, #4]
 1820 00ea 1B68     		ldr	r3, [r3]
 1821 00ec 596B     		ldr	r1, [r3, #52]
 1822 00ee 3B68     		ldr	r3, [r7]
 1823 00f0 1B68     		ldr	r3, [r3]
 1824 00f2 9BB2     		uxth	r3, r3
 1825 00f4 1846     		mov	r0, r3
 1826 00f6 3B68     		ldr	r3, [r7]
 1827 00f8 5A68     		ldr	r2, [r3, #4]
 1828 00fa 1346     		mov	r3, r2
 1829 00fc 9B00     		lsls	r3, r3, #2
 1830 00fe 1344     		add	r3, r3, r2
 1831 0100 053B     		subs	r3, r3, #5
 1832 0102 00FA03F2 		lsl	r2, r0, r3
 1833 0106 7B68     		ldr	r3, [r7, #4]
 1834 0108 1B68     		ldr	r3, [r3]
 1835 010a 0A43     		orrs	r2, r2, r1
 1836 010c 5A63     		str	r2, [r3, #52]
 1837 010e 4CE0     		b	.L118
 1838              	.L117:
 1839 0110 3B68     		ldr	r3, [r7]
 1840 0112 5B68     		ldr	r3, [r3, #4]
 1841 0114 0C2B     		cmp	r3, #12
 1842 0116 24D8     		bhi	.L119
 1843 0118 7B68     		ldr	r3, [r7, #4]
 1844 011a 1B68     		ldr	r3, [r3]
 1845 011c 196B     		ldr	r1, [r3, #48]
 1846 011e 3B68     		ldr	r3, [r7]
 1847 0120 5A68     		ldr	r2, [r3, #4]
 1848 0122 1346     		mov	r3, r2
 1849 0124 9B00     		lsls	r3, r3, #2
 1850 0126 1344     		add	r3, r3, r2
 1851 0128 233B     		subs	r3, r3, #35
 1852 012a 1F22     		movs	r2, #31
 1853 012c 02FA03F3 		lsl	r3, r2, r3
 1854 0130 DA43     		mvns	r2, r3
 1855 0132 7B68     		ldr	r3, [r7, #4]
 1856 0134 1B68     		ldr	r3, [r3]
 1857 0136 0A40     		ands	r2, r2, r1
 1858 0138 1A63     		str	r2, [r3, #48]
 1859 013a 7B68     		ldr	r3, [r7, #4]
 1860 013c 1B68     		ldr	r3, [r3]
 1861 013e 196B     		ldr	r1, [r3, #48]
ARM GAS  C:\Users\user\AppData\Local\Temp\ccqJnHtz.s 			page 33


 1862 0140 3B68     		ldr	r3, [r7]
 1863 0142 1B68     		ldr	r3, [r3]
 1864 0144 9BB2     		uxth	r3, r3
 1865 0146 1846     		mov	r0, r3
 1866 0148 3B68     		ldr	r3, [r7]
 1867 014a 5A68     		ldr	r2, [r3, #4]
 1868 014c 1346     		mov	r3, r2
 1869 014e 9B00     		lsls	r3, r3, #2
 1870 0150 1344     		add	r3, r3, r2
 1871 0152 233B     		subs	r3, r3, #35
 1872 0154 00FA03F2 		lsl	r2, r0, r3
 1873 0158 7B68     		ldr	r3, [r7, #4]
 1874 015a 1B68     		ldr	r3, [r3]
 1875 015c 0A43     		orrs	r2, r2, r1
 1876 015e 1A63     		str	r2, [r3, #48]
 1877 0160 23E0     		b	.L118
 1878              	.L119:
 1879 0162 7B68     		ldr	r3, [r7, #4]
 1880 0164 1B68     		ldr	r3, [r3]
 1881 0166 D96A     		ldr	r1, [r3, #44]
 1882 0168 3B68     		ldr	r3, [r7]
 1883 016a 5A68     		ldr	r2, [r3, #4]
 1884 016c 1346     		mov	r3, r2
 1885 016e 9B00     		lsls	r3, r3, #2
 1886 0170 1344     		add	r3, r3, r2
 1887 0172 413B     		subs	r3, r3, #65
 1888 0174 1F22     		movs	r2, #31
 1889 0176 02FA03F3 		lsl	r3, r2, r3
 1890 017a DA43     		mvns	r2, r3
 1891 017c 7B68     		ldr	r3, [r7, #4]
 1892 017e 1B68     		ldr	r3, [r3]
 1893 0180 0A40     		ands	r2, r2, r1
 1894 0182 DA62     		str	r2, [r3, #44]
 1895 0184 7B68     		ldr	r3, [r7, #4]
 1896 0186 1B68     		ldr	r3, [r3]
 1897 0188 D96A     		ldr	r1, [r3, #44]
 1898 018a 3B68     		ldr	r3, [r7]
 1899 018c 1B68     		ldr	r3, [r3]
 1900 018e 9BB2     		uxth	r3, r3
 1901 0190 1846     		mov	r0, r3
 1902 0192 3B68     		ldr	r3, [r7]
 1903 0194 5A68     		ldr	r2, [r3, #4]
 1904 0196 1346     		mov	r3, r2
 1905 0198 9B00     		lsls	r3, r3, #2
 1906 019a 1344     		add	r3, r3, r2
 1907 019c 413B     		subs	r3, r3, #65
 1908 019e 00FA03F2 		lsl	r2, r0, r3
 1909 01a2 7B68     		ldr	r3, [r7, #4]
 1910 01a4 1B68     		ldr	r3, [r3]
 1911 01a6 0A43     		orrs	r2, r2, r1
 1912 01a8 DA62     		str	r2, [r3, #44]
 1913              	.L118:
 1914 01aa 224B     		ldr	r3, .L125
 1915 01ac FB60     		str	r3, [r7, #12]
 1916 01ae 7B68     		ldr	r3, [r7, #4]
 1917 01b0 1B68     		ldr	r3, [r3]
 1918 01b2 214A     		ldr	r2, .L125+4
ARM GAS  C:\Users\user\AppData\Local\Temp\ccqJnHtz.s 			page 34


 1919 01b4 9342     		cmp	r3, r2
 1920 01b6 09D1     		bne	.L120
 1921 01b8 3B68     		ldr	r3, [r7]
 1922 01ba 1B68     		ldr	r3, [r3]
 1923 01bc 122B     		cmp	r3, #18
 1924 01be 05D1     		bne	.L120
 1925 01c0 FB68     		ldr	r3, [r7, #12]
 1926 01c2 5B68     		ldr	r3, [r3, #4]
 1927 01c4 43F48002 		orr	r2, r3, #4194304
 1928 01c8 FB68     		ldr	r3, [r7, #12]
 1929 01ca 5A60     		str	r2, [r3, #4]
 1930              	.L120:
 1931 01cc 7B68     		ldr	r3, [r7, #4]
 1932 01ce 1B68     		ldr	r3, [r3]
 1933 01d0 194A     		ldr	r2, .L125+4
 1934 01d2 9342     		cmp	r3, r2
 1935 01d4 23D1     		bne	.L121
 1936 01d6 3B68     		ldr	r3, [r7]
 1937 01d8 1B68     		ldr	r3, [r3]
 1938 01da 102B     		cmp	r3, #16
 1939 01dc 03D0     		beq	.L122
 1940 01de 3B68     		ldr	r3, [r7]
 1941 01e0 1B68     		ldr	r3, [r3]
 1942 01e2 112B     		cmp	r3, #17
 1943 01e4 1BD1     		bne	.L121
 1944              	.L122:
 1945 01e6 FB68     		ldr	r3, [r7, #12]
 1946 01e8 5B68     		ldr	r3, [r3, #4]
 1947 01ea 43F40002 		orr	r2, r3, #8388608
 1948 01ee FB68     		ldr	r3, [r7, #12]
 1949 01f0 5A60     		str	r2, [r3, #4]
 1950 01f2 3B68     		ldr	r3, [r7]
 1951 01f4 1B68     		ldr	r3, [r3]
 1952 01f6 102B     		cmp	r3, #16
 1953 01f8 11D1     		bne	.L121
 1954 01fa 104B     		ldr	r3, .L125+8
 1955 01fc 1B68     		ldr	r3, [r3]
 1956 01fe 104A     		ldr	r2, .L125+12
 1957 0200 A2FB0323 		umull	r2, r3, r2, r3
 1958 0204 9A0C     		lsrs	r2, r3, #18
 1959 0206 1346     		mov	r3, r2
 1960 0208 9B00     		lsls	r3, r3, #2
 1961 020a 1344     		add	r3, r3, r2
 1962 020c 5B00     		lsls	r3, r3, #1
 1963 020e BB60     		str	r3, [r7, #8]
 1964 0210 02E0     		b	.L123
 1965              	.L124:
 1966 0212 BB68     		ldr	r3, [r7, #8]
 1967 0214 013B     		subs	r3, r3, #1
 1968 0216 BB60     		str	r3, [r7, #8]
 1969              	.L123:
 1970 0218 BB68     		ldr	r3, [r7, #8]
 1971 021a 002B     		cmp	r3, #0
 1972 021c F9D1     		bne	.L124
 1973              	.L121:
 1974 021e 7B68     		ldr	r3, [r7, #4]
 1975 0220 0022     		movs	r2, #0
ARM GAS  C:\Users\user\AppData\Local\Temp\ccqJnHtz.s 			page 35


 1976 0222 83F83C20 		strb	r2, [r3, #60]
 1977 0226 0023     		movs	r3, #0
 1978              	.L114:
 1979 0228 1846     		mov	r0, r3
 1980 022a 1437     		adds	r7, r7, #20
 1981 022c BD46     		mov	sp, r7
 1982              		@ sp needed
 1983 022e 5DF8047B 		ldr	r7, [sp], #4
 1984 0232 7047     		bx	lr
 1985              	.L126:
 1986              		.align	2
 1987              	.L125:
 1988 0234 00230140 		.word	1073816320
 1989 0238 00200140 		.word	1073815552
 1990 023c 00000000 		.word	SystemCoreClock
 1991 0240 83DE1B43 		.word	1125899907
 1993              		.section	.text.HAL_ADC_AnalogWDGConfig,"ax",%progbits
 1994              		.align	1
 1995              		.global	HAL_ADC_AnalogWDGConfig
 1996              		.syntax unified
 1997              		.thumb
 1998              		.thumb_func
 2000              	HAL_ADC_AnalogWDGConfig:
 2001              		@ args = 0, pretend = 0, frame = 8
 2002              		@ frame_needed = 1, uses_anonymous_args = 0
 2003              		@ link register save eliminated.
 2004 0000 80B4     		push	{r7}
 2005 0002 83B0     		sub	sp, sp, #12
 2006 0004 00AF     		add	r7, sp, #0
 2007 0006 7860     		str	r0, [r7, #4]
 2008 0008 3960     		str	r1, [r7]
 2009 000a 7B68     		ldr	r3, [r7, #4]
 2010 000c 93F83C30 		ldrb	r3, [r3, #60]	@ zero_extendqisi2
 2011 0010 012B     		cmp	r3, #1
 2012 0012 01D1     		bne	.L128
 2013 0014 0223     		movs	r3, #2
 2014 0016 4DE0     		b	.L129
 2015              	.L128:
 2016 0018 7B68     		ldr	r3, [r7, #4]
 2017 001a 0122     		movs	r2, #1
 2018 001c 83F83C20 		strb	r2, [r3, #60]
 2019 0020 3B68     		ldr	r3, [r7]
 2020 0022 1B7C     		ldrb	r3, [r3, #16]	@ zero_extendqisi2
 2021 0024 012B     		cmp	r3, #1
 2022 0026 08D1     		bne	.L130
 2023 0028 7B68     		ldr	r3, [r7, #4]
 2024 002a 1B68     		ldr	r3, [r3]
 2025 002c 5A68     		ldr	r2, [r3, #4]
 2026 002e 7B68     		ldr	r3, [r7, #4]
 2027 0030 1B68     		ldr	r3, [r3]
 2028 0032 42F04002 		orr	r2, r2, #64
 2029 0036 5A60     		str	r2, [r3, #4]
 2030 0038 07E0     		b	.L131
 2031              	.L130:
 2032 003a 7B68     		ldr	r3, [r7, #4]
 2033 003c 1B68     		ldr	r3, [r3]
 2034 003e 5A68     		ldr	r2, [r3, #4]
ARM GAS  C:\Users\user\AppData\Local\Temp\ccqJnHtz.s 			page 36


 2035 0040 7B68     		ldr	r3, [r7, #4]
 2036 0042 1B68     		ldr	r3, [r3]
 2037 0044 22F04002 		bic	r2, r2, #64
 2038 0048 5A60     		str	r2, [r3, #4]
 2039              	.L131:
 2040 004a 7B68     		ldr	r3, [r7, #4]
 2041 004c 1B68     		ldr	r3, [r3]
 2042 004e 5B68     		ldr	r3, [r3, #4]
 2043 0050 7A68     		ldr	r2, [r7, #4]
 2044 0052 1268     		ldr	r2, [r2]
 2045 0054 23F44003 		bic	r3, r3, #12582912
 2046 0058 23F40073 		bic	r3, r3, #512
 2047 005c 5360     		str	r3, [r2, #4]
 2048 005e 7B68     		ldr	r3, [r7, #4]
 2049 0060 1B68     		ldr	r3, [r3]
 2050 0062 5968     		ldr	r1, [r3, #4]
 2051 0064 3B68     		ldr	r3, [r7]
 2052 0066 1A68     		ldr	r2, [r3]
 2053 0068 7B68     		ldr	r3, [r7, #4]
 2054 006a 1B68     		ldr	r3, [r3]
 2055 006c 0A43     		orrs	r2, r2, r1
 2056 006e 5A60     		str	r2, [r3, #4]
 2057 0070 7B68     		ldr	r3, [r7, #4]
 2058 0072 1B68     		ldr	r3, [r3]
 2059 0074 3A68     		ldr	r2, [r7]
 2060 0076 5268     		ldr	r2, [r2, #4]
 2061 0078 5A62     		str	r2, [r3, #36]
 2062 007a 7B68     		ldr	r3, [r7, #4]
 2063 007c 1B68     		ldr	r3, [r3]
 2064 007e 3A68     		ldr	r2, [r7]
 2065 0080 9268     		ldr	r2, [r2, #8]
 2066 0082 9A62     		str	r2, [r3, #40]
 2067 0084 7B68     		ldr	r3, [r7, #4]
 2068 0086 1B68     		ldr	r3, [r3]
 2069 0088 5A68     		ldr	r2, [r3, #4]
 2070 008a 7B68     		ldr	r3, [r7, #4]
 2071 008c 1B68     		ldr	r3, [r3]
 2072 008e 22F01F02 		bic	r2, r2, #31
 2073 0092 5A60     		str	r2, [r3, #4]
 2074 0094 7B68     		ldr	r3, [r7, #4]
 2075 0096 1B68     		ldr	r3, [r3]
 2076 0098 5A68     		ldr	r2, [r3, #4]
 2077 009a 3B68     		ldr	r3, [r7]
 2078 009c DB68     		ldr	r3, [r3, #12]
 2079 009e 9BB2     		uxth	r3, r3
 2080 00a0 1946     		mov	r1, r3
 2081 00a2 7B68     		ldr	r3, [r7, #4]
 2082 00a4 1B68     		ldr	r3, [r3]
 2083 00a6 0A43     		orrs	r2, r2, r1
 2084 00a8 5A60     		str	r2, [r3, #4]
 2085 00aa 7B68     		ldr	r3, [r7, #4]
 2086 00ac 0022     		movs	r2, #0
 2087 00ae 83F83C20 		strb	r2, [r3, #60]
 2088 00b2 0023     		movs	r3, #0
 2089              	.L129:
 2090 00b4 1846     		mov	r0, r3
 2091 00b6 0C37     		adds	r7, r7, #12
ARM GAS  C:\Users\user\AppData\Local\Temp\ccqJnHtz.s 			page 37


 2092 00b8 BD46     		mov	sp, r7
 2093              		@ sp needed
 2094 00ba 5DF8047B 		ldr	r7, [sp], #4
 2095 00be 7047     		bx	lr
 2097              		.section	.text.HAL_ADC_GetState,"ax",%progbits
 2098              		.align	1
 2099              		.global	HAL_ADC_GetState
 2100              		.syntax unified
 2101              		.thumb
 2102              		.thumb_func
 2104              	HAL_ADC_GetState:
 2105              		@ args = 0, pretend = 0, frame = 8
 2106              		@ frame_needed = 1, uses_anonymous_args = 0
 2107              		@ link register save eliminated.
 2108 0000 80B4     		push	{r7}
 2109 0002 83B0     		sub	sp, sp, #12
 2110 0004 00AF     		add	r7, sp, #0
 2111 0006 7860     		str	r0, [r7, #4]
 2112 0008 7B68     		ldr	r3, [r7, #4]
 2113 000a 1B6C     		ldr	r3, [r3, #64]
 2114 000c 1846     		mov	r0, r3
 2115 000e 0C37     		adds	r7, r7, #12
 2116 0010 BD46     		mov	sp, r7
 2117              		@ sp needed
 2118 0012 5DF8047B 		ldr	r7, [sp], #4
 2119 0016 7047     		bx	lr
 2121              		.section	.text.HAL_ADC_GetError,"ax",%progbits
 2122              		.align	1
 2123              		.global	HAL_ADC_GetError
 2124              		.syntax unified
 2125              		.thumb
 2126              		.thumb_func
 2128              	HAL_ADC_GetError:
 2129              		@ args = 0, pretend = 0, frame = 8
 2130              		@ frame_needed = 1, uses_anonymous_args = 0
 2131              		@ link register save eliminated.
 2132 0000 80B4     		push	{r7}
 2133 0002 83B0     		sub	sp, sp, #12
 2134 0004 00AF     		add	r7, sp, #0
 2135 0006 7860     		str	r0, [r7, #4]
 2136 0008 7B68     		ldr	r3, [r7, #4]
 2137 000a 5B6C     		ldr	r3, [r3, #68]
 2138 000c 1846     		mov	r0, r3
 2139 000e 0C37     		adds	r7, r7, #12
 2140 0010 BD46     		mov	sp, r7
 2141              		@ sp needed
 2142 0012 5DF8047B 		ldr	r7, [sp], #4
 2143 0016 7047     		bx	lr
 2145              		.section	.text.ADC_Init,"ax",%progbits
 2146              		.align	1
 2147              		.syntax unified
 2148              		.thumb
 2149              		.thumb_func
 2151              	ADC_Init:
 2152              		@ args = 0, pretend = 0, frame = 16
 2153              		@ frame_needed = 1, uses_anonymous_args = 0
 2154              		@ link register save eliminated.
ARM GAS  C:\Users\user\AppData\Local\Temp\ccqJnHtz.s 			page 38


 2155 0000 80B4     		push	{r7}
 2156 0002 85B0     		sub	sp, sp, #20
 2157 0004 00AF     		add	r7, sp, #0
 2158 0006 7860     		str	r0, [r7, #4]
 2159 0008 794B     		ldr	r3, .L141
 2160 000a FB60     		str	r3, [r7, #12]
 2161 000c FB68     		ldr	r3, [r7, #12]
 2162 000e 5B68     		ldr	r3, [r3, #4]
 2163 0010 23F44032 		bic	r2, r3, #196608
 2164 0014 FB68     		ldr	r3, [r7, #12]
 2165 0016 5A60     		str	r2, [r3, #4]
 2166 0018 FB68     		ldr	r3, [r7, #12]
 2167 001a 5A68     		ldr	r2, [r3, #4]
 2168 001c 7B68     		ldr	r3, [r7, #4]
 2169 001e 5B68     		ldr	r3, [r3, #4]
 2170 0020 1A43     		orrs	r2, r2, r3
 2171 0022 FB68     		ldr	r3, [r7, #12]
 2172 0024 5A60     		str	r2, [r3, #4]
 2173 0026 7B68     		ldr	r3, [r7, #4]
 2174 0028 1B68     		ldr	r3, [r3]
 2175 002a 5A68     		ldr	r2, [r3, #4]
 2176 002c 7B68     		ldr	r3, [r7, #4]
 2177 002e 1B68     		ldr	r3, [r3]
 2178 0030 22F48072 		bic	r2, r2, #256
 2179 0034 5A60     		str	r2, [r3, #4]
 2180 0036 7B68     		ldr	r3, [r7, #4]
 2181 0038 1B68     		ldr	r3, [r3]
 2182 003a 5968     		ldr	r1, [r3, #4]
 2183 003c 7B68     		ldr	r3, [r7, #4]
 2184 003e 1B69     		ldr	r3, [r3, #16]
 2185 0040 1A02     		lsls	r2, r3, #8
 2186 0042 7B68     		ldr	r3, [r7, #4]
 2187 0044 1B68     		ldr	r3, [r3]
 2188 0046 0A43     		orrs	r2, r2, r1
 2189 0048 5A60     		str	r2, [r3, #4]
 2190 004a 7B68     		ldr	r3, [r7, #4]
 2191 004c 1B68     		ldr	r3, [r3]
 2192 004e 5A68     		ldr	r2, [r3, #4]
 2193 0050 7B68     		ldr	r3, [r7, #4]
 2194 0052 1B68     		ldr	r3, [r3]
 2195 0054 22F04072 		bic	r2, r2, #50331648
 2196 0058 5A60     		str	r2, [r3, #4]
 2197 005a 7B68     		ldr	r3, [r7, #4]
 2198 005c 1B68     		ldr	r3, [r3]
 2199 005e 5968     		ldr	r1, [r3, #4]
 2200 0060 7B68     		ldr	r3, [r7, #4]
 2201 0062 9A68     		ldr	r2, [r3, #8]
 2202 0064 7B68     		ldr	r3, [r7, #4]
 2203 0066 1B68     		ldr	r3, [r3]
 2204 0068 0A43     		orrs	r2, r2, r1
 2205 006a 5A60     		str	r2, [r3, #4]
 2206 006c 7B68     		ldr	r3, [r7, #4]
 2207 006e 1B68     		ldr	r3, [r3]
 2208 0070 9A68     		ldr	r2, [r3, #8]
 2209 0072 7B68     		ldr	r3, [r7, #4]
 2210 0074 1B68     		ldr	r3, [r3]
 2211 0076 22F40062 		bic	r2, r2, #2048
ARM GAS  C:\Users\user\AppData\Local\Temp\ccqJnHtz.s 			page 39


 2212 007a 9A60     		str	r2, [r3, #8]
 2213 007c 7B68     		ldr	r3, [r7, #4]
 2214 007e 1B68     		ldr	r3, [r3]
 2215 0080 9968     		ldr	r1, [r3, #8]
 2216 0082 7B68     		ldr	r3, [r7, #4]
 2217 0084 DA68     		ldr	r2, [r3, #12]
 2218 0086 7B68     		ldr	r3, [r7, #4]
 2219 0088 1B68     		ldr	r3, [r3]
 2220 008a 0A43     		orrs	r2, r2, r1
 2221 008c 9A60     		str	r2, [r3, #8]
 2222 008e 7B68     		ldr	r3, [r7, #4]
 2223 0090 9B6A     		ldr	r3, [r3, #40]
 2224 0092 584A     		ldr	r2, .L141+4
 2225 0094 9342     		cmp	r3, r2
 2226 0096 22D0     		beq	.L137
 2227 0098 7B68     		ldr	r3, [r7, #4]
 2228 009a 1B68     		ldr	r3, [r3]
 2229 009c 9A68     		ldr	r2, [r3, #8]
 2230 009e 7B68     		ldr	r3, [r7, #4]
 2231 00a0 1B68     		ldr	r3, [r3]
 2232 00a2 22F07062 		bic	r2, r2, #251658240
 2233 00a6 9A60     		str	r2, [r3, #8]
 2234 00a8 7B68     		ldr	r3, [r7, #4]
 2235 00aa 1B68     		ldr	r3, [r3]
 2236 00ac 9968     		ldr	r1, [r3, #8]
 2237 00ae 7B68     		ldr	r3, [r7, #4]
 2238 00b0 9A6A     		ldr	r2, [r3, #40]
 2239 00b2 7B68     		ldr	r3, [r7, #4]
 2240 00b4 1B68     		ldr	r3, [r3]
 2241 00b6 0A43     		orrs	r2, r2, r1
 2242 00b8 9A60     		str	r2, [r3, #8]
 2243 00ba 7B68     		ldr	r3, [r7, #4]
 2244 00bc 1B68     		ldr	r3, [r3]
 2245 00be 9A68     		ldr	r2, [r3, #8]
 2246 00c0 7B68     		ldr	r3, [r7, #4]
 2247 00c2 1B68     		ldr	r3, [r3]
 2248 00c4 22F04052 		bic	r2, r2, #805306368
 2249 00c8 9A60     		str	r2, [r3, #8]
 2250 00ca 7B68     		ldr	r3, [r7, #4]
 2251 00cc 1B68     		ldr	r3, [r3]
 2252 00ce 9968     		ldr	r1, [r3, #8]
 2253 00d0 7B68     		ldr	r3, [r7, #4]
 2254 00d2 DA6A     		ldr	r2, [r3, #44]
 2255 00d4 7B68     		ldr	r3, [r7, #4]
 2256 00d6 1B68     		ldr	r3, [r3]
 2257 00d8 0A43     		orrs	r2, r2, r1
 2258 00da 9A60     		str	r2, [r3, #8]
 2259 00dc 0FE0     		b	.L138
 2260              	.L137:
 2261 00de 7B68     		ldr	r3, [r7, #4]
 2262 00e0 1B68     		ldr	r3, [r3]
 2263 00e2 9A68     		ldr	r2, [r3, #8]
 2264 00e4 7B68     		ldr	r3, [r7, #4]
 2265 00e6 1B68     		ldr	r3, [r3]
 2266 00e8 22F07062 		bic	r2, r2, #251658240
 2267 00ec 9A60     		str	r2, [r3, #8]
 2268 00ee 7B68     		ldr	r3, [r7, #4]
ARM GAS  C:\Users\user\AppData\Local\Temp\ccqJnHtz.s 			page 40


 2269 00f0 1B68     		ldr	r3, [r3]
 2270 00f2 9A68     		ldr	r2, [r3, #8]
 2271 00f4 7B68     		ldr	r3, [r7, #4]
 2272 00f6 1B68     		ldr	r3, [r3]
 2273 00f8 22F04052 		bic	r2, r2, #805306368
 2274 00fc 9A60     		str	r2, [r3, #8]
 2275              	.L138:
 2276 00fe 7B68     		ldr	r3, [r7, #4]
 2277 0100 1B68     		ldr	r3, [r3]
 2278 0102 9A68     		ldr	r2, [r3, #8]
 2279 0104 7B68     		ldr	r3, [r7, #4]
 2280 0106 1B68     		ldr	r3, [r3]
 2281 0108 22F00202 		bic	r2, r2, #2
 2282 010c 9A60     		str	r2, [r3, #8]
 2283 010e 7B68     		ldr	r3, [r7, #4]
 2284 0110 1B68     		ldr	r3, [r3]
 2285 0112 9968     		ldr	r1, [r3, #8]
 2286 0114 7B68     		ldr	r3, [r7, #4]
 2287 0116 1B7E     		ldrb	r3, [r3, #24]	@ zero_extendqisi2
 2288 0118 5A00     		lsls	r2, r3, #1
 2289 011a 7B68     		ldr	r3, [r7, #4]
 2290 011c 1B68     		ldr	r3, [r3]
 2291 011e 0A43     		orrs	r2, r2, r1
 2292 0120 9A60     		str	r2, [r3, #8]
 2293 0122 7B68     		ldr	r3, [r7, #4]
 2294 0124 93F82030 		ldrb	r3, [r3, #32]	@ zero_extendqisi2
 2295 0128 002B     		cmp	r3, #0
 2296 012a 1BD0     		beq	.L139
 2297 012c 7B68     		ldr	r3, [r7, #4]
 2298 012e 1B68     		ldr	r3, [r3]
 2299 0130 5A68     		ldr	r2, [r3, #4]
 2300 0132 7B68     		ldr	r3, [r7, #4]
 2301 0134 1B68     		ldr	r3, [r3]
 2302 0136 42F40062 		orr	r2, r2, #2048
 2303 013a 5A60     		str	r2, [r3, #4]
 2304 013c 7B68     		ldr	r3, [r7, #4]
 2305 013e 1B68     		ldr	r3, [r3]
 2306 0140 5A68     		ldr	r2, [r3, #4]
 2307 0142 7B68     		ldr	r3, [r7, #4]
 2308 0144 1B68     		ldr	r3, [r3]
 2309 0146 22F46042 		bic	r2, r2, #57344
 2310 014a 5A60     		str	r2, [r3, #4]
 2311 014c 7B68     		ldr	r3, [r7, #4]
 2312 014e 1B68     		ldr	r3, [r3]
 2313 0150 5968     		ldr	r1, [r3, #4]
 2314 0152 7B68     		ldr	r3, [r7, #4]
 2315 0154 5B6A     		ldr	r3, [r3, #36]
 2316 0156 013B     		subs	r3, r3, #1
 2317 0158 5A03     		lsls	r2, r3, #13
 2318 015a 7B68     		ldr	r3, [r7, #4]
 2319 015c 1B68     		ldr	r3, [r3]
 2320 015e 0A43     		orrs	r2, r2, r1
 2321 0160 5A60     		str	r2, [r3, #4]
 2322 0162 07E0     		b	.L140
 2323              	.L139:
 2324 0164 7B68     		ldr	r3, [r7, #4]
 2325 0166 1B68     		ldr	r3, [r3]
ARM GAS  C:\Users\user\AppData\Local\Temp\ccqJnHtz.s 			page 41


 2326 0168 5A68     		ldr	r2, [r3, #4]
 2327 016a 7B68     		ldr	r3, [r7, #4]
 2328 016c 1B68     		ldr	r3, [r3]
 2329 016e 22F40062 		bic	r2, r2, #2048
 2330 0172 5A60     		str	r2, [r3, #4]
 2331              	.L140:
 2332 0174 7B68     		ldr	r3, [r7, #4]
 2333 0176 1B68     		ldr	r3, [r3]
 2334 0178 DA6A     		ldr	r2, [r3, #44]
 2335 017a 7B68     		ldr	r3, [r7, #4]
 2336 017c 1B68     		ldr	r3, [r3]
 2337 017e 22F47002 		bic	r2, r2, #15728640
 2338 0182 DA62     		str	r2, [r3, #44]
 2339 0184 7B68     		ldr	r3, [r7, #4]
 2340 0186 1B68     		ldr	r3, [r3]
 2341 0188 D96A     		ldr	r1, [r3, #44]
 2342 018a 7B68     		ldr	r3, [r7, #4]
 2343 018c DB69     		ldr	r3, [r3, #28]
 2344 018e 013B     		subs	r3, r3, #1
 2345 0190 1A05     		lsls	r2, r3, #20
 2346 0192 7B68     		ldr	r3, [r7, #4]
 2347 0194 1B68     		ldr	r3, [r3]
 2348 0196 0A43     		orrs	r2, r2, r1
 2349 0198 DA62     		str	r2, [r3, #44]
 2350 019a 7B68     		ldr	r3, [r7, #4]
 2351 019c 1B68     		ldr	r3, [r3]
 2352 019e 9A68     		ldr	r2, [r3, #8]
 2353 01a0 7B68     		ldr	r3, [r7, #4]
 2354 01a2 1B68     		ldr	r3, [r3]
 2355 01a4 22F40072 		bic	r2, r2, #512
 2356 01a8 9A60     		str	r2, [r3, #8]
 2357 01aa 7B68     		ldr	r3, [r7, #4]
 2358 01ac 1B68     		ldr	r3, [r3]
 2359 01ae 9968     		ldr	r1, [r3, #8]
 2360 01b0 7B68     		ldr	r3, [r7, #4]
 2361 01b2 93F83030 		ldrb	r3, [r3, #48]	@ zero_extendqisi2
 2362 01b6 5A02     		lsls	r2, r3, #9
 2363 01b8 7B68     		ldr	r3, [r7, #4]
 2364 01ba 1B68     		ldr	r3, [r3]
 2365 01bc 0A43     		orrs	r2, r2, r1
 2366 01be 9A60     		str	r2, [r3, #8]
 2367 01c0 7B68     		ldr	r3, [r7, #4]
 2368 01c2 1B68     		ldr	r3, [r3]
 2369 01c4 9A68     		ldr	r2, [r3, #8]
 2370 01c6 7B68     		ldr	r3, [r7, #4]
 2371 01c8 1B68     		ldr	r3, [r3]
 2372 01ca 22F48062 		bic	r2, r2, #1024
 2373 01ce 9A60     		str	r2, [r3, #8]
 2374 01d0 7B68     		ldr	r3, [r7, #4]
 2375 01d2 1B68     		ldr	r3, [r3]
 2376 01d4 9968     		ldr	r1, [r3, #8]
 2377 01d6 7B68     		ldr	r3, [r7, #4]
 2378 01d8 5B69     		ldr	r3, [r3, #20]
 2379 01da 9A02     		lsls	r2, r3, #10
 2380 01dc 7B68     		ldr	r3, [r7, #4]
 2381 01de 1B68     		ldr	r3, [r3]
 2382 01e0 0A43     		orrs	r2, r2, r1
ARM GAS  C:\Users\user\AppData\Local\Temp\ccqJnHtz.s 			page 42


 2383 01e2 9A60     		str	r2, [r3, #8]
 2384 01e4 00BF     		nop
 2385 01e6 1437     		adds	r7, r7, #20
 2386 01e8 BD46     		mov	sp, r7
 2387              		@ sp needed
 2388 01ea 5DF8047B 		ldr	r7, [sp], #4
 2389 01ee 7047     		bx	lr
 2390              	.L142:
 2391              		.align	2
 2392              	.L141:
 2393 01f0 00230140 		.word	1073816320
 2394 01f4 0100000F 		.word	251658241
 2396              		.section	.text.ADC_DMAConvCplt,"ax",%progbits
 2397              		.align	1
 2398              		.syntax unified
 2399              		.thumb
 2400              		.thumb_func
 2402              	ADC_DMAConvCplt:
 2403              		@ args = 0, pretend = 0, frame = 16
 2404              		@ frame_needed = 1, uses_anonymous_args = 0
 2405 0000 80B5     		push	{r7, lr}
 2406 0002 84B0     		sub	sp, sp, #16
 2407 0004 00AF     		add	r7, sp, #0
 2408 0006 7860     		str	r0, [r7, #4]
 2409 0008 7B68     		ldr	r3, [r7, #4]
 2410 000a 9B6B     		ldr	r3, [r3, #56]
 2411 000c FB60     		str	r3, [r7, #12]
 2412 000e FB68     		ldr	r3, [r7, #12]
 2413 0010 1B6C     		ldr	r3, [r3, #64]
 2414 0012 03F05003 		and	r3, r3, #80
 2415 0016 002B     		cmp	r3, #0
 2416 0018 3CD1     		bne	.L144
 2417 001a FB68     		ldr	r3, [r7, #12]
 2418 001c 1B6C     		ldr	r3, [r3, #64]
 2419 001e 43F40072 		orr	r2, r3, #512
 2420 0022 FB68     		ldr	r3, [r7, #12]
 2421 0024 1A64     		str	r2, [r3, #64]
 2422 0026 FB68     		ldr	r3, [r7, #12]
 2423 0028 1B68     		ldr	r3, [r3]
 2424 002a 9B68     		ldr	r3, [r3, #8]
 2425 002c 03F04053 		and	r3, r3, #805306368
 2426 0030 002B     		cmp	r3, #0
 2427 0032 2BD1     		bne	.L145
 2428 0034 FB68     		ldr	r3, [r7, #12]
 2429 0036 1B7E     		ldrb	r3, [r3, #24]	@ zero_extendqisi2
 2430 0038 002B     		cmp	r3, #0
 2431 003a 27D1     		bne	.L145
 2432 003c FB68     		ldr	r3, [r7, #12]
 2433 003e 1B68     		ldr	r3, [r3]
 2434 0040 DB6A     		ldr	r3, [r3, #44]
 2435 0042 03F47003 		and	r3, r3, #15728640
 2436 0046 002B     		cmp	r3, #0
 2437 0048 06D0     		beq	.L146
 2438 004a FB68     		ldr	r3, [r7, #12]
 2439 004c 1B68     		ldr	r3, [r3]
 2440 004e 9B68     		ldr	r3, [r3, #8]
 2441 0050 03F48063 		and	r3, r3, #1024
ARM GAS  C:\Users\user\AppData\Local\Temp\ccqJnHtz.s 			page 43


 2442 0054 002B     		cmp	r3, #0
 2443 0056 19D1     		bne	.L145
 2444              	.L146:
 2445 0058 FB68     		ldr	r3, [r7, #12]
 2446 005a 1B68     		ldr	r3, [r3]
 2447 005c 5A68     		ldr	r2, [r3, #4]
 2448 005e FB68     		ldr	r3, [r7, #12]
 2449 0060 1B68     		ldr	r3, [r3]
 2450 0062 22F02002 		bic	r2, r2, #32
 2451 0066 5A60     		str	r2, [r3, #4]
 2452 0068 FB68     		ldr	r3, [r7, #12]
 2453 006a 1B6C     		ldr	r3, [r3, #64]
 2454 006c 23F48072 		bic	r2, r3, #256
 2455 0070 FB68     		ldr	r3, [r7, #12]
 2456 0072 1A64     		str	r2, [r3, #64]
 2457 0074 FB68     		ldr	r3, [r7, #12]
 2458 0076 1B6C     		ldr	r3, [r3, #64]
 2459 0078 03F48053 		and	r3, r3, #4096
 2460 007c 002B     		cmp	r3, #0
 2461 007e 05D1     		bne	.L145
 2462 0080 FB68     		ldr	r3, [r7, #12]
 2463 0082 1B6C     		ldr	r3, [r3, #64]
 2464 0084 43F00102 		orr	r2, r3, #1
 2465 0088 FB68     		ldr	r3, [r7, #12]
 2466 008a 1A64     		str	r2, [r3, #64]
 2467              	.L145:
 2468 008c F868     		ldr	r0, [r7, #12]
 2469 008e FFF7FEFF 		bl	HAL_ADC_ConvCpltCallback
 2470 0092 0EE0     		b	.L149
 2471              	.L144:
 2472 0094 FB68     		ldr	r3, [r7, #12]
 2473 0096 1B6C     		ldr	r3, [r3, #64]
 2474 0098 03F01003 		and	r3, r3, #16
 2475 009c 002B     		cmp	r3, #0
 2476 009e 03D0     		beq	.L148
 2477 00a0 F868     		ldr	r0, [r7, #12]
 2478 00a2 FFF7FEFF 		bl	HAL_ADC_ErrorCallback
 2479 00a6 04E0     		b	.L149
 2480              	.L148:
 2481 00a8 FB68     		ldr	r3, [r7, #12]
 2482 00aa 9B6B     		ldr	r3, [r3, #56]
 2483 00ac DB6C     		ldr	r3, [r3, #76]
 2484 00ae 7868     		ldr	r0, [r7, #4]
 2485 00b0 9847     		blx	r3
 2486              	.L149:
 2487 00b2 00BF     		nop
 2488 00b4 1037     		adds	r7, r7, #16
 2489 00b6 BD46     		mov	sp, r7
 2490              		@ sp needed
 2491 00b8 80BD     		pop	{r7, pc}
 2493              		.section	.text.ADC_DMAHalfConvCplt,"ax",%progbits
 2494              		.align	1
 2495              		.syntax unified
 2496              		.thumb
 2497              		.thumb_func
 2499              	ADC_DMAHalfConvCplt:
 2500              		@ args = 0, pretend = 0, frame = 16
ARM GAS  C:\Users\user\AppData\Local\Temp\ccqJnHtz.s 			page 44


 2501              		@ frame_needed = 1, uses_anonymous_args = 0
 2502 0000 80B5     		push	{r7, lr}
 2503 0002 84B0     		sub	sp, sp, #16
 2504 0004 00AF     		add	r7, sp, #0
 2505 0006 7860     		str	r0, [r7, #4]
 2506 0008 7B68     		ldr	r3, [r7, #4]
 2507 000a 9B6B     		ldr	r3, [r3, #56]
 2508 000c FB60     		str	r3, [r7, #12]
 2509 000e F868     		ldr	r0, [r7, #12]
 2510 0010 FFF7FEFF 		bl	HAL_ADC_ConvHalfCpltCallback
 2511 0014 00BF     		nop
 2512 0016 1037     		adds	r7, r7, #16
 2513 0018 BD46     		mov	sp, r7
 2514              		@ sp needed
 2515 001a 80BD     		pop	{r7, pc}
 2517              		.section	.text.ADC_DMAError,"ax",%progbits
 2518              		.align	1
 2519              		.syntax unified
 2520              		.thumb
 2521              		.thumb_func
 2523              	ADC_DMAError:
 2524              		@ args = 0, pretend = 0, frame = 16
 2525              		@ frame_needed = 1, uses_anonymous_args = 0
 2526 0000 80B5     		push	{r7, lr}
 2527 0002 84B0     		sub	sp, sp, #16
 2528 0004 00AF     		add	r7, sp, #0
 2529 0006 7860     		str	r0, [r7, #4]
 2530 0008 7B68     		ldr	r3, [r7, #4]
 2531 000a 9B6B     		ldr	r3, [r3, #56]
 2532 000c FB60     		str	r3, [r7, #12]
 2533 000e FB68     		ldr	r3, [r7, #12]
 2534 0010 4022     		movs	r2, #64
 2535 0012 1A64     		str	r2, [r3, #64]
 2536 0014 FB68     		ldr	r3, [r7, #12]
 2537 0016 5B6C     		ldr	r3, [r3, #68]
 2538 0018 43F00402 		orr	r2, r3, #4
 2539 001c FB68     		ldr	r3, [r7, #12]
 2540 001e 5A64     		str	r2, [r3, #68]
 2541 0020 F868     		ldr	r0, [r7, #12]
 2542 0022 FFF7FEFF 		bl	HAL_ADC_ErrorCallback
 2543 0026 00BF     		nop
 2544 0028 1037     		adds	r7, r7, #16
 2545 002a BD46     		mov	sp, r7
 2546              		@ sp needed
 2547 002c 80BD     		pop	{r7, pc}
 2549              		.ident	"GCC: (GNU Tools for STM32 12.3.rel1.20240306-1730) 12.3.1 20230626"
ARM GAS  C:\Users\user\AppData\Local\Temp\ccqJnHtz.s 			page 45

