ARM GAS  C:\Users\user\AppData\Local\Temp\ccZRrPoM.s 			page 1


   1              		.cpu cortex-m4
   2              		.arch armv7e-m
   3              		.fpu fpv4-sp-d16
   4              		.eabi_attribute 27, 1
   5              		.eabi_attribute 28, 1
   6              		.eabi_attribute 20, 1
   7              		.eabi_attribute 21, 1
   8              		.eabi_attribute 23, 3
   9              		.eabi_attribute 24, 1
  10              		.eabi_attribute 25, 1
  11              		.eabi_attribute 26, 1
  12              		.eabi_attribute 30, 6
  13              		.eabi_attribute 34, 1
  14              		.eabi_attribute 18, 4
  15              		.file	"stm32f4xx_hal_dma_ex.c"
  16              		.text
  17              		.section	.text.HAL_DMAEx_MultiBufferStart,"ax",%progbits
  18              		.align	1
  19              		.global	HAL_DMAEx_MultiBufferStart
  20              		.syntax unified
  21              		.thumb
  22              		.thumb_func
  24              	HAL_DMAEx_MultiBufferStart:
  25              		@ args = 4, pretend = 0, frame = 24
  26              		@ frame_needed = 1, uses_anonymous_args = 0
  27 0000 80B5     		push	{r7, lr}
  28 0002 86B0     		sub	sp, sp, #24
  29 0004 00AF     		add	r7, sp, #0
  30 0006 F860     		str	r0, [r7, #12]
  31 0008 B960     		str	r1, [r7, #8]
  32 000a 7A60     		str	r2, [r7, #4]
  33 000c 3B60     		str	r3, [r7]
  34 000e 0023     		movs	r3, #0
  35 0010 FB75     		strb	r3, [r7, #23]
  36 0012 FB68     		ldr	r3, [r7, #12]
  37 0014 9B68     		ldr	r3, [r3, #8]
  38 0016 802B     		cmp	r3, #128
  39 0018 06D1     		bne	.L2
  40 001a FB68     		ldr	r3, [r7, #12]
  41 001c 4FF48072 		mov	r2, #256
  42 0020 5A65     		str	r2, [r3, #84]
  43 0022 0123     		movs	r3, #1
  44 0024 FB75     		strb	r3, [r7, #23]
  45 0026 31E0     		b	.L3
  46              	.L2:
  47 0028 FB68     		ldr	r3, [r7, #12]
  48 002a 93F83430 		ldrb	r3, [r3, #52]	@ zero_extendqisi2
  49 002e 012B     		cmp	r3, #1
  50 0030 01D1     		bne	.L4
  51 0032 0223     		movs	r3, #2
  52 0034 2BE0     		b	.L5
  53              	.L4:
  54 0036 FB68     		ldr	r3, [r7, #12]
  55 0038 0122     		movs	r2, #1
  56 003a 83F83420 		strb	r2, [r3, #52]
  57 003e FB68     		ldr	r3, [r7, #12]
  58 0040 93F83530 		ldrb	r3, [r3, #53]
ARM GAS  C:\Users\user\AppData\Local\Temp\ccZRrPoM.s 			page 2


  59 0044 DBB2     		uxtb	r3, r3
  60 0046 012B     		cmp	r3, #1
  61 0048 1ED1     		bne	.L6
  62 004a FB68     		ldr	r3, [r7, #12]
  63 004c 0222     		movs	r2, #2
  64 004e 83F83520 		strb	r2, [r3, #53]
  65 0052 FB68     		ldr	r3, [r7, #12]
  66 0054 1B68     		ldr	r3, [r3]
  67 0056 1A68     		ldr	r2, [r3]
  68 0058 FB68     		ldr	r3, [r7, #12]
  69 005a 1B68     		ldr	r3, [r3]
  70 005c 42F48022 		orr	r2, r2, #262144
  71 0060 1A60     		str	r2, [r3]
  72 0062 FB68     		ldr	r3, [r7, #12]
  73 0064 1B68     		ldr	r3, [r3]
  74 0066 3A68     		ldr	r2, [r7]
  75 0068 1A61     		str	r2, [r3, #16]
  76 006a 3B6A     		ldr	r3, [r7, #32]
  77 006c 7A68     		ldr	r2, [r7, #4]
  78 006e B968     		ldr	r1, [r7, #8]
  79 0070 F868     		ldr	r0, [r7, #12]
  80 0072 FFF7FEFF 		bl	DMA_MultiBufferSetConfig
  81 0076 FB68     		ldr	r3, [r7, #12]
  82 0078 1B68     		ldr	r3, [r3]
  83 007a 1A68     		ldr	r2, [r3]
  84 007c FB68     		ldr	r3, [r7, #12]
  85 007e 1B68     		ldr	r3, [r3]
  86 0080 42F00102 		orr	r2, r2, #1
  87 0084 1A60     		str	r2, [r3]
  88 0086 01E0     		b	.L3
  89              	.L6:
  90 0088 0223     		movs	r3, #2
  91 008a FB75     		strb	r3, [r7, #23]
  92              	.L3:
  93 008c FB7D     		ldrb	r3, [r7, #23]	@ zero_extendqisi2
  94              	.L5:
  95 008e 1846     		mov	r0, r3
  96 0090 1837     		adds	r7, r7, #24
  97 0092 BD46     		mov	sp, r7
  98              		@ sp needed
  99 0094 80BD     		pop	{r7, pc}
 101              		.section	.text.HAL_DMAEx_MultiBufferStart_IT,"ax",%progbits
 102              		.align	1
 103              		.global	HAL_DMAEx_MultiBufferStart_IT
 104              		.syntax unified
 105              		.thumb
 106              		.thumb_func
 108              	HAL_DMAEx_MultiBufferStart_IT:
 109              		@ args = 4, pretend = 0, frame = 24
 110              		@ frame_needed = 1, uses_anonymous_args = 0
 111 0000 80B5     		push	{r7, lr}
 112 0002 86B0     		sub	sp, sp, #24
 113 0004 00AF     		add	r7, sp, #0
 114 0006 F860     		str	r0, [r7, #12]
 115 0008 B960     		str	r1, [r7, #8]
 116 000a 7A60     		str	r2, [r7, #4]
 117 000c 3B60     		str	r3, [r7]
ARM GAS  C:\Users\user\AppData\Local\Temp\ccZRrPoM.s 			page 3


 118 000e 0023     		movs	r3, #0
 119 0010 FB75     		strb	r3, [r7, #23]
 120 0012 FB68     		ldr	r3, [r7, #12]
 121 0014 9B68     		ldr	r3, [r3, #8]
 122 0016 802B     		cmp	r3, #128
 123 0018 06D1     		bne	.L8
 124 001a FB68     		ldr	r3, [r7, #12]
 125 001c 4FF48072 		mov	r2, #256
 126 0020 5A65     		str	r2, [r3, #84]
 127 0022 0123     		movs	r3, #1
 128 0024 01F011B9 		b	.L9
 129              	.L8:
 130 0028 FB68     		ldr	r3, [r7, #12]
 131 002a DB6B     		ldr	r3, [r3, #60]
 132 002c 002B     		cmp	r3, #0
 133 002e 07D0     		beq	.L10
 134 0030 FB68     		ldr	r3, [r7, #12]
 135 0032 5B6C     		ldr	r3, [r3, #68]
 136 0034 002B     		cmp	r3, #0
 137 0036 03D0     		beq	.L10
 138 0038 FB68     		ldr	r3, [r7, #12]
 139 003a DB6C     		ldr	r3, [r3, #76]
 140 003c 002B     		cmp	r3, #0
 141 003e 05D1     		bne	.L11
 142              	.L10:
 143 0040 FB68     		ldr	r3, [r7, #12]
 144 0042 4022     		movs	r2, #64
 145 0044 5A65     		str	r2, [r3, #84]
 146 0046 0123     		movs	r3, #1
 147 0048 01F0FFB8 		b	.L9
 148              	.L11:
 149 004c FB68     		ldr	r3, [r7, #12]
 150 004e 93F83430 		ldrb	r3, [r3, #52]	@ zero_extendqisi2
 151 0052 012B     		cmp	r3, #1
 152 0054 02D1     		bne	.L12
 153 0056 0223     		movs	r3, #2
 154 0058 01F0F7B8 		b	.L9
 155              	.L12:
 156 005c FB68     		ldr	r3, [r7, #12]
 157 005e 0122     		movs	r2, #1
 158 0060 83F83420 		strb	r2, [r3, #52]
 159 0064 FB68     		ldr	r3, [r7, #12]
 160 0066 93F83530 		ldrb	r3, [r3, #53]
 161 006a DBB2     		uxtb	r3, r3
 162 006c 012B     		cmp	r3, #1
 163 006e 41F0E580 		bne	.L13
 164 0072 FB68     		ldr	r3, [r7, #12]
 165 0074 0222     		movs	r2, #2
 166 0076 83F83520 		strb	r2, [r3, #53]
 167 007a FB68     		ldr	r3, [r7, #12]
 168 007c 0022     		movs	r2, #0
 169 007e 5A65     		str	r2, [r3, #84]
 170 0080 FB68     		ldr	r3, [r7, #12]
 171 0082 1B68     		ldr	r3, [r3]
 172 0084 1A68     		ldr	r2, [r3]
 173 0086 FB68     		ldr	r3, [r7, #12]
 174 0088 1B68     		ldr	r3, [r3]
ARM GAS  C:\Users\user\AppData\Local\Temp\ccZRrPoM.s 			page 4


 175 008a 42F48022 		orr	r2, r2, #262144
 176 008e 1A60     		str	r2, [r3]
 177 0090 FB68     		ldr	r3, [r7, #12]
 178 0092 1B68     		ldr	r3, [r3]
 179 0094 3A68     		ldr	r2, [r7]
 180 0096 1A61     		str	r2, [r3, #16]
 181 0098 3B6A     		ldr	r3, [r7, #32]
 182 009a 7A68     		ldr	r2, [r7, #4]
 183 009c B968     		ldr	r1, [r7, #8]
 184 009e F868     		ldr	r0, [r7, #12]
 185 00a0 FFF7FEFF 		bl	DMA_MultiBufferSetConfig
 186 00a4 FB68     		ldr	r3, [r7, #12]
 187 00a6 1B68     		ldr	r3, [r3]
 188 00a8 1A46     		mov	r2, r3
 189 00aa 8D4B     		ldr	r3, .L527
 190 00ac 9A42     		cmp	r2, r3
 191 00ae 60D9     		bls	.L14
 192 00b0 FB68     		ldr	r3, [r7, #12]
 193 00b2 1B68     		ldr	r3, [r3]
 194 00b4 8B4A     		ldr	r2, .L527+4
 195 00b6 9342     		cmp	r3, r2
 196 00b8 57D0     		beq	.L15
 197 00ba FB68     		ldr	r3, [r7, #12]
 198 00bc 1B68     		ldr	r3, [r3]
 199 00be 8A4A     		ldr	r2, .L527+8
 200 00c0 9342     		cmp	r3, r2
 201 00c2 50D0     		beq	.L16
 202 00c4 FB68     		ldr	r3, [r7, #12]
 203 00c6 1B68     		ldr	r3, [r3]
 204 00c8 884A     		ldr	r2, .L527+12
 205 00ca 9342     		cmp	r3, r2
 206 00cc 49D0     		beq	.L17
 207 00ce FB68     		ldr	r3, [r7, #12]
 208 00d0 1B68     		ldr	r3, [r3]
 209 00d2 874A     		ldr	r2, .L527+16
 210 00d4 9342     		cmp	r3, r2
 211 00d6 42D0     		beq	.L18
 212 00d8 FB68     		ldr	r3, [r7, #12]
 213 00da 1B68     		ldr	r3, [r3]
 214 00dc 854A     		ldr	r2, .L527+20
 215 00de 9342     		cmp	r3, r2
 216 00e0 3AD0     		beq	.L19
 217 00e2 FB68     		ldr	r3, [r7, #12]
 218 00e4 1B68     		ldr	r3, [r3]
 219 00e6 844A     		ldr	r2, .L527+24
 220 00e8 9342     		cmp	r3, r2
 221 00ea 32D0     		beq	.L20
 222 00ec FB68     		ldr	r3, [r7, #12]
 223 00ee 1B68     		ldr	r3, [r3]
 224 00f0 824A     		ldr	r2, .L527+28
 225 00f2 9342     		cmp	r3, r2
 226 00f4 2AD0     		beq	.L21
 227 00f6 FB68     		ldr	r3, [r7, #12]
 228 00f8 1B68     		ldr	r3, [r3]
 229 00fa 814A     		ldr	r2, .L527+32
 230 00fc 9342     		cmp	r3, r2
 231 00fe 22D0     		beq	.L22
ARM GAS  C:\Users\user\AppData\Local\Temp\ccZRrPoM.s 			page 5


 232 0100 FB68     		ldr	r3, [r7, #12]
 233 0102 1B68     		ldr	r3, [r3]
 234 0104 7F4A     		ldr	r2, .L527+36
 235 0106 9342     		cmp	r3, r2
 236 0108 1AD0     		beq	.L23
 237 010a FB68     		ldr	r3, [r7, #12]
 238 010c 1B68     		ldr	r3, [r3]
 239 010e 7E4A     		ldr	r2, .L527+40
 240 0110 9342     		cmp	r3, r2
 241 0112 12D0     		beq	.L24
 242 0114 FB68     		ldr	r3, [r7, #12]
 243 0116 1B68     		ldr	r3, [r3]
 244 0118 7C4A     		ldr	r2, .L527+44
 245 011a 9342     		cmp	r3, r2
 246 011c 0AD0     		beq	.L25
 247 011e FB68     		ldr	r3, [r7, #12]
 248 0120 1B68     		ldr	r3, [r3]
 249 0122 7B4A     		ldr	r2, .L527+48
 250 0124 9342     		cmp	r3, r2
 251 0126 02D1     		bne	.L26
 252 0128 4FF40013 		mov	r3, #2097152
 253 012c 1EE0     		b	.L38
 254              	.L26:
 255 012e 4FF00063 		mov	r3, #134217728
 256 0132 1BE0     		b	.L38
 257              	.L25:
 258 0134 4FF40013 		mov	r3, #2097152
 259 0138 18E0     		b	.L38
 260              	.L24:
 261 013a 4FF40013 		mov	r3, #2097152
 262 013e 15E0     		b	.L38
 263              	.L23:
 264 0140 4FF40013 		mov	r3, #2097152
 265 0144 12E0     		b	.L38
 266              	.L22:
 267 0146 4FF40063 		mov	r3, #2048
 268 014a 0FE0     		b	.L38
 269              	.L21:
 270 014c 4FF40063 		mov	r3, #2048
 271 0150 0CE0     		b	.L38
 272              	.L20:
 273 0152 4FF40063 		mov	r3, #2048
 274 0156 09E0     		b	.L38
 275              	.L19:
 276 0158 4FF40063 		mov	r3, #2048
 277 015c 06E0     		b	.L38
 278              	.L18:
 279 015e 2023     		movs	r3, #32
 280 0160 04E0     		b	.L38
 281              	.L17:
 282 0162 2023     		movs	r3, #32
 283 0164 02E0     		b	.L38
 284              	.L16:
 285 0166 2023     		movs	r3, #32
 286 0168 00E0     		b	.L38
 287              	.L15:
 288 016a 2023     		movs	r3, #32
ARM GAS  C:\Users\user\AppData\Local\Temp\ccZRrPoM.s 			page 6


 289              	.L38:
 290 016c 694A     		ldr	r2, .L527+52
 291 016e D360     		str	r3, [r2, #12]
 292 0170 4FE1     		b	.L39
 293              	.L14:
 294 0172 FB68     		ldr	r3, [r7, #12]
 295 0174 1B68     		ldr	r3, [r3]
 296 0176 1A46     		mov	r2, r3
 297 0178 674B     		ldr	r3, .L527+56
 298 017a 9A42     		cmp	r2, r3
 299 017c 60D9     		bls	.L40
 300 017e FB68     		ldr	r3, [r7, #12]
 301 0180 1B68     		ldr	r3, [r3]
 302 0182 584A     		ldr	r2, .L527+4
 303 0184 9342     		cmp	r3, r2
 304 0186 57D0     		beq	.L41
 305 0188 FB68     		ldr	r3, [r7, #12]
 306 018a 1B68     		ldr	r3, [r3]
 307 018c 564A     		ldr	r2, .L527+8
 308 018e 9342     		cmp	r3, r2
 309 0190 50D0     		beq	.L42
 310 0192 FB68     		ldr	r3, [r7, #12]
 311 0194 1B68     		ldr	r3, [r3]
 312 0196 554A     		ldr	r2, .L527+12
 313 0198 9342     		cmp	r3, r2
 314 019a 49D0     		beq	.L43
 315 019c FB68     		ldr	r3, [r7, #12]
 316 019e 1B68     		ldr	r3, [r3]
 317 01a0 534A     		ldr	r2, .L527+16
 318 01a2 9342     		cmp	r3, r2
 319 01a4 42D0     		beq	.L44
 320 01a6 FB68     		ldr	r3, [r7, #12]
 321 01a8 1B68     		ldr	r3, [r3]
 322 01aa 524A     		ldr	r2, .L527+20
 323 01ac 9342     		cmp	r3, r2
 324 01ae 3AD0     		beq	.L45
 325 01b0 FB68     		ldr	r3, [r7, #12]
 326 01b2 1B68     		ldr	r3, [r3]
 327 01b4 504A     		ldr	r2, .L527+24
 328 01b6 9342     		cmp	r3, r2
 329 01b8 32D0     		beq	.L46
 330 01ba FB68     		ldr	r3, [r7, #12]
 331 01bc 1B68     		ldr	r3, [r3]
 332 01be 4F4A     		ldr	r2, .L527+28
 333 01c0 9342     		cmp	r3, r2
 334 01c2 2AD0     		beq	.L47
 335 01c4 FB68     		ldr	r3, [r7, #12]
 336 01c6 1B68     		ldr	r3, [r3]
 337 01c8 4D4A     		ldr	r2, .L527+32
 338 01ca 9342     		cmp	r3, r2
 339 01cc 22D0     		beq	.L48
 340 01ce FB68     		ldr	r3, [r7, #12]
 341 01d0 1B68     		ldr	r3, [r3]
 342 01d2 4C4A     		ldr	r2, .L527+36
 343 01d4 9342     		cmp	r3, r2
 344 01d6 1AD0     		beq	.L49
 345 01d8 FB68     		ldr	r3, [r7, #12]
ARM GAS  C:\Users\user\AppData\Local\Temp\ccZRrPoM.s 			page 7


 346 01da 1B68     		ldr	r3, [r3]
 347 01dc 4A4A     		ldr	r2, .L527+40
 348 01de 9342     		cmp	r3, r2
 349 01e0 12D0     		beq	.L50
 350 01e2 FB68     		ldr	r3, [r7, #12]
 351 01e4 1B68     		ldr	r3, [r3]
 352 01e6 494A     		ldr	r2, .L527+44
 353 01e8 9342     		cmp	r3, r2
 354 01ea 0AD0     		beq	.L51
 355 01ec FB68     		ldr	r3, [r7, #12]
 356 01ee 1B68     		ldr	r3, [r3]
 357 01f0 474A     		ldr	r2, .L527+48
 358 01f2 9342     		cmp	r3, r2
 359 01f4 02D1     		bne	.L52
 360 01f6 4FF40013 		mov	r3, #2097152
 361 01fa 1EE0     		b	.L64
 362              	.L52:
 363 01fc 4FF00063 		mov	r3, #134217728
 364 0200 1BE0     		b	.L64
 365              	.L51:
 366 0202 4FF40013 		mov	r3, #2097152
 367 0206 18E0     		b	.L64
 368              	.L50:
 369 0208 4FF40013 		mov	r3, #2097152
 370 020c 15E0     		b	.L64
 371              	.L49:
 372 020e 4FF40013 		mov	r3, #2097152
 373 0212 12E0     		b	.L64
 374              	.L48:
 375 0214 4FF40063 		mov	r3, #2048
 376 0218 0FE0     		b	.L64
 377              	.L47:
 378 021a 4FF40063 		mov	r3, #2048
 379 021e 0CE0     		b	.L64
 380              	.L46:
 381 0220 4FF40063 		mov	r3, #2048
 382 0224 09E0     		b	.L64
 383              	.L45:
 384 0226 4FF40063 		mov	r3, #2048
 385 022a 06E0     		b	.L64
 386              	.L44:
 387 022c 2023     		movs	r3, #32
 388 022e 04E0     		b	.L64
 389              	.L43:
 390 0230 2023     		movs	r3, #32
 391 0232 02E0     		b	.L64
 392              	.L42:
 393 0234 2023     		movs	r3, #32
 394 0236 00E0     		b	.L64
 395              	.L41:
 396 0238 2023     		movs	r3, #32
 397              	.L64:
 398 023a 364A     		ldr	r2, .L527+52
 399 023c 9360     		str	r3, [r2, #8]
 400 023e E8E0     		b	.L39
 401              	.L40:
 402 0240 FB68     		ldr	r3, [r7, #12]
ARM GAS  C:\Users\user\AppData\Local\Temp\ccZRrPoM.s 			page 8


 403 0242 1B68     		ldr	r3, [r3]
 404 0244 1A46     		mov	r2, r3
 405 0246 354B     		ldr	r3, .L527+60
 406 0248 9A42     		cmp	r2, r3
 407 024a 40F28280 		bls	.L66
 408 024e FB68     		ldr	r3, [r7, #12]
 409 0250 1B68     		ldr	r3, [r3]
 410 0252 244A     		ldr	r2, .L527+4
 411 0254 9342     		cmp	r3, r2
 412 0256 78D0     		beq	.L67
 413 0258 FB68     		ldr	r3, [r7, #12]
 414 025a 1B68     		ldr	r3, [r3]
 415 025c 224A     		ldr	r2, .L527+8
 416 025e 9342     		cmp	r3, r2
 417 0260 71D0     		beq	.L68
 418 0262 FB68     		ldr	r3, [r7, #12]
 419 0264 1B68     		ldr	r3, [r3]
 420 0266 214A     		ldr	r2, .L527+12
 421 0268 9342     		cmp	r3, r2
 422 026a 6AD0     		beq	.L69
 423 026c FB68     		ldr	r3, [r7, #12]
 424 026e 1B68     		ldr	r3, [r3]
 425 0270 1F4A     		ldr	r2, .L527+16
 426 0272 9342     		cmp	r3, r2
 427 0274 63D0     		beq	.L70
 428 0276 FB68     		ldr	r3, [r7, #12]
 429 0278 1B68     		ldr	r3, [r3]
 430 027a 1E4A     		ldr	r2, .L527+20
 431 027c 9342     		cmp	r3, r2
 432 027e 5BD0     		beq	.L71
 433 0280 FB68     		ldr	r3, [r7, #12]
 434 0282 1B68     		ldr	r3, [r3]
 435 0284 1C4A     		ldr	r2, .L527+24
 436 0286 9342     		cmp	r3, r2
 437 0288 53D0     		beq	.L72
 438 028a FB68     		ldr	r3, [r7, #12]
 439 028c 1B68     		ldr	r3, [r3]
 440 028e 1B4A     		ldr	r2, .L527+28
 441 0290 9342     		cmp	r3, r2
 442 0292 4BD0     		beq	.L73
 443 0294 FB68     		ldr	r3, [r7, #12]
 444 0296 1B68     		ldr	r3, [r3]
 445 0298 194A     		ldr	r2, .L527+32
 446 029a 9342     		cmp	r3, r2
 447 029c 43D0     		beq	.L74
 448 029e FB68     		ldr	r3, [r7, #12]
 449 02a0 1B68     		ldr	r3, [r3]
 450 02a2 184A     		ldr	r2, .L527+36
 451 02a4 9342     		cmp	r3, r2
 452 02a6 3BD0     		beq	.L75
 453 02a8 FB68     		ldr	r3, [r7, #12]
 454 02aa 1B68     		ldr	r3, [r3]
 455 02ac 164A     		ldr	r2, .L527+40
 456 02ae 9342     		cmp	r3, r2
 457 02b0 12D0     		beq	.L76
 458 02b2 FB68     		ldr	r3, [r7, #12]
 459 02b4 1B68     		ldr	r3, [r3]
ARM GAS  C:\Users\user\AppData\Local\Temp\ccZRrPoM.s 			page 9


 460 02b6 154A     		ldr	r2, .L527+44
 461 02b8 9342     		cmp	r3, r2
 462 02ba 0AD0     		beq	.L77
 463 02bc FB68     		ldr	r3, [r7, #12]
 464 02be 1B68     		ldr	r3, [r3]
 465 02c0 134A     		ldr	r2, .L527+48
 466 02c2 9342     		cmp	r3, r2
 467 02c4 02D1     		bne	.L78
 468 02c6 4FF40013 		mov	r3, #2097152
 469 02ca 3FE0     		b	.L90
 470              	.L78:
 471 02cc 4FF00063 		mov	r3, #134217728
 472 02d0 3CE0     		b	.L90
 473              	.L77:
 474 02d2 4FF40013 		mov	r3, #2097152
 475 02d6 39E0     		b	.L90
 476              	.L76:
 477 02d8 4FF40013 		mov	r3, #2097152
 478 02dc 36E0     		b	.L90
 479              	.L528:
 480 02de 00BF     		.align	2
 481              	.L527:
 482 02e0 58640240 		.word	1073898584
 483 02e4 10600240 		.word	1073897488
 484 02e8 10640240 		.word	1073898512
 485 02ec 70600240 		.word	1073897584
 486 02f0 70640240 		.word	1073898608
 487 02f4 28600240 		.word	1073897512
 488 02f8 28640240 		.word	1073898536
 489 02fc 88600240 		.word	1073897608
 490 0300 88640240 		.word	1073898632
 491 0304 40600240 		.word	1073897536
 492 0308 40640240 		.word	1073898560
 493 030c A0600240 		.word	1073897632
 494 0310 A0640240 		.word	1073898656
 495 0314 00640240 		.word	1073898496
 496 0318 B8600240 		.word	1073897656
 497 031c 58600240 		.word	1073897560
 498              	.L75:
 499 0320 4FF40013 		mov	r3, #2097152
 500 0324 12E0     		b	.L90
 501              	.L74:
 502 0326 4FF40063 		mov	r3, #2048
 503 032a 0FE0     		b	.L90
 504              	.L73:
 505 032c 4FF40063 		mov	r3, #2048
 506 0330 0CE0     		b	.L90
 507              	.L72:
 508 0332 4FF40063 		mov	r3, #2048
 509 0336 09E0     		b	.L90
 510              	.L71:
 511 0338 4FF40063 		mov	r3, #2048
 512 033c 06E0     		b	.L90
 513              	.L70:
 514 033e 2023     		movs	r3, #32
 515 0340 04E0     		b	.L90
 516              	.L69:
ARM GAS  C:\Users\user\AppData\Local\Temp\ccZRrPoM.s 			page 10


 517 0342 2023     		movs	r3, #32
 518 0344 02E0     		b	.L90
 519              	.L68:
 520 0346 2023     		movs	r3, #32
 521 0348 00E0     		b	.L90
 522              	.L67:
 523 034a 2023     		movs	r3, #32
 524              	.L90:
 525 034c 8C4A     		ldr	r2, .L529
 526 034e D360     		str	r3, [r2, #12]
 527 0350 5FE0     		b	.L39
 528              	.L66:
 529 0352 FB68     		ldr	r3, [r7, #12]
 530 0354 1B68     		ldr	r3, [r3]
 531 0356 8B4A     		ldr	r2, .L529+4
 532 0358 9342     		cmp	r3, r2
 533 035a 57D0     		beq	.L92
 534 035c FB68     		ldr	r3, [r7, #12]
 535 035e 1B68     		ldr	r3, [r3]
 536 0360 894A     		ldr	r2, .L529+8
 537 0362 9342     		cmp	r3, r2
 538 0364 50D0     		beq	.L93
 539 0366 FB68     		ldr	r3, [r7, #12]
 540 0368 1B68     		ldr	r3, [r3]
 541 036a 884A     		ldr	r2, .L529+12
 542 036c 9342     		cmp	r3, r2
 543 036e 49D0     		beq	.L94
 544 0370 FB68     		ldr	r3, [r7, #12]
 545 0372 1B68     		ldr	r3, [r3]
 546 0374 864A     		ldr	r2, .L529+16
 547 0376 9342     		cmp	r3, r2
 548 0378 42D0     		beq	.L95
 549 037a FB68     		ldr	r3, [r7, #12]
 550 037c 1B68     		ldr	r3, [r3]
 551 037e 854A     		ldr	r2, .L529+20
 552 0380 9342     		cmp	r3, r2
 553 0382 3AD0     		beq	.L96
 554 0384 FB68     		ldr	r3, [r7, #12]
 555 0386 1B68     		ldr	r3, [r3]
 556 0388 834A     		ldr	r2, .L529+24
 557 038a 9342     		cmp	r3, r2
 558 038c 32D0     		beq	.L97
 559 038e FB68     		ldr	r3, [r7, #12]
 560 0390 1B68     		ldr	r3, [r3]
 561 0392 824A     		ldr	r2, .L529+28
 562 0394 9342     		cmp	r3, r2
 563 0396 2AD0     		beq	.L98
 564 0398 FB68     		ldr	r3, [r7, #12]
 565 039a 1B68     		ldr	r3, [r3]
 566 039c 804A     		ldr	r2, .L529+32
 567 039e 9342     		cmp	r3, r2
 568 03a0 22D0     		beq	.L99
 569 03a2 FB68     		ldr	r3, [r7, #12]
 570 03a4 1B68     		ldr	r3, [r3]
 571 03a6 7F4A     		ldr	r2, .L529+36
 572 03a8 9342     		cmp	r3, r2
 573 03aa 1AD0     		beq	.L100
ARM GAS  C:\Users\user\AppData\Local\Temp\ccZRrPoM.s 			page 11


 574 03ac FB68     		ldr	r3, [r7, #12]
 575 03ae 1B68     		ldr	r3, [r3]
 576 03b0 7D4A     		ldr	r2, .L529+40
 577 03b2 9342     		cmp	r3, r2
 578 03b4 12D0     		beq	.L101
 579 03b6 FB68     		ldr	r3, [r7, #12]
 580 03b8 1B68     		ldr	r3, [r3]
 581 03ba 7C4A     		ldr	r2, .L529+44
 582 03bc 9342     		cmp	r3, r2
 583 03be 0AD0     		beq	.L102
 584 03c0 FB68     		ldr	r3, [r7, #12]
 585 03c2 1B68     		ldr	r3, [r3]
 586 03c4 7A4A     		ldr	r2, .L529+48
 587 03c6 9342     		cmp	r3, r2
 588 03c8 02D1     		bne	.L103
 589 03ca 4FF40013 		mov	r3, #2097152
 590 03ce 1EE0     		b	.L115
 591              	.L103:
 592 03d0 4FF00063 		mov	r3, #134217728
 593 03d4 1BE0     		b	.L115
 594              	.L102:
 595 03d6 4FF40013 		mov	r3, #2097152
 596 03da 18E0     		b	.L115
 597              	.L101:
 598 03dc 4FF40013 		mov	r3, #2097152
 599 03e0 15E0     		b	.L115
 600              	.L100:
 601 03e2 4FF40013 		mov	r3, #2097152
 602 03e6 12E0     		b	.L115
 603              	.L99:
 604 03e8 4FF40063 		mov	r3, #2048
 605 03ec 0FE0     		b	.L115
 606              	.L98:
 607 03ee 4FF40063 		mov	r3, #2048
 608 03f2 0CE0     		b	.L115
 609              	.L97:
 610 03f4 4FF40063 		mov	r3, #2048
 611 03f8 09E0     		b	.L115
 612              	.L96:
 613 03fa 4FF40063 		mov	r3, #2048
 614 03fe 06E0     		b	.L115
 615              	.L95:
 616 0400 2023     		movs	r3, #32
 617 0402 04E0     		b	.L115
 618              	.L94:
 619 0404 2023     		movs	r3, #32
 620 0406 02E0     		b	.L115
 621              	.L93:
 622 0408 2023     		movs	r3, #32
 623 040a 00E0     		b	.L115
 624              	.L92:
 625 040c 2023     		movs	r3, #32
 626              	.L115:
 627 040e 5C4A     		ldr	r2, .L529
 628 0410 9360     		str	r3, [r2, #8]
 629              	.L39:
 630 0412 FB68     		ldr	r3, [r7, #12]
ARM GAS  C:\Users\user\AppData\Local\Temp\ccZRrPoM.s 			page 12


 631 0414 1B68     		ldr	r3, [r3]
 632 0416 1A46     		mov	r2, r3
 633 0418 664B     		ldr	r3, .L529+52
 634 041a 9A42     		cmp	r2, r3
 635 041c 60D9     		bls	.L116
 636 041e FB68     		ldr	r3, [r7, #12]
 637 0420 1B68     		ldr	r3, [r3]
 638 0422 584A     		ldr	r2, .L529+4
 639 0424 9342     		cmp	r3, r2
 640 0426 57D0     		beq	.L117
 641 0428 FB68     		ldr	r3, [r7, #12]
 642 042a 1B68     		ldr	r3, [r3]
 643 042c 564A     		ldr	r2, .L529+8
 644 042e 9342     		cmp	r3, r2
 645 0430 50D0     		beq	.L118
 646 0432 FB68     		ldr	r3, [r7, #12]
 647 0434 1B68     		ldr	r3, [r3]
 648 0436 554A     		ldr	r2, .L529+12
 649 0438 9342     		cmp	r3, r2
 650 043a 49D0     		beq	.L119
 651 043c FB68     		ldr	r3, [r7, #12]
 652 043e 1B68     		ldr	r3, [r3]
 653 0440 534A     		ldr	r2, .L529+16
 654 0442 9342     		cmp	r3, r2
 655 0444 42D0     		beq	.L120
 656 0446 FB68     		ldr	r3, [r7, #12]
 657 0448 1B68     		ldr	r3, [r3]
 658 044a 524A     		ldr	r2, .L529+20
 659 044c 9342     		cmp	r3, r2
 660 044e 3AD0     		beq	.L121
 661 0450 FB68     		ldr	r3, [r7, #12]
 662 0452 1B68     		ldr	r3, [r3]
 663 0454 504A     		ldr	r2, .L529+24
 664 0456 9342     		cmp	r3, r2
 665 0458 32D0     		beq	.L122
 666 045a FB68     		ldr	r3, [r7, #12]
 667 045c 1B68     		ldr	r3, [r3]
 668 045e 4F4A     		ldr	r2, .L529+28
 669 0460 9342     		cmp	r3, r2
 670 0462 2AD0     		beq	.L123
 671 0464 FB68     		ldr	r3, [r7, #12]
 672 0466 1B68     		ldr	r3, [r3]
 673 0468 4D4A     		ldr	r2, .L529+32
 674 046a 9342     		cmp	r3, r2
 675 046c 22D0     		beq	.L124
 676 046e FB68     		ldr	r3, [r7, #12]
 677 0470 1B68     		ldr	r3, [r3]
 678 0472 4C4A     		ldr	r2, .L529+36
 679 0474 9342     		cmp	r3, r2
 680 0476 1AD0     		beq	.L125
 681 0478 FB68     		ldr	r3, [r7, #12]
 682 047a 1B68     		ldr	r3, [r3]
 683 047c 4A4A     		ldr	r2, .L529+40
 684 047e 9342     		cmp	r3, r2
 685 0480 12D0     		beq	.L126
 686 0482 FB68     		ldr	r3, [r7, #12]
 687 0484 1B68     		ldr	r3, [r3]
ARM GAS  C:\Users\user\AppData\Local\Temp\ccZRrPoM.s 			page 13


 688 0486 494A     		ldr	r2, .L529+44
 689 0488 9342     		cmp	r3, r2
 690 048a 0AD0     		beq	.L127
 691 048c FB68     		ldr	r3, [r7, #12]
 692 048e 1B68     		ldr	r3, [r3]
 693 0490 474A     		ldr	r2, .L529+48
 694 0492 9342     		cmp	r3, r2
 695 0494 02D1     		bne	.L128
 696 0496 4FF48013 		mov	r3, #1048576
 697 049a 1EE0     		b	.L140
 698              	.L128:
 699 049c 4FF08063 		mov	r3, #67108864
 700 04a0 1BE0     		b	.L140
 701              	.L127:
 702 04a2 4FF48013 		mov	r3, #1048576
 703 04a6 18E0     		b	.L140
 704              	.L126:
 705 04a8 4FF48013 		mov	r3, #1048576
 706 04ac 15E0     		b	.L140
 707              	.L125:
 708 04ae 4FF48013 		mov	r3, #1048576
 709 04b2 12E0     		b	.L140
 710              	.L124:
 711 04b4 4FF48063 		mov	r3, #1024
 712 04b8 0FE0     		b	.L140
 713              	.L123:
 714 04ba 4FF48063 		mov	r3, #1024
 715 04be 0CE0     		b	.L140
 716              	.L122:
 717 04c0 4FF48063 		mov	r3, #1024
 718 04c4 09E0     		b	.L140
 719              	.L121:
 720 04c6 4FF48063 		mov	r3, #1024
 721 04ca 06E0     		b	.L140
 722              	.L120:
 723 04cc 1023     		movs	r3, #16
 724 04ce 04E0     		b	.L140
 725              	.L119:
 726 04d0 1023     		movs	r3, #16
 727 04d2 02E0     		b	.L140
 728              	.L118:
 729 04d4 1023     		movs	r3, #16
 730 04d6 00E0     		b	.L140
 731              	.L117:
 732 04d8 1023     		movs	r3, #16
 733              	.L140:
 734 04da 374A     		ldr	r2, .L529+56
 735 04dc D360     		str	r3, [r2, #12]
 736 04de 4FE1     		b	.L141
 737              	.L116:
 738 04e0 FB68     		ldr	r3, [r7, #12]
 739 04e2 1B68     		ldr	r3, [r3]
 740 04e4 1A46     		mov	r2, r3
 741 04e6 354B     		ldr	r3, .L529+60
 742 04e8 9A42     		cmp	r2, r3
 743 04ea 40F28280 		bls	.L142
 744 04ee FB68     		ldr	r3, [r7, #12]
ARM GAS  C:\Users\user\AppData\Local\Temp\ccZRrPoM.s 			page 14


 745 04f0 1B68     		ldr	r3, [r3]
 746 04f2 244A     		ldr	r2, .L529+4
 747 04f4 9342     		cmp	r3, r2
 748 04f6 78D0     		beq	.L143
 749 04f8 FB68     		ldr	r3, [r7, #12]
 750 04fa 1B68     		ldr	r3, [r3]
 751 04fc 224A     		ldr	r2, .L529+8
 752 04fe 9342     		cmp	r3, r2
 753 0500 71D0     		beq	.L144
 754 0502 FB68     		ldr	r3, [r7, #12]
 755 0504 1B68     		ldr	r3, [r3]
 756 0506 214A     		ldr	r2, .L529+12
 757 0508 9342     		cmp	r3, r2
 758 050a 6AD0     		beq	.L145
 759 050c FB68     		ldr	r3, [r7, #12]
 760 050e 1B68     		ldr	r3, [r3]
 761 0510 1F4A     		ldr	r2, .L529+16
 762 0512 9342     		cmp	r3, r2
 763 0514 63D0     		beq	.L146
 764 0516 FB68     		ldr	r3, [r7, #12]
 765 0518 1B68     		ldr	r3, [r3]
 766 051a 1E4A     		ldr	r2, .L529+20
 767 051c 9342     		cmp	r3, r2
 768 051e 5BD0     		beq	.L147
 769 0520 FB68     		ldr	r3, [r7, #12]
 770 0522 1B68     		ldr	r3, [r3]
 771 0524 1C4A     		ldr	r2, .L529+24
 772 0526 9342     		cmp	r3, r2
 773 0528 53D0     		beq	.L148
 774 052a FB68     		ldr	r3, [r7, #12]
 775 052c 1B68     		ldr	r3, [r3]
 776 052e 1B4A     		ldr	r2, .L529+28
 777 0530 9342     		cmp	r3, r2
 778 0532 4BD0     		beq	.L149
 779 0534 FB68     		ldr	r3, [r7, #12]
 780 0536 1B68     		ldr	r3, [r3]
 781 0538 194A     		ldr	r2, .L529+32
 782 053a 9342     		cmp	r3, r2
 783 053c 43D0     		beq	.L150
 784 053e FB68     		ldr	r3, [r7, #12]
 785 0540 1B68     		ldr	r3, [r3]
 786 0542 184A     		ldr	r2, .L529+36
 787 0544 9342     		cmp	r3, r2
 788 0546 3BD0     		beq	.L151
 789 0548 FB68     		ldr	r3, [r7, #12]
 790 054a 1B68     		ldr	r3, [r3]
 791 054c 164A     		ldr	r2, .L529+40
 792 054e 9342     		cmp	r3, r2
 793 0550 12D0     		beq	.L152
 794 0552 FB68     		ldr	r3, [r7, #12]
 795 0554 1B68     		ldr	r3, [r3]
 796 0556 154A     		ldr	r2, .L529+44
 797 0558 9342     		cmp	r3, r2
 798 055a 0AD0     		beq	.L153
 799 055c FB68     		ldr	r3, [r7, #12]
 800 055e 1B68     		ldr	r3, [r3]
 801 0560 134A     		ldr	r2, .L529+48
ARM GAS  C:\Users\user\AppData\Local\Temp\ccZRrPoM.s 			page 15


 802 0562 9342     		cmp	r3, r2
 803 0564 02D1     		bne	.L154
 804 0566 4FF48013 		mov	r3, #1048576
 805 056a 3FE0     		b	.L166
 806              	.L154:
 807 056c 4FF08063 		mov	r3, #67108864
 808 0570 3CE0     		b	.L166
 809              	.L153:
 810 0572 4FF48013 		mov	r3, #1048576
 811 0576 39E0     		b	.L166
 812              	.L152:
 813 0578 4FF48013 		mov	r3, #1048576
 814 057c 36E0     		b	.L166
 815              	.L530:
 816 057e 00BF     		.align	2
 817              	.L529:
 818 0580 00600240 		.word	1073897472
 819 0584 10600240 		.word	1073897488
 820 0588 10640240 		.word	1073898512
 821 058c 70600240 		.word	1073897584
 822 0590 70640240 		.word	1073898608
 823 0594 28600240 		.word	1073897512
 824 0598 28640240 		.word	1073898536
 825 059c 88600240 		.word	1073897608
 826 05a0 88640240 		.word	1073898632
 827 05a4 40600240 		.word	1073897536
 828 05a8 40640240 		.word	1073898560
 829 05ac A0600240 		.word	1073897632
 830 05b0 A0640240 		.word	1073898656
 831 05b4 58640240 		.word	1073898584
 832 05b8 00640240 		.word	1073898496
 833 05bc B8600240 		.word	1073897656
 834              	.L151:
 835 05c0 4FF48013 		mov	r3, #1048576
 836 05c4 12E0     		b	.L166
 837              	.L150:
 838 05c6 4FF48063 		mov	r3, #1024
 839 05ca 0FE0     		b	.L166
 840              	.L149:
 841 05cc 4FF48063 		mov	r3, #1024
 842 05d0 0CE0     		b	.L166
 843              	.L148:
 844 05d2 4FF48063 		mov	r3, #1024
 845 05d6 09E0     		b	.L166
 846              	.L147:
 847 05d8 4FF48063 		mov	r3, #1024
 848 05dc 06E0     		b	.L166
 849              	.L146:
 850 05de 1023     		movs	r3, #16
 851 05e0 04E0     		b	.L166
 852              	.L145:
 853 05e2 1023     		movs	r3, #16
 854 05e4 02E0     		b	.L166
 855              	.L144:
 856 05e6 1023     		movs	r3, #16
 857 05e8 00E0     		b	.L166
 858              	.L143:
ARM GAS  C:\Users\user\AppData\Local\Temp\ccZRrPoM.s 			page 16


 859 05ea 1023     		movs	r3, #16
 860              	.L166:
 861 05ec 8C4A     		ldr	r2, .L531
 862 05ee 9360     		str	r3, [r2, #8]
 863 05f0 C6E0     		b	.L141
 864              	.L142:
 865 05f2 FB68     		ldr	r3, [r7, #12]
 866 05f4 1B68     		ldr	r3, [r3]
 867 05f6 1A46     		mov	r2, r3
 868 05f8 8A4B     		ldr	r3, .L531+4
 869 05fa 9A42     		cmp	r2, r3
 870 05fc 60D9     		bls	.L168
 871 05fe FB68     		ldr	r3, [r7, #12]
 872 0600 1B68     		ldr	r3, [r3]
 873 0602 894A     		ldr	r2, .L531+8
 874 0604 9342     		cmp	r3, r2
 875 0606 57D0     		beq	.L169
 876 0608 FB68     		ldr	r3, [r7, #12]
 877 060a 1B68     		ldr	r3, [r3]
 878 060c 874A     		ldr	r2, .L531+12
 879 060e 9342     		cmp	r3, r2
 880 0610 50D0     		beq	.L170
 881 0612 FB68     		ldr	r3, [r7, #12]
 882 0614 1B68     		ldr	r3, [r3]
 883 0616 864A     		ldr	r2, .L531+16
 884 0618 9342     		cmp	r3, r2
 885 061a 49D0     		beq	.L171
 886 061c FB68     		ldr	r3, [r7, #12]
 887 061e 1B68     		ldr	r3, [r3]
 888 0620 844A     		ldr	r2, .L531+20
 889 0622 9342     		cmp	r3, r2
 890 0624 42D0     		beq	.L172
 891 0626 FB68     		ldr	r3, [r7, #12]
 892 0628 1B68     		ldr	r3, [r3]
 893 062a 834A     		ldr	r2, .L531+24
 894 062c 9342     		cmp	r3, r2
 895 062e 3AD0     		beq	.L173
 896 0630 FB68     		ldr	r3, [r7, #12]
 897 0632 1B68     		ldr	r3, [r3]
 898 0634 814A     		ldr	r2, .L531+28
 899 0636 9342     		cmp	r3, r2
 900 0638 32D0     		beq	.L174
 901 063a FB68     		ldr	r3, [r7, #12]
 902 063c 1B68     		ldr	r3, [r3]
 903 063e 804A     		ldr	r2, .L531+32
 904 0640 9342     		cmp	r3, r2
 905 0642 2AD0     		beq	.L175
 906 0644 FB68     		ldr	r3, [r7, #12]
 907 0646 1B68     		ldr	r3, [r3]
 908 0648 7E4A     		ldr	r2, .L531+36
 909 064a 9342     		cmp	r3, r2
 910 064c 22D0     		beq	.L176
 911 064e FB68     		ldr	r3, [r7, #12]
 912 0650 1B68     		ldr	r3, [r3]
 913 0652 7D4A     		ldr	r2, .L531+40
 914 0654 9342     		cmp	r3, r2
 915 0656 1AD0     		beq	.L177
ARM GAS  C:\Users\user\AppData\Local\Temp\ccZRrPoM.s 			page 17


 916 0658 FB68     		ldr	r3, [r7, #12]
 917 065a 1B68     		ldr	r3, [r3]
 918 065c 7B4A     		ldr	r2, .L531+44
 919 065e 9342     		cmp	r3, r2
 920 0660 12D0     		beq	.L178
 921 0662 FB68     		ldr	r3, [r7, #12]
 922 0664 1B68     		ldr	r3, [r3]
 923 0666 7A4A     		ldr	r2, .L531+48
 924 0668 9342     		cmp	r3, r2
 925 066a 0AD0     		beq	.L179
 926 066c FB68     		ldr	r3, [r7, #12]
 927 066e 1B68     		ldr	r3, [r3]
 928 0670 784A     		ldr	r2, .L531+52
 929 0672 9342     		cmp	r3, r2
 930 0674 02D1     		bne	.L180
 931 0676 4FF48013 		mov	r3, #1048576
 932 067a 1EE0     		b	.L192
 933              	.L180:
 934 067c 4FF08063 		mov	r3, #67108864
 935 0680 1BE0     		b	.L192
 936              	.L179:
 937 0682 4FF48013 		mov	r3, #1048576
 938 0686 18E0     		b	.L192
 939              	.L178:
 940 0688 4FF48013 		mov	r3, #1048576
 941 068c 15E0     		b	.L192
 942              	.L177:
 943 068e 4FF48013 		mov	r3, #1048576
 944 0692 12E0     		b	.L192
 945              	.L176:
 946 0694 4FF48063 		mov	r3, #1024
 947 0698 0FE0     		b	.L192
 948              	.L175:
 949 069a 4FF48063 		mov	r3, #1024
 950 069e 0CE0     		b	.L192
 951              	.L174:
 952 06a0 4FF48063 		mov	r3, #1024
 953 06a4 09E0     		b	.L192
 954              	.L173:
 955 06a6 4FF48063 		mov	r3, #1024
 956 06aa 06E0     		b	.L192
 957              	.L172:
 958 06ac 1023     		movs	r3, #16
 959 06ae 04E0     		b	.L192
 960              	.L171:
 961 06b0 1023     		movs	r3, #16
 962 06b2 02E0     		b	.L192
 963              	.L170:
 964 06b4 1023     		movs	r3, #16
 965 06b6 00E0     		b	.L192
 966              	.L169:
 967 06b8 1023     		movs	r3, #16
 968              	.L192:
 969 06ba 674A     		ldr	r2, .L531+56
 970 06bc D360     		str	r3, [r2, #12]
 971 06be 5FE0     		b	.L141
 972              	.L168:
ARM GAS  C:\Users\user\AppData\Local\Temp\ccZRrPoM.s 			page 18


 973 06c0 FB68     		ldr	r3, [r7, #12]
 974 06c2 1B68     		ldr	r3, [r3]
 975 06c4 584A     		ldr	r2, .L531+8
 976 06c6 9342     		cmp	r3, r2
 977 06c8 57D0     		beq	.L194
 978 06ca FB68     		ldr	r3, [r7, #12]
 979 06cc 1B68     		ldr	r3, [r3]
 980 06ce 574A     		ldr	r2, .L531+12
 981 06d0 9342     		cmp	r3, r2
 982 06d2 50D0     		beq	.L195
 983 06d4 FB68     		ldr	r3, [r7, #12]
 984 06d6 1B68     		ldr	r3, [r3]
 985 06d8 554A     		ldr	r2, .L531+16
 986 06da 9342     		cmp	r3, r2
 987 06dc 49D0     		beq	.L196
 988 06de FB68     		ldr	r3, [r7, #12]
 989 06e0 1B68     		ldr	r3, [r3]
 990 06e2 544A     		ldr	r2, .L531+20
 991 06e4 9342     		cmp	r3, r2
 992 06e6 42D0     		beq	.L197
 993 06e8 FB68     		ldr	r3, [r7, #12]
 994 06ea 1B68     		ldr	r3, [r3]
 995 06ec 524A     		ldr	r2, .L531+24
 996 06ee 9342     		cmp	r3, r2
 997 06f0 3AD0     		beq	.L198
 998 06f2 FB68     		ldr	r3, [r7, #12]
 999 06f4 1B68     		ldr	r3, [r3]
 1000 06f6 514A     		ldr	r2, .L531+28
 1001 06f8 9342     		cmp	r3, r2
 1002 06fa 32D0     		beq	.L199
 1003 06fc FB68     		ldr	r3, [r7, #12]
 1004 06fe 1B68     		ldr	r3, [r3]
 1005 0700 4F4A     		ldr	r2, .L531+32
 1006 0702 9342     		cmp	r3, r2
 1007 0704 2AD0     		beq	.L200
 1008 0706 FB68     		ldr	r3, [r7, #12]
 1009 0708 1B68     		ldr	r3, [r3]
 1010 070a 4E4A     		ldr	r2, .L531+36
 1011 070c 9342     		cmp	r3, r2
 1012 070e 22D0     		beq	.L201
 1013 0710 FB68     		ldr	r3, [r7, #12]
 1014 0712 1B68     		ldr	r3, [r3]
 1015 0714 4C4A     		ldr	r2, .L531+40
 1016 0716 9342     		cmp	r3, r2
 1017 0718 1AD0     		beq	.L202
 1018 071a FB68     		ldr	r3, [r7, #12]
 1019 071c 1B68     		ldr	r3, [r3]
 1020 071e 4B4A     		ldr	r2, .L531+44
 1021 0720 9342     		cmp	r3, r2
 1022 0722 12D0     		beq	.L203
 1023 0724 FB68     		ldr	r3, [r7, #12]
 1024 0726 1B68     		ldr	r3, [r3]
 1025 0728 494A     		ldr	r2, .L531+48
 1026 072a 9342     		cmp	r3, r2
 1027 072c 0AD0     		beq	.L204
 1028 072e FB68     		ldr	r3, [r7, #12]
 1029 0730 1B68     		ldr	r3, [r3]
ARM GAS  C:\Users\user\AppData\Local\Temp\ccZRrPoM.s 			page 19


 1030 0732 484A     		ldr	r2, .L531+52
 1031 0734 9342     		cmp	r3, r2
 1032 0736 02D1     		bne	.L205
 1033 0738 4FF48013 		mov	r3, #1048576
 1034 073c 1EE0     		b	.L217
 1035              	.L205:
 1036 073e 4FF08063 		mov	r3, #67108864
 1037 0742 1BE0     		b	.L217
 1038              	.L204:
 1039 0744 4FF48013 		mov	r3, #1048576
 1040 0748 18E0     		b	.L217
 1041              	.L203:
 1042 074a 4FF48013 		mov	r3, #1048576
 1043 074e 15E0     		b	.L217
 1044              	.L202:
 1045 0750 4FF48013 		mov	r3, #1048576
 1046 0754 12E0     		b	.L217
 1047              	.L201:
 1048 0756 4FF48063 		mov	r3, #1024
 1049 075a 0FE0     		b	.L217
 1050              	.L200:
 1051 075c 4FF48063 		mov	r3, #1024
 1052 0760 0CE0     		b	.L217
 1053              	.L199:
 1054 0762 4FF48063 		mov	r3, #1024
 1055 0766 09E0     		b	.L217
 1056              	.L198:
 1057 0768 4FF48063 		mov	r3, #1024
 1058 076c 06E0     		b	.L217
 1059              	.L197:
 1060 076e 1023     		movs	r3, #16
 1061 0770 04E0     		b	.L217
 1062              	.L196:
 1063 0772 1023     		movs	r3, #16
 1064 0774 02E0     		b	.L217
 1065              	.L195:
 1066 0776 1023     		movs	r3, #16
 1067 0778 00E0     		b	.L217
 1068              	.L194:
 1069 077a 1023     		movs	r3, #16
 1070              	.L217:
 1071 077c 364A     		ldr	r2, .L531+56
 1072 077e 9360     		str	r3, [r2, #8]
 1073              	.L141:
 1074 0780 FB68     		ldr	r3, [r7, #12]
 1075 0782 1B68     		ldr	r3, [r3]
 1076 0784 1A46     		mov	r2, r3
 1077 0786 354B     		ldr	r3, .L531+60
 1078 0788 9A42     		cmp	r2, r3
 1079 078a 40F28280 		bls	.L218
 1080 078e FB68     		ldr	r3, [r7, #12]
 1081 0790 1B68     		ldr	r3, [r3]
 1082 0792 254A     		ldr	r2, .L531+8
 1083 0794 9342     		cmp	r3, r2
 1084 0796 78D0     		beq	.L219
 1085 0798 FB68     		ldr	r3, [r7, #12]
 1086 079a 1B68     		ldr	r3, [r3]
ARM GAS  C:\Users\user\AppData\Local\Temp\ccZRrPoM.s 			page 20


 1087 079c 234A     		ldr	r2, .L531+12
 1088 079e 9342     		cmp	r3, r2
 1089 07a0 71D0     		beq	.L220
 1090 07a2 FB68     		ldr	r3, [r7, #12]
 1091 07a4 1B68     		ldr	r3, [r3]
 1092 07a6 224A     		ldr	r2, .L531+16
 1093 07a8 9342     		cmp	r3, r2
 1094 07aa 6AD0     		beq	.L221
 1095 07ac FB68     		ldr	r3, [r7, #12]
 1096 07ae 1B68     		ldr	r3, [r3]
 1097 07b0 204A     		ldr	r2, .L531+20
 1098 07b2 9342     		cmp	r3, r2
 1099 07b4 63D0     		beq	.L222
 1100 07b6 FB68     		ldr	r3, [r7, #12]
 1101 07b8 1B68     		ldr	r3, [r3]
 1102 07ba 1F4A     		ldr	r2, .L531+24
 1103 07bc 9342     		cmp	r3, r2
 1104 07be 5BD0     		beq	.L223
 1105 07c0 FB68     		ldr	r3, [r7, #12]
 1106 07c2 1B68     		ldr	r3, [r3]
 1107 07c4 1D4A     		ldr	r2, .L531+28
 1108 07c6 9342     		cmp	r3, r2
 1109 07c8 53D0     		beq	.L224
 1110 07ca FB68     		ldr	r3, [r7, #12]
 1111 07cc 1B68     		ldr	r3, [r3]
 1112 07ce 1C4A     		ldr	r2, .L531+32
 1113 07d0 9342     		cmp	r3, r2
 1114 07d2 4BD0     		beq	.L225
 1115 07d4 FB68     		ldr	r3, [r7, #12]
 1116 07d6 1B68     		ldr	r3, [r3]
 1117 07d8 1A4A     		ldr	r2, .L531+36
 1118 07da 9342     		cmp	r3, r2
 1119 07dc 43D0     		beq	.L226
 1120 07de FB68     		ldr	r3, [r7, #12]
 1121 07e0 1B68     		ldr	r3, [r3]
 1122 07e2 194A     		ldr	r2, .L531+40
 1123 07e4 9342     		cmp	r3, r2
 1124 07e6 3BD0     		beq	.L227
 1125 07e8 FB68     		ldr	r3, [r7, #12]
 1126 07ea 1B68     		ldr	r3, [r3]
 1127 07ec 174A     		ldr	r2, .L531+44
 1128 07ee 9342     		cmp	r3, r2
 1129 07f0 12D0     		beq	.L228
 1130 07f2 FB68     		ldr	r3, [r7, #12]
 1131 07f4 1B68     		ldr	r3, [r3]
 1132 07f6 164A     		ldr	r2, .L531+48
 1133 07f8 9342     		cmp	r3, r2
 1134 07fa 0AD0     		beq	.L229
 1135 07fc FB68     		ldr	r3, [r7, #12]
 1136 07fe 1B68     		ldr	r3, [r3]
 1137 0800 144A     		ldr	r2, .L531+52
 1138 0802 9342     		cmp	r3, r2
 1139 0804 02D1     		bne	.L230
 1140 0806 4FF40023 		mov	r3, #524288
 1141 080a 3FE0     		b	.L242
 1142              	.L230:
 1143 080c 4FF00073 		mov	r3, #33554432
ARM GAS  C:\Users\user\AppData\Local\Temp\ccZRrPoM.s 			page 21


 1144 0810 3CE0     		b	.L242
 1145              	.L229:
 1146 0812 4FF40023 		mov	r3, #524288
 1147 0816 39E0     		b	.L242
 1148              	.L228:
 1149 0818 4FF40023 		mov	r3, #524288
 1150 081c 36E0     		b	.L242
 1151              	.L532:
 1152 081e 00BF     		.align	2
 1153              	.L531:
 1154 0820 00640240 		.word	1073898496
 1155 0824 58600240 		.word	1073897560
 1156 0828 10600240 		.word	1073897488
 1157 082c 10640240 		.word	1073898512
 1158 0830 70600240 		.word	1073897584
 1159 0834 70640240 		.word	1073898608
 1160 0838 28600240 		.word	1073897512
 1161 083c 28640240 		.word	1073898536
 1162 0840 88600240 		.word	1073897608
 1163 0844 88640240 		.word	1073898632
 1164 0848 40600240 		.word	1073897536
 1165 084c 40640240 		.word	1073898560
 1166 0850 A0600240 		.word	1073897632
 1167 0854 A0640240 		.word	1073898656
 1168 0858 00600240 		.word	1073897472
 1169 085c 58640240 		.word	1073898584
 1170              	.L227:
 1171 0860 4FF40023 		mov	r3, #524288
 1172 0864 12E0     		b	.L242
 1173              	.L226:
 1174 0866 4FF40073 		mov	r3, #512
 1175 086a 0FE0     		b	.L242
 1176              	.L225:
 1177 086c 4FF40073 		mov	r3, #512
 1178 0870 0CE0     		b	.L242
 1179              	.L224:
 1180 0872 4FF40073 		mov	r3, #512
 1181 0876 09E0     		b	.L242
 1182              	.L223:
 1183 0878 4FF40073 		mov	r3, #512
 1184 087c 06E0     		b	.L242
 1185              	.L222:
 1186 087e 0823     		movs	r3, #8
 1187 0880 04E0     		b	.L242
 1188              	.L221:
 1189 0882 0823     		movs	r3, #8
 1190 0884 02E0     		b	.L242
 1191              	.L220:
 1192 0886 0823     		movs	r3, #8
 1193 0888 00E0     		b	.L242
 1194              	.L219:
 1195 088a 0823     		movs	r3, #8
 1196              	.L242:
 1197 088c 8C4A     		ldr	r2, .L533
 1198 088e D360     		str	r3, [r2, #12]
 1199 0890 4EE1     		b	.L243
 1200              	.L218:
ARM GAS  C:\Users\user\AppData\Local\Temp\ccZRrPoM.s 			page 22


 1201 0892 FB68     		ldr	r3, [r7, #12]
 1202 0894 1B68     		ldr	r3, [r3]
 1203 0896 1A46     		mov	r2, r3
 1204 0898 8A4B     		ldr	r3, .L533+4
 1205 089a 9A42     		cmp	r2, r3
 1206 089c 60D9     		bls	.L244
 1207 089e FB68     		ldr	r3, [r7, #12]
 1208 08a0 1B68     		ldr	r3, [r3]
 1209 08a2 894A     		ldr	r2, .L533+8
 1210 08a4 9342     		cmp	r3, r2
 1211 08a6 57D0     		beq	.L245
 1212 08a8 FB68     		ldr	r3, [r7, #12]
 1213 08aa 1B68     		ldr	r3, [r3]
 1214 08ac 874A     		ldr	r2, .L533+12
 1215 08ae 9342     		cmp	r3, r2
 1216 08b0 50D0     		beq	.L246
 1217 08b2 FB68     		ldr	r3, [r7, #12]
 1218 08b4 1B68     		ldr	r3, [r3]
 1219 08b6 864A     		ldr	r2, .L533+16
 1220 08b8 9342     		cmp	r3, r2
 1221 08ba 49D0     		beq	.L247
 1222 08bc FB68     		ldr	r3, [r7, #12]
 1223 08be 1B68     		ldr	r3, [r3]
 1224 08c0 844A     		ldr	r2, .L533+20
 1225 08c2 9342     		cmp	r3, r2
 1226 08c4 42D0     		beq	.L248
 1227 08c6 FB68     		ldr	r3, [r7, #12]
 1228 08c8 1B68     		ldr	r3, [r3]
 1229 08ca 834A     		ldr	r2, .L533+24
 1230 08cc 9342     		cmp	r3, r2
 1231 08ce 3AD0     		beq	.L249
 1232 08d0 FB68     		ldr	r3, [r7, #12]
 1233 08d2 1B68     		ldr	r3, [r3]
 1234 08d4 814A     		ldr	r2, .L533+28
 1235 08d6 9342     		cmp	r3, r2
 1236 08d8 32D0     		beq	.L250
 1237 08da FB68     		ldr	r3, [r7, #12]
 1238 08dc 1B68     		ldr	r3, [r3]
 1239 08de 804A     		ldr	r2, .L533+32
 1240 08e0 9342     		cmp	r3, r2
 1241 08e2 2AD0     		beq	.L251
 1242 08e4 FB68     		ldr	r3, [r7, #12]
 1243 08e6 1B68     		ldr	r3, [r3]
 1244 08e8 7E4A     		ldr	r2, .L533+36
 1245 08ea 9342     		cmp	r3, r2
 1246 08ec 22D0     		beq	.L252
 1247 08ee FB68     		ldr	r3, [r7, #12]
 1248 08f0 1B68     		ldr	r3, [r3]
 1249 08f2 7D4A     		ldr	r2, .L533+40
 1250 08f4 9342     		cmp	r3, r2
 1251 08f6 1AD0     		beq	.L253
 1252 08f8 FB68     		ldr	r3, [r7, #12]
 1253 08fa 1B68     		ldr	r3, [r3]
 1254 08fc 7B4A     		ldr	r2, .L533+44
 1255 08fe 9342     		cmp	r3, r2
 1256 0900 12D0     		beq	.L254
 1257 0902 FB68     		ldr	r3, [r7, #12]
ARM GAS  C:\Users\user\AppData\Local\Temp\ccZRrPoM.s 			page 23


 1258 0904 1B68     		ldr	r3, [r3]
 1259 0906 7A4A     		ldr	r2, .L533+48
 1260 0908 9342     		cmp	r3, r2
 1261 090a 0AD0     		beq	.L255
 1262 090c FB68     		ldr	r3, [r7, #12]
 1263 090e 1B68     		ldr	r3, [r3]
 1264 0910 784A     		ldr	r2, .L533+52
 1265 0912 9342     		cmp	r3, r2
 1266 0914 02D1     		bne	.L256
 1267 0916 4FF40023 		mov	r3, #524288
 1268 091a 1EE0     		b	.L268
 1269              	.L256:
 1270 091c 4FF00073 		mov	r3, #33554432
 1271 0920 1BE0     		b	.L268
 1272              	.L255:
 1273 0922 4FF40023 		mov	r3, #524288
 1274 0926 18E0     		b	.L268
 1275              	.L254:
 1276 0928 4FF40023 		mov	r3, #524288
 1277 092c 15E0     		b	.L268
 1278              	.L253:
 1279 092e 4FF40023 		mov	r3, #524288
 1280 0932 12E0     		b	.L268
 1281              	.L252:
 1282 0934 4FF40073 		mov	r3, #512
 1283 0938 0FE0     		b	.L268
 1284              	.L251:
 1285 093a 4FF40073 		mov	r3, #512
 1286 093e 0CE0     		b	.L268
 1287              	.L250:
 1288 0940 4FF40073 		mov	r3, #512
 1289 0944 09E0     		b	.L268
 1290              	.L249:
 1291 0946 4FF40073 		mov	r3, #512
 1292 094a 06E0     		b	.L268
 1293              	.L248:
 1294 094c 0823     		movs	r3, #8
 1295 094e 04E0     		b	.L268
 1296              	.L247:
 1297 0950 0823     		movs	r3, #8
 1298 0952 02E0     		b	.L268
 1299              	.L246:
 1300 0954 0823     		movs	r3, #8
 1301 0956 00E0     		b	.L268
 1302              	.L245:
 1303 0958 0823     		movs	r3, #8
 1304              	.L268:
 1305 095a 594A     		ldr	r2, .L533
 1306 095c 9360     		str	r3, [r2, #8]
 1307 095e E7E0     		b	.L243
 1308              	.L244:
 1309 0960 FB68     		ldr	r3, [r7, #12]
 1310 0962 1B68     		ldr	r3, [r3]
 1311 0964 1A46     		mov	r2, r3
 1312 0966 644B     		ldr	r3, .L533+56
 1313 0968 9A42     		cmp	r2, r3
 1314 096a 60D9     		bls	.L270
ARM GAS  C:\Users\user\AppData\Local\Temp\ccZRrPoM.s 			page 24


 1315 096c FB68     		ldr	r3, [r7, #12]
 1316 096e 1B68     		ldr	r3, [r3]
 1317 0970 554A     		ldr	r2, .L533+8
 1318 0972 9342     		cmp	r3, r2
 1319 0974 57D0     		beq	.L271
 1320 0976 FB68     		ldr	r3, [r7, #12]
 1321 0978 1B68     		ldr	r3, [r3]
 1322 097a 544A     		ldr	r2, .L533+12
 1323 097c 9342     		cmp	r3, r2
 1324 097e 50D0     		beq	.L272
 1325 0980 FB68     		ldr	r3, [r7, #12]
 1326 0982 1B68     		ldr	r3, [r3]
 1327 0984 524A     		ldr	r2, .L533+16
 1328 0986 9342     		cmp	r3, r2
 1329 0988 49D0     		beq	.L273
 1330 098a FB68     		ldr	r3, [r7, #12]
 1331 098c 1B68     		ldr	r3, [r3]
 1332 098e 514A     		ldr	r2, .L533+20
 1333 0990 9342     		cmp	r3, r2
 1334 0992 42D0     		beq	.L274
 1335 0994 FB68     		ldr	r3, [r7, #12]
 1336 0996 1B68     		ldr	r3, [r3]
 1337 0998 4F4A     		ldr	r2, .L533+24
 1338 099a 9342     		cmp	r3, r2
 1339 099c 3AD0     		beq	.L275
 1340 099e FB68     		ldr	r3, [r7, #12]
 1341 09a0 1B68     		ldr	r3, [r3]
 1342 09a2 4E4A     		ldr	r2, .L533+28
 1343 09a4 9342     		cmp	r3, r2
 1344 09a6 32D0     		beq	.L276
 1345 09a8 FB68     		ldr	r3, [r7, #12]
 1346 09aa 1B68     		ldr	r3, [r3]
 1347 09ac 4C4A     		ldr	r2, .L533+32
 1348 09ae 9342     		cmp	r3, r2
 1349 09b0 2AD0     		beq	.L277
 1350 09b2 FB68     		ldr	r3, [r7, #12]
 1351 09b4 1B68     		ldr	r3, [r3]
 1352 09b6 4B4A     		ldr	r2, .L533+36
 1353 09b8 9342     		cmp	r3, r2
 1354 09ba 22D0     		beq	.L278
 1355 09bc FB68     		ldr	r3, [r7, #12]
 1356 09be 1B68     		ldr	r3, [r3]
 1357 09c0 494A     		ldr	r2, .L533+40
 1358 09c2 9342     		cmp	r3, r2
 1359 09c4 1AD0     		beq	.L279
 1360 09c6 FB68     		ldr	r3, [r7, #12]
 1361 09c8 1B68     		ldr	r3, [r3]
 1362 09ca 484A     		ldr	r2, .L533+44
 1363 09cc 9342     		cmp	r3, r2
 1364 09ce 12D0     		beq	.L280
 1365 09d0 FB68     		ldr	r3, [r7, #12]
 1366 09d2 1B68     		ldr	r3, [r3]
 1367 09d4 464A     		ldr	r2, .L533+48
 1368 09d6 9342     		cmp	r3, r2
 1369 09d8 0AD0     		beq	.L281
 1370 09da FB68     		ldr	r3, [r7, #12]
 1371 09dc 1B68     		ldr	r3, [r3]
ARM GAS  C:\Users\user\AppData\Local\Temp\ccZRrPoM.s 			page 25


 1372 09de 454A     		ldr	r2, .L533+52
 1373 09e0 9342     		cmp	r3, r2
 1374 09e2 02D1     		bne	.L282
 1375 09e4 4FF40023 		mov	r3, #524288
 1376 09e8 1EE0     		b	.L294
 1377              	.L282:
 1378 09ea 4FF00073 		mov	r3, #33554432
 1379 09ee 1BE0     		b	.L294
 1380              	.L281:
 1381 09f0 4FF40023 		mov	r3, #524288
 1382 09f4 18E0     		b	.L294
 1383              	.L280:
 1384 09f6 4FF40023 		mov	r3, #524288
 1385 09fa 15E0     		b	.L294
 1386              	.L279:
 1387 09fc 4FF40023 		mov	r3, #524288
 1388 0a00 12E0     		b	.L294
 1389              	.L278:
 1390 0a02 4FF40073 		mov	r3, #512
 1391 0a06 0FE0     		b	.L294
 1392              	.L277:
 1393 0a08 4FF40073 		mov	r3, #512
 1394 0a0c 0CE0     		b	.L294
 1395              	.L276:
 1396 0a0e 4FF40073 		mov	r3, #512
 1397 0a12 09E0     		b	.L294
 1398              	.L275:
 1399 0a14 4FF40073 		mov	r3, #512
 1400 0a18 06E0     		b	.L294
 1401              	.L274:
 1402 0a1a 0823     		movs	r3, #8
 1403 0a1c 04E0     		b	.L294
 1404              	.L273:
 1405 0a1e 0823     		movs	r3, #8
 1406 0a20 02E0     		b	.L294
 1407              	.L272:
 1408 0a22 0823     		movs	r3, #8
 1409 0a24 00E0     		b	.L294
 1410              	.L271:
 1411 0a26 0823     		movs	r3, #8
 1412              	.L294:
 1413 0a28 344A     		ldr	r2, .L533+60
 1414 0a2a D360     		str	r3, [r2, #12]
 1415 0a2c 80E0     		b	.L243
 1416              	.L270:
 1417 0a2e FB68     		ldr	r3, [r7, #12]
 1418 0a30 1B68     		ldr	r3, [r3]
 1419 0a32 254A     		ldr	r2, .L533+8
 1420 0a34 9342     		cmp	r3, r2
 1421 0a36 78D0     		beq	.L296
 1422 0a38 FB68     		ldr	r3, [r7, #12]
 1423 0a3a 1B68     		ldr	r3, [r3]
 1424 0a3c 234A     		ldr	r2, .L533+12
 1425 0a3e 9342     		cmp	r3, r2
 1426 0a40 71D0     		beq	.L297
 1427 0a42 FB68     		ldr	r3, [r7, #12]
 1428 0a44 1B68     		ldr	r3, [r3]
ARM GAS  C:\Users\user\AppData\Local\Temp\ccZRrPoM.s 			page 26


 1429 0a46 224A     		ldr	r2, .L533+16
 1430 0a48 9342     		cmp	r3, r2
 1431 0a4a 6AD0     		beq	.L298
 1432 0a4c FB68     		ldr	r3, [r7, #12]
 1433 0a4e 1B68     		ldr	r3, [r3]
 1434 0a50 204A     		ldr	r2, .L533+20
 1435 0a52 9342     		cmp	r3, r2
 1436 0a54 63D0     		beq	.L299
 1437 0a56 FB68     		ldr	r3, [r7, #12]
 1438 0a58 1B68     		ldr	r3, [r3]
 1439 0a5a 1F4A     		ldr	r2, .L533+24
 1440 0a5c 9342     		cmp	r3, r2
 1441 0a5e 5BD0     		beq	.L300
 1442 0a60 FB68     		ldr	r3, [r7, #12]
 1443 0a62 1B68     		ldr	r3, [r3]
 1444 0a64 1D4A     		ldr	r2, .L533+28
 1445 0a66 9342     		cmp	r3, r2
 1446 0a68 53D0     		beq	.L301
 1447 0a6a FB68     		ldr	r3, [r7, #12]
 1448 0a6c 1B68     		ldr	r3, [r3]
 1449 0a6e 1C4A     		ldr	r2, .L533+32
 1450 0a70 9342     		cmp	r3, r2
 1451 0a72 4BD0     		beq	.L302
 1452 0a74 FB68     		ldr	r3, [r7, #12]
 1453 0a76 1B68     		ldr	r3, [r3]
 1454 0a78 1A4A     		ldr	r2, .L533+36
 1455 0a7a 9342     		cmp	r3, r2
 1456 0a7c 43D0     		beq	.L303
 1457 0a7e FB68     		ldr	r3, [r7, #12]
 1458 0a80 1B68     		ldr	r3, [r3]
 1459 0a82 194A     		ldr	r2, .L533+40
 1460 0a84 9342     		cmp	r3, r2
 1461 0a86 3BD0     		beq	.L304
 1462 0a88 FB68     		ldr	r3, [r7, #12]
 1463 0a8a 1B68     		ldr	r3, [r3]
 1464 0a8c 174A     		ldr	r2, .L533+44
 1465 0a8e 9342     		cmp	r3, r2
 1466 0a90 12D0     		beq	.L305
 1467 0a92 FB68     		ldr	r3, [r7, #12]
 1468 0a94 1B68     		ldr	r3, [r3]
 1469 0a96 164A     		ldr	r2, .L533+48
 1470 0a98 9342     		cmp	r3, r2
 1471 0a9a 0AD0     		beq	.L306
 1472 0a9c FB68     		ldr	r3, [r7, #12]
 1473 0a9e 1B68     		ldr	r3, [r3]
 1474 0aa0 144A     		ldr	r2, .L533+52
 1475 0aa2 9342     		cmp	r3, r2
 1476 0aa4 02D1     		bne	.L307
 1477 0aa6 4FF40023 		mov	r3, #524288
 1478 0aaa 3FE0     		b	.L319
 1479              	.L307:
 1480 0aac 4FF00073 		mov	r3, #33554432
 1481 0ab0 3CE0     		b	.L319
 1482              	.L306:
 1483 0ab2 4FF40023 		mov	r3, #524288
 1484 0ab6 39E0     		b	.L319
 1485              	.L305:
ARM GAS  C:\Users\user\AppData\Local\Temp\ccZRrPoM.s 			page 27


 1486 0ab8 4FF40023 		mov	r3, #524288
 1487 0abc 36E0     		b	.L319
 1488              	.L534:
 1489 0abe 00BF     		.align	2
 1490              	.L533:
 1491 0ac0 00640240 		.word	1073898496
 1492 0ac4 B8600240 		.word	1073897656
 1493 0ac8 10600240 		.word	1073897488
 1494 0acc 10640240 		.word	1073898512
 1495 0ad0 70600240 		.word	1073897584
 1496 0ad4 70640240 		.word	1073898608
 1497 0ad8 28600240 		.word	1073897512
 1498 0adc 28640240 		.word	1073898536
 1499 0ae0 88600240 		.word	1073897608
 1500 0ae4 88640240 		.word	1073898632
 1501 0ae8 40600240 		.word	1073897536
 1502 0aec 40640240 		.word	1073898560
 1503 0af0 A0600240 		.word	1073897632
 1504 0af4 A0640240 		.word	1073898656
 1505 0af8 58600240 		.word	1073897560
 1506 0afc 00600240 		.word	1073897472
 1507              	.L304:
 1508 0b00 4FF40023 		mov	r3, #524288
 1509 0b04 12E0     		b	.L319
 1510              	.L303:
 1511 0b06 4FF40073 		mov	r3, #512
 1512 0b0a 0FE0     		b	.L319
 1513              	.L302:
 1514 0b0c 4FF40073 		mov	r3, #512
 1515 0b10 0CE0     		b	.L319
 1516              	.L301:
 1517 0b12 4FF40073 		mov	r3, #512
 1518 0b16 09E0     		b	.L319
 1519              	.L300:
 1520 0b18 4FF40073 		mov	r3, #512
 1521 0b1c 06E0     		b	.L319
 1522              	.L299:
 1523 0b1e 0823     		movs	r3, #8
 1524 0b20 04E0     		b	.L319
 1525              	.L298:
 1526 0b22 0823     		movs	r3, #8
 1527 0b24 02E0     		b	.L319
 1528              	.L297:
 1529 0b26 0823     		movs	r3, #8
 1530 0b28 00E0     		b	.L319
 1531              	.L296:
 1532 0b2a 0823     		movs	r3, #8
 1533              	.L319:
 1534 0b2c 8A4A     		ldr	r2, .L535
 1535 0b2e 9360     		str	r3, [r2, #8]
 1536              	.L243:
 1537 0b30 FB68     		ldr	r3, [r7, #12]
 1538 0b32 1B68     		ldr	r3, [r3]
 1539 0b34 1A46     		mov	r2, r3
 1540 0b36 894B     		ldr	r3, .L535+4
 1541 0b38 9A42     		cmp	r2, r3
 1542 0b3a 60D9     		bls	.L320
ARM GAS  C:\Users\user\AppData\Local\Temp\ccZRrPoM.s 			page 28


 1543 0b3c FB68     		ldr	r3, [r7, #12]
 1544 0b3e 1B68     		ldr	r3, [r3]
 1545 0b40 874A     		ldr	r2, .L535+8
 1546 0b42 9342     		cmp	r3, r2
 1547 0b44 57D0     		beq	.L321
 1548 0b46 FB68     		ldr	r3, [r7, #12]
 1549 0b48 1B68     		ldr	r3, [r3]
 1550 0b4a 864A     		ldr	r2, .L535+12
 1551 0b4c 9342     		cmp	r3, r2
 1552 0b4e 50D0     		beq	.L322
 1553 0b50 FB68     		ldr	r3, [r7, #12]
 1554 0b52 1B68     		ldr	r3, [r3]
 1555 0b54 844A     		ldr	r2, .L535+16
 1556 0b56 9342     		cmp	r3, r2
 1557 0b58 49D0     		beq	.L323
 1558 0b5a FB68     		ldr	r3, [r7, #12]
 1559 0b5c 1B68     		ldr	r3, [r3]
 1560 0b5e 834A     		ldr	r2, .L535+20
 1561 0b60 9342     		cmp	r3, r2
 1562 0b62 42D0     		beq	.L324
 1563 0b64 FB68     		ldr	r3, [r7, #12]
 1564 0b66 1B68     		ldr	r3, [r3]
 1565 0b68 814A     		ldr	r2, .L535+24
 1566 0b6a 9342     		cmp	r3, r2
 1567 0b6c 3AD0     		beq	.L325
 1568 0b6e FB68     		ldr	r3, [r7, #12]
 1569 0b70 1B68     		ldr	r3, [r3]
 1570 0b72 804A     		ldr	r2, .L535+28
 1571 0b74 9342     		cmp	r3, r2
 1572 0b76 32D0     		beq	.L326
 1573 0b78 FB68     		ldr	r3, [r7, #12]
 1574 0b7a 1B68     		ldr	r3, [r3]
 1575 0b7c 7E4A     		ldr	r2, .L535+32
 1576 0b7e 9342     		cmp	r3, r2
 1577 0b80 2AD0     		beq	.L327
 1578 0b82 FB68     		ldr	r3, [r7, #12]
 1579 0b84 1B68     		ldr	r3, [r3]
 1580 0b86 7D4A     		ldr	r2, .L535+36
 1581 0b88 9342     		cmp	r3, r2
 1582 0b8a 22D0     		beq	.L328
 1583 0b8c FB68     		ldr	r3, [r7, #12]
 1584 0b8e 1B68     		ldr	r3, [r3]
 1585 0b90 7B4A     		ldr	r2, .L535+40
 1586 0b92 9342     		cmp	r3, r2
 1587 0b94 1AD0     		beq	.L329
 1588 0b96 FB68     		ldr	r3, [r7, #12]
 1589 0b98 1B68     		ldr	r3, [r3]
 1590 0b9a 7A4A     		ldr	r2, .L535+44
 1591 0b9c 9342     		cmp	r3, r2
 1592 0b9e 12D0     		beq	.L330
 1593 0ba0 FB68     		ldr	r3, [r7, #12]
 1594 0ba2 1B68     		ldr	r3, [r3]
 1595 0ba4 784A     		ldr	r2, .L535+48
 1596 0ba6 9342     		cmp	r3, r2
 1597 0ba8 0AD0     		beq	.L331
 1598 0baa FB68     		ldr	r3, [r7, #12]
 1599 0bac 1B68     		ldr	r3, [r3]
ARM GAS  C:\Users\user\AppData\Local\Temp\ccZRrPoM.s 			page 29


 1600 0bae 774A     		ldr	r2, .L535+52
 1601 0bb0 9342     		cmp	r3, r2
 1602 0bb2 02D1     		bne	.L332
 1603 0bb4 4FF48023 		mov	r3, #262144
 1604 0bb8 1EE0     		b	.L344
 1605              	.L332:
 1606 0bba 4FF08073 		mov	r3, #16777216
 1607 0bbe 1BE0     		b	.L344
 1608              	.L331:
 1609 0bc0 4FF48023 		mov	r3, #262144
 1610 0bc4 18E0     		b	.L344
 1611              	.L330:
 1612 0bc6 4FF48023 		mov	r3, #262144
 1613 0bca 15E0     		b	.L344
 1614              	.L329:
 1615 0bcc 4FF48023 		mov	r3, #262144
 1616 0bd0 12E0     		b	.L344
 1617              	.L328:
 1618 0bd2 4FF48073 		mov	r3, #256
 1619 0bd6 0FE0     		b	.L344
 1620              	.L327:
 1621 0bd8 4FF48073 		mov	r3, #256
 1622 0bdc 0CE0     		b	.L344
 1623              	.L326:
 1624 0bde 4FF48073 		mov	r3, #256
 1625 0be2 09E0     		b	.L344
 1626              	.L325:
 1627 0be4 4FF48073 		mov	r3, #256
 1628 0be8 06E0     		b	.L344
 1629              	.L324:
 1630 0bea 0423     		movs	r3, #4
 1631 0bec 04E0     		b	.L344
 1632              	.L323:
 1633 0bee 0423     		movs	r3, #4
 1634 0bf0 02E0     		b	.L344
 1635              	.L322:
 1636 0bf2 0423     		movs	r3, #4
 1637 0bf4 00E0     		b	.L344
 1638              	.L321:
 1639 0bf6 0423     		movs	r3, #4
 1640              	.L344:
 1641 0bf8 654A     		ldr	r2, .L535+56
 1642 0bfa D360     		str	r3, [r2, #12]
 1643 0bfc 50E1     		b	.L345
 1644              	.L320:
 1645 0bfe FB68     		ldr	r3, [r7, #12]
 1646 0c00 1B68     		ldr	r3, [r3]
 1647 0c02 1A46     		mov	r2, r3
 1648 0c04 634B     		ldr	r3, .L535+60
 1649 0c06 9A42     		cmp	r2, r3
 1650 0c08 60D9     		bls	.L346
 1651 0c0a FB68     		ldr	r3, [r7, #12]
 1652 0c0c 1B68     		ldr	r3, [r3]
 1653 0c0e 544A     		ldr	r2, .L535+8
 1654 0c10 9342     		cmp	r3, r2
 1655 0c12 57D0     		beq	.L347
 1656 0c14 FB68     		ldr	r3, [r7, #12]
ARM GAS  C:\Users\user\AppData\Local\Temp\ccZRrPoM.s 			page 30


 1657 0c16 1B68     		ldr	r3, [r3]
 1658 0c18 524A     		ldr	r2, .L535+12
 1659 0c1a 9342     		cmp	r3, r2
 1660 0c1c 50D0     		beq	.L348
 1661 0c1e FB68     		ldr	r3, [r7, #12]
 1662 0c20 1B68     		ldr	r3, [r3]
 1663 0c22 514A     		ldr	r2, .L535+16
 1664 0c24 9342     		cmp	r3, r2
 1665 0c26 49D0     		beq	.L349
 1666 0c28 FB68     		ldr	r3, [r7, #12]
 1667 0c2a 1B68     		ldr	r3, [r3]
 1668 0c2c 4F4A     		ldr	r2, .L535+20
 1669 0c2e 9342     		cmp	r3, r2
 1670 0c30 42D0     		beq	.L350
 1671 0c32 FB68     		ldr	r3, [r7, #12]
 1672 0c34 1B68     		ldr	r3, [r3]
 1673 0c36 4E4A     		ldr	r2, .L535+24
 1674 0c38 9342     		cmp	r3, r2
 1675 0c3a 3AD0     		beq	.L351
 1676 0c3c FB68     		ldr	r3, [r7, #12]
 1677 0c3e 1B68     		ldr	r3, [r3]
 1678 0c40 4C4A     		ldr	r2, .L535+28
 1679 0c42 9342     		cmp	r3, r2
 1680 0c44 32D0     		beq	.L352
 1681 0c46 FB68     		ldr	r3, [r7, #12]
 1682 0c48 1B68     		ldr	r3, [r3]
 1683 0c4a 4B4A     		ldr	r2, .L535+32
 1684 0c4c 9342     		cmp	r3, r2
 1685 0c4e 2AD0     		beq	.L353
 1686 0c50 FB68     		ldr	r3, [r7, #12]
 1687 0c52 1B68     		ldr	r3, [r3]
 1688 0c54 494A     		ldr	r2, .L535+36
 1689 0c56 9342     		cmp	r3, r2
 1690 0c58 22D0     		beq	.L354
 1691 0c5a FB68     		ldr	r3, [r7, #12]
 1692 0c5c 1B68     		ldr	r3, [r3]
 1693 0c5e 484A     		ldr	r2, .L535+40
 1694 0c60 9342     		cmp	r3, r2
 1695 0c62 1AD0     		beq	.L355
 1696 0c64 FB68     		ldr	r3, [r7, #12]
 1697 0c66 1B68     		ldr	r3, [r3]
 1698 0c68 464A     		ldr	r2, .L535+44
 1699 0c6a 9342     		cmp	r3, r2
 1700 0c6c 12D0     		beq	.L356
 1701 0c6e FB68     		ldr	r3, [r7, #12]
 1702 0c70 1B68     		ldr	r3, [r3]
 1703 0c72 454A     		ldr	r2, .L535+48
 1704 0c74 9342     		cmp	r3, r2
 1705 0c76 0AD0     		beq	.L357
 1706 0c78 FB68     		ldr	r3, [r7, #12]
 1707 0c7a 1B68     		ldr	r3, [r3]
 1708 0c7c 434A     		ldr	r2, .L535+52
 1709 0c7e 9342     		cmp	r3, r2
 1710 0c80 02D1     		bne	.L358
 1711 0c82 4FF48023 		mov	r3, #262144
 1712 0c86 1EE0     		b	.L370
 1713              	.L358:
ARM GAS  C:\Users\user\AppData\Local\Temp\ccZRrPoM.s 			page 31


 1714 0c88 4FF08073 		mov	r3, #16777216
 1715 0c8c 1BE0     		b	.L370
 1716              	.L357:
 1717 0c8e 4FF48023 		mov	r3, #262144
 1718 0c92 18E0     		b	.L370
 1719              	.L356:
 1720 0c94 4FF48023 		mov	r3, #262144
 1721 0c98 15E0     		b	.L370
 1722              	.L355:
 1723 0c9a 4FF48023 		mov	r3, #262144
 1724 0c9e 12E0     		b	.L370
 1725              	.L354:
 1726 0ca0 4FF48073 		mov	r3, #256
 1727 0ca4 0FE0     		b	.L370
 1728              	.L353:
 1729 0ca6 4FF48073 		mov	r3, #256
 1730 0caa 0CE0     		b	.L370
 1731              	.L352:
 1732 0cac 4FF48073 		mov	r3, #256
 1733 0cb0 09E0     		b	.L370
 1734              	.L351:
 1735 0cb2 4FF48073 		mov	r3, #256
 1736 0cb6 06E0     		b	.L370
 1737              	.L350:
 1738 0cb8 0423     		movs	r3, #4
 1739 0cba 04E0     		b	.L370
 1740              	.L349:
 1741 0cbc 0423     		movs	r3, #4
 1742 0cbe 02E0     		b	.L370
 1743              	.L348:
 1744 0cc0 0423     		movs	r3, #4
 1745 0cc2 00E0     		b	.L370
 1746              	.L347:
 1747 0cc4 0423     		movs	r3, #4
 1748              	.L370:
 1749 0cc6 324A     		ldr	r2, .L535+56
 1750 0cc8 9360     		str	r3, [r2, #8]
 1751 0cca E9E0     		b	.L345
 1752              	.L346:
 1753 0ccc FB68     		ldr	r3, [r7, #12]
 1754 0cce 1B68     		ldr	r3, [r3]
 1755 0cd0 1A46     		mov	r2, r3
 1756 0cd2 314B     		ldr	r3, .L535+64
 1757 0cd4 9A42     		cmp	r2, r3
 1758 0cd6 40F28380 		bls	.L372
 1759 0cda FB68     		ldr	r3, [r7, #12]
 1760 0cdc 1B68     		ldr	r3, [r3]
 1761 0cde 204A     		ldr	r2, .L535+8
 1762 0ce0 9342     		cmp	r3, r2
 1763 0ce2 79D0     		beq	.L373
 1764 0ce4 FB68     		ldr	r3, [r7, #12]
 1765 0ce6 1B68     		ldr	r3, [r3]
 1766 0ce8 1E4A     		ldr	r2, .L535+12
 1767 0cea 9342     		cmp	r3, r2
 1768 0cec 72D0     		beq	.L374
 1769 0cee FB68     		ldr	r3, [r7, #12]
 1770 0cf0 1B68     		ldr	r3, [r3]
ARM GAS  C:\Users\user\AppData\Local\Temp\ccZRrPoM.s 			page 32


 1771 0cf2 1D4A     		ldr	r2, .L535+16
 1772 0cf4 9342     		cmp	r3, r2
 1773 0cf6 6BD0     		beq	.L375
 1774 0cf8 FB68     		ldr	r3, [r7, #12]
 1775 0cfa 1B68     		ldr	r3, [r3]
 1776 0cfc 1B4A     		ldr	r2, .L535+20
 1777 0cfe 9342     		cmp	r3, r2
 1778 0d00 64D0     		beq	.L376
 1779 0d02 FB68     		ldr	r3, [r7, #12]
 1780 0d04 1B68     		ldr	r3, [r3]
 1781 0d06 1A4A     		ldr	r2, .L535+24
 1782 0d08 9342     		cmp	r3, r2
 1783 0d0a 5CD0     		beq	.L377
 1784 0d0c FB68     		ldr	r3, [r7, #12]
 1785 0d0e 1B68     		ldr	r3, [r3]
 1786 0d10 184A     		ldr	r2, .L535+28
 1787 0d12 9342     		cmp	r3, r2
 1788 0d14 54D0     		beq	.L378
 1789 0d16 FB68     		ldr	r3, [r7, #12]
 1790 0d18 1B68     		ldr	r3, [r3]
 1791 0d1a 174A     		ldr	r2, .L535+32
 1792 0d1c 9342     		cmp	r3, r2
 1793 0d1e 4CD0     		beq	.L379
 1794 0d20 FB68     		ldr	r3, [r7, #12]
 1795 0d22 1B68     		ldr	r3, [r3]
 1796 0d24 154A     		ldr	r2, .L535+36
 1797 0d26 9342     		cmp	r3, r2
 1798 0d28 44D0     		beq	.L380
 1799 0d2a FB68     		ldr	r3, [r7, #12]
 1800 0d2c 1B68     		ldr	r3, [r3]
 1801 0d2e 144A     		ldr	r2, .L535+40
 1802 0d30 9342     		cmp	r3, r2
 1803 0d32 3CD0     		beq	.L381
 1804 0d34 FB68     		ldr	r3, [r7, #12]
 1805 0d36 1B68     		ldr	r3, [r3]
 1806 0d38 124A     		ldr	r2, .L535+44
 1807 0d3a 9342     		cmp	r3, r2
 1808 0d3c 34D0     		beq	.L382
 1809 0d3e FB68     		ldr	r3, [r7, #12]
 1810 0d40 1B68     		ldr	r3, [r3]
 1811 0d42 114A     		ldr	r2, .L535+48
 1812 0d44 9342     		cmp	r3, r2
 1813 0d46 2CD0     		beq	.L383
 1814 0d48 FB68     		ldr	r3, [r7, #12]
 1815 0d4a 1B68     		ldr	r3, [r3]
 1816 0d4c 0F4A     		ldr	r2, .L535+52
 1817 0d4e 9342     		cmp	r3, r2
 1818 0d50 24D1     		bne	.L384
 1819 0d52 4FF48023 		mov	r3, #262144
 1820 0d56 40E0     		b	.L396
 1821              	.L536:
 1822              		.align	2
 1823              	.L535:
 1824 0d58 00600240 		.word	1073897472
 1825 0d5c 58640240 		.word	1073898584
 1826 0d60 10600240 		.word	1073897488
 1827 0d64 10640240 		.word	1073898512
ARM GAS  C:\Users\user\AppData\Local\Temp\ccZRrPoM.s 			page 33


 1828 0d68 70600240 		.word	1073897584
 1829 0d6c 70640240 		.word	1073898608
 1830 0d70 28600240 		.word	1073897512
 1831 0d74 28640240 		.word	1073898536
 1832 0d78 88600240 		.word	1073897608
 1833 0d7c 88640240 		.word	1073898632
 1834 0d80 40600240 		.word	1073897536
 1835 0d84 40640240 		.word	1073898560
 1836 0d88 A0600240 		.word	1073897632
 1837 0d8c A0640240 		.word	1073898656
 1838 0d90 00640240 		.word	1073898496
 1839 0d94 B8600240 		.word	1073897656
 1840 0d98 58600240 		.word	1073897560
 1841              	.L384:
 1842 0d9c 4FF08073 		mov	r3, #16777216
 1843 0da0 1BE0     		b	.L396
 1844              	.L383:
 1845 0da2 4FF48023 		mov	r3, #262144
 1846 0da6 18E0     		b	.L396
 1847              	.L382:
 1848 0da8 4FF48023 		mov	r3, #262144
 1849 0dac 15E0     		b	.L396
 1850              	.L381:
 1851 0dae 4FF48023 		mov	r3, #262144
 1852 0db2 12E0     		b	.L396
 1853              	.L380:
 1854 0db4 4FF48073 		mov	r3, #256
 1855 0db8 0FE0     		b	.L396
 1856              	.L379:
 1857 0dba 4FF48073 		mov	r3, #256
 1858 0dbe 0CE0     		b	.L396
 1859              	.L378:
 1860 0dc0 4FF48073 		mov	r3, #256
 1861 0dc4 09E0     		b	.L396
 1862              	.L377:
 1863 0dc6 4FF48073 		mov	r3, #256
 1864 0dca 06E0     		b	.L396
 1865              	.L376:
 1866 0dcc 0423     		movs	r3, #4
 1867 0dce 04E0     		b	.L396
 1868              	.L375:
 1869 0dd0 0423     		movs	r3, #4
 1870 0dd2 02E0     		b	.L396
 1871              	.L374:
 1872 0dd4 0423     		movs	r3, #4
 1873 0dd6 00E0     		b	.L396
 1874              	.L373:
 1875 0dd8 0423     		movs	r3, #4
 1876              	.L396:
 1877 0dda 8B4A     		ldr	r2, .L537
 1878 0ddc D360     		str	r3, [r2, #12]
 1879 0dde 5FE0     		b	.L345
 1880              	.L372:
 1881 0de0 FB68     		ldr	r3, [r7, #12]
 1882 0de2 1B68     		ldr	r3, [r3]
 1883 0de4 894A     		ldr	r2, .L537+4
 1884 0de6 9342     		cmp	r3, r2
ARM GAS  C:\Users\user\AppData\Local\Temp\ccZRrPoM.s 			page 34


 1885 0de8 57D0     		beq	.L398
 1886 0dea FB68     		ldr	r3, [r7, #12]
 1887 0dec 1B68     		ldr	r3, [r3]
 1888 0dee 884A     		ldr	r2, .L537+8
 1889 0df0 9342     		cmp	r3, r2
 1890 0df2 50D0     		beq	.L399
 1891 0df4 FB68     		ldr	r3, [r7, #12]
 1892 0df6 1B68     		ldr	r3, [r3]
 1893 0df8 864A     		ldr	r2, .L537+12
 1894 0dfa 9342     		cmp	r3, r2
 1895 0dfc 49D0     		beq	.L400
 1896 0dfe FB68     		ldr	r3, [r7, #12]
 1897 0e00 1B68     		ldr	r3, [r3]
 1898 0e02 854A     		ldr	r2, .L537+16
 1899 0e04 9342     		cmp	r3, r2
 1900 0e06 42D0     		beq	.L401
 1901 0e08 FB68     		ldr	r3, [r7, #12]
 1902 0e0a 1B68     		ldr	r3, [r3]
 1903 0e0c 834A     		ldr	r2, .L537+20
 1904 0e0e 9342     		cmp	r3, r2
 1905 0e10 3AD0     		beq	.L402
 1906 0e12 FB68     		ldr	r3, [r7, #12]
 1907 0e14 1B68     		ldr	r3, [r3]
 1908 0e16 824A     		ldr	r2, .L537+24
 1909 0e18 9342     		cmp	r3, r2
 1910 0e1a 32D0     		beq	.L403
 1911 0e1c FB68     		ldr	r3, [r7, #12]
 1912 0e1e 1B68     		ldr	r3, [r3]
 1913 0e20 804A     		ldr	r2, .L537+28
 1914 0e22 9342     		cmp	r3, r2
 1915 0e24 2AD0     		beq	.L404
 1916 0e26 FB68     		ldr	r3, [r7, #12]
 1917 0e28 1B68     		ldr	r3, [r3]
 1918 0e2a 7F4A     		ldr	r2, .L537+32
 1919 0e2c 9342     		cmp	r3, r2
 1920 0e2e 22D0     		beq	.L405
 1921 0e30 FB68     		ldr	r3, [r7, #12]
 1922 0e32 1B68     		ldr	r3, [r3]
 1923 0e34 7D4A     		ldr	r2, .L537+36
 1924 0e36 9342     		cmp	r3, r2
 1925 0e38 1AD0     		beq	.L406
 1926 0e3a FB68     		ldr	r3, [r7, #12]
 1927 0e3c 1B68     		ldr	r3, [r3]
 1928 0e3e 7C4A     		ldr	r2, .L537+40
 1929 0e40 9342     		cmp	r3, r2
 1930 0e42 12D0     		beq	.L407
 1931 0e44 FB68     		ldr	r3, [r7, #12]
 1932 0e46 1B68     		ldr	r3, [r3]
 1933 0e48 7A4A     		ldr	r2, .L537+44
 1934 0e4a 9342     		cmp	r3, r2
 1935 0e4c 0AD0     		beq	.L408
 1936 0e4e FB68     		ldr	r3, [r7, #12]
 1937 0e50 1B68     		ldr	r3, [r3]
 1938 0e52 794A     		ldr	r2, .L537+48
 1939 0e54 9342     		cmp	r3, r2
 1940 0e56 02D1     		bne	.L409
 1941 0e58 4FF48023 		mov	r3, #262144
ARM GAS  C:\Users\user\AppData\Local\Temp\ccZRrPoM.s 			page 35


 1942 0e5c 1EE0     		b	.L421
 1943              	.L409:
 1944 0e5e 4FF08073 		mov	r3, #16777216
 1945 0e62 1BE0     		b	.L421
 1946              	.L408:
 1947 0e64 4FF48023 		mov	r3, #262144
 1948 0e68 18E0     		b	.L421
 1949              	.L407:
 1950 0e6a 4FF48023 		mov	r3, #262144
 1951 0e6e 15E0     		b	.L421
 1952              	.L406:
 1953 0e70 4FF48023 		mov	r3, #262144
 1954 0e74 12E0     		b	.L421
 1955              	.L405:
 1956 0e76 4FF48073 		mov	r3, #256
 1957 0e7a 0FE0     		b	.L421
 1958              	.L404:
 1959 0e7c 4FF48073 		mov	r3, #256
 1960 0e80 0CE0     		b	.L421
 1961              	.L403:
 1962 0e82 4FF48073 		mov	r3, #256
 1963 0e86 09E0     		b	.L421
 1964              	.L402:
 1965 0e88 4FF48073 		mov	r3, #256
 1966 0e8c 06E0     		b	.L421
 1967              	.L401:
 1968 0e8e 0423     		movs	r3, #4
 1969 0e90 04E0     		b	.L421
 1970              	.L400:
 1971 0e92 0423     		movs	r3, #4
 1972 0e94 02E0     		b	.L421
 1973              	.L399:
 1974 0e96 0423     		movs	r3, #4
 1975 0e98 00E0     		b	.L421
 1976              	.L398:
 1977 0e9a 0423     		movs	r3, #4
 1978              	.L421:
 1979 0e9c 5A4A     		ldr	r2, .L537
 1980 0e9e 9360     		str	r3, [r2, #8]
 1981              	.L345:
 1982 0ea0 FB68     		ldr	r3, [r7, #12]
 1983 0ea2 1B68     		ldr	r3, [r3]
 1984 0ea4 1A46     		mov	r2, r3
 1985 0ea6 654B     		ldr	r3, .L537+52
 1986 0ea8 9A42     		cmp	r2, r3
 1987 0eaa 5CD9     		bls	.L422
 1988 0eac FB68     		ldr	r3, [r7, #12]
 1989 0eae 1B68     		ldr	r3, [r3]
 1990 0eb0 564A     		ldr	r2, .L537+4
 1991 0eb2 9342     		cmp	r3, r2
 1992 0eb4 53D0     		beq	.L423
 1993 0eb6 FB68     		ldr	r3, [r7, #12]
 1994 0eb8 1B68     		ldr	r3, [r3]
 1995 0eba 554A     		ldr	r2, .L537+8
 1996 0ebc 9342     		cmp	r3, r2
 1997 0ebe 4CD0     		beq	.L424
 1998 0ec0 FB68     		ldr	r3, [r7, #12]
ARM GAS  C:\Users\user\AppData\Local\Temp\ccZRrPoM.s 			page 36


 1999 0ec2 1B68     		ldr	r3, [r3]
 2000 0ec4 534A     		ldr	r2, .L537+12
 2001 0ec6 9342     		cmp	r3, r2
 2002 0ec8 45D0     		beq	.L425
 2003 0eca FB68     		ldr	r3, [r7, #12]
 2004 0ecc 1B68     		ldr	r3, [r3]
 2005 0ece 524A     		ldr	r2, .L537+16
 2006 0ed0 9342     		cmp	r3, r2
 2007 0ed2 3ED0     		beq	.L426
 2008 0ed4 FB68     		ldr	r3, [r7, #12]
 2009 0ed6 1B68     		ldr	r3, [r3]
 2010 0ed8 504A     		ldr	r2, .L537+20
 2011 0eda 9342     		cmp	r3, r2
 2012 0edc 37D0     		beq	.L427
 2013 0ede FB68     		ldr	r3, [r7, #12]
 2014 0ee0 1B68     		ldr	r3, [r3]
 2015 0ee2 4F4A     		ldr	r2, .L537+24
 2016 0ee4 9342     		cmp	r3, r2
 2017 0ee6 30D0     		beq	.L428
 2018 0ee8 FB68     		ldr	r3, [r7, #12]
 2019 0eea 1B68     		ldr	r3, [r3]
 2020 0eec 4D4A     		ldr	r2, .L537+28
 2021 0eee 9342     		cmp	r3, r2
 2022 0ef0 29D0     		beq	.L429
 2023 0ef2 FB68     		ldr	r3, [r7, #12]
 2024 0ef4 1B68     		ldr	r3, [r3]
 2025 0ef6 4C4A     		ldr	r2, .L537+32
 2026 0ef8 9342     		cmp	r3, r2
 2027 0efa 22D0     		beq	.L430
 2028 0efc FB68     		ldr	r3, [r7, #12]
 2029 0efe 1B68     		ldr	r3, [r3]
 2030 0f00 4A4A     		ldr	r2, .L537+36
 2031 0f02 9342     		cmp	r3, r2
 2032 0f04 1AD0     		beq	.L431
 2033 0f06 FB68     		ldr	r3, [r7, #12]
 2034 0f08 1B68     		ldr	r3, [r3]
 2035 0f0a 494A     		ldr	r2, .L537+40
 2036 0f0c 9342     		cmp	r3, r2
 2037 0f0e 12D0     		beq	.L432
 2038 0f10 FB68     		ldr	r3, [r7, #12]
 2039 0f12 1B68     		ldr	r3, [r3]
 2040 0f14 474A     		ldr	r2, .L537+44
 2041 0f16 9342     		cmp	r3, r2
 2042 0f18 0AD0     		beq	.L433
 2043 0f1a FB68     		ldr	r3, [r7, #12]
 2044 0f1c 1B68     		ldr	r3, [r3]
 2045 0f1e 464A     		ldr	r2, .L537+48
 2046 0f20 9342     		cmp	r3, r2
 2047 0f22 02D1     		bne	.L434
 2048 0f24 4FF48033 		mov	r3, #65536
 2049 0f28 1AE0     		b	.L446
 2050              	.L434:
 2051 0f2a 4FF48003 		mov	r3, #4194304
 2052 0f2e 17E0     		b	.L446
 2053              	.L433:
 2054 0f30 4FF48033 		mov	r3, #65536
 2055 0f34 14E0     		b	.L446
ARM GAS  C:\Users\user\AppData\Local\Temp\ccZRrPoM.s 			page 37


 2056              	.L432:
 2057 0f36 4FF48033 		mov	r3, #65536
 2058 0f3a 11E0     		b	.L446
 2059              	.L431:
 2060 0f3c 4FF48033 		mov	r3, #65536
 2061 0f40 0EE0     		b	.L446
 2062              	.L430:
 2063 0f42 4023     		movs	r3, #64
 2064 0f44 0CE0     		b	.L446
 2065              	.L429:
 2066 0f46 4023     		movs	r3, #64
 2067 0f48 0AE0     		b	.L446
 2068              	.L428:
 2069 0f4a 4023     		movs	r3, #64
 2070 0f4c 08E0     		b	.L446
 2071              	.L427:
 2072 0f4e 4023     		movs	r3, #64
 2073 0f50 06E0     		b	.L446
 2074              	.L426:
 2075 0f52 0123     		movs	r3, #1
 2076 0f54 04E0     		b	.L446
 2077              	.L425:
 2078 0f56 0123     		movs	r3, #1
 2079 0f58 02E0     		b	.L446
 2080              	.L424:
 2081 0f5a 0123     		movs	r3, #1
 2082 0f5c 00E0     		b	.L446
 2083              	.L423:
 2084 0f5e 0123     		movs	r3, #1
 2085              	.L446:
 2086 0f60 374A     		ldr	r2, .L537+56
 2087 0f62 D360     		str	r3, [r2, #12]
 2088 0f64 41E1     		b	.L447
 2089              	.L422:
 2090 0f66 FB68     		ldr	r3, [r7, #12]
 2091 0f68 1B68     		ldr	r3, [r3]
 2092 0f6a 1A46     		mov	r2, r3
 2093 0f6c 354B     		ldr	r3, .L537+60
 2094 0f6e 9A42     		cmp	r2, r3
 2095 0f70 7CD9     		bls	.L448
 2096 0f72 FB68     		ldr	r3, [r7, #12]
 2097 0f74 1B68     		ldr	r3, [r3]
 2098 0f76 254A     		ldr	r2, .L537+4
 2099 0f78 9342     		cmp	r3, r2
 2100 0f7a 73D0     		beq	.L449
 2101 0f7c FB68     		ldr	r3, [r7, #12]
 2102 0f7e 1B68     		ldr	r3, [r3]
 2103 0f80 234A     		ldr	r2, .L537+8
 2104 0f82 9342     		cmp	r3, r2
 2105 0f84 6CD0     		beq	.L450
 2106 0f86 FB68     		ldr	r3, [r7, #12]
 2107 0f88 1B68     		ldr	r3, [r3]
 2108 0f8a 224A     		ldr	r2, .L537+12
 2109 0f8c 9342     		cmp	r3, r2
 2110 0f8e 65D0     		beq	.L451
 2111 0f90 FB68     		ldr	r3, [r7, #12]
 2112 0f92 1B68     		ldr	r3, [r3]
ARM GAS  C:\Users\user\AppData\Local\Temp\ccZRrPoM.s 			page 38


 2113 0f94 204A     		ldr	r2, .L537+16
 2114 0f96 9342     		cmp	r3, r2
 2115 0f98 5ED0     		beq	.L452
 2116 0f9a FB68     		ldr	r3, [r7, #12]
 2117 0f9c 1B68     		ldr	r3, [r3]
 2118 0f9e 1F4A     		ldr	r2, .L537+20
 2119 0fa0 9342     		cmp	r3, r2
 2120 0fa2 57D0     		beq	.L453
 2121 0fa4 FB68     		ldr	r3, [r7, #12]
 2122 0fa6 1B68     		ldr	r3, [r3]
 2123 0fa8 1D4A     		ldr	r2, .L537+24
 2124 0faa 9342     		cmp	r3, r2
 2125 0fac 50D0     		beq	.L454
 2126 0fae FB68     		ldr	r3, [r7, #12]
 2127 0fb0 1B68     		ldr	r3, [r3]
 2128 0fb2 1C4A     		ldr	r2, .L537+28
 2129 0fb4 9342     		cmp	r3, r2
 2130 0fb6 49D0     		beq	.L455
 2131 0fb8 FB68     		ldr	r3, [r7, #12]
 2132 0fba 1B68     		ldr	r3, [r3]
 2133 0fbc 1A4A     		ldr	r2, .L537+32
 2134 0fbe 9342     		cmp	r3, r2
 2135 0fc0 42D0     		beq	.L456
 2136 0fc2 FB68     		ldr	r3, [r7, #12]
 2137 0fc4 1B68     		ldr	r3, [r3]
 2138 0fc6 194A     		ldr	r2, .L537+36
 2139 0fc8 9342     		cmp	r3, r2
 2140 0fca 1AD0     		beq	.L457
 2141 0fcc FB68     		ldr	r3, [r7, #12]
 2142 0fce 1B68     		ldr	r3, [r3]
 2143 0fd0 174A     		ldr	r2, .L537+40
 2144 0fd2 9342     		cmp	r3, r2
 2145 0fd4 12D0     		beq	.L458
 2146 0fd6 FB68     		ldr	r3, [r7, #12]
 2147 0fd8 1B68     		ldr	r3, [r3]
 2148 0fda 164A     		ldr	r2, .L537+44
 2149 0fdc 9342     		cmp	r3, r2
 2150 0fde 0AD0     		beq	.L459
 2151 0fe0 FB68     		ldr	r3, [r7, #12]
 2152 0fe2 1B68     		ldr	r3, [r3]
 2153 0fe4 144A     		ldr	r2, .L537+48
 2154 0fe6 9342     		cmp	r3, r2
 2155 0fe8 02D1     		bne	.L460
 2156 0fea 4FF48033 		mov	r3, #65536
 2157 0fee 3AE0     		b	.L472
 2158              	.L460:
 2159 0ff0 4FF48003 		mov	r3, #4194304
 2160 0ff4 37E0     		b	.L472
 2161              	.L459:
 2162 0ff6 4FF48033 		mov	r3, #65536
 2163 0ffa 34E0     		b	.L472
 2164              	.L458:
 2165 0ffc 4FF48033 		mov	r3, #65536
 2166 1000 31E0     		b	.L472
 2167              	.L457:
 2168 1002 4FF48033 		mov	r3, #65536
 2169 1006 2EE0     		b	.L472
ARM GAS  C:\Users\user\AppData\Local\Temp\ccZRrPoM.s 			page 39


 2170              	.L538:
 2171              		.align	2
 2172              	.L537:
 2173 1008 00600240 		.word	1073897472
 2174 100c 10600240 		.word	1073897488
 2175 1010 10640240 		.word	1073898512
 2176 1014 70600240 		.word	1073897584
 2177 1018 70640240 		.word	1073898608
 2178 101c 28600240 		.word	1073897512
 2179 1020 28640240 		.word	1073898536
 2180 1024 88600240 		.word	1073897608
 2181 1028 88640240 		.word	1073898632
 2182 102c 40600240 		.word	1073897536
 2183 1030 40640240 		.word	1073898560
 2184 1034 A0600240 		.word	1073897632
 2185 1038 A0640240 		.word	1073898656
 2186 103c 58640240 		.word	1073898584
 2187 1040 00640240 		.word	1073898496
 2188 1044 B8600240 		.word	1073897656
 2189              	.L456:
 2190 1048 4023     		movs	r3, #64
 2191 104a 0CE0     		b	.L472
 2192              	.L455:
 2193 104c 4023     		movs	r3, #64
 2194 104e 0AE0     		b	.L472
 2195              	.L454:
 2196 1050 4023     		movs	r3, #64
 2197 1052 08E0     		b	.L472
 2198              	.L453:
 2199 1054 4023     		movs	r3, #64
 2200 1056 06E0     		b	.L472
 2201              	.L452:
 2202 1058 0123     		movs	r3, #1
 2203 105a 04E0     		b	.L472
 2204              	.L451:
 2205 105c 0123     		movs	r3, #1
 2206 105e 02E0     		b	.L472
 2207              	.L450:
 2208 1060 0123     		movs	r3, #1
 2209 1062 00E0     		b	.L472
 2210              	.L449:
 2211 1064 0123     		movs	r3, #1
 2212              	.L472:
 2213 1066 7B4A     		ldr	r2, .L539
 2214 1068 9360     		str	r3, [r2, #8]
 2215 106a BEE0     		b	.L447
 2216              	.L448:
 2217 106c FB68     		ldr	r3, [r7, #12]
 2218 106e 1B68     		ldr	r3, [r3]
 2219 1070 1A46     		mov	r2, r3
 2220 1072 794B     		ldr	r3, .L539+4
 2221 1074 9A42     		cmp	r2, r3
 2222 1076 5CD9     		bls	.L474
 2223 1078 FB68     		ldr	r3, [r7, #12]
 2224 107a 1B68     		ldr	r3, [r3]
 2225 107c 774A     		ldr	r2, .L539+8
 2226 107e 9342     		cmp	r3, r2
ARM GAS  C:\Users\user\AppData\Local\Temp\ccZRrPoM.s 			page 40


 2227 1080 53D0     		beq	.L475
 2228 1082 FB68     		ldr	r3, [r7, #12]
 2229 1084 1B68     		ldr	r3, [r3]
 2230 1086 764A     		ldr	r2, .L539+12
 2231 1088 9342     		cmp	r3, r2
 2232 108a 4CD0     		beq	.L476
 2233 108c FB68     		ldr	r3, [r7, #12]
 2234 108e 1B68     		ldr	r3, [r3]
 2235 1090 744A     		ldr	r2, .L539+16
 2236 1092 9342     		cmp	r3, r2
 2237 1094 45D0     		beq	.L477
 2238 1096 FB68     		ldr	r3, [r7, #12]
 2239 1098 1B68     		ldr	r3, [r3]
 2240 109a 734A     		ldr	r2, .L539+20
 2241 109c 9342     		cmp	r3, r2
 2242 109e 3ED0     		beq	.L478
 2243 10a0 FB68     		ldr	r3, [r7, #12]
 2244 10a2 1B68     		ldr	r3, [r3]
 2245 10a4 714A     		ldr	r2, .L539+24
 2246 10a6 9342     		cmp	r3, r2
 2247 10a8 37D0     		beq	.L479
 2248 10aa FB68     		ldr	r3, [r7, #12]
 2249 10ac 1B68     		ldr	r3, [r3]
 2250 10ae 704A     		ldr	r2, .L539+28
 2251 10b0 9342     		cmp	r3, r2
 2252 10b2 30D0     		beq	.L480
 2253 10b4 FB68     		ldr	r3, [r7, #12]
 2254 10b6 1B68     		ldr	r3, [r3]
 2255 10b8 6E4A     		ldr	r2, .L539+32
 2256 10ba 9342     		cmp	r3, r2
 2257 10bc 29D0     		beq	.L481
 2258 10be FB68     		ldr	r3, [r7, #12]
 2259 10c0 1B68     		ldr	r3, [r3]
 2260 10c2 6D4A     		ldr	r2, .L539+36
 2261 10c4 9342     		cmp	r3, r2
 2262 10c6 22D0     		beq	.L482
 2263 10c8 FB68     		ldr	r3, [r7, #12]
 2264 10ca 1B68     		ldr	r3, [r3]
 2265 10cc 6B4A     		ldr	r2, .L539+40
 2266 10ce 9342     		cmp	r3, r2
 2267 10d0 1AD0     		beq	.L483
 2268 10d2 FB68     		ldr	r3, [r7, #12]
 2269 10d4 1B68     		ldr	r3, [r3]
 2270 10d6 6A4A     		ldr	r2, .L539+44
 2271 10d8 9342     		cmp	r3, r2
 2272 10da 12D0     		beq	.L484
 2273 10dc FB68     		ldr	r3, [r7, #12]
 2274 10de 1B68     		ldr	r3, [r3]
 2275 10e0 684A     		ldr	r2, .L539+48
 2276 10e2 9342     		cmp	r3, r2
 2277 10e4 0AD0     		beq	.L485
 2278 10e6 FB68     		ldr	r3, [r7, #12]
 2279 10e8 1B68     		ldr	r3, [r3]
 2280 10ea 674A     		ldr	r2, .L539+52
 2281 10ec 9342     		cmp	r3, r2
 2282 10ee 02D1     		bne	.L486
 2283 10f0 4FF48033 		mov	r3, #65536
ARM GAS  C:\Users\user\AppData\Local\Temp\ccZRrPoM.s 			page 41


 2284 10f4 1AE0     		b	.L498
 2285              	.L486:
 2286 10f6 4FF48003 		mov	r3, #4194304
 2287 10fa 17E0     		b	.L498
 2288              	.L485:
 2289 10fc 4FF48033 		mov	r3, #65536
 2290 1100 14E0     		b	.L498
 2291              	.L484:
 2292 1102 4FF48033 		mov	r3, #65536
 2293 1106 11E0     		b	.L498
 2294              	.L483:
 2295 1108 4FF48033 		mov	r3, #65536
 2296 110c 0EE0     		b	.L498
 2297              	.L482:
 2298 110e 4023     		movs	r3, #64
 2299 1110 0CE0     		b	.L498
 2300              	.L481:
 2301 1112 4023     		movs	r3, #64
 2302 1114 0AE0     		b	.L498
 2303              	.L480:
 2304 1116 4023     		movs	r3, #64
 2305 1118 08E0     		b	.L498
 2306              	.L479:
 2307 111a 4023     		movs	r3, #64
 2308 111c 06E0     		b	.L498
 2309              	.L478:
 2310 111e 0123     		movs	r3, #1
 2311 1120 04E0     		b	.L498
 2312              	.L477:
 2313 1122 0123     		movs	r3, #1
 2314 1124 02E0     		b	.L498
 2315              	.L476:
 2316 1126 0123     		movs	r3, #1
 2317 1128 00E0     		b	.L498
 2318              	.L475:
 2319 112a 0123     		movs	r3, #1
 2320              	.L498:
 2321 112c 574A     		ldr	r2, .L539+56
 2322 112e D360     		str	r3, [r2, #12]
 2323 1130 5BE0     		b	.L447
 2324              	.L474:
 2325 1132 FB68     		ldr	r3, [r7, #12]
 2326 1134 1B68     		ldr	r3, [r3]
 2327 1136 494A     		ldr	r2, .L539+8
 2328 1138 9342     		cmp	r3, r2
 2329 113a 53D0     		beq	.L500
 2330 113c FB68     		ldr	r3, [r7, #12]
 2331 113e 1B68     		ldr	r3, [r3]
 2332 1140 474A     		ldr	r2, .L539+12
 2333 1142 9342     		cmp	r3, r2
 2334 1144 4CD0     		beq	.L501
 2335 1146 FB68     		ldr	r3, [r7, #12]
 2336 1148 1B68     		ldr	r3, [r3]
 2337 114a 464A     		ldr	r2, .L539+16
 2338 114c 9342     		cmp	r3, r2
 2339 114e 45D0     		beq	.L502
 2340 1150 FB68     		ldr	r3, [r7, #12]
ARM GAS  C:\Users\user\AppData\Local\Temp\ccZRrPoM.s 			page 42


 2341 1152 1B68     		ldr	r3, [r3]
 2342 1154 444A     		ldr	r2, .L539+20
 2343 1156 9342     		cmp	r3, r2
 2344 1158 3ED0     		beq	.L503
 2345 115a FB68     		ldr	r3, [r7, #12]
 2346 115c 1B68     		ldr	r3, [r3]
 2347 115e 434A     		ldr	r2, .L539+24
 2348 1160 9342     		cmp	r3, r2
 2349 1162 37D0     		beq	.L504
 2350 1164 FB68     		ldr	r3, [r7, #12]
 2351 1166 1B68     		ldr	r3, [r3]
 2352 1168 414A     		ldr	r2, .L539+28
 2353 116a 9342     		cmp	r3, r2
 2354 116c 30D0     		beq	.L505
 2355 116e FB68     		ldr	r3, [r7, #12]
 2356 1170 1B68     		ldr	r3, [r3]
 2357 1172 404A     		ldr	r2, .L539+32
 2358 1174 9342     		cmp	r3, r2
 2359 1176 29D0     		beq	.L506
 2360 1178 FB68     		ldr	r3, [r7, #12]
 2361 117a 1B68     		ldr	r3, [r3]
 2362 117c 3E4A     		ldr	r2, .L539+36
 2363 117e 9342     		cmp	r3, r2
 2364 1180 22D0     		beq	.L507
 2365 1182 FB68     		ldr	r3, [r7, #12]
 2366 1184 1B68     		ldr	r3, [r3]
 2367 1186 3D4A     		ldr	r2, .L539+40
 2368 1188 9342     		cmp	r3, r2
 2369 118a 1AD0     		beq	.L508
 2370 118c FB68     		ldr	r3, [r7, #12]
 2371 118e 1B68     		ldr	r3, [r3]
 2372 1190 3B4A     		ldr	r2, .L539+44
 2373 1192 9342     		cmp	r3, r2
 2374 1194 12D0     		beq	.L509
 2375 1196 FB68     		ldr	r3, [r7, #12]
 2376 1198 1B68     		ldr	r3, [r3]
 2377 119a 3A4A     		ldr	r2, .L539+48
 2378 119c 9342     		cmp	r3, r2
 2379 119e 0AD0     		beq	.L510
 2380 11a0 FB68     		ldr	r3, [r7, #12]
 2381 11a2 1B68     		ldr	r3, [r3]
 2382 11a4 384A     		ldr	r2, .L539+52
 2383 11a6 9342     		cmp	r3, r2
 2384 11a8 02D1     		bne	.L511
 2385 11aa 4FF48033 		mov	r3, #65536
 2386 11ae 1AE0     		b	.L523
 2387              	.L511:
 2388 11b0 4FF48003 		mov	r3, #4194304
 2389 11b4 17E0     		b	.L523
 2390              	.L510:
 2391 11b6 4FF48033 		mov	r3, #65536
 2392 11ba 14E0     		b	.L523
 2393              	.L509:
 2394 11bc 4FF48033 		mov	r3, #65536
 2395 11c0 11E0     		b	.L523
 2396              	.L508:
 2397 11c2 4FF48033 		mov	r3, #65536
ARM GAS  C:\Users\user\AppData\Local\Temp\ccZRrPoM.s 			page 43


 2398 11c6 0EE0     		b	.L523
 2399              	.L507:
 2400 11c8 4023     		movs	r3, #64
 2401 11ca 0CE0     		b	.L523
 2402              	.L506:
 2403 11cc 4023     		movs	r3, #64
 2404 11ce 0AE0     		b	.L523
 2405              	.L505:
 2406 11d0 4023     		movs	r3, #64
 2407 11d2 08E0     		b	.L523
 2408              	.L504:
 2409 11d4 4023     		movs	r3, #64
 2410 11d6 06E0     		b	.L523
 2411              	.L503:
 2412 11d8 0123     		movs	r3, #1
 2413 11da 04E0     		b	.L523
 2414              	.L502:
 2415 11dc 0123     		movs	r3, #1
 2416 11de 02E0     		b	.L523
 2417              	.L501:
 2418 11e0 0123     		movs	r3, #1
 2419 11e2 00E0     		b	.L523
 2420              	.L500:
 2421 11e4 0123     		movs	r3, #1
 2422              	.L523:
 2423 11e6 294A     		ldr	r2, .L539+56
 2424 11e8 9360     		str	r3, [r2, #8]
 2425              	.L447:
 2426 11ea FB68     		ldr	r3, [r7, #12]
 2427 11ec 1B68     		ldr	r3, [r3]
 2428 11ee 1A68     		ldr	r2, [r3]
 2429 11f0 FB68     		ldr	r3, [r7, #12]
 2430 11f2 1B68     		ldr	r3, [r3]
 2431 11f4 42F01602 		orr	r2, r2, #22
 2432 11f8 1A60     		str	r2, [r3]
 2433 11fa FB68     		ldr	r3, [r7, #12]
 2434 11fc 1B68     		ldr	r3, [r3]
 2435 11fe 5A69     		ldr	r2, [r3, #20]
 2436 1200 FB68     		ldr	r3, [r7, #12]
 2437 1202 1B68     		ldr	r3, [r3]
 2438 1204 42F08002 		orr	r2, r2, #128
 2439 1208 5A61     		str	r2, [r3, #20]
 2440 120a FB68     		ldr	r3, [r7, #12]
 2441 120c 1B6C     		ldr	r3, [r3, #64]
 2442 120e 002B     		cmp	r3, #0
 2443 1210 03D1     		bne	.L524
 2444 1212 FB68     		ldr	r3, [r7, #12]
 2445 1214 9B6C     		ldr	r3, [r3, #72]
 2446 1216 002B     		cmp	r3, #0
 2447 1218 07D0     		beq	.L525
 2448              	.L524:
 2449 121a FB68     		ldr	r3, [r7, #12]
 2450 121c 1B68     		ldr	r3, [r3]
 2451 121e 1A68     		ldr	r2, [r3]
 2452 1220 FB68     		ldr	r3, [r7, #12]
 2453 1222 1B68     		ldr	r3, [r3]
 2454 1224 42F00802 		orr	r2, r2, #8
ARM GAS  C:\Users\user\AppData\Local\Temp\ccZRrPoM.s 			page 44


 2455 1228 1A60     		str	r2, [r3]
 2456              	.L525:
 2457 122a FB68     		ldr	r3, [r7, #12]
 2458 122c 1B68     		ldr	r3, [r3]
 2459 122e 1A68     		ldr	r2, [r3]
 2460 1230 FB68     		ldr	r3, [r7, #12]
 2461 1232 1B68     		ldr	r3, [r3]
 2462 1234 42F00102 		orr	r2, r2, #1
 2463 1238 1A60     		str	r2, [r3]
 2464 123a 05E0     		b	.L526
 2465              	.L13:
 2466 123c FB68     		ldr	r3, [r7, #12]
 2467 123e 0022     		movs	r2, #0
 2468 1240 83F83420 		strb	r2, [r3, #52]
 2469 1244 0223     		movs	r3, #2
 2470 1246 FB75     		strb	r3, [r7, #23]
 2471              	.L526:
 2472 1248 FB7D     		ldrb	r3, [r7, #23]	@ zero_extendqisi2
 2473              	.L9:
 2474 124a 1846     		mov	r0, r3
 2475 124c 1837     		adds	r7, r7, #24
 2476 124e BD46     		mov	sp, r7
 2477              		@ sp needed
 2478 1250 80BD     		pop	{r7, pc}
 2479              	.L540:
 2480 1252 00BF     		.align	2
 2481              	.L539:
 2482 1254 00640240 		.word	1073898496
 2483 1258 58600240 		.word	1073897560
 2484 125c 10600240 		.word	1073897488
 2485 1260 10640240 		.word	1073898512
 2486 1264 70600240 		.word	1073897584
 2487 1268 70640240 		.word	1073898608
 2488 126c 28600240 		.word	1073897512
 2489 1270 28640240 		.word	1073898536
 2490 1274 88600240 		.word	1073897608
 2491 1278 88640240 		.word	1073898632
 2492 127c 40600240 		.word	1073897536
 2493 1280 40640240 		.word	1073898560
 2494 1284 A0600240 		.word	1073897632
 2495 1288 A0640240 		.word	1073898656
 2496 128c 00600240 		.word	1073897472
 2498              		.section	.text.HAL_DMAEx_ChangeMemory,"ax",%progbits
 2499              		.align	1
 2500              		.global	HAL_DMAEx_ChangeMemory
 2501              		.syntax unified
 2502              		.thumb
 2503              		.thumb_func
 2505              	HAL_DMAEx_ChangeMemory:
 2506              		@ args = 0, pretend = 0, frame = 16
 2507              		@ frame_needed = 1, uses_anonymous_args = 0
 2508              		@ link register save eliminated.
 2509 0000 80B4     		push	{r7}
 2510 0002 85B0     		sub	sp, sp, #20
 2511 0004 00AF     		add	r7, sp, #0
 2512 0006 F860     		str	r0, [r7, #12]
 2513 0008 B960     		str	r1, [r7, #8]
ARM GAS  C:\Users\user\AppData\Local\Temp\ccZRrPoM.s 			page 45


 2514 000a 1346     		mov	r3, r2
 2515 000c FB71     		strb	r3, [r7, #7]
 2516 000e FB79     		ldrb	r3, [r7, #7]	@ zero_extendqisi2
 2517 0010 002B     		cmp	r3, #0
 2518 0012 04D1     		bne	.L542
 2519 0014 FB68     		ldr	r3, [r7, #12]
 2520 0016 1B68     		ldr	r3, [r3]
 2521 0018 BA68     		ldr	r2, [r7, #8]
 2522 001a DA60     		str	r2, [r3, #12]
 2523 001c 03E0     		b	.L543
 2524              	.L542:
 2525 001e FB68     		ldr	r3, [r7, #12]
 2526 0020 1B68     		ldr	r3, [r3]
 2527 0022 BA68     		ldr	r2, [r7, #8]
 2528 0024 1A61     		str	r2, [r3, #16]
 2529              	.L543:
 2530 0026 0023     		movs	r3, #0
 2531 0028 1846     		mov	r0, r3
 2532 002a 1437     		adds	r7, r7, #20
 2533 002c BD46     		mov	sp, r7
 2534              		@ sp needed
 2535 002e 5DF8047B 		ldr	r7, [sp], #4
 2536 0032 7047     		bx	lr
 2538              		.section	.text.DMA_MultiBufferSetConfig,"ax",%progbits
 2539              		.align	1
 2540              		.syntax unified
 2541              		.thumb
 2542              		.thumb_func
 2544              	DMA_MultiBufferSetConfig:
 2545              		@ args = 0, pretend = 0, frame = 16
 2546              		@ frame_needed = 1, uses_anonymous_args = 0
 2547              		@ link register save eliminated.
 2548 0000 80B4     		push	{r7}
 2549 0002 85B0     		sub	sp, sp, #20
 2550 0004 00AF     		add	r7, sp, #0
 2551 0006 F860     		str	r0, [r7, #12]
 2552 0008 B960     		str	r1, [r7, #8]
 2553 000a 7A60     		str	r2, [r7, #4]
 2554 000c 3B60     		str	r3, [r7]
 2555 000e FB68     		ldr	r3, [r7, #12]
 2556 0010 1B68     		ldr	r3, [r3]
 2557 0012 3A68     		ldr	r2, [r7]
 2558 0014 5A60     		str	r2, [r3, #4]
 2559 0016 FB68     		ldr	r3, [r7, #12]
 2560 0018 9B68     		ldr	r3, [r3, #8]
 2561 001a 402B     		cmp	r3, #64
 2562 001c 08D1     		bne	.L546
 2563 001e FB68     		ldr	r3, [r7, #12]
 2564 0020 1B68     		ldr	r3, [r3]
 2565 0022 7A68     		ldr	r2, [r7, #4]
 2566 0024 9A60     		str	r2, [r3, #8]
 2567 0026 FB68     		ldr	r3, [r7, #12]
 2568 0028 1B68     		ldr	r3, [r3]
 2569 002a BA68     		ldr	r2, [r7, #8]
 2570 002c DA60     		str	r2, [r3, #12]
 2571 002e 07E0     		b	.L548
 2572              	.L546:
ARM GAS  C:\Users\user\AppData\Local\Temp\ccZRrPoM.s 			page 46


 2573 0030 FB68     		ldr	r3, [r7, #12]
 2574 0032 1B68     		ldr	r3, [r3]
 2575 0034 BA68     		ldr	r2, [r7, #8]
 2576 0036 9A60     		str	r2, [r3, #8]
 2577 0038 FB68     		ldr	r3, [r7, #12]
 2578 003a 1B68     		ldr	r3, [r3]
 2579 003c 7A68     		ldr	r2, [r7, #4]
 2580 003e DA60     		str	r2, [r3, #12]
 2581              	.L548:
 2582 0040 00BF     		nop
 2583 0042 1437     		adds	r7, r7, #20
 2584 0044 BD46     		mov	sp, r7
 2585              		@ sp needed
 2586 0046 5DF8047B 		ldr	r7, [sp], #4
 2587 004a 7047     		bx	lr
 2589              		.ident	"GCC: (GNU Tools for STM32 12.3.rel1.20240306-1730) 12.3.1 20230626"
ARM GAS  C:\Users\user\AppData\Local\Temp\ccZRrPoM.s 			page 47


DEFINED SYMBOLS
                            *ABS*:00000000 stm32f4xx_hal_dma_ex.c
C:\Users\user\AppData\Local\Temp\ccZRrPoM.s:18     .text.HAL_DMAEx_MultiBufferStart:00000000 $t
C:\Users\user\AppData\Local\Temp\ccZRrPoM.s:24     .text.HAL_DMAEx_MultiBufferStart:00000000 HAL_DMAEx_MultiBufferStart
C:\Users\user\AppData\Local\Temp\ccZRrPoM.s:2544   .text.DMA_MultiBufferSetConfig:00000000 DMA_MultiBufferSetConfig
C:\Users\user\AppData\Local\Temp\ccZRrPoM.s:102    .text.HAL_DMAEx_MultiBufferStart_IT:00000000 $t
C:\Users\user\AppData\Local\Temp\ccZRrPoM.s:108    .text.HAL_DMAEx_MultiBufferStart_IT:00000000 HAL_DMAEx_MultiBufferStart_IT
C:\Users\user\AppData\Local\Temp\ccZRrPoM.s:482    .text.HAL_DMAEx_MultiBufferStart_IT:000002e0 $d
C:\Users\user\AppData\Local\Temp\ccZRrPoM.s:499    .text.HAL_DMAEx_MultiBufferStart_IT:00000320 $t
C:\Users\user\AppData\Local\Temp\ccZRrPoM.s:818    .text.HAL_DMAEx_MultiBufferStart_IT:00000580 $d
C:\Users\user\AppData\Local\Temp\ccZRrPoM.s:835    .text.HAL_DMAEx_MultiBufferStart_IT:000005c0 $t
C:\Users\user\AppData\Local\Temp\ccZRrPoM.s:1154   .text.HAL_DMAEx_MultiBufferStart_IT:00000820 $d
C:\Users\user\AppData\Local\Temp\ccZRrPoM.s:1171   .text.HAL_DMAEx_MultiBufferStart_IT:00000860 $t
C:\Users\user\AppData\Local\Temp\ccZRrPoM.s:1491   .text.HAL_DMAEx_MultiBufferStart_IT:00000ac0 $d
C:\Users\user\AppData\Local\Temp\ccZRrPoM.s:1508   .text.HAL_DMAEx_MultiBufferStart_IT:00000b00 $t
C:\Users\user\AppData\Local\Temp\ccZRrPoM.s:1824   .text.HAL_DMAEx_MultiBufferStart_IT:00000d58 $d
C:\Users\user\AppData\Local\Temp\ccZRrPoM.s:1842   .text.HAL_DMAEx_MultiBufferStart_IT:00000d9c $t
C:\Users\user\AppData\Local\Temp\ccZRrPoM.s:2173   .text.HAL_DMAEx_MultiBufferStart_IT:00001008 $d
C:\Users\user\AppData\Local\Temp\ccZRrPoM.s:2190   .text.HAL_DMAEx_MultiBufferStart_IT:00001048 $t
C:\Users\user\AppData\Local\Temp\ccZRrPoM.s:2482   .text.HAL_DMAEx_MultiBufferStart_IT:00001254 $d
C:\Users\user\AppData\Local\Temp\ccZRrPoM.s:2499   .text.HAL_DMAEx_ChangeMemory:00000000 $t
C:\Users\user\AppData\Local\Temp\ccZRrPoM.s:2505   .text.HAL_DMAEx_ChangeMemory:00000000 HAL_DMAEx_ChangeMemory
C:\Users\user\AppData\Local\Temp\ccZRrPoM.s:2539   .text.DMA_MultiBufferSetConfig:00000000 $t

NO UNDEFINED SYMBOLS
