ARM GAS  C:\Users\user\AppData\Local\Temp\ccVEdtG4.s 			page 1


   1              		.cpu cortex-m4
   2              		.arch armv7e-m
   3              		.fpu fpv4-sp-d16
   4              		.eabi_attribute 27, 1
   5              		.eabi_attribute 28, 1
   6              		.eabi_attribute 20, 1
   7              		.eabi_attribute 21, 1
   8              		.eabi_attribute 23, 3
   9              		.eabi_attribute 24, 1
  10              		.eabi_attribute 25, 1
  11              		.eabi_attribute 26, 1
  12              		.eabi_attribute 30, 6
  13              		.eabi_attribute 34, 1
  14              		.eabi_attribute 18, 4
  15              		.file	"stm32f4xx_hal_rcc_ex.c"
  16              		.text
  17              		.section	.text.HAL_RCCEx_PeriphCLKConfig,"ax",%progbits
  18              		.align	1
  19              		.global	HAL_RCCEx_PeriphCLKConfig
  20              		.syntax unified
  21              		.thumb
  22              		.thumb_func
  24              	HAL_RCCEx_PeriphCLKConfig:
  25              		@ args = 0, pretend = 0, frame = 24
  26              		@ frame_needed = 1, uses_anonymous_args = 0
  27 0000 80B5     		push	{r7, lr}
  28 0002 86B0     		sub	sp, sp, #24
  29 0004 00AF     		add	r7, sp, #0
  30 0006 7860     		str	r0, [r7, #4]
  31 0008 0023     		movs	r3, #0
  32 000a 7B61     		str	r3, [r7, #20]
  33 000c 0023     		movs	r3, #0
  34 000e 3B61     		str	r3, [r7, #16]
  35 0010 7B68     		ldr	r3, [r7, #4]
  36 0012 1B68     		ldr	r3, [r3]
  37 0014 03F00103 		and	r3, r3, #1
  38 0018 002B     		cmp	r3, #0
  39 001a 05D1     		bne	.L2
  40 001c 7B68     		ldr	r3, [r7, #4]
  41 001e 1B68     		ldr	r3, [r3]
  42 0020 03F00403 		and	r3, r3, #4
  43 0024 002B     		cmp	r3, #0
  44 0026 35D0     		beq	.L3
  45              	.L2:
  46 0028 624B     		ldr	r3, .L17
  47 002a 0022     		movs	r2, #0
  48 002c 1A60     		str	r2, [r3]
  49 002e FFF7FEFF 		bl	HAL_GetTick
  50 0032 7861     		str	r0, [r7, #20]
  51 0034 08E0     		b	.L4
  52              	.L6:
  53 0036 FFF7FEFF 		bl	HAL_GetTick
  54 003a 0246     		mov	r2, r0
  55 003c 7B69     		ldr	r3, [r7, #20]
  56 003e D31A     		subs	r3, r2, r3
  57 0040 022B     		cmp	r3, #2
  58 0042 01D9     		bls	.L4
ARM GAS  C:\Users\user\AppData\Local\Temp\ccVEdtG4.s 			page 2


  59 0044 0323     		movs	r3, #3
  60 0046 B0E0     		b	.L5
  61              	.L4:
  62 0048 5B4B     		ldr	r3, .L17+4
  63 004a 1B68     		ldr	r3, [r3]
  64 004c 03F00063 		and	r3, r3, #134217728
  65 0050 002B     		cmp	r3, #0
  66 0052 F0D1     		bne	.L6
  67 0054 7B68     		ldr	r3, [r7, #4]
  68 0056 5B68     		ldr	r3, [r3, #4]
  69 0058 9A01     		lsls	r2, r3, #6
  70 005a 7B68     		ldr	r3, [r7, #4]
  71 005c 9B68     		ldr	r3, [r3, #8]
  72 005e 1B07     		lsls	r3, r3, #28
  73 0060 5549     		ldr	r1, .L17+4
  74 0062 1343     		orrs	r3, r3, r2
  75 0064 C1F88430 		str	r3, [r1, #132]
  76 0068 524B     		ldr	r3, .L17
  77 006a 0122     		movs	r2, #1
  78 006c 1A60     		str	r2, [r3]
  79 006e FFF7FEFF 		bl	HAL_GetTick
  80 0072 7861     		str	r0, [r7, #20]
  81 0074 08E0     		b	.L7
  82              	.L8:
  83 0076 FFF7FEFF 		bl	HAL_GetTick
  84 007a 0246     		mov	r2, r0
  85 007c 7B69     		ldr	r3, [r7, #20]
  86 007e D31A     		subs	r3, r2, r3
  87 0080 022B     		cmp	r3, #2
  88 0082 01D9     		bls	.L7
  89 0084 0323     		movs	r3, #3
  90 0086 90E0     		b	.L5
  91              	.L7:
  92 0088 4B4B     		ldr	r3, .L17+4
  93 008a 1B68     		ldr	r3, [r3]
  94 008c 03F00063 		and	r3, r3, #134217728
  95 0090 002B     		cmp	r3, #0
  96 0092 F0D0     		beq	.L8
  97              	.L3:
  98 0094 7B68     		ldr	r3, [r7, #4]
  99 0096 1B68     		ldr	r3, [r3]
 100 0098 03F00203 		and	r3, r3, #2
 101 009c 002B     		cmp	r3, #0
 102 009e 00F08380 		beq	.L9
 103 00a2 0023     		movs	r3, #0
 104 00a4 FB60     		str	r3, [r7, #12]
 105 00a6 444B     		ldr	r3, .L17+4
 106 00a8 1B6C     		ldr	r3, [r3, #64]
 107 00aa 434A     		ldr	r2, .L17+4
 108 00ac 43F08053 		orr	r3, r3, #268435456
 109 00b0 1364     		str	r3, [r2, #64]
 110 00b2 414B     		ldr	r3, .L17+4
 111 00b4 1B6C     		ldr	r3, [r3, #64]
 112 00b6 03F08053 		and	r3, r3, #268435456
 113 00ba FB60     		str	r3, [r7, #12]
 114 00bc FB68     		ldr	r3, [r7, #12]
 115 00be 3F4B     		ldr	r3, .L17+8
ARM GAS  C:\Users\user\AppData\Local\Temp\ccVEdtG4.s 			page 3


 116 00c0 1B68     		ldr	r3, [r3]
 117 00c2 3E4A     		ldr	r2, .L17+8
 118 00c4 43F48073 		orr	r3, r3, #256
 119 00c8 1360     		str	r3, [r2]
 120 00ca FFF7FEFF 		bl	HAL_GetTick
 121 00ce 7861     		str	r0, [r7, #20]
 122 00d0 08E0     		b	.L10
 123              	.L11:
 124 00d2 FFF7FEFF 		bl	HAL_GetTick
 125 00d6 0246     		mov	r2, r0
 126 00d8 7B69     		ldr	r3, [r7, #20]
 127 00da D31A     		subs	r3, r2, r3
 128 00dc 022B     		cmp	r3, #2
 129 00de 01D9     		bls	.L10
 130 00e0 0323     		movs	r3, #3
 131 00e2 62E0     		b	.L5
 132              	.L10:
 133 00e4 354B     		ldr	r3, .L17+8
 134 00e6 1B68     		ldr	r3, [r3]
 135 00e8 03F48073 		and	r3, r3, #256
 136 00ec 002B     		cmp	r3, #0
 137 00ee F0D0     		beq	.L11
 138 00f0 314B     		ldr	r3, .L17+4
 139 00f2 1B6F     		ldr	r3, [r3, #112]
 140 00f4 03F44073 		and	r3, r3, #768
 141 00f8 3B61     		str	r3, [r7, #16]
 142 00fa 3B69     		ldr	r3, [r7, #16]
 143 00fc 002B     		cmp	r3, #0
 144 00fe 2FD0     		beq	.L12
 145 0100 7B68     		ldr	r3, [r7, #4]
 146 0102 DB68     		ldr	r3, [r3, #12]
 147 0104 03F44073 		and	r3, r3, #768
 148 0108 3A69     		ldr	r2, [r7, #16]
 149 010a 9A42     		cmp	r2, r3
 150 010c 28D0     		beq	.L12
 151 010e 2A4B     		ldr	r3, .L17+4
 152 0110 1B6F     		ldr	r3, [r3, #112]
 153 0112 23F44073 		bic	r3, r3, #768
 154 0116 3B61     		str	r3, [r7, #16]
 155 0118 294B     		ldr	r3, .L17+12
 156 011a 0122     		movs	r2, #1
 157 011c 1A60     		str	r2, [r3]
 158 011e 284B     		ldr	r3, .L17+12
 159 0120 0022     		movs	r2, #0
 160 0122 1A60     		str	r2, [r3]
 161 0124 244A     		ldr	r2, .L17+4
 162 0126 3B69     		ldr	r3, [r7, #16]
 163 0128 1367     		str	r3, [r2, #112]
 164 012a 234B     		ldr	r3, .L17+4
 165 012c 1B6F     		ldr	r3, [r3, #112]
 166 012e 03F00103 		and	r3, r3, #1
 167 0132 012B     		cmp	r3, #1
 168 0134 14D1     		bne	.L12
 169 0136 FFF7FEFF 		bl	HAL_GetTick
 170 013a 7861     		str	r0, [r7, #20]
 171 013c 0AE0     		b	.L13
 172              	.L14:
ARM GAS  C:\Users\user\AppData\Local\Temp\ccVEdtG4.s 			page 4


 173 013e FFF7FEFF 		bl	HAL_GetTick
 174 0142 0246     		mov	r2, r0
 175 0144 7B69     		ldr	r3, [r7, #20]
 176 0146 D31A     		subs	r3, r2, r3
 177 0148 41F28832 		movw	r2, #5000
 178 014c 9342     		cmp	r3, r2
 179 014e 01D9     		bls	.L13
 180 0150 0323     		movs	r3, #3
 181 0152 2AE0     		b	.L5
 182              	.L13:
 183 0154 184B     		ldr	r3, .L17+4
 184 0156 1B6F     		ldr	r3, [r3, #112]
 185 0158 03F00203 		and	r3, r3, #2
 186 015c 002B     		cmp	r3, #0
 187 015e EED0     		beq	.L14
 188              	.L12:
 189 0160 7B68     		ldr	r3, [r7, #4]
 190 0162 DB68     		ldr	r3, [r3, #12]
 191 0164 03F44073 		and	r3, r3, #768
 192 0168 B3F5407F 		cmp	r3, #768
 193 016c 0DD1     		bne	.L15
 194 016e 124B     		ldr	r3, .L17+4
 195 0170 9B68     		ldr	r3, [r3, #8]
 196 0172 23F4F812 		bic	r2, r3, #2031616
 197 0176 7B68     		ldr	r3, [r7, #4]
 198 0178 DB68     		ldr	r3, [r3, #12]
 199 017a 23F07043 		bic	r3, r3, #-268435456
 200 017e 23F44073 		bic	r3, r3, #768
 201 0182 0D49     		ldr	r1, .L17+4
 202 0184 1343     		orrs	r3, r3, r2
 203 0186 8B60     		str	r3, [r1, #8]
 204 0188 05E0     		b	.L16
 205              	.L15:
 206 018a 0B4B     		ldr	r3, .L17+4
 207 018c 9B68     		ldr	r3, [r3, #8]
 208 018e 0A4A     		ldr	r2, .L17+4
 209 0190 23F4F813 		bic	r3, r3, #2031616
 210 0194 9360     		str	r3, [r2, #8]
 211              	.L16:
 212 0196 084B     		ldr	r3, .L17+4
 213 0198 1A6F     		ldr	r2, [r3, #112]
 214 019a 7B68     		ldr	r3, [r7, #4]
 215 019c DB68     		ldr	r3, [r3, #12]
 216 019e C3F30B03 		ubfx	r3, r3, #0, #12
 217 01a2 0549     		ldr	r1, .L17+4
 218 01a4 1343     		orrs	r3, r3, r2
 219 01a6 0B67     		str	r3, [r1, #112]
 220              	.L9:
 221 01a8 0023     		movs	r3, #0
 222              	.L5:
 223 01aa 1846     		mov	r0, r3
 224 01ac 1837     		adds	r7, r7, #24
 225 01ae BD46     		mov	sp, r7
 226              		@ sp needed
 227 01b0 80BD     		pop	{r7, pc}
 228              	.L18:
 229 01b2 00BF     		.align	2
ARM GAS  C:\Users\user\AppData\Local\Temp\ccVEdtG4.s 			page 5


 230              	.L17:
 231 01b4 68004742 		.word	1111949416
 232 01b8 00380240 		.word	1073887232
 233 01bc 00700040 		.word	1073770496
 234 01c0 400E4742 		.word	1111952960
 236              		.section	.text.HAL_RCCEx_GetPeriphCLKConfig,"ax",%progbits
 237              		.align	1
 238              		.global	HAL_RCCEx_GetPeriphCLKConfig
 239              		.syntax unified
 240              		.thumb
 241              		.thumb_func
 243              	HAL_RCCEx_GetPeriphCLKConfig:
 244              		@ args = 0, pretend = 0, frame = 16
 245              		@ frame_needed = 1, uses_anonymous_args = 0
 246              		@ link register save eliminated.
 247 0000 80B4     		push	{r7}
 248 0002 85B0     		sub	sp, sp, #20
 249 0004 00AF     		add	r7, sp, #0
 250 0006 7860     		str	r0, [r7, #4]
 251 0008 7B68     		ldr	r3, [r7, #4]
 252 000a 0322     		movs	r2, #3
 253 000c 1A60     		str	r2, [r3]
 254 000e 114B     		ldr	r3, .L20
 255 0010 D3F88430 		ldr	r3, [r3, #132]
 256 0014 9B09     		lsrs	r3, r3, #6
 257 0016 C3F30802 		ubfx	r2, r3, #0, #9
 258 001a 7B68     		ldr	r3, [r7, #4]
 259 001c 5A60     		str	r2, [r3, #4]
 260 001e 0D4B     		ldr	r3, .L20
 261 0020 D3F88430 		ldr	r3, [r3, #132]
 262 0024 1B0F     		lsrs	r3, r3, #28
 263 0026 03F00702 		and	r2, r3, #7
 264 002a 7B68     		ldr	r3, [r7, #4]
 265 002c 9A60     		str	r2, [r3, #8]
 266 002e 094B     		ldr	r3, .L20
 267 0030 9B68     		ldr	r3, [r3, #8]
 268 0032 03F4F813 		and	r3, r3, #2031616
 269 0036 FB60     		str	r3, [r7, #12]
 270 0038 064B     		ldr	r3, .L20
 271 003a 1B6F     		ldr	r3, [r3, #112]
 272 003c 03F44072 		and	r2, r3, #768
 273 0040 FB68     		ldr	r3, [r7, #12]
 274 0042 1A43     		orrs	r2, r2, r3
 275 0044 7B68     		ldr	r3, [r7, #4]
 276 0046 DA60     		str	r2, [r3, #12]
 277 0048 00BF     		nop
 278 004a 1437     		adds	r7, r7, #20
 279 004c BD46     		mov	sp, r7
 280              		@ sp needed
 281 004e 5DF8047B 		ldr	r7, [sp], #4
 282 0052 7047     		bx	lr
 283              	.L21:
 284              		.align	2
 285              	.L20:
 286 0054 00380240 		.word	1073887232
 288              		.section	.text.HAL_RCCEx_GetPeriphCLKFreq,"ax",%progbits
 289              		.align	1
ARM GAS  C:\Users\user\AppData\Local\Temp\ccVEdtG4.s 			page 6


 290              		.global	HAL_RCCEx_GetPeriphCLKFreq
 291              		.syntax unified
 292              		.thumb
 293              		.thumb_func
 295              	HAL_RCCEx_GetPeriphCLKFreq:
 296              		@ args = 0, pretend = 0, frame = 24
 297              		@ frame_needed = 1, uses_anonymous_args = 0
 298              		@ link register save eliminated.
 299 0000 80B4     		push	{r7}
 300 0002 87B0     		sub	sp, sp, #28
 301 0004 00AF     		add	r7, sp, #0
 302 0006 7860     		str	r0, [r7, #4]
 303 0008 0023     		movs	r3, #0
 304 000a 7B61     		str	r3, [r7, #20]
 305 000c 0023     		movs	r3, #0
 306 000e 3B61     		str	r3, [r7, #16]
 307 0010 0023     		movs	r3, #0
 308 0012 FB60     		str	r3, [r7, #12]
 309 0014 0023     		movs	r3, #0
 310 0016 BB60     		str	r3, [r7, #8]
 311 0018 7B68     		ldr	r3, [r7, #4]
 312 001a 012B     		cmp	r3, #1
 313 001c 3ED1     		bne	.L23
 314 001e 234B     		ldr	r3, .L30
 315 0020 9B68     		ldr	r3, [r3, #8]
 316 0022 03F40003 		and	r3, r3, #8388608
 317 0026 FB60     		str	r3, [r7, #12]
 318 0028 FB68     		ldr	r3, [r7, #12]
 319 002a 002B     		cmp	r3, #0
 320 002c 05D0     		beq	.L24
 321 002e FB68     		ldr	r3, [r7, #12]
 322 0030 012B     		cmp	r3, #1
 323 0032 2FD1     		bne	.L25
 324 0034 1E4B     		ldr	r3, .L30+4
 325 0036 7B61     		str	r3, [r7, #20]
 326 0038 2FE0     		b	.L26
 327              	.L24:
 328 003a 1C4B     		ldr	r3, .L30
 329 003c 5B68     		ldr	r3, [r3, #4]
 330 003e 03F48003 		and	r3, r3, #4194304
 331 0042 B3F5800F 		cmp	r3, #4194304
 332 0046 08D1     		bne	.L27
 333 0048 184B     		ldr	r3, .L30
 334 004a 5B68     		ldr	r3, [r3, #4]
 335 004c 03F03F03 		and	r3, r3, #63
 336 0050 184A     		ldr	r2, .L30+8
 337 0052 B2FBF3F3 		udiv	r3, r2, r3
 338 0056 3B61     		str	r3, [r7, #16]
 339 0058 07E0     		b	.L28
 340              	.L27:
 341 005a 144B     		ldr	r3, .L30
 342 005c 5B68     		ldr	r3, [r3, #4]
 343 005e 03F03F03 		and	r3, r3, #63
 344 0062 154A     		ldr	r2, .L30+12
 345 0064 B2FBF3F3 		udiv	r3, r2, r3
 346 0068 3B61     		str	r3, [r7, #16]
 347              	.L28:
ARM GAS  C:\Users\user\AppData\Local\Temp\ccVEdtG4.s 			page 7


 348 006a 104B     		ldr	r3, .L30
 349 006c D3F88430 		ldr	r3, [r3, #132]
 350 0070 9B09     		lsrs	r3, r3, #6
 351 0072 C3F30802 		ubfx	r2, r3, #0, #9
 352 0076 3B69     		ldr	r3, [r7, #16]
 353 0078 02FB03F3 		mul	r3, r2, r3
 354 007c BB60     		str	r3, [r7, #8]
 355 007e 0B4B     		ldr	r3, .L30
 356 0080 D3F88430 		ldr	r3, [r3, #132]
 357 0084 1B0F     		lsrs	r3, r3, #28
 358 0086 03F00703 		and	r3, r3, #7
 359 008a BA68     		ldr	r2, [r7, #8]
 360 008c B2FBF3F3 		udiv	r3, r2, r3
 361 0090 7B61     		str	r3, [r7, #20]
 362 0092 02E0     		b	.L26
 363              	.L25:
 364 0094 0023     		movs	r3, #0
 365 0096 7B61     		str	r3, [r7, #20]
 366 0098 00BF     		nop
 367              	.L26:
 368 009a 00BF     		nop
 369              	.L23:
 370 009c 7B69     		ldr	r3, [r7, #20]
 371 009e 1846     		mov	r0, r3
 372 00a0 1C37     		adds	r7, r7, #28
 373 00a2 BD46     		mov	sp, r7
 374              		@ sp needed
 375 00a4 5DF8047B 		ldr	r7, [sp], #4
 376 00a8 7047     		bx	lr
 377              	.L31:
 378 00aa 00BF     		.align	2
 379              	.L30:
 380 00ac 00380240 		.word	1073887232
 381 00b0 0080BB00 		.word	12288000
 382 00b4 00127A00 		.word	8000000
 383 00b8 0024F400 		.word	16000000
 385              		.section	.text.HAL_RCCEx_EnablePLLI2S,"ax",%progbits
 386              		.align	1
 387              		.global	HAL_RCCEx_EnablePLLI2S
 388              		.syntax unified
 389              		.thumb
 390              		.thumb_func
 392              	HAL_RCCEx_EnablePLLI2S:
 393              		@ args = 0, pretend = 0, frame = 16
 394              		@ frame_needed = 1, uses_anonymous_args = 0
 395 0000 80B5     		push	{r7, lr}
 396 0002 84B0     		sub	sp, sp, #16
 397 0004 00AF     		add	r7, sp, #0
 398 0006 7860     		str	r0, [r7, #4]
 399 0008 1D4B     		ldr	r3, .L38
 400 000a 0022     		movs	r2, #0
 401 000c 1A60     		str	r2, [r3]
 402 000e FFF7FEFF 		bl	HAL_GetTick
 403 0012 F860     		str	r0, [r7, #12]
 404 0014 08E0     		b	.L33
 405              	.L35:
 406 0016 FFF7FEFF 		bl	HAL_GetTick
ARM GAS  C:\Users\user\AppData\Local\Temp\ccVEdtG4.s 			page 8


 407 001a 0246     		mov	r2, r0
 408 001c FB68     		ldr	r3, [r7, #12]
 409 001e D31A     		subs	r3, r2, r3
 410 0020 022B     		cmp	r3, #2
 411 0022 01D9     		bls	.L33
 412 0024 0323     		movs	r3, #3
 413 0026 26E0     		b	.L34
 414              	.L33:
 415 0028 164B     		ldr	r3, .L38+4
 416 002a 1B68     		ldr	r3, [r3]
 417 002c 03F00063 		and	r3, r3, #134217728
 418 0030 002B     		cmp	r3, #0
 419 0032 F0D1     		bne	.L35
 420 0034 7B68     		ldr	r3, [r7, #4]
 421 0036 1B68     		ldr	r3, [r3]
 422 0038 9A01     		lsls	r2, r3, #6
 423 003a 7B68     		ldr	r3, [r7, #4]
 424 003c 5B68     		ldr	r3, [r3, #4]
 425 003e 1B07     		lsls	r3, r3, #28
 426 0040 1049     		ldr	r1, .L38+4
 427 0042 1343     		orrs	r3, r3, r2
 428 0044 C1F88430 		str	r3, [r1, #132]
 429 0048 0D4B     		ldr	r3, .L38
 430 004a 0122     		movs	r2, #1
 431 004c 1A60     		str	r2, [r3]
 432 004e FFF7FEFF 		bl	HAL_GetTick
 433 0052 F860     		str	r0, [r7, #12]
 434 0054 08E0     		b	.L36
 435              	.L37:
 436 0056 FFF7FEFF 		bl	HAL_GetTick
 437 005a 0246     		mov	r2, r0
 438 005c FB68     		ldr	r3, [r7, #12]
 439 005e D31A     		subs	r3, r2, r3
 440 0060 022B     		cmp	r3, #2
 441 0062 01D9     		bls	.L36
 442 0064 0323     		movs	r3, #3
 443 0066 06E0     		b	.L34
 444              	.L36:
 445 0068 064B     		ldr	r3, .L38+4
 446 006a 1B68     		ldr	r3, [r3]
 447 006c 03F00063 		and	r3, r3, #134217728
 448 0070 002B     		cmp	r3, #0
 449 0072 F0D0     		beq	.L37
 450 0074 0023     		movs	r3, #0
 451              	.L34:
 452 0076 1846     		mov	r0, r3
 453 0078 1037     		adds	r7, r7, #16
 454 007a BD46     		mov	sp, r7
 455              		@ sp needed
 456 007c 80BD     		pop	{r7, pc}
 457              	.L39:
 458 007e 00BF     		.align	2
 459              	.L38:
 460 0080 68004742 		.word	1111949416
 461 0084 00380240 		.word	1073887232
 463              		.section	.text.HAL_RCCEx_DisablePLLI2S,"ax",%progbits
 464              		.align	1
ARM GAS  C:\Users\user\AppData\Local\Temp\ccVEdtG4.s 			page 9


 465              		.global	HAL_RCCEx_DisablePLLI2S
 466              		.syntax unified
 467              		.thumb
 468              		.thumb_func
 470              	HAL_RCCEx_DisablePLLI2S:
 471              		@ args = 0, pretend = 0, frame = 8
 472              		@ frame_needed = 1, uses_anonymous_args = 0
 473 0000 80B5     		push	{r7, lr}
 474 0002 82B0     		sub	sp, sp, #8
 475 0004 00AF     		add	r7, sp, #0
 476 0006 0D4B     		ldr	r3, .L44
 477 0008 0022     		movs	r2, #0
 478 000a 1A60     		str	r2, [r3]
 479 000c FFF7FEFF 		bl	HAL_GetTick
 480 0010 7860     		str	r0, [r7, #4]
 481 0012 08E0     		b	.L41
 482              	.L43:
 483 0014 FFF7FEFF 		bl	HAL_GetTick
 484 0018 0246     		mov	r2, r0
 485 001a 7B68     		ldr	r3, [r7, #4]
 486 001c D31A     		subs	r3, r2, r3
 487 001e 022B     		cmp	r3, #2
 488 0020 01D9     		bls	.L41
 489 0022 0323     		movs	r3, #3
 490 0024 06E0     		b	.L42
 491              	.L41:
 492 0026 064B     		ldr	r3, .L44+4
 493 0028 1B68     		ldr	r3, [r3]
 494 002a 03F00063 		and	r3, r3, #134217728
 495 002e 002B     		cmp	r3, #0
 496 0030 F0D1     		bne	.L43
 497 0032 0023     		movs	r3, #0
 498              	.L42:
 499 0034 1846     		mov	r0, r3
 500 0036 0837     		adds	r7, r7, #8
 501 0038 BD46     		mov	sp, r7
 502              		@ sp needed
 503 003a 80BD     		pop	{r7, pc}
 504              	.L45:
 505              		.align	2
 506              	.L44:
 507 003c 68004742 		.word	1111949416
 508 0040 00380240 		.word	1073887232
 510              		.section	.text.HAL_RCC_DeInit,"ax",%progbits
 511              		.align	1
 512              		.global	HAL_RCC_DeInit
 513              		.syntax unified
 514              		.thumb
 515              		.thumb_func
 517              	HAL_RCC_DeInit:
 518              		@ args = 0, pretend = 0, frame = 8
 519              		@ frame_needed = 1, uses_anonymous_args = 0
 520 0000 80B5     		push	{r7, lr}
 521 0002 82B0     		sub	sp, sp, #8
 522 0004 00AF     		add	r7, sp, #0
 523 0006 FFF7FEFF 		bl	HAL_GetTick
 524 000a 7860     		str	r0, [r7, #4]
ARM GAS  C:\Users\user\AppData\Local\Temp\ccVEdtG4.s 			page 10


 525 000c 5D4B     		ldr	r3, .L59
 526 000e 1B68     		ldr	r3, [r3]
 527 0010 5C4A     		ldr	r2, .L59
 528 0012 43F00103 		orr	r3, r3, #1
 529 0016 1360     		str	r3, [r2]
 530 0018 08E0     		b	.L47
 531              	.L49:
 532 001a FFF7FEFF 		bl	HAL_GetTick
 533 001e 0246     		mov	r2, r0
 534 0020 7B68     		ldr	r3, [r7, #4]
 535 0022 D31A     		subs	r3, r2, r3
 536 0024 022B     		cmp	r3, #2
 537 0026 01D9     		bls	.L47
 538 0028 0323     		movs	r3, #3
 539 002a A7E0     		b	.L48
 540              	.L47:
 541 002c 554B     		ldr	r3, .L59
 542 002e 1B68     		ldr	r3, [r3]
 543 0030 03F00203 		and	r3, r3, #2
 544 0034 002B     		cmp	r3, #0
 545 0036 F0D0     		beq	.L49
 546 0038 524B     		ldr	r3, .L59
 547 003a 1B68     		ldr	r3, [r3]
 548 003c 514A     		ldr	r2, .L59
 549 003e 43F08003 		orr	r3, r3, #128
 550 0042 1360     		str	r3, [r2]
 551 0044 FFF7FEFF 		bl	HAL_GetTick
 552 0048 7860     		str	r0, [r7, #4]
 553 004a 4E4B     		ldr	r3, .L59
 554 004c 0022     		movs	r2, #0
 555 004e 9A60     		str	r2, [r3, #8]
 556 0050 0AE0     		b	.L50
 557              	.L51:
 558 0052 FFF7FEFF 		bl	HAL_GetTick
 559 0056 0246     		mov	r2, r0
 560 0058 7B68     		ldr	r3, [r7, #4]
 561 005a D31A     		subs	r3, r2, r3
 562 005c 41F28832 		movw	r2, #5000
 563 0060 9342     		cmp	r3, r2
 564 0062 01D9     		bls	.L50
 565 0064 0323     		movs	r3, #3
 566 0066 89E0     		b	.L48
 567              	.L50:
 568 0068 464B     		ldr	r3, .L59
 569 006a 9B68     		ldr	r3, [r3, #8]
 570 006c 03F00C03 		and	r3, r3, #12
 571 0070 002B     		cmp	r3, #0
 572 0072 EED1     		bne	.L51
 573 0074 FFF7FEFF 		bl	HAL_GetTick
 574 0078 7860     		str	r0, [r7, #4]
 575 007a 424B     		ldr	r3, .L59
 576 007c 1B68     		ldr	r3, [r3]
 577 007e 414A     		ldr	r2, .L59
 578 0080 23F45023 		bic	r3, r3, #851968
 579 0084 1360     		str	r3, [r2]
 580 0086 08E0     		b	.L52
 581              	.L53:
ARM GAS  C:\Users\user\AppData\Local\Temp\ccVEdtG4.s 			page 11


 582 0088 FFF7FEFF 		bl	HAL_GetTick
 583 008c 0246     		mov	r2, r0
 584 008e 7B68     		ldr	r3, [r7, #4]
 585 0090 D31A     		subs	r3, r2, r3
 586 0092 642B     		cmp	r3, #100
 587 0094 01D9     		bls	.L52
 588 0096 0323     		movs	r3, #3
 589 0098 70E0     		b	.L48
 590              	.L52:
 591 009a 3A4B     		ldr	r3, .L59
 592 009c 1B68     		ldr	r3, [r3]
 593 009e 03F40033 		and	r3, r3, #131072
 594 00a2 002B     		cmp	r3, #0
 595 00a4 F0D1     		bne	.L53
 596 00a6 FFF7FEFF 		bl	HAL_GetTick
 597 00aa 7860     		str	r0, [r7, #4]
 598 00ac 354B     		ldr	r3, .L59
 599 00ae 1B68     		ldr	r3, [r3]
 600 00b0 344A     		ldr	r2, .L59
 601 00b2 23F08073 		bic	r3, r3, #16777216
 602 00b6 1360     		str	r3, [r2]
 603 00b8 08E0     		b	.L54
 604              	.L55:
 605 00ba FFF7FEFF 		bl	HAL_GetTick
 606 00be 0246     		mov	r2, r0
 607 00c0 7B68     		ldr	r3, [r7, #4]
 608 00c2 D31A     		subs	r3, r2, r3
 609 00c4 022B     		cmp	r3, #2
 610 00c6 01D9     		bls	.L54
 611 00c8 0323     		movs	r3, #3
 612 00ca 57E0     		b	.L48
 613              	.L54:
 614 00cc 2D4B     		ldr	r3, .L59
 615 00ce 1B68     		ldr	r3, [r3]
 616 00d0 03F00073 		and	r3, r3, #33554432
 617 00d4 002B     		cmp	r3, #0
 618 00d6 F0D1     		bne	.L55
 619 00d8 FFF7FEFF 		bl	HAL_GetTick
 620 00dc 7860     		str	r0, [r7, #4]
 621 00de 294B     		ldr	r3, .L59
 622 00e0 1B68     		ldr	r3, [r3]
 623 00e2 284A     		ldr	r2, .L59
 624 00e4 23F08063 		bic	r3, r3, #67108864
 625 00e8 1360     		str	r3, [r2]
 626 00ea 08E0     		b	.L56
 627              	.L57:
 628 00ec FFF7FEFF 		bl	HAL_GetTick
 629 00f0 0246     		mov	r2, r0
 630 00f2 7B68     		ldr	r3, [r7, #4]
 631 00f4 D31A     		subs	r3, r2, r3
 632 00f6 022B     		cmp	r3, #2
 633 00f8 01D9     		bls	.L56
 634 00fa 0323     		movs	r3, #3
 635 00fc 3EE0     		b	.L48
 636              	.L56:
 637 00fe 214B     		ldr	r3, .L59
 638 0100 1B68     		ldr	r3, [r3]
ARM GAS  C:\Users\user\AppData\Local\Temp\ccVEdtG4.s 			page 12


 639 0102 03F00063 		and	r3, r3, #134217728
 640 0106 002B     		cmp	r3, #0
 641 0108 F0D1     		bne	.L57
 642 010a 1E4B     		ldr	r3, .L59
 643 010c 1E4A     		ldr	r2, .L59+4
 644 010e 5A60     		str	r2, [r3, #4]
 645 0110 1C4B     		ldr	r3, .L59
 646 0112 1E4A     		ldr	r2, .L59+8
 647 0114 C3F88420 		str	r2, [r3, #132]
 648 0118 1A4B     		ldr	r3, .L59
 649 011a DB68     		ldr	r3, [r3, #12]
 650 011c 194A     		ldr	r2, .L59
 651 011e 23F4F853 		bic	r3, r3, #7936
 652 0122 D360     		str	r3, [r2, #12]
 653 0124 174B     		ldr	r3, .L59
 654 0126 DB68     		ldr	r3, [r3, #12]
 655 0128 164A     		ldr	r2, .L59
 656 012a 23F40053 		bic	r3, r3, #8192
 657 012e D360     		str	r3, [r2, #12]
 658 0130 144B     		ldr	r3, .L59
 659 0132 DB68     		ldr	r3, [r3, #12]
 660 0134 134A     		ldr	r2, .L59
 661 0136 43F41F03 		orr	r3, r3, #10420224
 662 013a D360     		str	r3, [r2, #12]
 663 013c 114B     		ldr	r3, .L59
 664 013e DB68     		ldr	r3, [r3, #12]
 665 0140 104A     		ldr	r2, .L59
 666 0142 43F40013 		orr	r3, r3, #2097152
 667 0146 D360     		str	r3, [r2, #12]
 668 0148 0E4B     		ldr	r3, .L59
 669 014a 5B6F     		ldr	r3, [r3, #116]
 670 014c 0D4A     		ldr	r2, .L59
 671 014e 23F00103 		bic	r3, r3, #1
 672 0152 5367     		str	r3, [r2, #116]
 673 0154 0B4B     		ldr	r3, .L59
 674 0156 5B6F     		ldr	r3, [r3, #116]
 675 0158 0A4A     		ldr	r2, .L59
 676 015a 43F08073 		orr	r3, r3, #16777216
 677 015e 5367     		str	r3, [r2, #116]
 678 0160 0B4B     		ldr	r3, .L59+12
 679 0162 0C4A     		ldr	r2, .L59+16
 680 0164 1A60     		str	r2, [r3]
 681 0166 0C4B     		ldr	r3, .L59+20
 682 0168 1B68     		ldr	r3, [r3]
 683 016a 1846     		mov	r0, r3
 684 016c FFF7FEFF 		bl	HAL_InitTick
 685 0170 0346     		mov	r3, r0
 686 0172 002B     		cmp	r3, #0
 687 0174 01D0     		beq	.L58
 688 0176 0123     		movs	r3, #1
 689 0178 00E0     		b	.L48
 690              	.L58:
 691 017a 0023     		movs	r3, #0
 692              	.L48:
 693 017c 1846     		mov	r0, r3
 694 017e 0837     		adds	r7, r7, #8
 695 0180 BD46     		mov	sp, r7
ARM GAS  C:\Users\user\AppData\Local\Temp\ccVEdtG4.s 			page 13


 696              		@ sp needed
 697 0182 80BD     		pop	{r7, pc}
 698              	.L60:
 699              		.align	2
 700              	.L59:
 701 0184 00380240 		.word	1073887232
 702 0188 10300004 		.word	67121168
 703 018c 00300020 		.word	536883200
 704 0190 00000000 		.word	SystemCoreClock
 705 0194 0024F400 		.word	16000000
 706 0198 00000000 		.word	uwTickPrio
 708              		.ident	"GCC: (GNU Tools for STM32 12.3.rel1.20240306-1730) 12.3.1 20230626"
ARM GAS  C:\Users\user\AppData\Local\Temp\ccVEdtG4.s 			page 14

