ARM GAS  C:\Users\user\AppData\Local\Temp\ccqXal38.s 			page 1


   1              		.cpu cortex-m4
   2              		.arch armv7e-m
   3              		.fpu fpv4-sp-d16
   4              		.eabi_attribute 27, 1
   5              		.eabi_attribute 28, 1
   6              		.eabi_attribute 20, 1
   7              		.eabi_attribute 21, 1
   8              		.eabi_attribute 23, 3
   9              		.eabi_attribute 24, 1
  10              		.eabi_attribute 25, 1
  11              		.eabi_attribute 26, 1
  12              		.eabi_attribute 30, 6
  13              		.eabi_attribute 34, 1
  14              		.eabi_attribute 18, 4
  15              		.file	"stm32f4xx_hal_pwr_ex.c"
  16              		.text
  17              		.section	.text.HAL_PWREx_EnableBkUpReg,"ax",%progbits
  18              		.align	1
  19              		.global	HAL_PWREx_EnableBkUpReg
  20              		.syntax unified
  21              		.thumb
  22              		.thumb_func
  24              	HAL_PWREx_EnableBkUpReg:
  25              		@ args = 0, pretend = 0, frame = 8
  26              		@ frame_needed = 1, uses_anonymous_args = 0
  27 0000 80B5     		push	{r7, lr}
  28 0002 82B0     		sub	sp, sp, #8
  29 0004 00AF     		add	r7, sp, #0
  30 0006 0023     		movs	r3, #0
  31 0008 7B60     		str	r3, [r7, #4]
  32 000a 0E4B     		ldr	r3, .L5
  33 000c 0122     		movs	r2, #1
  34 000e 1A60     		str	r2, [r3]
  35 0010 FFF7FEFF 		bl	HAL_GetTick
  36 0014 7860     		str	r0, [r7, #4]
  37 0016 09E0     		b	.L2
  38              	.L4:
  39 0018 FFF7FEFF 		bl	HAL_GetTick
  40 001c 0246     		mov	r2, r0
  41 001e 7B68     		ldr	r3, [r7, #4]
  42 0020 D31A     		subs	r3, r2, r3
  43 0022 B3F57A7F 		cmp	r3, #1000
  44 0026 01D9     		bls	.L2
  45 0028 0323     		movs	r3, #3
  46 002a 06E0     		b	.L3
  47              	.L2:
  48 002c 064B     		ldr	r3, .L5+4
  49 002e 5B68     		ldr	r3, [r3, #4]
  50 0030 03F00803 		and	r3, r3, #8
  51 0034 082B     		cmp	r3, #8
  52 0036 EFD1     		bne	.L4
  53 0038 0023     		movs	r3, #0
  54              	.L3:
  55 003a 1846     		mov	r0, r3
  56 003c 0837     		adds	r7, r7, #8
  57 003e BD46     		mov	sp, r7
  58              		@ sp needed
ARM GAS  C:\Users\user\AppData\Local\Temp\ccqXal38.s 			page 2


  59 0040 80BD     		pop	{r7, pc}
  60              	.L6:
  61 0042 00BF     		.align	2
  62              	.L5:
  63 0044 A4000E42 		.word	1108213924
  64 0048 00700040 		.word	1073770496
  66              		.section	.text.HAL_PWREx_DisableBkUpReg,"ax",%progbits
  67              		.align	1
  68              		.global	HAL_PWREx_DisableBkUpReg
  69              		.syntax unified
  70              		.thumb
  71              		.thumb_func
  73              	HAL_PWREx_DisableBkUpReg:
  74              		@ args = 0, pretend = 0, frame = 8
  75              		@ frame_needed = 1, uses_anonymous_args = 0
  76 0000 80B5     		push	{r7, lr}
  77 0002 82B0     		sub	sp, sp, #8
  78 0004 00AF     		add	r7, sp, #0
  79 0006 0023     		movs	r3, #0
  80 0008 7B60     		str	r3, [r7, #4]
  81 000a 0E4B     		ldr	r3, .L11
  82 000c 0022     		movs	r2, #0
  83 000e 1A60     		str	r2, [r3]
  84 0010 FFF7FEFF 		bl	HAL_GetTick
  85 0014 7860     		str	r0, [r7, #4]
  86 0016 09E0     		b	.L8
  87              	.L10:
  88 0018 FFF7FEFF 		bl	HAL_GetTick
  89 001c 0246     		mov	r2, r0
  90 001e 7B68     		ldr	r3, [r7, #4]
  91 0020 D31A     		subs	r3, r2, r3
  92 0022 B3F57A7F 		cmp	r3, #1000
  93 0026 01D9     		bls	.L8
  94 0028 0323     		movs	r3, #3
  95 002a 06E0     		b	.L9
  96              	.L8:
  97 002c 064B     		ldr	r3, .L11+4
  98 002e 5B68     		ldr	r3, [r3, #4]
  99 0030 03F00803 		and	r3, r3, #8
 100 0034 082B     		cmp	r3, #8
 101 0036 EFD0     		beq	.L10
 102 0038 0023     		movs	r3, #0
 103              	.L9:
 104 003a 1846     		mov	r0, r3
 105 003c 0837     		adds	r7, r7, #8
 106 003e BD46     		mov	sp, r7
 107              		@ sp needed
 108 0040 80BD     		pop	{r7, pc}
 109              	.L12:
 110 0042 00BF     		.align	2
 111              	.L11:
 112 0044 A4000E42 		.word	1108213924
 113 0048 00700040 		.word	1073770496
 115              		.section	.text.HAL_PWREx_EnableFlashPowerDown,"ax",%progbits
 116              		.align	1
 117              		.global	HAL_PWREx_EnableFlashPowerDown
 118              		.syntax unified
ARM GAS  C:\Users\user\AppData\Local\Temp\ccqXal38.s 			page 3


 119              		.thumb
 120              		.thumb_func
 122              	HAL_PWREx_EnableFlashPowerDown:
 123              		@ args = 0, pretend = 0, frame = 0
 124              		@ frame_needed = 1, uses_anonymous_args = 0
 125              		@ link register save eliminated.
 126 0000 80B4     		push	{r7}
 127 0002 00AF     		add	r7, sp, #0
 128 0004 034B     		ldr	r3, .L14
 129 0006 0122     		movs	r2, #1
 130 0008 1A60     		str	r2, [r3]
 131 000a 00BF     		nop
 132 000c BD46     		mov	sp, r7
 133              		@ sp needed
 134 000e 5DF8047B 		ldr	r7, [sp], #4
 135 0012 7047     		bx	lr
 136              	.L15:
 137              		.align	2
 138              	.L14:
 139 0014 24000E42 		.word	1108213796
 141              		.section	.text.HAL_PWREx_DisableFlashPowerDown,"ax",%progbits
 142              		.align	1
 143              		.global	HAL_PWREx_DisableFlashPowerDown
 144              		.syntax unified
 145              		.thumb
 146              		.thumb_func
 148              	HAL_PWREx_DisableFlashPowerDown:
 149              		@ args = 0, pretend = 0, frame = 0
 150              		@ frame_needed = 1, uses_anonymous_args = 0
 151              		@ link register save eliminated.
 152 0000 80B4     		push	{r7}
 153 0002 00AF     		add	r7, sp, #0
 154 0004 034B     		ldr	r3, .L17
 155 0006 0022     		movs	r2, #0
 156 0008 1A60     		str	r2, [r3]
 157 000a 00BF     		nop
 158 000c BD46     		mov	sp, r7
 159              		@ sp needed
 160 000e 5DF8047B 		ldr	r7, [sp], #4
 161 0012 7047     		bx	lr
 162              	.L18:
 163              		.align	2
 164              	.L17:
 165 0014 24000E42 		.word	1108213796
 167              		.section	.text.HAL_PWREx_GetVoltageRange,"ax",%progbits
 168              		.align	1
 169              		.global	HAL_PWREx_GetVoltageRange
 170              		.syntax unified
 171              		.thumb
 172              		.thumb_func
 174              	HAL_PWREx_GetVoltageRange:
 175              		@ args = 0, pretend = 0, frame = 0
 176              		@ frame_needed = 1, uses_anonymous_args = 0
 177              		@ link register save eliminated.
 178 0000 80B4     		push	{r7}
 179 0002 00AF     		add	r7, sp, #0
 180 0004 044B     		ldr	r3, .L21
ARM GAS  C:\Users\user\AppData\Local\Temp\ccqXal38.s 			page 4


 181 0006 1B68     		ldr	r3, [r3]
 182 0008 03F48043 		and	r3, r3, #16384
 183 000c 1846     		mov	r0, r3
 184 000e BD46     		mov	sp, r7
 185              		@ sp needed
 186 0010 5DF8047B 		ldr	r7, [sp], #4
 187 0014 7047     		bx	lr
 188              	.L22:
 189 0016 00BF     		.align	2
 190              	.L21:
 191 0018 00700040 		.word	1073770496
 193              		.section	.text.HAL_PWREx_ControlVoltageScaling,"ax",%progbits
 194              		.align	1
 195              		.global	HAL_PWREx_ControlVoltageScaling
 196              		.syntax unified
 197              		.thumb
 198              		.thumb_func
 200              	HAL_PWREx_ControlVoltageScaling:
 201              		@ args = 0, pretend = 0, frame = 24
 202              		@ frame_needed = 1, uses_anonymous_args = 0
 203 0000 80B5     		push	{r7, lr}
 204 0002 86B0     		sub	sp, sp, #24
 205 0004 00AF     		add	r7, sp, #0
 206 0006 7860     		str	r0, [r7, #4]
 207 0008 0023     		movs	r3, #0
 208 000a 7B61     		str	r3, [r7, #20]
 209 000c 0023     		movs	r3, #0
 210 000e 3B61     		str	r3, [r7, #16]
 211 0010 1A4B     		ldr	r3, .L27
 212 0012 1B6C     		ldr	r3, [r3, #64]
 213 0014 194A     		ldr	r2, .L27
 214 0016 43F08053 		orr	r3, r3, #268435456
 215 001a 1364     		str	r3, [r2, #64]
 216 001c 174B     		ldr	r3, .L27
 217 001e 1B6C     		ldr	r3, [r3, #64]
 218 0020 03F08053 		and	r3, r3, #268435456
 219 0024 3B61     		str	r3, [r7, #16]
 220 0026 3B69     		ldr	r3, [r7, #16]
 221 0028 0023     		movs	r3, #0
 222 002a FB60     		str	r3, [r7, #12]
 223 002c 144B     		ldr	r3, .L27+4
 224 002e 1B68     		ldr	r3, [r3]
 225 0030 23F48042 		bic	r2, r3, #16384
 226 0034 1249     		ldr	r1, .L27+4
 227 0036 7B68     		ldr	r3, [r7, #4]
 228 0038 1343     		orrs	r3, r3, r2
 229 003a 0B60     		str	r3, [r1]
 230 003c 104B     		ldr	r3, .L27+4
 231 003e 1B68     		ldr	r3, [r3]
 232 0040 03F48043 		and	r3, r3, #16384
 233 0044 FB60     		str	r3, [r7, #12]
 234 0046 FB68     		ldr	r3, [r7, #12]
 235 0048 FFF7FEFF 		bl	HAL_GetTick
 236 004c 7861     		str	r0, [r7, #20]
 237 004e 09E0     		b	.L24
 238              	.L26:
 239 0050 FFF7FEFF 		bl	HAL_GetTick
ARM GAS  C:\Users\user\AppData\Local\Temp\ccqXal38.s 			page 5


 240 0054 0246     		mov	r2, r0
 241 0056 7B69     		ldr	r3, [r7, #20]
 242 0058 D31A     		subs	r3, r2, r3
 243 005a B3F57A7F 		cmp	r3, #1000
 244 005e 01D9     		bls	.L24
 245 0060 0323     		movs	r3, #3
 246 0062 07E0     		b	.L25
 247              	.L24:
 248 0064 064B     		ldr	r3, .L27+4
 249 0066 5B68     		ldr	r3, [r3, #4]
 250 0068 03F48043 		and	r3, r3, #16384
 251 006c B3F5804F 		cmp	r3, #16384
 252 0070 EED1     		bne	.L26
 253 0072 0023     		movs	r3, #0
 254              	.L25:
 255 0074 1846     		mov	r0, r3
 256 0076 1837     		adds	r7, r7, #24
 257 0078 BD46     		mov	sp, r7
 258              		@ sp needed
 259 007a 80BD     		pop	{r7, pc}
 260              	.L28:
 261              		.align	2
 262              	.L27:
 263 007c 00380240 		.word	1073887232
 264 0080 00700040 		.word	1073770496
 266              		.ident	"GCC: (GNU Tools for STM32 12.3.rel1.20240306-1730) 12.3.1 20230626"
ARM GAS  C:\Users\user\AppData\Local\Temp\ccqXal38.s 			page 6

