ARM GAS  C:\Users\user\AppData\Local\Temp\cchxWhRb.s 			page 1


   1              		.cpu cortex-m4
   2              		.arch armv7e-m
   3              		.fpu fpv4-sp-d16
   4              		.eabi_attribute 27, 1
   5              		.eabi_attribute 28, 1
   6              		.eabi_attribute 20, 1
   7              		.eabi_attribute 21, 1
   8              		.eabi_attribute 23, 3
   9              		.eabi_attribute 24, 1
  10              		.eabi_attribute 25, 1
  11              		.eabi_attribute 26, 1
  12              		.eabi_attribute 30, 6
  13              		.eabi_attribute 34, 1
  14              		.eabi_attribute 18, 4
  15              		.file	"stm32f4xx_hal_i2c.c"
  16              		.text
  17              		.section	.text.HAL_I2C_Init,"ax",%progbits
  18              		.align	1
  19              		.global	HAL_I2C_Init
  20              		.syntax unified
  21              		.thumb
  22              		.thumb_func
  24              	HAL_I2C_Init:
  25              		@ args = 0, pretend = 0, frame = 16
  26              		@ frame_needed = 1, uses_anonymous_args = 0
  27 0000 80B5     		push	{r7, lr}
  28 0002 84B0     		sub	sp, sp, #16
  29 0004 00AF     		add	r7, sp, #0
  30 0006 7860     		str	r0, [r7, #4]
  31 0008 7B68     		ldr	r3, [r7, #4]
  32 000a 002B     		cmp	r3, #0
  33 000c 01D1     		bne	.L2
  34 000e 0123     		movs	r3, #1
  35 0010 2BE1     		b	.L3
  36              	.L2:
  37 0012 7B68     		ldr	r3, [r7, #4]
  38 0014 93F83D30 		ldrb	r3, [r3, #61]
  39 0018 DBB2     		uxtb	r3, r3
  40 001a 002B     		cmp	r3, #0
  41 001c 06D1     		bne	.L4
  42 001e 7B68     		ldr	r3, [r7, #4]
  43 0020 0022     		movs	r2, #0
  44 0022 83F83C20 		strb	r2, [r3, #60]
  45 0026 7868     		ldr	r0, [r7, #4]
  46 0028 FFF7FEFF 		bl	HAL_I2C_MspInit
  47              	.L4:
  48 002c 7B68     		ldr	r3, [r7, #4]
  49 002e 2422     		movs	r2, #36
  50 0030 83F83D20 		strb	r2, [r3, #61]
  51 0034 7B68     		ldr	r3, [r7, #4]
  52 0036 1B68     		ldr	r3, [r3]
  53 0038 1A68     		ldr	r2, [r3]
  54 003a 7B68     		ldr	r3, [r7, #4]
  55 003c 1B68     		ldr	r3, [r3]
  56 003e 22F00102 		bic	r2, r2, #1
  57 0042 1A60     		str	r2, [r3]
  58 0044 7B68     		ldr	r3, [r7, #4]
ARM GAS  C:\Users\user\AppData\Local\Temp\cchxWhRb.s 			page 2


  59 0046 1B68     		ldr	r3, [r3]
  60 0048 1A68     		ldr	r2, [r3]
  61 004a 7B68     		ldr	r3, [r7, #4]
  62 004c 1B68     		ldr	r3, [r3]
  63 004e 42F40042 		orr	r2, r2, #32768
  64 0052 1A60     		str	r2, [r3]
  65 0054 7B68     		ldr	r3, [r7, #4]
  66 0056 1B68     		ldr	r3, [r3]
  67 0058 1A68     		ldr	r2, [r3]
  68 005a 7B68     		ldr	r3, [r7, #4]
  69 005c 1B68     		ldr	r3, [r3]
  70 005e 22F40042 		bic	r2, r2, #32768
  71 0062 1A60     		str	r2, [r3]
  72 0064 FFF7FEFF 		bl	HAL_RCC_GetPCLK1Freq
  73 0068 F860     		str	r0, [r7, #12]
  74 006a 7B68     		ldr	r3, [r7, #4]
  75 006c 5B68     		ldr	r3, [r3, #4]
  76 006e 814A     		ldr	r2, .L20
  77 0070 9342     		cmp	r3, r2
  78 0072 07D8     		bhi	.L5
  79 0074 FB68     		ldr	r3, [r7, #12]
  80 0076 804A     		ldr	r2, .L20+4
  81 0078 9342     		cmp	r3, r2
  82 007a 94BF     		ite	ls
  83 007c 0123     		movls	r3, #1
  84 007e 0023     		movhi	r3, #0
  85 0080 DBB2     		uxtb	r3, r3
  86 0082 06E0     		b	.L6
  87              	.L5:
  88 0084 FB68     		ldr	r3, [r7, #12]
  89 0086 7D4A     		ldr	r2, .L20+8
  90 0088 9342     		cmp	r3, r2
  91 008a 94BF     		ite	ls
  92 008c 0123     		movls	r3, #1
  93 008e 0023     		movhi	r3, #0
  94 0090 DBB2     		uxtb	r3, r3
  95              	.L6:
  96 0092 002B     		cmp	r3, #0
  97 0094 01D0     		beq	.L7
  98 0096 0123     		movs	r3, #1
  99 0098 E7E0     		b	.L3
 100              	.L7:
 101 009a FB68     		ldr	r3, [r7, #12]
 102 009c 784A     		ldr	r2, .L20+12
 103 009e A2FB0323 		umull	r2, r3, r2, r3
 104 00a2 9B0C     		lsrs	r3, r3, #18
 105 00a4 BB60     		str	r3, [r7, #8]
 106 00a6 7B68     		ldr	r3, [r7, #4]
 107 00a8 1B68     		ldr	r3, [r3]
 108 00aa 5B68     		ldr	r3, [r3, #4]
 109 00ac 23F03F01 		bic	r1, r3, #63
 110 00b0 7B68     		ldr	r3, [r7, #4]
 111 00b2 1B68     		ldr	r3, [r3]
 112 00b4 BA68     		ldr	r2, [r7, #8]
 113 00b6 0A43     		orrs	r2, r2, r1
 114 00b8 5A60     		str	r2, [r3, #4]
 115 00ba 7B68     		ldr	r3, [r7, #4]
ARM GAS  C:\Users\user\AppData\Local\Temp\cchxWhRb.s 			page 3


 116 00bc 1B68     		ldr	r3, [r3]
 117 00be 1B6A     		ldr	r3, [r3, #32]
 118 00c0 23F03F01 		bic	r1, r3, #63
 119 00c4 7B68     		ldr	r3, [r7, #4]
 120 00c6 5B68     		ldr	r3, [r3, #4]
 121 00c8 6A4A     		ldr	r2, .L20
 122 00ca 9342     		cmp	r3, r2
 123 00cc 02D8     		bhi	.L8
 124 00ce BB68     		ldr	r3, [r7, #8]
 125 00d0 0133     		adds	r3, r3, #1
 126 00d2 09E0     		b	.L9
 127              	.L8:
 128 00d4 BB68     		ldr	r3, [r7, #8]
 129 00d6 4FF49672 		mov	r2, #300
 130 00da 02FB03F3 		mul	r3, r2, r3
 131 00de 694A     		ldr	r2, .L20+16
 132 00e0 A2FB0323 		umull	r2, r3, r2, r3
 133 00e4 9B09     		lsrs	r3, r3, #6
 134 00e6 0133     		adds	r3, r3, #1
 135              	.L9:
 136 00e8 7A68     		ldr	r2, [r7, #4]
 137 00ea 1268     		ldr	r2, [r2]
 138 00ec 0B43     		orrs	r3, r3, r1
 139 00ee 1362     		str	r3, [r2, #32]
 140 00f0 7B68     		ldr	r3, [r7, #4]
 141 00f2 1B68     		ldr	r3, [r3]
 142 00f4 DB69     		ldr	r3, [r3, #28]
 143 00f6 23F44F42 		bic	r2, r3, #52992
 144 00fa 22F0FF02 		bic	r2, r2, #255
 145 00fe 7B68     		ldr	r3, [r7, #4]
 146 0100 5B68     		ldr	r3, [r3, #4]
 147 0102 5C49     		ldr	r1, .L20
 148 0104 8B42     		cmp	r3, r1
 149 0106 19D8     		bhi	.L10
 150 0108 FB68     		ldr	r3, [r7, #12]
 151 010a 591E     		subs	r1, r3, #1
 152 010c 7B68     		ldr	r3, [r7, #4]
 153 010e 5B68     		ldr	r3, [r3, #4]
 154 0110 5B00     		lsls	r3, r3, #1
 155 0112 B1FBF3F3 		udiv	r3, r1, r3
 156 0116 591C     		adds	r1, r3, #1
 157 0118 40F6FC73 		movw	r3, #4092
 158 011c 0B40     		ands	r3, r3, r1
 159 011e 002B     		cmp	r3, #0
 160 0120 0AD0     		beq	.L11
 161 0122 FB68     		ldr	r3, [r7, #12]
 162 0124 591E     		subs	r1, r3, #1
 163 0126 7B68     		ldr	r3, [r7, #4]
 164 0128 5B68     		ldr	r3, [r3, #4]
 165 012a 5B00     		lsls	r3, r3, #1
 166 012c B1FBF3F3 		udiv	r3, r1, r3
 167 0130 0133     		adds	r3, r3, #1
 168 0132 C3F30B03 		ubfx	r3, r3, #0, #12
 169 0136 51E0     		b	.L13
 170              	.L11:
 171 0138 0423     		movs	r3, #4
 172 013a 4FE0     		b	.L13
ARM GAS  C:\Users\user\AppData\Local\Temp\cchxWhRb.s 			page 4


 173              	.L10:
 174 013c 7B68     		ldr	r3, [r7, #4]
 175 013e 9B68     		ldr	r3, [r3, #8]
 176 0140 002B     		cmp	r3, #0
 177 0142 11D1     		bne	.L14
 178 0144 FB68     		ldr	r3, [r7, #12]
 179 0146 581E     		subs	r0, r3, #1
 180 0148 7B68     		ldr	r3, [r7, #4]
 181 014a 5968     		ldr	r1, [r3, #4]
 182 014c 0B46     		mov	r3, r1
 183 014e 5B00     		lsls	r3, r3, #1
 184 0150 0B44     		add	r3, r3, r1
 185 0152 B0FBF3F3 		udiv	r3, r0, r3
 186 0156 0133     		adds	r3, r3, #1
 187 0158 C3F30B03 		ubfx	r3, r3, #0, #12
 188 015c 002B     		cmp	r3, #0
 189 015e 0CBF     		ite	eq
 190 0160 0123     		moveq	r3, #1
 191 0162 0023     		movne	r3, #0
 192 0164 DBB2     		uxtb	r3, r3
 193 0166 12E0     		b	.L15
 194              	.L14:
 195 0168 FB68     		ldr	r3, [r7, #12]
 196 016a 581E     		subs	r0, r3, #1
 197 016c 7B68     		ldr	r3, [r7, #4]
 198 016e 5968     		ldr	r1, [r3, #4]
 199 0170 0B46     		mov	r3, r1
 200 0172 9B00     		lsls	r3, r3, #2
 201 0174 0B44     		add	r3, r3, r1
 202 0176 9900     		lsls	r1, r3, #2
 203 0178 0B44     		add	r3, r3, r1
 204 017a B0FBF3F3 		udiv	r3, r0, r3
 205 017e 0133     		adds	r3, r3, #1
 206 0180 C3F30B03 		ubfx	r3, r3, #0, #12
 207 0184 002B     		cmp	r3, #0
 208 0186 0CBF     		ite	eq
 209 0188 0123     		moveq	r3, #1
 210 018a 0023     		movne	r3, #0
 211 018c DBB2     		uxtb	r3, r3
 212              	.L15:
 213 018e 002B     		cmp	r3, #0
 214 0190 01D0     		beq	.L16
 215 0192 0123     		movs	r3, #1
 216 0194 22E0     		b	.L13
 217              	.L16:
 218 0196 7B68     		ldr	r3, [r7, #4]
 219 0198 9B68     		ldr	r3, [r3, #8]
 220 019a 002B     		cmp	r3, #0
 221 019c 0ED1     		bne	.L18
 222 019e FB68     		ldr	r3, [r7, #12]
 223 01a0 581E     		subs	r0, r3, #1
 224 01a2 7B68     		ldr	r3, [r7, #4]
 225 01a4 5968     		ldr	r1, [r3, #4]
 226 01a6 0B46     		mov	r3, r1
 227 01a8 5B00     		lsls	r3, r3, #1
 228 01aa 0B44     		add	r3, r3, r1
 229 01ac B0FBF3F3 		udiv	r3, r0, r3
ARM GAS  C:\Users\user\AppData\Local\Temp\cchxWhRb.s 			page 5


 230 01b0 0133     		adds	r3, r3, #1
 231 01b2 C3F30B03 		ubfx	r3, r3, #0, #12
 232 01b6 43F40043 		orr	r3, r3, #32768
 233 01ba 0FE0     		b	.L13
 234              	.L18:
 235 01bc FB68     		ldr	r3, [r7, #12]
 236 01be 581E     		subs	r0, r3, #1
 237 01c0 7B68     		ldr	r3, [r7, #4]
 238 01c2 5968     		ldr	r1, [r3, #4]
 239 01c4 0B46     		mov	r3, r1
 240 01c6 9B00     		lsls	r3, r3, #2
 241 01c8 0B44     		add	r3, r3, r1
 242 01ca 9900     		lsls	r1, r3, #2
 243 01cc 0B44     		add	r3, r3, r1
 244 01ce B0FBF3F3 		udiv	r3, r0, r3
 245 01d2 0133     		adds	r3, r3, #1
 246 01d4 C3F30B03 		ubfx	r3, r3, #0, #12
 247 01d8 43F44043 		orr	r3, r3, #49152
 248              	.L13:
 249 01dc 7968     		ldr	r1, [r7, #4]
 250 01de 0968     		ldr	r1, [r1]
 251 01e0 1343     		orrs	r3, r3, r2
 252 01e2 CB61     		str	r3, [r1, #28]
 253 01e4 7B68     		ldr	r3, [r7, #4]
 254 01e6 1B68     		ldr	r3, [r3]
 255 01e8 1B68     		ldr	r3, [r3]
 256 01ea 23F0C001 		bic	r1, r3, #192
 257 01ee 7B68     		ldr	r3, [r7, #4]
 258 01f0 DA69     		ldr	r2, [r3, #28]
 259 01f2 7B68     		ldr	r3, [r7, #4]
 260 01f4 1B6A     		ldr	r3, [r3, #32]
 261 01f6 1A43     		orrs	r2, r2, r3
 262 01f8 7B68     		ldr	r3, [r7, #4]
 263 01fa 1B68     		ldr	r3, [r3]
 264 01fc 0A43     		orrs	r2, r2, r1
 265 01fe 1A60     		str	r2, [r3]
 266 0200 7B68     		ldr	r3, [r7, #4]
 267 0202 1B68     		ldr	r3, [r3]
 268 0204 9B68     		ldr	r3, [r3, #8]
 269 0206 23F40343 		bic	r3, r3, #33536
 270 020a 23F0FF03 		bic	r3, r3, #255
 271 020e 7A68     		ldr	r2, [r7, #4]
 272 0210 1169     		ldr	r1, [r2, #16]
 273 0212 7A68     		ldr	r2, [r7, #4]
 274 0214 D268     		ldr	r2, [r2, #12]
 275 0216 1143     		orrs	r1, r1, r2
 276 0218 7A68     		ldr	r2, [r7, #4]
 277 021a 1268     		ldr	r2, [r2]
 278 021c 0B43     		orrs	r3, r3, r1
 279 021e 9360     		str	r3, [r2, #8]
 280 0220 7B68     		ldr	r3, [r7, #4]
 281 0222 1B68     		ldr	r3, [r3]
 282 0224 DB68     		ldr	r3, [r3, #12]
 283 0226 23F0FF01 		bic	r1, r3, #255
 284 022a 7B68     		ldr	r3, [r7, #4]
 285 022c 5A69     		ldr	r2, [r3, #20]
 286 022e 7B68     		ldr	r3, [r7, #4]
ARM GAS  C:\Users\user\AppData\Local\Temp\cchxWhRb.s 			page 6


 287 0230 9B69     		ldr	r3, [r3, #24]
 288 0232 1A43     		orrs	r2, r2, r3
 289 0234 7B68     		ldr	r3, [r7, #4]
 290 0236 1B68     		ldr	r3, [r3]
 291 0238 0A43     		orrs	r2, r2, r1
 292 023a DA60     		str	r2, [r3, #12]
 293 023c 7B68     		ldr	r3, [r7, #4]
 294 023e 1B68     		ldr	r3, [r3]
 295 0240 1A68     		ldr	r2, [r3]
 296 0242 7B68     		ldr	r3, [r7, #4]
 297 0244 1B68     		ldr	r3, [r3]
 298 0246 42F00102 		orr	r2, r2, #1
 299 024a 1A60     		str	r2, [r3]
 300 024c 7B68     		ldr	r3, [r7, #4]
 301 024e 0022     		movs	r2, #0
 302 0250 1A64     		str	r2, [r3, #64]
 303 0252 7B68     		ldr	r3, [r7, #4]
 304 0254 2022     		movs	r2, #32
 305 0256 83F83D20 		strb	r2, [r3, #61]
 306 025a 7B68     		ldr	r3, [r7, #4]
 307 025c 0022     		movs	r2, #0
 308 025e 1A63     		str	r2, [r3, #48]
 309 0260 7B68     		ldr	r3, [r7, #4]
 310 0262 0022     		movs	r2, #0
 311 0264 83F83E20 		strb	r2, [r3, #62]
 312 0268 0023     		movs	r3, #0
 313              	.L3:
 314 026a 1846     		mov	r0, r3
 315 026c 1037     		adds	r7, r7, #16
 316 026e BD46     		mov	sp, r7
 317              		@ sp needed
 318 0270 80BD     		pop	{r7, pc}
 319              	.L21:
 320 0272 00BF     		.align	2
 321              	.L20:
 322 0274 A0860100 		.word	100000
 323 0278 7F841E00 		.word	1999999
 324 027c FF083D00 		.word	3999999
 325 0280 83DE1B43 		.word	1125899907
 326 0284 D34D6210 		.word	274877907
 328              		.section	.text.HAL_I2C_DeInit,"ax",%progbits
 329              		.align	1
 330              		.global	HAL_I2C_DeInit
 331              		.syntax unified
 332              		.thumb
 333              		.thumb_func
 335              	HAL_I2C_DeInit:
 336              		@ args = 0, pretend = 0, frame = 8
 337              		@ frame_needed = 1, uses_anonymous_args = 0
 338 0000 80B5     		push	{r7, lr}
 339 0002 82B0     		sub	sp, sp, #8
 340 0004 00AF     		add	r7, sp, #0
 341 0006 7860     		str	r0, [r7, #4]
 342 0008 7B68     		ldr	r3, [r7, #4]
 343 000a 002B     		cmp	r3, #0
 344 000c 01D1     		bne	.L23
 345 000e 0123     		movs	r3, #1
ARM GAS  C:\Users\user\AppData\Local\Temp\cchxWhRb.s 			page 7


 346 0010 21E0     		b	.L24
 347              	.L23:
 348 0012 7B68     		ldr	r3, [r7, #4]
 349 0014 2422     		movs	r2, #36
 350 0016 83F83D20 		strb	r2, [r3, #61]
 351 001a 7B68     		ldr	r3, [r7, #4]
 352 001c 1B68     		ldr	r3, [r3]
 353 001e 1A68     		ldr	r2, [r3]
 354 0020 7B68     		ldr	r3, [r7, #4]
 355 0022 1B68     		ldr	r3, [r3]
 356 0024 22F00102 		bic	r2, r2, #1
 357 0028 1A60     		str	r2, [r3]
 358 002a 7868     		ldr	r0, [r7, #4]
 359 002c FFF7FEFF 		bl	HAL_I2C_MspDeInit
 360 0030 7B68     		ldr	r3, [r7, #4]
 361 0032 0022     		movs	r2, #0
 362 0034 1A64     		str	r2, [r3, #64]
 363 0036 7B68     		ldr	r3, [r7, #4]
 364 0038 0022     		movs	r2, #0
 365 003a 83F83D20 		strb	r2, [r3, #61]
 366 003e 7B68     		ldr	r3, [r7, #4]
 367 0040 0022     		movs	r2, #0
 368 0042 1A63     		str	r2, [r3, #48]
 369 0044 7B68     		ldr	r3, [r7, #4]
 370 0046 0022     		movs	r2, #0
 371 0048 83F83E20 		strb	r2, [r3, #62]
 372 004c 7B68     		ldr	r3, [r7, #4]
 373 004e 0022     		movs	r2, #0
 374 0050 83F83C20 		strb	r2, [r3, #60]
 375 0054 0023     		movs	r3, #0
 376              	.L24:
 377 0056 1846     		mov	r0, r3
 378 0058 0837     		adds	r7, r7, #8
 379 005a BD46     		mov	sp, r7
 380              		@ sp needed
 381 005c 80BD     		pop	{r7, pc}
 383              		.section	.text.HAL_I2C_MspInit,"ax",%progbits
 384              		.align	1
 385              		.weak	HAL_I2C_MspInit
 386              		.syntax unified
 387              		.thumb
 388              		.thumb_func
 390              	HAL_I2C_MspInit:
 391              		@ args = 0, pretend = 0, frame = 8
 392              		@ frame_needed = 1, uses_anonymous_args = 0
 393              		@ link register save eliminated.
 394 0000 80B4     		push	{r7}
 395 0002 83B0     		sub	sp, sp, #12
 396 0004 00AF     		add	r7, sp, #0
 397 0006 7860     		str	r0, [r7, #4]
 398 0008 00BF     		nop
 399 000a 0C37     		adds	r7, r7, #12
 400 000c BD46     		mov	sp, r7
 401              		@ sp needed
 402 000e 5DF8047B 		ldr	r7, [sp], #4
 403 0012 7047     		bx	lr
 405              		.section	.text.HAL_I2C_MspDeInit,"ax",%progbits
ARM GAS  C:\Users\user\AppData\Local\Temp\cchxWhRb.s 			page 8


 406              		.align	1
 407              		.weak	HAL_I2C_MspDeInit
 408              		.syntax unified
 409              		.thumb
 410              		.thumb_func
 412              	HAL_I2C_MspDeInit:
 413              		@ args = 0, pretend = 0, frame = 8
 414              		@ frame_needed = 1, uses_anonymous_args = 0
 415              		@ link register save eliminated.
 416 0000 80B4     		push	{r7}
 417 0002 83B0     		sub	sp, sp, #12
 418 0004 00AF     		add	r7, sp, #0
 419 0006 7860     		str	r0, [r7, #4]
 420 0008 00BF     		nop
 421 000a 0C37     		adds	r7, r7, #12
 422 000c BD46     		mov	sp, r7
 423              		@ sp needed
 424 000e 5DF8047B 		ldr	r7, [sp], #4
 425 0012 7047     		bx	lr
 427              		.section	.text.HAL_I2C_Master_Transmit,"ax",%progbits
 428              		.align	1
 429              		.global	HAL_I2C_Master_Transmit
 430              		.syntax unified
 431              		.thumb
 432              		.thumb_func
 434              	HAL_I2C_Master_Transmit:
 435              		@ args = 4, pretend = 0, frame = 24
 436              		@ frame_needed = 1, uses_anonymous_args = 0
 437 0000 80B5     		push	{r7, lr}
 438 0002 88B0     		sub	sp, sp, #32
 439 0004 02AF     		add	r7, sp, #8
 440 0006 F860     		str	r0, [r7, #12]
 441 0008 7A60     		str	r2, [r7, #4]
 442 000a 1A46     		mov	r2, r3
 443 000c 0B46     		mov	r3, r1	@ movhi
 444 000e 7B81     		strh	r3, [r7, #10]	@ movhi
 445 0010 1346     		mov	r3, r2	@ movhi
 446 0012 3B81     		strh	r3, [r7, #8]	@ movhi
 447 0014 FFF7FEFF 		bl	HAL_GetTick
 448 0018 7861     		str	r0, [r7, #20]
 449 001a FB68     		ldr	r3, [r7, #12]
 450 001c 93F83D30 		ldrb	r3, [r3, #61]
 451 0020 DBB2     		uxtb	r3, r3
 452 0022 202B     		cmp	r3, #32
 453 0024 40F0E080 		bne	.L28
 454 0028 7B69     		ldr	r3, [r7, #20]
 455 002a 0093     		str	r3, [sp]
 456 002c 1923     		movs	r3, #25
 457 002e 0122     		movs	r2, #1
 458 0030 7049     		ldr	r1, .L40
 459 0032 F868     		ldr	r0, [r7, #12]
 460 0034 FFF7FEFF 		bl	I2C_WaitOnFlagUntilTimeout
 461 0038 0346     		mov	r3, r0
 462 003a 002B     		cmp	r3, #0
 463 003c 01D0     		beq	.L29
 464 003e 0223     		movs	r3, #2
 465 0040 D3E0     		b	.L30
ARM GAS  C:\Users\user\AppData\Local\Temp\cchxWhRb.s 			page 9


 466              	.L29:
 467 0042 FB68     		ldr	r3, [r7, #12]
 468 0044 93F83C30 		ldrb	r3, [r3, #60]	@ zero_extendqisi2
 469 0048 012B     		cmp	r3, #1
 470 004a 01D1     		bne	.L31
 471 004c 0223     		movs	r3, #2
 472 004e CCE0     		b	.L30
 473              	.L31:
 474 0050 FB68     		ldr	r3, [r7, #12]
 475 0052 0122     		movs	r2, #1
 476 0054 83F83C20 		strb	r2, [r3, #60]
 477 0058 FB68     		ldr	r3, [r7, #12]
 478 005a 1B68     		ldr	r3, [r3]
 479 005c 1B68     		ldr	r3, [r3]
 480 005e 03F00103 		and	r3, r3, #1
 481 0062 012B     		cmp	r3, #1
 482 0064 07D0     		beq	.L32
 483 0066 FB68     		ldr	r3, [r7, #12]
 484 0068 1B68     		ldr	r3, [r3]
 485 006a 1A68     		ldr	r2, [r3]
 486 006c FB68     		ldr	r3, [r7, #12]
 487 006e 1B68     		ldr	r3, [r3]
 488 0070 42F00102 		orr	r2, r2, #1
 489 0074 1A60     		str	r2, [r3]
 490              	.L32:
 491 0076 FB68     		ldr	r3, [r7, #12]
 492 0078 1B68     		ldr	r3, [r3]
 493 007a 1A68     		ldr	r2, [r3]
 494 007c FB68     		ldr	r3, [r7, #12]
 495 007e 1B68     		ldr	r3, [r3]
 496 0080 22F40062 		bic	r2, r2, #2048
 497 0084 1A60     		str	r2, [r3]
 498 0086 FB68     		ldr	r3, [r7, #12]
 499 0088 2122     		movs	r2, #33
 500 008a 83F83D20 		strb	r2, [r3, #61]
 501 008e FB68     		ldr	r3, [r7, #12]
 502 0090 1022     		movs	r2, #16
 503 0092 83F83E20 		strb	r2, [r3, #62]
 504 0096 FB68     		ldr	r3, [r7, #12]
 505 0098 0022     		movs	r2, #0
 506 009a 1A64     		str	r2, [r3, #64]
 507 009c FB68     		ldr	r3, [r7, #12]
 508 009e 7A68     		ldr	r2, [r7, #4]
 509 00a0 5A62     		str	r2, [r3, #36]
 510 00a2 FB68     		ldr	r3, [r7, #12]
 511 00a4 3A89     		ldrh	r2, [r7, #8]	@ movhi
 512 00a6 5A85     		strh	r2, [r3, #42]	@ movhi
 513 00a8 FB68     		ldr	r3, [r7, #12]
 514 00aa 5B8D     		ldrh	r3, [r3, #42]	@ movhi
 515 00ac 9AB2     		uxth	r2, r3
 516 00ae FB68     		ldr	r3, [r7, #12]
 517 00b0 1A85     		strh	r2, [r3, #40]	@ movhi
 518 00b2 FB68     		ldr	r3, [r7, #12]
 519 00b4 504A     		ldr	r2, .L40+4
 520 00b6 DA62     		str	r2, [r3, #44]
 521 00b8 7989     		ldrh	r1, [r7, #10]
 522 00ba 7B69     		ldr	r3, [r7, #20]
ARM GAS  C:\Users\user\AppData\Local\Temp\cchxWhRb.s 			page 10


 523 00bc 3A6A     		ldr	r2, [r7, #32]
 524 00be F868     		ldr	r0, [r7, #12]
 525 00c0 FFF7FEFF 		bl	I2C_MasterRequestWrite
 526 00c4 0346     		mov	r3, r0
 527 00c6 002B     		cmp	r3, #0
 528 00c8 01D0     		beq	.L33
 529 00ca 0123     		movs	r3, #1
 530 00cc 8DE0     		b	.L30
 531              	.L33:
 532 00ce 0023     		movs	r3, #0
 533 00d0 3B61     		str	r3, [r7, #16]
 534 00d2 FB68     		ldr	r3, [r7, #12]
 535 00d4 1B68     		ldr	r3, [r3]
 536 00d6 5B69     		ldr	r3, [r3, #20]
 537 00d8 3B61     		str	r3, [r7, #16]
 538 00da FB68     		ldr	r3, [r7, #12]
 539 00dc 1B68     		ldr	r3, [r3]
 540 00de 9B69     		ldr	r3, [r3, #24]
 541 00e0 3B61     		str	r3, [r7, #16]
 542 00e2 3B69     		ldr	r3, [r7, #16]
 543 00e4 66E0     		b	.L34
 544              	.L39:
 545 00e6 7A69     		ldr	r2, [r7, #20]
 546 00e8 396A     		ldr	r1, [r7, #32]
 547 00ea F868     		ldr	r0, [r7, #12]
 548 00ec FFF7FEFF 		bl	I2C_WaitOnTXEFlagUntilTimeout
 549 00f0 0346     		mov	r3, r0
 550 00f2 002B     		cmp	r3, #0
 551 00f4 0DD0     		beq	.L35
 552 00f6 FB68     		ldr	r3, [r7, #12]
 553 00f8 1B6C     		ldr	r3, [r3, #64]
 554 00fa 042B     		cmp	r3, #4
 555 00fc 07D1     		bne	.L36
 556 00fe FB68     		ldr	r3, [r7, #12]
 557 0100 1B68     		ldr	r3, [r3]
 558 0102 1A68     		ldr	r2, [r3]
 559 0104 FB68     		ldr	r3, [r7, #12]
 560 0106 1B68     		ldr	r3, [r3]
 561 0108 42F40072 		orr	r2, r2, #512
 562 010c 1A60     		str	r2, [r3]
 563              	.L36:
 564 010e 0123     		movs	r3, #1
 565 0110 6BE0     		b	.L30
 566              	.L35:
 567 0112 FB68     		ldr	r3, [r7, #12]
 568 0114 5B6A     		ldr	r3, [r3, #36]
 569 0116 1A78     		ldrb	r2, [r3]	@ zero_extendqisi2
 570 0118 FB68     		ldr	r3, [r7, #12]
 571 011a 1B68     		ldr	r3, [r3]
 572 011c 1A61     		str	r2, [r3, #16]
 573 011e FB68     		ldr	r3, [r7, #12]
 574 0120 5B6A     		ldr	r3, [r3, #36]
 575 0122 5A1C     		adds	r2, r3, #1
 576 0124 FB68     		ldr	r3, [r7, #12]
 577 0126 5A62     		str	r2, [r3, #36]
 578 0128 FB68     		ldr	r3, [r7, #12]
 579 012a 5B8D     		ldrh	r3, [r3, #42]	@ movhi
ARM GAS  C:\Users\user\AppData\Local\Temp\cchxWhRb.s 			page 11


 580 012c 9BB2     		uxth	r3, r3
 581 012e 013B     		subs	r3, r3, #1
 582 0130 9AB2     		uxth	r2, r3
 583 0132 FB68     		ldr	r3, [r7, #12]
 584 0134 5A85     		strh	r2, [r3, #42]	@ movhi
 585 0136 FB68     		ldr	r3, [r7, #12]
 586 0138 1B8D     		ldrh	r3, [r3, #40]
 587 013a 013B     		subs	r3, r3, #1
 588 013c 9AB2     		uxth	r2, r3
 589 013e FB68     		ldr	r3, [r7, #12]
 590 0140 1A85     		strh	r2, [r3, #40]	@ movhi
 591 0142 FB68     		ldr	r3, [r7, #12]
 592 0144 1B68     		ldr	r3, [r3]
 593 0146 5B69     		ldr	r3, [r3, #20]
 594 0148 03F00403 		and	r3, r3, #4
 595 014c 042B     		cmp	r3, #4
 596 014e 1BD1     		bne	.L37
 597 0150 FB68     		ldr	r3, [r7, #12]
 598 0152 1B8D     		ldrh	r3, [r3, #40]
 599 0154 002B     		cmp	r3, #0
 600 0156 17D0     		beq	.L37
 601 0158 FB68     		ldr	r3, [r7, #12]
 602 015a 5B6A     		ldr	r3, [r3, #36]
 603 015c 1A78     		ldrb	r2, [r3]	@ zero_extendqisi2
 604 015e FB68     		ldr	r3, [r7, #12]
 605 0160 1B68     		ldr	r3, [r3]
 606 0162 1A61     		str	r2, [r3, #16]
 607 0164 FB68     		ldr	r3, [r7, #12]
 608 0166 5B6A     		ldr	r3, [r3, #36]
 609 0168 5A1C     		adds	r2, r3, #1
 610 016a FB68     		ldr	r3, [r7, #12]
 611 016c 5A62     		str	r2, [r3, #36]
 612 016e FB68     		ldr	r3, [r7, #12]
 613 0170 5B8D     		ldrh	r3, [r3, #42]	@ movhi
 614 0172 9BB2     		uxth	r3, r3
 615 0174 013B     		subs	r3, r3, #1
 616 0176 9AB2     		uxth	r2, r3
 617 0178 FB68     		ldr	r3, [r7, #12]
 618 017a 5A85     		strh	r2, [r3, #42]	@ movhi
 619 017c FB68     		ldr	r3, [r7, #12]
 620 017e 1B8D     		ldrh	r3, [r3, #40]
 621 0180 013B     		subs	r3, r3, #1
 622 0182 9AB2     		uxth	r2, r3
 623 0184 FB68     		ldr	r3, [r7, #12]
 624 0186 1A85     		strh	r2, [r3, #40]	@ movhi
 625              	.L37:
 626 0188 7A69     		ldr	r2, [r7, #20]
 627 018a 396A     		ldr	r1, [r7, #32]
 628 018c F868     		ldr	r0, [r7, #12]
 629 018e FFF7FEFF 		bl	I2C_WaitOnBTFFlagUntilTimeout
 630 0192 0346     		mov	r3, r0
 631 0194 002B     		cmp	r3, #0
 632 0196 0DD0     		beq	.L34
 633 0198 FB68     		ldr	r3, [r7, #12]
 634 019a 1B6C     		ldr	r3, [r3, #64]
 635 019c 042B     		cmp	r3, #4
 636 019e 07D1     		bne	.L38
ARM GAS  C:\Users\user\AppData\Local\Temp\cchxWhRb.s 			page 12


 637 01a0 FB68     		ldr	r3, [r7, #12]
 638 01a2 1B68     		ldr	r3, [r3]
 639 01a4 1A68     		ldr	r2, [r3]
 640 01a6 FB68     		ldr	r3, [r7, #12]
 641 01a8 1B68     		ldr	r3, [r3]
 642 01aa 42F40072 		orr	r2, r2, #512
 643 01ae 1A60     		str	r2, [r3]
 644              	.L38:
 645 01b0 0123     		movs	r3, #1
 646 01b2 1AE0     		b	.L30
 647              	.L34:
 648 01b4 FB68     		ldr	r3, [r7, #12]
 649 01b6 1B8D     		ldrh	r3, [r3, #40]
 650 01b8 002B     		cmp	r3, #0
 651 01ba 94D1     		bne	.L39
 652 01bc FB68     		ldr	r3, [r7, #12]
 653 01be 1B68     		ldr	r3, [r3]
 654 01c0 1A68     		ldr	r2, [r3]
 655 01c2 FB68     		ldr	r3, [r7, #12]
 656 01c4 1B68     		ldr	r3, [r3]
 657 01c6 42F40072 		orr	r2, r2, #512
 658 01ca 1A60     		str	r2, [r3]
 659 01cc FB68     		ldr	r3, [r7, #12]
 660 01ce 2022     		movs	r2, #32
 661 01d0 83F83D20 		strb	r2, [r3, #61]
 662 01d4 FB68     		ldr	r3, [r7, #12]
 663 01d6 0022     		movs	r2, #0
 664 01d8 83F83E20 		strb	r2, [r3, #62]
 665 01dc FB68     		ldr	r3, [r7, #12]
 666 01de 0022     		movs	r2, #0
 667 01e0 83F83C20 		strb	r2, [r3, #60]
 668 01e4 0023     		movs	r3, #0
 669 01e6 00E0     		b	.L30
 670              	.L28:
 671 01e8 0223     		movs	r3, #2
 672              	.L30:
 673 01ea 1846     		mov	r0, r3
 674 01ec 1837     		adds	r7, r7, #24
 675 01ee BD46     		mov	sp, r7
 676              		@ sp needed
 677 01f0 80BD     		pop	{r7, pc}
 678              	.L41:
 679 01f2 00BF     		.align	2
 680              	.L40:
 681 01f4 02001000 		.word	1048578
 682 01f8 0000FFFF 		.word	-65536
 684              		.section	.text.HAL_I2C_Master_Receive,"ax",%progbits
 685              		.align	1
 686              		.global	HAL_I2C_Master_Receive
 687              		.syntax unified
 688              		.thumb
 689              		.thumb_func
 691              	HAL_I2C_Master_Receive:
 692              		@ args = 4, pretend = 0, frame = 40
 693              		@ frame_needed = 1, uses_anonymous_args = 0
 694 0000 80B5     		push	{r7, lr}
 695 0002 8CB0     		sub	sp, sp, #48
ARM GAS  C:\Users\user\AppData\Local\Temp\cchxWhRb.s 			page 13


 696 0004 02AF     		add	r7, sp, #8
 697 0006 F860     		str	r0, [r7, #12]
 698 0008 7A60     		str	r2, [r7, #4]
 699 000a 1A46     		mov	r2, r3
 700 000c 0B46     		mov	r3, r1	@ movhi
 701 000e 7B81     		strh	r3, [r7, #10]	@ movhi
 702 0010 1346     		mov	r3, r2	@ movhi
 703 0012 3B81     		strh	r3, [r7, #8]	@ movhi
 704 0014 FFF7FEFF 		bl	HAL_GetTick
 705 0018 7862     		str	r0, [r7, #36]
 706 001a FB68     		ldr	r3, [r7, #12]
 707 001c 93F83D30 		ldrb	r3, [r3, #61]
 708 0020 DBB2     		uxtb	r3, r3
 709 0022 202B     		cmp	r3, #32
 710 0024 40F00B82 		bne	.L43
 711 0028 7B6A     		ldr	r3, [r7, #36]
 712 002a 0093     		str	r3, [sp]
 713 002c 1923     		movs	r3, #25
 714 002e 0122     		movs	r2, #1
 715 0030 7C49     		ldr	r1, .L64
 716 0032 F868     		ldr	r0, [r7, #12]
 717 0034 FFF7FEFF 		bl	I2C_WaitOnFlagUntilTimeout
 718 0038 0346     		mov	r3, r0
 719 003a 002B     		cmp	r3, #0
 720 003c 01D0     		beq	.L44
 721 003e 0223     		movs	r3, #2
 722 0040 FEE1     		b	.L45
 723              	.L44:
 724 0042 FB68     		ldr	r3, [r7, #12]
 725 0044 93F83C30 		ldrb	r3, [r3, #60]	@ zero_extendqisi2
 726 0048 012B     		cmp	r3, #1
 727 004a 01D1     		bne	.L46
 728 004c 0223     		movs	r3, #2
 729 004e F7E1     		b	.L45
 730              	.L46:
 731 0050 FB68     		ldr	r3, [r7, #12]
 732 0052 0122     		movs	r2, #1
 733 0054 83F83C20 		strb	r2, [r3, #60]
 734 0058 FB68     		ldr	r3, [r7, #12]
 735 005a 1B68     		ldr	r3, [r3]
 736 005c 1B68     		ldr	r3, [r3]
 737 005e 03F00103 		and	r3, r3, #1
 738 0062 012B     		cmp	r3, #1
 739 0064 07D0     		beq	.L47
 740 0066 FB68     		ldr	r3, [r7, #12]
 741 0068 1B68     		ldr	r3, [r3]
 742 006a 1A68     		ldr	r2, [r3]
 743 006c FB68     		ldr	r3, [r7, #12]
 744 006e 1B68     		ldr	r3, [r3]
 745 0070 42F00102 		orr	r2, r2, #1
 746 0074 1A60     		str	r2, [r3]
 747              	.L47:
 748 0076 FB68     		ldr	r3, [r7, #12]
 749 0078 1B68     		ldr	r3, [r3]
 750 007a 1A68     		ldr	r2, [r3]
 751 007c FB68     		ldr	r3, [r7, #12]
 752 007e 1B68     		ldr	r3, [r3]
ARM GAS  C:\Users\user\AppData\Local\Temp\cchxWhRb.s 			page 14


 753 0080 22F40062 		bic	r2, r2, #2048
 754 0084 1A60     		str	r2, [r3]
 755 0086 FB68     		ldr	r3, [r7, #12]
 756 0088 2222     		movs	r2, #34
 757 008a 83F83D20 		strb	r2, [r3, #61]
 758 008e FB68     		ldr	r3, [r7, #12]
 759 0090 1022     		movs	r2, #16
 760 0092 83F83E20 		strb	r2, [r3, #62]
 761 0096 FB68     		ldr	r3, [r7, #12]
 762 0098 0022     		movs	r2, #0
 763 009a 1A64     		str	r2, [r3, #64]
 764 009c FB68     		ldr	r3, [r7, #12]
 765 009e 7A68     		ldr	r2, [r7, #4]
 766 00a0 5A62     		str	r2, [r3, #36]
 767 00a2 FB68     		ldr	r3, [r7, #12]
 768 00a4 3A89     		ldrh	r2, [r7, #8]	@ movhi
 769 00a6 5A85     		strh	r2, [r3, #42]	@ movhi
 770 00a8 FB68     		ldr	r3, [r7, #12]
 771 00aa 5B8D     		ldrh	r3, [r3, #42]	@ movhi
 772 00ac 9AB2     		uxth	r2, r3
 773 00ae FB68     		ldr	r3, [r7, #12]
 774 00b0 1A85     		strh	r2, [r3, #40]	@ movhi
 775 00b2 FB68     		ldr	r3, [r7, #12]
 776 00b4 5C4A     		ldr	r2, .L64+4
 777 00b6 DA62     		str	r2, [r3, #44]
 778 00b8 7989     		ldrh	r1, [r7, #10]
 779 00ba 7B6A     		ldr	r3, [r7, #36]
 780 00bc 3A6B     		ldr	r2, [r7, #48]
 781 00be F868     		ldr	r0, [r7, #12]
 782 00c0 FFF7FEFF 		bl	I2C_MasterRequestRead
 783 00c4 0346     		mov	r3, r0
 784 00c6 002B     		cmp	r3, #0
 785 00c8 01D0     		beq	.L48
 786 00ca 0123     		movs	r3, #1
 787 00cc B8E1     		b	.L45
 788              	.L48:
 789 00ce FB68     		ldr	r3, [r7, #12]
 790 00d0 1B8D     		ldrh	r3, [r3, #40]
 791 00d2 002B     		cmp	r3, #0
 792 00d4 13D1     		bne	.L49
 793 00d6 0023     		movs	r3, #0
 794 00d8 3B62     		str	r3, [r7, #32]
 795 00da FB68     		ldr	r3, [r7, #12]
 796 00dc 1B68     		ldr	r3, [r3]
 797 00de 5B69     		ldr	r3, [r3, #20]
 798 00e0 3B62     		str	r3, [r7, #32]
 799 00e2 FB68     		ldr	r3, [r7, #12]
 800 00e4 1B68     		ldr	r3, [r3]
 801 00e6 9B69     		ldr	r3, [r3, #24]
 802 00e8 3B62     		str	r3, [r7, #32]
 803 00ea 3B6A     		ldr	r3, [r7, #32]
 804 00ec FB68     		ldr	r3, [r7, #12]
 805 00ee 1B68     		ldr	r3, [r3]
 806 00f0 1A68     		ldr	r2, [r3]
 807 00f2 FB68     		ldr	r3, [r7, #12]
 808 00f4 1B68     		ldr	r3, [r3]
 809 00f6 42F40072 		orr	r2, r2, #512
ARM GAS  C:\Users\user\AppData\Local\Temp\cchxWhRb.s 			page 15


 810 00fa 1A60     		str	r2, [r3]
 811 00fc 8CE1     		b	.L53
 812              	.L49:
 813 00fe FB68     		ldr	r3, [r7, #12]
 814 0100 1B8D     		ldrh	r3, [r3, #40]
 815 0102 012B     		cmp	r3, #1
 816 0104 1BD1     		bne	.L51
 817 0106 FB68     		ldr	r3, [r7, #12]
 818 0108 1B68     		ldr	r3, [r3]
 819 010a 1A68     		ldr	r2, [r3]
 820 010c FB68     		ldr	r3, [r7, #12]
 821 010e 1B68     		ldr	r3, [r3]
 822 0110 22F48062 		bic	r2, r2, #1024
 823 0114 1A60     		str	r2, [r3]
 824 0116 0023     		movs	r3, #0
 825 0118 FB61     		str	r3, [r7, #28]
 826 011a FB68     		ldr	r3, [r7, #12]
 827 011c 1B68     		ldr	r3, [r3]
 828 011e 5B69     		ldr	r3, [r3, #20]
 829 0120 FB61     		str	r3, [r7, #28]
 830 0122 FB68     		ldr	r3, [r7, #12]
 831 0124 1B68     		ldr	r3, [r3]
 832 0126 9B69     		ldr	r3, [r3, #24]
 833 0128 FB61     		str	r3, [r7, #28]
 834 012a FB69     		ldr	r3, [r7, #28]
 835 012c FB68     		ldr	r3, [r7, #12]
 836 012e 1B68     		ldr	r3, [r3]
 837 0130 1A68     		ldr	r2, [r3]
 838 0132 FB68     		ldr	r3, [r7, #12]
 839 0134 1B68     		ldr	r3, [r3]
 840 0136 42F40072 		orr	r2, r2, #512
 841 013a 1A60     		str	r2, [r3]
 842 013c 6CE1     		b	.L53
 843              	.L51:
 844 013e FB68     		ldr	r3, [r7, #12]
 845 0140 1B8D     		ldrh	r3, [r3, #40]
 846 0142 022B     		cmp	r3, #2
 847 0144 1BD1     		bne	.L52
 848 0146 FB68     		ldr	r3, [r7, #12]
 849 0148 1B68     		ldr	r3, [r3]
 850 014a 1A68     		ldr	r2, [r3]
 851 014c FB68     		ldr	r3, [r7, #12]
 852 014e 1B68     		ldr	r3, [r3]
 853 0150 22F48062 		bic	r2, r2, #1024
 854 0154 1A60     		str	r2, [r3]
 855 0156 FB68     		ldr	r3, [r7, #12]
 856 0158 1B68     		ldr	r3, [r3]
 857 015a 1A68     		ldr	r2, [r3]
 858 015c FB68     		ldr	r3, [r7, #12]
 859 015e 1B68     		ldr	r3, [r3]
 860 0160 42F40062 		orr	r2, r2, #2048
 861 0164 1A60     		str	r2, [r3]
 862 0166 0023     		movs	r3, #0
 863 0168 BB61     		str	r3, [r7, #24]
 864 016a FB68     		ldr	r3, [r7, #12]
 865 016c 1B68     		ldr	r3, [r3]
 866 016e 5B69     		ldr	r3, [r3, #20]
ARM GAS  C:\Users\user\AppData\Local\Temp\cchxWhRb.s 			page 16


 867 0170 BB61     		str	r3, [r7, #24]
 868 0172 FB68     		ldr	r3, [r7, #12]
 869 0174 1B68     		ldr	r3, [r3]
 870 0176 9B69     		ldr	r3, [r3, #24]
 871 0178 BB61     		str	r3, [r7, #24]
 872 017a BB69     		ldr	r3, [r7, #24]
 873 017c 4CE1     		b	.L53
 874              	.L52:
 875 017e FB68     		ldr	r3, [r7, #12]
 876 0180 1B68     		ldr	r3, [r3]
 877 0182 1A68     		ldr	r2, [r3]
 878 0184 FB68     		ldr	r3, [r7, #12]
 879 0186 1B68     		ldr	r3, [r3]
 880 0188 42F48062 		orr	r2, r2, #1024
 881 018c 1A60     		str	r2, [r3]
 882 018e 0023     		movs	r3, #0
 883 0190 7B61     		str	r3, [r7, #20]
 884 0192 FB68     		ldr	r3, [r7, #12]
 885 0194 1B68     		ldr	r3, [r3]
 886 0196 5B69     		ldr	r3, [r3, #20]
 887 0198 7B61     		str	r3, [r7, #20]
 888 019a FB68     		ldr	r3, [r7, #12]
 889 019c 1B68     		ldr	r3, [r3]
 890 019e 9B69     		ldr	r3, [r3, #24]
 891 01a0 7B61     		str	r3, [r7, #20]
 892 01a2 7B69     		ldr	r3, [r7, #20]
 893 01a4 38E1     		b	.L53
 894              	.L63:
 895 01a6 FB68     		ldr	r3, [r7, #12]
 896 01a8 1B8D     		ldrh	r3, [r3, #40]
 897 01aa 032B     		cmp	r3, #3
 898 01ac 00F2F180 		bhi	.L54
 899 01b0 FB68     		ldr	r3, [r7, #12]
 900 01b2 1B8D     		ldrh	r3, [r3, #40]
 901 01b4 012B     		cmp	r3, #1
 902 01b6 23D1     		bne	.L55
 903 01b8 7A6A     		ldr	r2, [r7, #36]
 904 01ba 396B     		ldr	r1, [r7, #48]
 905 01bc F868     		ldr	r0, [r7, #12]
 906 01be FFF7FEFF 		bl	I2C_WaitOnRXNEFlagUntilTimeout
 907 01c2 0346     		mov	r3, r0
 908 01c4 002B     		cmp	r3, #0
 909 01c6 01D0     		beq	.L56
 910 01c8 0123     		movs	r3, #1
 911 01ca 39E1     		b	.L45
 912              	.L56:
 913 01cc FB68     		ldr	r3, [r7, #12]
 914 01ce 1B68     		ldr	r3, [r3]
 915 01d0 1A69     		ldr	r2, [r3, #16]
 916 01d2 FB68     		ldr	r3, [r7, #12]
 917 01d4 5B6A     		ldr	r3, [r3, #36]
 918 01d6 D2B2     		uxtb	r2, r2
 919 01d8 1A70     		strb	r2, [r3]
 920 01da FB68     		ldr	r3, [r7, #12]
 921 01dc 5B6A     		ldr	r3, [r3, #36]
 922 01de 5A1C     		adds	r2, r3, #1
 923 01e0 FB68     		ldr	r3, [r7, #12]
ARM GAS  C:\Users\user\AppData\Local\Temp\cchxWhRb.s 			page 17


 924 01e2 5A62     		str	r2, [r3, #36]
 925 01e4 FB68     		ldr	r3, [r7, #12]
 926 01e6 1B8D     		ldrh	r3, [r3, #40]
 927 01e8 013B     		subs	r3, r3, #1
 928 01ea 9AB2     		uxth	r2, r3
 929 01ec FB68     		ldr	r3, [r7, #12]
 930 01ee 1A85     		strh	r2, [r3, #40]	@ movhi
 931 01f0 FB68     		ldr	r3, [r7, #12]
 932 01f2 5B8D     		ldrh	r3, [r3, #42]	@ movhi
 933 01f4 9BB2     		uxth	r3, r3
 934 01f6 013B     		subs	r3, r3, #1
 935 01f8 9AB2     		uxth	r2, r3
 936 01fa FB68     		ldr	r3, [r7, #12]
 937 01fc 5A85     		strh	r2, [r3, #42]	@ movhi
 938 01fe 0BE1     		b	.L53
 939              	.L55:
 940 0200 FB68     		ldr	r3, [r7, #12]
 941 0202 1B8D     		ldrh	r3, [r3, #40]
 942 0204 022B     		cmp	r3, #2
 943 0206 4ED1     		bne	.L58
 944 0208 7B6A     		ldr	r3, [r7, #36]
 945 020a 0093     		str	r3, [sp]
 946 020c 3B6B     		ldr	r3, [r7, #48]
 947 020e 0022     		movs	r2, #0
 948 0210 0649     		ldr	r1, .L64+8
 949 0212 F868     		ldr	r0, [r7, #12]
 950 0214 FFF7FEFF 		bl	I2C_WaitOnFlagUntilTimeout
 951 0218 0346     		mov	r3, r0
 952 021a 002B     		cmp	r3, #0
 953 021c 08D0     		beq	.L59
 954 021e 0123     		movs	r3, #1
 955 0220 0EE1     		b	.L45
 956              	.L65:
 957 0222 00BF     		.align	2
 958              	.L64:
 959 0224 02001000 		.word	1048578
 960 0228 0000FFFF 		.word	-65536
 961 022c 04000100 		.word	65540
 962              	.L59:
 963 0230 FB68     		ldr	r3, [r7, #12]
 964 0232 1B68     		ldr	r3, [r3]
 965 0234 1A68     		ldr	r2, [r3]
 966 0236 FB68     		ldr	r3, [r7, #12]
 967 0238 1B68     		ldr	r3, [r3]
 968 023a 42F40072 		orr	r2, r2, #512
 969 023e 1A60     		str	r2, [r3]
 970 0240 FB68     		ldr	r3, [r7, #12]
 971 0242 1B68     		ldr	r3, [r3]
 972 0244 1A69     		ldr	r2, [r3, #16]
 973 0246 FB68     		ldr	r3, [r7, #12]
 974 0248 5B6A     		ldr	r3, [r3, #36]
 975 024a D2B2     		uxtb	r2, r2
 976 024c 1A70     		strb	r2, [r3]
 977 024e FB68     		ldr	r3, [r7, #12]
 978 0250 5B6A     		ldr	r3, [r3, #36]
 979 0252 5A1C     		adds	r2, r3, #1
 980 0254 FB68     		ldr	r3, [r7, #12]
ARM GAS  C:\Users\user\AppData\Local\Temp\cchxWhRb.s 			page 18


 981 0256 5A62     		str	r2, [r3, #36]
 982 0258 FB68     		ldr	r3, [r7, #12]
 983 025a 1B8D     		ldrh	r3, [r3, #40]
 984 025c 013B     		subs	r3, r3, #1
 985 025e 9AB2     		uxth	r2, r3
 986 0260 FB68     		ldr	r3, [r7, #12]
 987 0262 1A85     		strh	r2, [r3, #40]	@ movhi
 988 0264 FB68     		ldr	r3, [r7, #12]
 989 0266 5B8D     		ldrh	r3, [r3, #42]	@ movhi
 990 0268 9BB2     		uxth	r3, r3
 991 026a 013B     		subs	r3, r3, #1
 992 026c 9AB2     		uxth	r2, r3
 993 026e FB68     		ldr	r3, [r7, #12]
 994 0270 5A85     		strh	r2, [r3, #42]	@ movhi
 995 0272 FB68     		ldr	r3, [r7, #12]
 996 0274 1B68     		ldr	r3, [r3]
 997 0276 1A69     		ldr	r2, [r3, #16]
 998 0278 FB68     		ldr	r3, [r7, #12]
 999 027a 5B6A     		ldr	r3, [r3, #36]
 1000 027c D2B2     		uxtb	r2, r2
 1001 027e 1A70     		strb	r2, [r3]
 1002 0280 FB68     		ldr	r3, [r7, #12]
 1003 0282 5B6A     		ldr	r3, [r3, #36]
 1004 0284 5A1C     		adds	r2, r3, #1
 1005 0286 FB68     		ldr	r3, [r7, #12]
 1006 0288 5A62     		str	r2, [r3, #36]
 1007 028a FB68     		ldr	r3, [r7, #12]
 1008 028c 1B8D     		ldrh	r3, [r3, #40]
 1009 028e 013B     		subs	r3, r3, #1
 1010 0290 9AB2     		uxth	r2, r3
 1011 0292 FB68     		ldr	r3, [r7, #12]
 1012 0294 1A85     		strh	r2, [r3, #40]	@ movhi
 1013 0296 FB68     		ldr	r3, [r7, #12]
 1014 0298 5B8D     		ldrh	r3, [r3, #42]	@ movhi
 1015 029a 9BB2     		uxth	r3, r3
 1016 029c 013B     		subs	r3, r3, #1
 1017 029e 9AB2     		uxth	r2, r3
 1018 02a0 FB68     		ldr	r3, [r7, #12]
 1019 02a2 5A85     		strh	r2, [r3, #42]	@ movhi
 1020 02a4 B8E0     		b	.L53
 1021              	.L58:
 1022 02a6 7B6A     		ldr	r3, [r7, #36]
 1023 02a8 0093     		str	r3, [sp]
 1024 02aa 3B6B     		ldr	r3, [r7, #48]
 1025 02ac 0022     		movs	r2, #0
 1026 02ae 6649     		ldr	r1, .L66
 1027 02b0 F868     		ldr	r0, [r7, #12]
 1028 02b2 FFF7FEFF 		bl	I2C_WaitOnFlagUntilTimeout
 1029 02b6 0346     		mov	r3, r0
 1030 02b8 002B     		cmp	r3, #0
 1031 02ba 01D0     		beq	.L60
 1032 02bc 0123     		movs	r3, #1
 1033 02be BFE0     		b	.L45
 1034              	.L60:
 1035 02c0 FB68     		ldr	r3, [r7, #12]
 1036 02c2 1B68     		ldr	r3, [r3]
 1037 02c4 1A68     		ldr	r2, [r3]
ARM GAS  C:\Users\user\AppData\Local\Temp\cchxWhRb.s 			page 19


 1038 02c6 FB68     		ldr	r3, [r7, #12]
 1039 02c8 1B68     		ldr	r3, [r3]
 1040 02ca 22F48062 		bic	r2, r2, #1024
 1041 02ce 1A60     		str	r2, [r3]
 1042 02d0 FB68     		ldr	r3, [r7, #12]
 1043 02d2 1B68     		ldr	r3, [r3]
 1044 02d4 1A69     		ldr	r2, [r3, #16]
 1045 02d6 FB68     		ldr	r3, [r7, #12]
 1046 02d8 5B6A     		ldr	r3, [r3, #36]
 1047 02da D2B2     		uxtb	r2, r2
 1048 02dc 1A70     		strb	r2, [r3]
 1049 02de FB68     		ldr	r3, [r7, #12]
 1050 02e0 5B6A     		ldr	r3, [r3, #36]
 1051 02e2 5A1C     		adds	r2, r3, #1
 1052 02e4 FB68     		ldr	r3, [r7, #12]
 1053 02e6 5A62     		str	r2, [r3, #36]
 1054 02e8 FB68     		ldr	r3, [r7, #12]
 1055 02ea 1B8D     		ldrh	r3, [r3, #40]
 1056 02ec 013B     		subs	r3, r3, #1
 1057 02ee 9AB2     		uxth	r2, r3
 1058 02f0 FB68     		ldr	r3, [r7, #12]
 1059 02f2 1A85     		strh	r2, [r3, #40]	@ movhi
 1060 02f4 FB68     		ldr	r3, [r7, #12]
 1061 02f6 5B8D     		ldrh	r3, [r3, #42]	@ movhi
 1062 02f8 9BB2     		uxth	r3, r3
 1063 02fa 013B     		subs	r3, r3, #1
 1064 02fc 9AB2     		uxth	r2, r3
 1065 02fe FB68     		ldr	r3, [r7, #12]
 1066 0300 5A85     		strh	r2, [r3, #42]	@ movhi
 1067 0302 7B6A     		ldr	r3, [r7, #36]
 1068 0304 0093     		str	r3, [sp]
 1069 0306 3B6B     		ldr	r3, [r7, #48]
 1070 0308 0022     		movs	r2, #0
 1071 030a 4F49     		ldr	r1, .L66
 1072 030c F868     		ldr	r0, [r7, #12]
 1073 030e FFF7FEFF 		bl	I2C_WaitOnFlagUntilTimeout
 1074 0312 0346     		mov	r3, r0
 1075 0314 002B     		cmp	r3, #0
 1076 0316 01D0     		beq	.L61
 1077 0318 0123     		movs	r3, #1
 1078 031a 91E0     		b	.L45
 1079              	.L61:
 1080 031c FB68     		ldr	r3, [r7, #12]
 1081 031e 1B68     		ldr	r3, [r3]
 1082 0320 1A68     		ldr	r2, [r3]
 1083 0322 FB68     		ldr	r3, [r7, #12]
 1084 0324 1B68     		ldr	r3, [r3]
 1085 0326 42F40072 		orr	r2, r2, #512
 1086 032a 1A60     		str	r2, [r3]
 1087 032c FB68     		ldr	r3, [r7, #12]
 1088 032e 1B68     		ldr	r3, [r3]
 1089 0330 1A69     		ldr	r2, [r3, #16]
 1090 0332 FB68     		ldr	r3, [r7, #12]
 1091 0334 5B6A     		ldr	r3, [r3, #36]
 1092 0336 D2B2     		uxtb	r2, r2
 1093 0338 1A70     		strb	r2, [r3]
 1094 033a FB68     		ldr	r3, [r7, #12]
ARM GAS  C:\Users\user\AppData\Local\Temp\cchxWhRb.s 			page 20


 1095 033c 5B6A     		ldr	r3, [r3, #36]
 1096 033e 5A1C     		adds	r2, r3, #1
 1097 0340 FB68     		ldr	r3, [r7, #12]
 1098 0342 5A62     		str	r2, [r3, #36]
 1099 0344 FB68     		ldr	r3, [r7, #12]
 1100 0346 1B8D     		ldrh	r3, [r3, #40]
 1101 0348 013B     		subs	r3, r3, #1
 1102 034a 9AB2     		uxth	r2, r3
 1103 034c FB68     		ldr	r3, [r7, #12]
 1104 034e 1A85     		strh	r2, [r3, #40]	@ movhi
 1105 0350 FB68     		ldr	r3, [r7, #12]
 1106 0352 5B8D     		ldrh	r3, [r3, #42]	@ movhi
 1107 0354 9BB2     		uxth	r3, r3
 1108 0356 013B     		subs	r3, r3, #1
 1109 0358 9AB2     		uxth	r2, r3
 1110 035a FB68     		ldr	r3, [r7, #12]
 1111 035c 5A85     		strh	r2, [r3, #42]	@ movhi
 1112 035e FB68     		ldr	r3, [r7, #12]
 1113 0360 1B68     		ldr	r3, [r3]
 1114 0362 1A69     		ldr	r2, [r3, #16]
 1115 0364 FB68     		ldr	r3, [r7, #12]
 1116 0366 5B6A     		ldr	r3, [r3, #36]
 1117 0368 D2B2     		uxtb	r2, r2
 1118 036a 1A70     		strb	r2, [r3]
 1119 036c FB68     		ldr	r3, [r7, #12]
 1120 036e 5B6A     		ldr	r3, [r3, #36]
 1121 0370 5A1C     		adds	r2, r3, #1
 1122 0372 FB68     		ldr	r3, [r7, #12]
 1123 0374 5A62     		str	r2, [r3, #36]
 1124 0376 FB68     		ldr	r3, [r7, #12]
 1125 0378 1B8D     		ldrh	r3, [r3, #40]
 1126 037a 013B     		subs	r3, r3, #1
 1127 037c 9AB2     		uxth	r2, r3
 1128 037e FB68     		ldr	r3, [r7, #12]
 1129 0380 1A85     		strh	r2, [r3, #40]	@ movhi
 1130 0382 FB68     		ldr	r3, [r7, #12]
 1131 0384 5B8D     		ldrh	r3, [r3, #42]	@ movhi
 1132 0386 9BB2     		uxth	r3, r3
 1133 0388 013B     		subs	r3, r3, #1
 1134 038a 9AB2     		uxth	r2, r3
 1135 038c FB68     		ldr	r3, [r7, #12]
 1136 038e 5A85     		strh	r2, [r3, #42]	@ movhi
 1137 0390 42E0     		b	.L53
 1138              	.L54:
 1139 0392 7A6A     		ldr	r2, [r7, #36]
 1140 0394 396B     		ldr	r1, [r7, #48]
 1141 0396 F868     		ldr	r0, [r7, #12]
 1142 0398 FFF7FEFF 		bl	I2C_WaitOnRXNEFlagUntilTimeout
 1143 039c 0346     		mov	r3, r0
 1144 039e 002B     		cmp	r3, #0
 1145 03a0 01D0     		beq	.L62
 1146 03a2 0123     		movs	r3, #1
 1147 03a4 4CE0     		b	.L45
 1148              	.L62:
 1149 03a6 FB68     		ldr	r3, [r7, #12]
 1150 03a8 1B68     		ldr	r3, [r3]
 1151 03aa 1A69     		ldr	r2, [r3, #16]
ARM GAS  C:\Users\user\AppData\Local\Temp\cchxWhRb.s 			page 21


 1152 03ac FB68     		ldr	r3, [r7, #12]
 1153 03ae 5B6A     		ldr	r3, [r3, #36]
 1154 03b0 D2B2     		uxtb	r2, r2
 1155 03b2 1A70     		strb	r2, [r3]
 1156 03b4 FB68     		ldr	r3, [r7, #12]
 1157 03b6 5B6A     		ldr	r3, [r3, #36]
 1158 03b8 5A1C     		adds	r2, r3, #1
 1159 03ba FB68     		ldr	r3, [r7, #12]
 1160 03bc 5A62     		str	r2, [r3, #36]
 1161 03be FB68     		ldr	r3, [r7, #12]
 1162 03c0 1B8D     		ldrh	r3, [r3, #40]
 1163 03c2 013B     		subs	r3, r3, #1
 1164 03c4 9AB2     		uxth	r2, r3
 1165 03c6 FB68     		ldr	r3, [r7, #12]
 1166 03c8 1A85     		strh	r2, [r3, #40]	@ movhi
 1167 03ca FB68     		ldr	r3, [r7, #12]
 1168 03cc 5B8D     		ldrh	r3, [r3, #42]	@ movhi
 1169 03ce 9BB2     		uxth	r3, r3
 1170 03d0 013B     		subs	r3, r3, #1
 1171 03d2 9AB2     		uxth	r2, r3
 1172 03d4 FB68     		ldr	r3, [r7, #12]
 1173 03d6 5A85     		strh	r2, [r3, #42]	@ movhi
 1174 03d8 FB68     		ldr	r3, [r7, #12]
 1175 03da 1B68     		ldr	r3, [r3]
 1176 03dc 5B69     		ldr	r3, [r3, #20]
 1177 03de 03F00403 		and	r3, r3, #4
 1178 03e2 042B     		cmp	r3, #4
 1179 03e4 18D1     		bne	.L53
 1180 03e6 FB68     		ldr	r3, [r7, #12]
 1181 03e8 1B68     		ldr	r3, [r3]
 1182 03ea 1A69     		ldr	r2, [r3, #16]
 1183 03ec FB68     		ldr	r3, [r7, #12]
 1184 03ee 5B6A     		ldr	r3, [r3, #36]
 1185 03f0 D2B2     		uxtb	r2, r2
 1186 03f2 1A70     		strb	r2, [r3]
 1187 03f4 FB68     		ldr	r3, [r7, #12]
 1188 03f6 5B6A     		ldr	r3, [r3, #36]
 1189 03f8 5A1C     		adds	r2, r3, #1
 1190 03fa FB68     		ldr	r3, [r7, #12]
 1191 03fc 5A62     		str	r2, [r3, #36]
 1192 03fe FB68     		ldr	r3, [r7, #12]
 1193 0400 1B8D     		ldrh	r3, [r3, #40]
 1194 0402 013B     		subs	r3, r3, #1
 1195 0404 9AB2     		uxth	r2, r3
 1196 0406 FB68     		ldr	r3, [r7, #12]
 1197 0408 1A85     		strh	r2, [r3, #40]	@ movhi
 1198 040a FB68     		ldr	r3, [r7, #12]
 1199 040c 5B8D     		ldrh	r3, [r3, #42]	@ movhi
 1200 040e 9BB2     		uxth	r3, r3
 1201 0410 013B     		subs	r3, r3, #1
 1202 0412 9AB2     		uxth	r2, r3
 1203 0414 FB68     		ldr	r3, [r7, #12]
 1204 0416 5A85     		strh	r2, [r3, #42]	@ movhi
 1205              	.L53:
 1206 0418 FB68     		ldr	r3, [r7, #12]
 1207 041a 1B8D     		ldrh	r3, [r3, #40]
 1208 041c 002B     		cmp	r3, #0
ARM GAS  C:\Users\user\AppData\Local\Temp\cchxWhRb.s 			page 22


 1209 041e 7FF4C2AE 		bne	.L63
 1210 0422 FB68     		ldr	r3, [r7, #12]
 1211 0424 2022     		movs	r2, #32
 1212 0426 83F83D20 		strb	r2, [r3, #61]
 1213 042a FB68     		ldr	r3, [r7, #12]
 1214 042c 0022     		movs	r2, #0
 1215 042e 83F83E20 		strb	r2, [r3, #62]
 1216 0432 FB68     		ldr	r3, [r7, #12]
 1217 0434 0022     		movs	r2, #0
 1218 0436 83F83C20 		strb	r2, [r3, #60]
 1219 043a 0023     		movs	r3, #0
 1220 043c 00E0     		b	.L45
 1221              	.L43:
 1222 043e 0223     		movs	r3, #2
 1223              	.L45:
 1224 0440 1846     		mov	r0, r3
 1225 0442 2837     		adds	r7, r7, #40
 1226 0444 BD46     		mov	sp, r7
 1227              		@ sp needed
 1228 0446 80BD     		pop	{r7, pc}
 1229              	.L67:
 1230              		.align	2
 1231              	.L66:
 1232 0448 04000100 		.word	65540
 1234              		.section	.text.HAL_I2C_Slave_Transmit,"ax",%progbits
 1235              		.align	1
 1236              		.global	HAL_I2C_Slave_Transmit
 1237              		.syntax unified
 1238              		.thumb
 1239              		.thumb_func
 1241              	HAL_I2C_Slave_Transmit:
 1242              		@ args = 0, pretend = 0, frame = 32
 1243              		@ frame_needed = 1, uses_anonymous_args = 0
 1244 0000 80B5     		push	{r7, lr}
 1245 0002 8AB0     		sub	sp, sp, #40
 1246 0004 02AF     		add	r7, sp, #8
 1247 0006 F860     		str	r0, [r7, #12]
 1248 0008 B960     		str	r1, [r7, #8]
 1249 000a 3B60     		str	r3, [r7]
 1250 000c 1346     		mov	r3, r2	@ movhi
 1251 000e FB80     		strh	r3, [r7, #6]	@ movhi
 1252 0010 FFF7FEFF 		bl	HAL_GetTick
 1253 0014 F861     		str	r0, [r7, #28]
 1254 0016 FB68     		ldr	r3, [r7, #12]
 1255 0018 93F83D30 		ldrb	r3, [r3, #61]
 1256 001c DBB2     		uxtb	r3, r3
 1257 001e 202B     		cmp	r3, #32
 1258 0020 40F0FB80 		bne	.L69
 1259 0024 BB68     		ldr	r3, [r7, #8]
 1260 0026 002B     		cmp	r3, #0
 1261 0028 02D0     		beq	.L70
 1262 002a FB88     		ldrh	r3, [r7, #6]
 1263 002c 002B     		cmp	r3, #0
 1264 002e 01D1     		bne	.L71
 1265              	.L70:
 1266 0030 0123     		movs	r3, #1
 1267 0032 F3E0     		b	.L72
ARM GAS  C:\Users\user\AppData\Local\Temp\cchxWhRb.s 			page 23


 1268              	.L71:
 1269 0034 FB68     		ldr	r3, [r7, #12]
 1270 0036 93F83C30 		ldrb	r3, [r3, #60]	@ zero_extendqisi2
 1271 003a 012B     		cmp	r3, #1
 1272 003c 01D1     		bne	.L73
 1273 003e 0223     		movs	r3, #2
 1274 0040 ECE0     		b	.L72
 1275              	.L73:
 1276 0042 FB68     		ldr	r3, [r7, #12]
 1277 0044 0122     		movs	r2, #1
 1278 0046 83F83C20 		strb	r2, [r3, #60]
 1279 004a FB68     		ldr	r3, [r7, #12]
 1280 004c 1B68     		ldr	r3, [r3]
 1281 004e 1B68     		ldr	r3, [r3]
 1282 0050 03F00103 		and	r3, r3, #1
 1283 0054 012B     		cmp	r3, #1
 1284 0056 07D0     		beq	.L74
 1285 0058 FB68     		ldr	r3, [r7, #12]
 1286 005a 1B68     		ldr	r3, [r3]
 1287 005c 1A68     		ldr	r2, [r3]
 1288 005e FB68     		ldr	r3, [r7, #12]
 1289 0060 1B68     		ldr	r3, [r3]
 1290 0062 42F00102 		orr	r2, r2, #1
 1291 0066 1A60     		str	r2, [r3]
 1292              	.L74:
 1293 0068 FB68     		ldr	r3, [r7, #12]
 1294 006a 1B68     		ldr	r3, [r3]
 1295 006c 1A68     		ldr	r2, [r3]
 1296 006e FB68     		ldr	r3, [r7, #12]
 1297 0070 1B68     		ldr	r3, [r3]
 1298 0072 22F40062 		bic	r2, r2, #2048
 1299 0076 1A60     		str	r2, [r3]
 1300 0078 FB68     		ldr	r3, [r7, #12]
 1301 007a 2122     		movs	r2, #33
 1302 007c 83F83D20 		strb	r2, [r3, #61]
 1303 0080 FB68     		ldr	r3, [r7, #12]
 1304 0082 2022     		movs	r2, #32
 1305 0084 83F83E20 		strb	r2, [r3, #62]
 1306 0088 FB68     		ldr	r3, [r7, #12]
 1307 008a 0022     		movs	r2, #0
 1308 008c 1A64     		str	r2, [r3, #64]
 1309 008e FB68     		ldr	r3, [r7, #12]
 1310 0090 BA68     		ldr	r2, [r7, #8]
 1311 0092 5A62     		str	r2, [r3, #36]
 1312 0094 FB68     		ldr	r3, [r7, #12]
 1313 0096 FA88     		ldrh	r2, [r7, #6]	@ movhi
 1314 0098 5A85     		strh	r2, [r3, #42]	@ movhi
 1315 009a FB68     		ldr	r3, [r7, #12]
 1316 009c 5B8D     		ldrh	r3, [r3, #42]	@ movhi
 1317 009e 9AB2     		uxth	r2, r3
 1318 00a0 FB68     		ldr	r3, [r7, #12]
 1319 00a2 1A85     		strh	r2, [r3, #40]	@ movhi
 1320 00a4 FB68     		ldr	r3, [r7, #12]
 1321 00a6 5F4A     		ldr	r2, .L83
 1322 00a8 DA62     		str	r2, [r3, #44]
 1323 00aa FB68     		ldr	r3, [r7, #12]
 1324 00ac 1B68     		ldr	r3, [r3]
ARM GAS  C:\Users\user\AppData\Local\Temp\cchxWhRb.s 			page 24


 1325 00ae 1A68     		ldr	r2, [r3]
 1326 00b0 FB68     		ldr	r3, [r7, #12]
 1327 00b2 1B68     		ldr	r3, [r3]
 1328 00b4 42F48062 		orr	r2, r2, #1024
 1329 00b8 1A60     		str	r2, [r3]
 1330 00ba FB69     		ldr	r3, [r7, #28]
 1331 00bc 0093     		str	r3, [sp]
 1332 00be 3B68     		ldr	r3, [r7]
 1333 00c0 0022     		movs	r2, #0
 1334 00c2 5949     		ldr	r1, .L83+4
 1335 00c4 F868     		ldr	r0, [r7, #12]
 1336 00c6 FFF7FEFF 		bl	I2C_WaitOnFlagUntilTimeout
 1337 00ca 0346     		mov	r3, r0
 1338 00cc 002B     		cmp	r3, #0
 1339 00ce 01D0     		beq	.L75
 1340 00d0 0123     		movs	r3, #1
 1341 00d2 A3E0     		b	.L72
 1342              	.L75:
 1343 00d4 0023     		movs	r3, #0
 1344 00d6 BB61     		str	r3, [r7, #24]
 1345 00d8 FB68     		ldr	r3, [r7, #12]
 1346 00da 1B68     		ldr	r3, [r3]
 1347 00dc 5B69     		ldr	r3, [r3, #20]
 1348 00de BB61     		str	r3, [r7, #24]
 1349 00e0 FB68     		ldr	r3, [r7, #12]
 1350 00e2 1B68     		ldr	r3, [r3]
 1351 00e4 9B69     		ldr	r3, [r3, #24]
 1352 00e6 BB61     		str	r3, [r7, #24]
 1353 00e8 BB69     		ldr	r3, [r7, #24]
 1354 00ea FB68     		ldr	r3, [r7, #12]
 1355 00ec 1B69     		ldr	r3, [r3, #16]
 1356 00ee B3F5404F 		cmp	r3, #49152
 1357 00f2 65D1     		bne	.L78
 1358 00f4 FB69     		ldr	r3, [r7, #28]
 1359 00f6 0093     		str	r3, [sp]
 1360 00f8 3B68     		ldr	r3, [r7]
 1361 00fa 0022     		movs	r2, #0
 1362 00fc 4A49     		ldr	r1, .L83+4
 1363 00fe F868     		ldr	r0, [r7, #12]
 1364 0100 FFF7FEFF 		bl	I2C_WaitOnFlagUntilTimeout
 1365 0104 0346     		mov	r3, r0
 1366 0106 002B     		cmp	r3, #0
 1367 0108 01D0     		beq	.L77
 1368 010a 0123     		movs	r3, #1
 1369 010c 86E0     		b	.L72
 1370              	.L77:
 1371 010e 0023     		movs	r3, #0
 1372 0110 7B61     		str	r3, [r7, #20]
 1373 0112 FB68     		ldr	r3, [r7, #12]
 1374 0114 1B68     		ldr	r3, [r3]
 1375 0116 5B69     		ldr	r3, [r3, #20]
 1376 0118 7B61     		str	r3, [r7, #20]
 1377 011a FB68     		ldr	r3, [r7, #12]
 1378 011c 1B68     		ldr	r3, [r3]
 1379 011e 9B69     		ldr	r3, [r3, #24]
 1380 0120 7B61     		str	r3, [r7, #20]
 1381 0122 7B69     		ldr	r3, [r7, #20]
ARM GAS  C:\Users\user\AppData\Local\Temp\cchxWhRb.s 			page 25


 1382 0124 4CE0     		b	.L78
 1383              	.L81:
 1384 0126 FA69     		ldr	r2, [r7, #28]
 1385 0128 3968     		ldr	r1, [r7]
 1386 012a F868     		ldr	r0, [r7, #12]
 1387 012c FFF7FEFF 		bl	I2C_WaitOnTXEFlagUntilTimeout
 1388 0130 0346     		mov	r3, r0
 1389 0132 002B     		cmp	r3, #0
 1390 0134 09D0     		beq	.L79
 1391 0136 FB68     		ldr	r3, [r7, #12]
 1392 0138 1B68     		ldr	r3, [r3]
 1393 013a 1A68     		ldr	r2, [r3]
 1394 013c FB68     		ldr	r3, [r7, #12]
 1395 013e 1B68     		ldr	r3, [r3]
 1396 0140 22F48062 		bic	r2, r2, #1024
 1397 0144 1A60     		str	r2, [r3]
 1398 0146 0123     		movs	r3, #1
 1399 0148 68E0     		b	.L72
 1400              	.L79:
 1401 014a FB68     		ldr	r3, [r7, #12]
 1402 014c 5B6A     		ldr	r3, [r3, #36]
 1403 014e 1A78     		ldrb	r2, [r3]	@ zero_extendqisi2
 1404 0150 FB68     		ldr	r3, [r7, #12]
 1405 0152 1B68     		ldr	r3, [r3]
 1406 0154 1A61     		str	r2, [r3, #16]
 1407 0156 FB68     		ldr	r3, [r7, #12]
 1408 0158 5B6A     		ldr	r3, [r3, #36]
 1409 015a 5A1C     		adds	r2, r3, #1
 1410 015c FB68     		ldr	r3, [r7, #12]
 1411 015e 5A62     		str	r2, [r3, #36]
 1412 0160 FB68     		ldr	r3, [r7, #12]
 1413 0162 5B8D     		ldrh	r3, [r3, #42]	@ movhi
 1414 0164 9BB2     		uxth	r3, r3
 1415 0166 013B     		subs	r3, r3, #1
 1416 0168 9AB2     		uxth	r2, r3
 1417 016a FB68     		ldr	r3, [r7, #12]
 1418 016c 5A85     		strh	r2, [r3, #42]	@ movhi
 1419 016e FB68     		ldr	r3, [r7, #12]
 1420 0170 1B8D     		ldrh	r3, [r3, #40]
 1421 0172 013B     		subs	r3, r3, #1
 1422 0174 9AB2     		uxth	r2, r3
 1423 0176 FB68     		ldr	r3, [r7, #12]
 1424 0178 1A85     		strh	r2, [r3, #40]	@ movhi
 1425 017a FB68     		ldr	r3, [r7, #12]
 1426 017c 1B68     		ldr	r3, [r3]
 1427 017e 5B69     		ldr	r3, [r3, #20]
 1428 0180 03F00403 		and	r3, r3, #4
 1429 0184 042B     		cmp	r3, #4
 1430 0186 1BD1     		bne	.L78
 1431 0188 FB68     		ldr	r3, [r7, #12]
 1432 018a 1B8D     		ldrh	r3, [r3, #40]
 1433 018c 002B     		cmp	r3, #0
 1434 018e 17D0     		beq	.L78
 1435 0190 FB68     		ldr	r3, [r7, #12]
 1436 0192 5B6A     		ldr	r3, [r3, #36]
 1437 0194 1A78     		ldrb	r2, [r3]	@ zero_extendqisi2
 1438 0196 FB68     		ldr	r3, [r7, #12]
ARM GAS  C:\Users\user\AppData\Local\Temp\cchxWhRb.s 			page 26


 1439 0198 1B68     		ldr	r3, [r3]
 1440 019a 1A61     		str	r2, [r3, #16]
 1441 019c FB68     		ldr	r3, [r7, #12]
 1442 019e 5B6A     		ldr	r3, [r3, #36]
 1443 01a0 5A1C     		adds	r2, r3, #1
 1444 01a2 FB68     		ldr	r3, [r7, #12]
 1445 01a4 5A62     		str	r2, [r3, #36]
 1446 01a6 FB68     		ldr	r3, [r7, #12]
 1447 01a8 5B8D     		ldrh	r3, [r3, #42]	@ movhi
 1448 01aa 9BB2     		uxth	r3, r3
 1449 01ac 013B     		subs	r3, r3, #1
 1450 01ae 9AB2     		uxth	r2, r3
 1451 01b0 FB68     		ldr	r3, [r7, #12]
 1452 01b2 5A85     		strh	r2, [r3, #42]	@ movhi
 1453 01b4 FB68     		ldr	r3, [r7, #12]
 1454 01b6 1B8D     		ldrh	r3, [r3, #40]
 1455 01b8 013B     		subs	r3, r3, #1
 1456 01ba 9AB2     		uxth	r2, r3
 1457 01bc FB68     		ldr	r3, [r7, #12]
 1458 01be 1A85     		strh	r2, [r3, #40]	@ movhi
 1459              	.L78:
 1460 01c0 FB68     		ldr	r3, [r7, #12]
 1461 01c2 1B8D     		ldrh	r3, [r3, #40]
 1462 01c4 002B     		cmp	r3, #0
 1463 01c6 AED1     		bne	.L81
 1464 01c8 FB69     		ldr	r3, [r7, #28]
 1465 01ca 0093     		str	r3, [sp]
 1466 01cc 3B68     		ldr	r3, [r7]
 1467 01ce 0022     		movs	r2, #0
 1468 01d0 4FF48231 		mov	r1, #66560
 1469 01d4 F868     		ldr	r0, [r7, #12]
 1470 01d6 FFF7FEFF 		bl	I2C_WaitOnFlagUntilTimeout
 1471 01da 0346     		mov	r3, r0
 1472 01dc 002B     		cmp	r3, #0
 1473 01de 01D0     		beq	.L82
 1474 01e0 0123     		movs	r3, #1
 1475 01e2 1BE0     		b	.L72
 1476              	.L82:
 1477 01e4 FB68     		ldr	r3, [r7, #12]
 1478 01e6 1B68     		ldr	r3, [r3]
 1479 01e8 6FF48062 		mvn	r2, #1024
 1480 01ec 5A61     		str	r2, [r3, #20]
 1481 01ee FB68     		ldr	r3, [r7, #12]
 1482 01f0 1B68     		ldr	r3, [r3]
 1483 01f2 1A68     		ldr	r2, [r3]
 1484 01f4 FB68     		ldr	r3, [r7, #12]
 1485 01f6 1B68     		ldr	r3, [r3]
 1486 01f8 22F48062 		bic	r2, r2, #1024
 1487 01fc 1A60     		str	r2, [r3]
 1488 01fe FB68     		ldr	r3, [r7, #12]
 1489 0200 2022     		movs	r2, #32
 1490 0202 83F83D20 		strb	r2, [r3, #61]
 1491 0206 FB68     		ldr	r3, [r7, #12]
 1492 0208 0022     		movs	r2, #0
 1493 020a 83F83E20 		strb	r2, [r3, #62]
 1494 020e FB68     		ldr	r3, [r7, #12]
 1495 0210 0022     		movs	r2, #0
ARM GAS  C:\Users\user\AppData\Local\Temp\cchxWhRb.s 			page 27


 1496 0212 83F83C20 		strb	r2, [r3, #60]
 1497 0216 0023     		movs	r3, #0
 1498 0218 00E0     		b	.L72
 1499              	.L69:
 1500 021a 0223     		movs	r3, #2
 1501              	.L72:
 1502 021c 1846     		mov	r0, r3
 1503 021e 2037     		adds	r7, r7, #32
 1504 0220 BD46     		mov	sp, r7
 1505              		@ sp needed
 1506 0222 80BD     		pop	{r7, pc}
 1507              	.L84:
 1508              		.align	2
 1509              	.L83:
 1510 0224 0000FFFF 		.word	-65536
 1511 0228 02000100 		.word	65538
 1513              		.section	.text.HAL_I2C_Slave_Receive,"ax",%progbits
 1514              		.align	1
 1515              		.global	HAL_I2C_Slave_Receive
 1516              		.syntax unified
 1517              		.thumb
 1518              		.thumb_func
 1520              	HAL_I2C_Slave_Receive:
 1521              		@ args = 0, pretend = 0, frame = 32
 1522              		@ frame_needed = 1, uses_anonymous_args = 0
 1523 0000 80B5     		push	{r7, lr}
 1524 0002 8AB0     		sub	sp, sp, #40
 1525 0004 02AF     		add	r7, sp, #8
 1526 0006 F860     		str	r0, [r7, #12]
 1527 0008 B960     		str	r1, [r7, #8]
 1528 000a 3B60     		str	r3, [r7]
 1529 000c 1346     		mov	r3, r2	@ movhi
 1530 000e FB80     		strh	r3, [r7, #6]	@ movhi
 1531 0010 FFF7FEFF 		bl	HAL_GetTick
 1532 0014 F861     		str	r0, [r7, #28]
 1533 0016 FB68     		ldr	r3, [r7, #12]
 1534 0018 93F83D30 		ldrb	r3, [r3, #61]
 1535 001c DBB2     		uxtb	r3, r3
 1536 001e 202B     		cmp	r3, #32
 1537 0020 40F0EE80 		bne	.L86
 1538 0024 BB68     		ldr	r3, [r7, #8]
 1539 0026 002B     		cmp	r3, #0
 1540 0028 02D0     		beq	.L87
 1541 002a FB88     		ldrh	r3, [r7, #6]
 1542 002c 002B     		cmp	r3, #0
 1543 002e 01D1     		bne	.L88
 1544              	.L87:
 1545 0030 0123     		movs	r3, #1
 1546 0032 E6E0     		b	.L89
 1547              	.L88:
 1548 0034 FB68     		ldr	r3, [r7, #12]
 1549 0036 93F83C30 		ldrb	r3, [r3, #60]	@ zero_extendqisi2
 1550 003a 012B     		cmp	r3, #1
 1551 003c 01D1     		bne	.L90
 1552 003e 0223     		movs	r3, #2
 1553 0040 DFE0     		b	.L89
 1554              	.L90:
ARM GAS  C:\Users\user\AppData\Local\Temp\cchxWhRb.s 			page 28


 1555 0042 FB68     		ldr	r3, [r7, #12]
 1556 0044 0122     		movs	r2, #1
 1557 0046 83F83C20 		strb	r2, [r3, #60]
 1558 004a FB68     		ldr	r3, [r7, #12]
 1559 004c 1B68     		ldr	r3, [r3]
 1560 004e 1B68     		ldr	r3, [r3]
 1561 0050 03F00103 		and	r3, r3, #1
 1562 0054 012B     		cmp	r3, #1
 1563 0056 07D0     		beq	.L91
 1564 0058 FB68     		ldr	r3, [r7, #12]
 1565 005a 1B68     		ldr	r3, [r3]
 1566 005c 1A68     		ldr	r2, [r3]
 1567 005e FB68     		ldr	r3, [r7, #12]
 1568 0060 1B68     		ldr	r3, [r3]
 1569 0062 42F00102 		orr	r2, r2, #1
 1570 0066 1A60     		str	r2, [r3]
 1571              	.L91:
 1572 0068 FB68     		ldr	r3, [r7, #12]
 1573 006a 1B68     		ldr	r3, [r3]
 1574 006c 1A68     		ldr	r2, [r3]
 1575 006e FB68     		ldr	r3, [r7, #12]
 1576 0070 1B68     		ldr	r3, [r3]
 1577 0072 22F40062 		bic	r2, r2, #2048
 1578 0076 1A60     		str	r2, [r3]
 1579 0078 FB68     		ldr	r3, [r7, #12]
 1580 007a 2222     		movs	r2, #34
 1581 007c 83F83D20 		strb	r2, [r3, #61]
 1582 0080 FB68     		ldr	r3, [r7, #12]
 1583 0082 2022     		movs	r2, #32
 1584 0084 83F83E20 		strb	r2, [r3, #62]
 1585 0088 FB68     		ldr	r3, [r7, #12]
 1586 008a 0022     		movs	r2, #0
 1587 008c 1A64     		str	r2, [r3, #64]
 1588 008e FB68     		ldr	r3, [r7, #12]
 1589 0090 BA68     		ldr	r2, [r7, #8]
 1590 0092 5A62     		str	r2, [r3, #36]
 1591 0094 FB68     		ldr	r3, [r7, #12]
 1592 0096 FA88     		ldrh	r2, [r7, #6]	@ movhi
 1593 0098 5A85     		strh	r2, [r3, #42]	@ movhi
 1594 009a FB68     		ldr	r3, [r7, #12]
 1595 009c 5B8D     		ldrh	r3, [r3, #42]	@ movhi
 1596 009e 9AB2     		uxth	r2, r3
 1597 00a0 FB68     		ldr	r3, [r7, #12]
 1598 00a2 1A85     		strh	r2, [r3, #40]	@ movhi
 1599 00a4 FB68     		ldr	r3, [r7, #12]
 1600 00a6 594A     		ldr	r2, .L98
 1601 00a8 DA62     		str	r2, [r3, #44]
 1602 00aa FB68     		ldr	r3, [r7, #12]
 1603 00ac 1B68     		ldr	r3, [r3]
 1604 00ae 1A68     		ldr	r2, [r3]
 1605 00b0 FB68     		ldr	r3, [r7, #12]
 1606 00b2 1B68     		ldr	r3, [r3]
 1607 00b4 42F48062 		orr	r2, r2, #1024
 1608 00b8 1A60     		str	r2, [r3]
 1609 00ba FB69     		ldr	r3, [r7, #28]
 1610 00bc 0093     		str	r3, [sp]
 1611 00be 3B68     		ldr	r3, [r7]
ARM GAS  C:\Users\user\AppData\Local\Temp\cchxWhRb.s 			page 29


 1612 00c0 0022     		movs	r2, #0
 1613 00c2 5349     		ldr	r1, .L98+4
 1614 00c4 F868     		ldr	r0, [r7, #12]
 1615 00c6 FFF7FEFF 		bl	I2C_WaitOnFlagUntilTimeout
 1616 00ca 0346     		mov	r3, r0
 1617 00cc 002B     		cmp	r3, #0
 1618 00ce 01D0     		beq	.L92
 1619 00d0 0123     		movs	r3, #1
 1620 00d2 96E0     		b	.L89
 1621              	.L92:
 1622 00d4 0023     		movs	r3, #0
 1623 00d6 BB61     		str	r3, [r7, #24]
 1624 00d8 FB68     		ldr	r3, [r7, #12]
 1625 00da 1B68     		ldr	r3, [r3]
 1626 00dc 5B69     		ldr	r3, [r3, #20]
 1627 00de BB61     		str	r3, [r7, #24]
 1628 00e0 FB68     		ldr	r3, [r7, #12]
 1629 00e2 1B68     		ldr	r3, [r3]
 1630 00e4 9B69     		ldr	r3, [r3, #24]
 1631 00e6 BB61     		str	r3, [r7, #24]
 1632 00e8 BB69     		ldr	r3, [r7, #24]
 1633 00ea 4EE0     		b	.L93
 1634              	.L96:
 1635 00ec FA69     		ldr	r2, [r7, #28]
 1636 00ee 3968     		ldr	r1, [r7]
 1637 00f0 F868     		ldr	r0, [r7, #12]
 1638 00f2 FFF7FEFF 		bl	I2C_WaitOnRXNEFlagUntilTimeout
 1639 00f6 0346     		mov	r3, r0
 1640 00f8 002B     		cmp	r3, #0
 1641 00fa 09D0     		beq	.L94
 1642 00fc FB68     		ldr	r3, [r7, #12]
 1643 00fe 1B68     		ldr	r3, [r3]
 1644 0100 1A68     		ldr	r2, [r3]
 1645 0102 FB68     		ldr	r3, [r7, #12]
 1646 0104 1B68     		ldr	r3, [r3]
 1647 0106 22F48062 		bic	r2, r2, #1024
 1648 010a 1A60     		str	r2, [r3]
 1649 010c 0123     		movs	r3, #1
 1650 010e 78E0     		b	.L89
 1651              	.L94:
 1652 0110 FB68     		ldr	r3, [r7, #12]
 1653 0112 1B68     		ldr	r3, [r3]
 1654 0114 1A69     		ldr	r2, [r3, #16]
 1655 0116 FB68     		ldr	r3, [r7, #12]
 1656 0118 5B6A     		ldr	r3, [r3, #36]
 1657 011a D2B2     		uxtb	r2, r2
 1658 011c 1A70     		strb	r2, [r3]
 1659 011e FB68     		ldr	r3, [r7, #12]
 1660 0120 5B6A     		ldr	r3, [r3, #36]
 1661 0122 5A1C     		adds	r2, r3, #1
 1662 0124 FB68     		ldr	r3, [r7, #12]
 1663 0126 5A62     		str	r2, [r3, #36]
 1664 0128 FB68     		ldr	r3, [r7, #12]
 1665 012a 1B8D     		ldrh	r3, [r3, #40]
 1666 012c 013B     		subs	r3, r3, #1
 1667 012e 9AB2     		uxth	r2, r3
 1668 0130 FB68     		ldr	r3, [r7, #12]
ARM GAS  C:\Users\user\AppData\Local\Temp\cchxWhRb.s 			page 30


 1669 0132 1A85     		strh	r2, [r3, #40]	@ movhi
 1670 0134 FB68     		ldr	r3, [r7, #12]
 1671 0136 5B8D     		ldrh	r3, [r3, #42]	@ movhi
 1672 0138 9BB2     		uxth	r3, r3
 1673 013a 013B     		subs	r3, r3, #1
 1674 013c 9AB2     		uxth	r2, r3
 1675 013e FB68     		ldr	r3, [r7, #12]
 1676 0140 5A85     		strh	r2, [r3, #42]	@ movhi
 1677 0142 FB68     		ldr	r3, [r7, #12]
 1678 0144 1B68     		ldr	r3, [r3]
 1679 0146 5B69     		ldr	r3, [r3, #20]
 1680 0148 03F00403 		and	r3, r3, #4
 1681 014c 042B     		cmp	r3, #4
 1682 014e 1CD1     		bne	.L93
 1683 0150 FB68     		ldr	r3, [r7, #12]
 1684 0152 1B8D     		ldrh	r3, [r3, #40]
 1685 0154 002B     		cmp	r3, #0
 1686 0156 18D0     		beq	.L93
 1687 0158 FB68     		ldr	r3, [r7, #12]
 1688 015a 1B68     		ldr	r3, [r3]
 1689 015c 1A69     		ldr	r2, [r3, #16]
 1690 015e FB68     		ldr	r3, [r7, #12]
 1691 0160 5B6A     		ldr	r3, [r3, #36]
 1692 0162 D2B2     		uxtb	r2, r2
 1693 0164 1A70     		strb	r2, [r3]
 1694 0166 FB68     		ldr	r3, [r7, #12]
 1695 0168 5B6A     		ldr	r3, [r3, #36]
 1696 016a 5A1C     		adds	r2, r3, #1
 1697 016c FB68     		ldr	r3, [r7, #12]
 1698 016e 5A62     		str	r2, [r3, #36]
 1699 0170 FB68     		ldr	r3, [r7, #12]
 1700 0172 1B8D     		ldrh	r3, [r3, #40]
 1701 0174 013B     		subs	r3, r3, #1
 1702 0176 9AB2     		uxth	r2, r3
 1703 0178 FB68     		ldr	r3, [r7, #12]
 1704 017a 1A85     		strh	r2, [r3, #40]	@ movhi
 1705 017c FB68     		ldr	r3, [r7, #12]
 1706 017e 5B8D     		ldrh	r3, [r3, #42]	@ movhi
 1707 0180 9BB2     		uxth	r3, r3
 1708 0182 013B     		subs	r3, r3, #1
 1709 0184 9AB2     		uxth	r2, r3
 1710 0186 FB68     		ldr	r3, [r7, #12]
 1711 0188 5A85     		strh	r2, [r3, #42]	@ movhi
 1712              	.L93:
 1713 018a FB68     		ldr	r3, [r7, #12]
 1714 018c 1B8D     		ldrh	r3, [r3, #40]
 1715 018e 002B     		cmp	r3, #0
 1716 0190 ACD1     		bne	.L96
 1717 0192 FA69     		ldr	r2, [r7, #28]
 1718 0194 3968     		ldr	r1, [r7]
 1719 0196 F868     		ldr	r0, [r7, #12]
 1720 0198 FFF7FEFF 		bl	I2C_WaitOnSTOPFlagUntilTimeout
 1721 019c 0346     		mov	r3, r0
 1722 019e 002B     		cmp	r3, #0
 1723 01a0 09D0     		beq	.L97
 1724 01a2 FB68     		ldr	r3, [r7, #12]
 1725 01a4 1B68     		ldr	r3, [r3]
ARM GAS  C:\Users\user\AppData\Local\Temp\cchxWhRb.s 			page 31


 1726 01a6 1A68     		ldr	r2, [r3]
 1727 01a8 FB68     		ldr	r3, [r7, #12]
 1728 01aa 1B68     		ldr	r3, [r3]
 1729 01ac 22F48062 		bic	r2, r2, #1024
 1730 01b0 1A60     		str	r2, [r3]
 1731 01b2 0123     		movs	r3, #1
 1732 01b4 25E0     		b	.L89
 1733              	.L97:
 1734 01b6 0023     		movs	r3, #0
 1735 01b8 7B61     		str	r3, [r7, #20]
 1736 01ba FB68     		ldr	r3, [r7, #12]
 1737 01bc 1B68     		ldr	r3, [r3]
 1738 01be 5B69     		ldr	r3, [r3, #20]
 1739 01c0 7B61     		str	r3, [r7, #20]
 1740 01c2 FB68     		ldr	r3, [r7, #12]
 1741 01c4 1B68     		ldr	r3, [r3]
 1742 01c6 1A68     		ldr	r2, [r3]
 1743 01c8 FB68     		ldr	r3, [r7, #12]
 1744 01ca 1B68     		ldr	r3, [r3]
 1745 01cc 42F00102 		orr	r2, r2, #1
 1746 01d0 1A60     		str	r2, [r3]
 1747 01d2 7B69     		ldr	r3, [r7, #20]
 1748 01d4 FB68     		ldr	r3, [r7, #12]
 1749 01d6 1B68     		ldr	r3, [r3]
 1750 01d8 1A68     		ldr	r2, [r3]
 1751 01da FB68     		ldr	r3, [r7, #12]
 1752 01dc 1B68     		ldr	r3, [r3]
 1753 01de 22F48062 		bic	r2, r2, #1024
 1754 01e2 1A60     		str	r2, [r3]
 1755 01e4 FB68     		ldr	r3, [r7, #12]
 1756 01e6 2022     		movs	r2, #32
 1757 01e8 83F83D20 		strb	r2, [r3, #61]
 1758 01ec FB68     		ldr	r3, [r7, #12]
 1759 01ee 0022     		movs	r2, #0
 1760 01f0 83F83E20 		strb	r2, [r3, #62]
 1761 01f4 FB68     		ldr	r3, [r7, #12]
 1762 01f6 0022     		movs	r2, #0
 1763 01f8 83F83C20 		strb	r2, [r3, #60]
 1764 01fc 0023     		movs	r3, #0
 1765 01fe 00E0     		b	.L89
 1766              	.L86:
 1767 0200 0223     		movs	r3, #2
 1768              	.L89:
 1769 0202 1846     		mov	r0, r3
 1770 0204 2037     		adds	r7, r7, #32
 1771 0206 BD46     		mov	sp, r7
 1772              		@ sp needed
 1773 0208 80BD     		pop	{r7, pc}
 1774              	.L99:
 1775 020a 00BF     		.align	2
 1776              	.L98:
 1777 020c 0000FFFF 		.word	-65536
 1778 0210 02000100 		.word	65538
 1780              		.section	.text.HAL_I2C_Master_Transmit_IT,"ax",%progbits
 1781              		.align	1
 1782              		.global	HAL_I2C_Master_Transmit_IT
 1783              		.syntax unified
ARM GAS  C:\Users\user\AppData\Local\Temp\cchxWhRb.s 			page 32


 1784              		.thumb
 1785              		.thumb_func
 1787              	HAL_I2C_Master_Transmit_IT:
 1788              		@ args = 0, pretend = 0, frame = 24
 1789              		@ frame_needed = 1, uses_anonymous_args = 0
 1790              		@ link register save eliminated.
 1791 0000 80B4     		push	{r7}
 1792 0002 87B0     		sub	sp, sp, #28
 1793 0004 00AF     		add	r7, sp, #0
 1794 0006 F860     		str	r0, [r7, #12]
 1795 0008 7A60     		str	r2, [r7, #4]
 1796 000a 1A46     		mov	r2, r3
 1797 000c 0B46     		mov	r3, r1	@ movhi
 1798 000e 7B81     		strh	r3, [r7, #10]	@ movhi
 1799 0010 1346     		mov	r3, r2	@ movhi
 1800 0012 3B81     		strh	r3, [r7, #8]	@ movhi
 1801 0014 0023     		movs	r3, #0
 1802 0016 7B61     		str	r3, [r7, #20]
 1803 0018 FB68     		ldr	r3, [r7, #12]
 1804 001a 93F83D30 		ldrb	r3, [r3, #61]
 1805 001e DBB2     		uxtb	r3, r3
 1806 0020 202B     		cmp	r3, #32
 1807 0022 40F08580 		bne	.L101
 1808 0026 464B     		ldr	r3, .L107
 1809 0028 1B68     		ldr	r3, [r3]
 1810 002a DB08     		lsrs	r3, r3, #3
 1811 002c 454A     		ldr	r2, .L107+4
 1812 002e A2FB0323 		umull	r2, r3, r2, r3
 1813 0032 1A0A     		lsrs	r2, r3, #8
 1814 0034 1346     		mov	r3, r2
 1815 0036 9B00     		lsls	r3, r3, #2
 1816 0038 1344     		add	r3, r3, r2
 1817 003a 9A00     		lsls	r2, r3, #2
 1818 003c 1344     		add	r3, r3, r2
 1819 003e 7B61     		str	r3, [r7, #20]
 1820              	.L104:
 1821 0040 7B69     		ldr	r3, [r7, #20]
 1822 0042 013B     		subs	r3, r3, #1
 1823 0044 7B61     		str	r3, [r7, #20]
 1824 0046 7B69     		ldr	r3, [r7, #20]
 1825 0048 002B     		cmp	r3, #0
 1826 004a 16D1     		bne	.L102
 1827 004c FB68     		ldr	r3, [r7, #12]
 1828 004e 0022     		movs	r2, #0
 1829 0050 1A63     		str	r2, [r3, #48]
 1830 0052 FB68     		ldr	r3, [r7, #12]
 1831 0054 2022     		movs	r2, #32
 1832 0056 83F83D20 		strb	r2, [r3, #61]
 1833 005a FB68     		ldr	r3, [r7, #12]
 1834 005c 0022     		movs	r2, #0
 1835 005e 83F83E20 		strb	r2, [r3, #62]
 1836 0062 FB68     		ldr	r3, [r7, #12]
 1837 0064 1B6C     		ldr	r3, [r3, #64]
 1838 0066 43F02002 		orr	r2, r3, #32
 1839 006a FB68     		ldr	r3, [r7, #12]
 1840 006c 1A64     		str	r2, [r3, #64]
 1841 006e FB68     		ldr	r3, [r7, #12]
ARM GAS  C:\Users\user\AppData\Local\Temp\cchxWhRb.s 			page 33


 1842 0070 0022     		movs	r2, #0
 1843 0072 83F83C20 		strb	r2, [r3, #60]
 1844 0076 0123     		movs	r3, #1
 1845 0078 5BE0     		b	.L103
 1846              	.L102:
 1847 007a FB68     		ldr	r3, [r7, #12]
 1848 007c 1B68     		ldr	r3, [r3]
 1849 007e 9B69     		ldr	r3, [r3, #24]
 1850 0080 03F00203 		and	r3, r3, #2
 1851 0084 022B     		cmp	r3, #2
 1852 0086 DBD0     		beq	.L104
 1853 0088 FB68     		ldr	r3, [r7, #12]
 1854 008a 93F83C30 		ldrb	r3, [r3, #60]	@ zero_extendqisi2
 1855 008e 012B     		cmp	r3, #1
 1856 0090 01D1     		bne	.L105
 1857 0092 0223     		movs	r3, #2
 1858 0094 4DE0     		b	.L103
 1859              	.L105:
 1860 0096 FB68     		ldr	r3, [r7, #12]
 1861 0098 0122     		movs	r2, #1
 1862 009a 83F83C20 		strb	r2, [r3, #60]
 1863 009e FB68     		ldr	r3, [r7, #12]
 1864 00a0 1B68     		ldr	r3, [r3]
 1865 00a2 1B68     		ldr	r3, [r3]
 1866 00a4 03F00103 		and	r3, r3, #1
 1867 00a8 012B     		cmp	r3, #1
 1868 00aa 07D0     		beq	.L106
 1869 00ac FB68     		ldr	r3, [r7, #12]
 1870 00ae 1B68     		ldr	r3, [r3]
 1871 00b0 1A68     		ldr	r2, [r3]
 1872 00b2 FB68     		ldr	r3, [r7, #12]
 1873 00b4 1B68     		ldr	r3, [r3]
 1874 00b6 42F00102 		orr	r2, r2, #1
 1875 00ba 1A60     		str	r2, [r3]
 1876              	.L106:
 1877 00bc FB68     		ldr	r3, [r7, #12]
 1878 00be 1B68     		ldr	r3, [r3]
 1879 00c0 1A68     		ldr	r2, [r3]
 1880 00c2 FB68     		ldr	r3, [r7, #12]
 1881 00c4 1B68     		ldr	r3, [r3]
 1882 00c6 22F40062 		bic	r2, r2, #2048
 1883 00ca 1A60     		str	r2, [r3]
 1884 00cc FB68     		ldr	r3, [r7, #12]
 1885 00ce 2122     		movs	r2, #33
 1886 00d0 83F83D20 		strb	r2, [r3, #61]
 1887 00d4 FB68     		ldr	r3, [r7, #12]
 1888 00d6 1022     		movs	r2, #16
 1889 00d8 83F83E20 		strb	r2, [r3, #62]
 1890 00dc FB68     		ldr	r3, [r7, #12]
 1891 00de 0022     		movs	r2, #0
 1892 00e0 1A64     		str	r2, [r3, #64]
 1893 00e2 FB68     		ldr	r3, [r7, #12]
 1894 00e4 7A68     		ldr	r2, [r7, #4]
 1895 00e6 5A62     		str	r2, [r3, #36]
 1896 00e8 FB68     		ldr	r3, [r7, #12]
 1897 00ea 3A89     		ldrh	r2, [r7, #8]	@ movhi
 1898 00ec 5A85     		strh	r2, [r3, #42]	@ movhi
ARM GAS  C:\Users\user\AppData\Local\Temp\cchxWhRb.s 			page 34


 1899 00ee FB68     		ldr	r3, [r7, #12]
 1900 00f0 5B8D     		ldrh	r3, [r3, #42]	@ movhi
 1901 00f2 9AB2     		uxth	r2, r3
 1902 00f4 FB68     		ldr	r3, [r7, #12]
 1903 00f6 1A85     		strh	r2, [r3, #40]	@ movhi
 1904 00f8 FB68     		ldr	r3, [r7, #12]
 1905 00fa 134A     		ldr	r2, .L107+8
 1906 00fc DA62     		str	r2, [r3, #44]
 1907 00fe 7A89     		ldrh	r2, [r7, #10]
 1908 0100 FB68     		ldr	r3, [r7, #12]
 1909 0102 5A64     		str	r2, [r3, #68]
 1910 0104 FB68     		ldr	r3, [r7, #12]
 1911 0106 0022     		movs	r2, #0
 1912 0108 83F83C20 		strb	r2, [r3, #60]
 1913 010c FB68     		ldr	r3, [r7, #12]
 1914 010e 1B68     		ldr	r3, [r3]
 1915 0110 5A68     		ldr	r2, [r3, #4]
 1916 0112 FB68     		ldr	r3, [r7, #12]
 1917 0114 1B68     		ldr	r3, [r3]
 1918 0116 42F4E062 		orr	r2, r2, #1792
 1919 011a 5A60     		str	r2, [r3, #4]
 1920 011c FB68     		ldr	r3, [r7, #12]
 1921 011e 1B68     		ldr	r3, [r3]
 1922 0120 1A68     		ldr	r2, [r3]
 1923 0122 FB68     		ldr	r3, [r7, #12]
 1924 0124 1B68     		ldr	r3, [r3]
 1925 0126 42F48072 		orr	r2, r2, #256
 1926 012a 1A60     		str	r2, [r3]
 1927 012c 0023     		movs	r3, #0
 1928 012e 00E0     		b	.L103
 1929              	.L101:
 1930 0130 0223     		movs	r3, #2
 1931              	.L103:
 1932 0132 1846     		mov	r0, r3
 1933 0134 1C37     		adds	r7, r7, #28
 1934 0136 BD46     		mov	sp, r7
 1935              		@ sp needed
 1936 0138 5DF8047B 		ldr	r7, [sp], #4
 1937 013c 7047     		bx	lr
 1938              	.L108:
 1939 013e 00BF     		.align	2
 1940              	.L107:
 1941 0140 00000000 		.word	SystemCoreClock
 1942 0144 89B5F814 		.word	351843721
 1943 0148 0000FFFF 		.word	-65536
 1945              		.section	.text.HAL_I2C_Master_Receive_IT,"ax",%progbits
 1946              		.align	1
 1947              		.global	HAL_I2C_Master_Receive_IT
 1948              		.syntax unified
 1949              		.thumb
 1950              		.thumb_func
 1952              	HAL_I2C_Master_Receive_IT:
 1953              		@ args = 0, pretend = 0, frame = 24
 1954              		@ frame_needed = 1, uses_anonymous_args = 0
 1955              		@ link register save eliminated.
 1956 0000 80B4     		push	{r7}
 1957 0002 87B0     		sub	sp, sp, #28
ARM GAS  C:\Users\user\AppData\Local\Temp\cchxWhRb.s 			page 35


 1958 0004 00AF     		add	r7, sp, #0
 1959 0006 F860     		str	r0, [r7, #12]
 1960 0008 7A60     		str	r2, [r7, #4]
 1961 000a 1A46     		mov	r2, r3
 1962 000c 0B46     		mov	r3, r1	@ movhi
 1963 000e 7B81     		strh	r3, [r7, #10]	@ movhi
 1964 0010 1346     		mov	r3, r2	@ movhi
 1965 0012 3B81     		strh	r3, [r7, #8]	@ movhi
 1966 0014 0023     		movs	r3, #0
 1967 0016 7B61     		str	r3, [r7, #20]
 1968 0018 FB68     		ldr	r3, [r7, #12]
 1969 001a 93F83D30 		ldrb	r3, [r3, #61]
 1970 001e DBB2     		uxtb	r3, r3
 1971 0020 202B     		cmp	r3, #32
 1972 0022 40F08D80 		bne	.L110
 1973 0026 4A4B     		ldr	r3, .L116
 1974 0028 1B68     		ldr	r3, [r3]
 1975 002a DB08     		lsrs	r3, r3, #3
 1976 002c 494A     		ldr	r2, .L116+4
 1977 002e A2FB0323 		umull	r2, r3, r2, r3
 1978 0032 1A0A     		lsrs	r2, r3, #8
 1979 0034 1346     		mov	r3, r2
 1980 0036 9B00     		lsls	r3, r3, #2
 1981 0038 1344     		add	r3, r3, r2
 1982 003a 9A00     		lsls	r2, r3, #2
 1983 003c 1344     		add	r3, r3, r2
 1984 003e 7B61     		str	r3, [r7, #20]
 1985              	.L113:
 1986 0040 7B69     		ldr	r3, [r7, #20]
 1987 0042 013B     		subs	r3, r3, #1
 1988 0044 7B61     		str	r3, [r7, #20]
 1989 0046 7B69     		ldr	r3, [r7, #20]
 1990 0048 002B     		cmp	r3, #0
 1991 004a 16D1     		bne	.L111
 1992 004c FB68     		ldr	r3, [r7, #12]
 1993 004e 0022     		movs	r2, #0
 1994 0050 1A63     		str	r2, [r3, #48]
 1995 0052 FB68     		ldr	r3, [r7, #12]
 1996 0054 2022     		movs	r2, #32
 1997 0056 83F83D20 		strb	r2, [r3, #61]
 1998 005a FB68     		ldr	r3, [r7, #12]
 1999 005c 0022     		movs	r2, #0
 2000 005e 83F83E20 		strb	r2, [r3, #62]
 2001 0062 FB68     		ldr	r3, [r7, #12]
 2002 0064 1B6C     		ldr	r3, [r3, #64]
 2003 0066 43F02002 		orr	r2, r3, #32
 2004 006a FB68     		ldr	r3, [r7, #12]
 2005 006c 1A64     		str	r2, [r3, #64]
 2006 006e FB68     		ldr	r3, [r7, #12]
 2007 0070 0022     		movs	r2, #0
 2008 0072 83F83C20 		strb	r2, [r3, #60]
 2009 0076 0123     		movs	r3, #1
 2010 0078 63E0     		b	.L112
 2011              	.L111:
 2012 007a FB68     		ldr	r3, [r7, #12]
 2013 007c 1B68     		ldr	r3, [r3]
 2014 007e 9B69     		ldr	r3, [r3, #24]
ARM GAS  C:\Users\user\AppData\Local\Temp\cchxWhRb.s 			page 36


 2015 0080 03F00203 		and	r3, r3, #2
 2016 0084 022B     		cmp	r3, #2
 2017 0086 DBD0     		beq	.L113
 2018 0088 FB68     		ldr	r3, [r7, #12]
 2019 008a 93F83C30 		ldrb	r3, [r3, #60]	@ zero_extendqisi2
 2020 008e 012B     		cmp	r3, #1
 2021 0090 01D1     		bne	.L114
 2022 0092 0223     		movs	r3, #2
 2023 0094 55E0     		b	.L112
 2024              	.L114:
 2025 0096 FB68     		ldr	r3, [r7, #12]
 2026 0098 0122     		movs	r2, #1
 2027 009a 83F83C20 		strb	r2, [r3, #60]
 2028 009e FB68     		ldr	r3, [r7, #12]
 2029 00a0 1B68     		ldr	r3, [r3]
 2030 00a2 1B68     		ldr	r3, [r3]
 2031 00a4 03F00103 		and	r3, r3, #1
 2032 00a8 012B     		cmp	r3, #1
 2033 00aa 07D0     		beq	.L115
 2034 00ac FB68     		ldr	r3, [r7, #12]
 2035 00ae 1B68     		ldr	r3, [r3]
 2036 00b0 1A68     		ldr	r2, [r3]
 2037 00b2 FB68     		ldr	r3, [r7, #12]
 2038 00b4 1B68     		ldr	r3, [r3]
 2039 00b6 42F00102 		orr	r2, r2, #1
 2040 00ba 1A60     		str	r2, [r3]
 2041              	.L115:
 2042 00bc FB68     		ldr	r3, [r7, #12]
 2043 00be 1B68     		ldr	r3, [r3]
 2044 00c0 1A68     		ldr	r2, [r3]
 2045 00c2 FB68     		ldr	r3, [r7, #12]
 2046 00c4 1B68     		ldr	r3, [r3]
 2047 00c6 22F40062 		bic	r2, r2, #2048
 2048 00ca 1A60     		str	r2, [r3]
 2049 00cc FB68     		ldr	r3, [r7, #12]
 2050 00ce 2222     		movs	r2, #34
 2051 00d0 83F83D20 		strb	r2, [r3, #61]
 2052 00d4 FB68     		ldr	r3, [r7, #12]
 2053 00d6 1022     		movs	r2, #16
 2054 00d8 83F83E20 		strb	r2, [r3, #62]
 2055 00dc FB68     		ldr	r3, [r7, #12]
 2056 00de 0022     		movs	r2, #0
 2057 00e0 1A64     		str	r2, [r3, #64]
 2058 00e2 FB68     		ldr	r3, [r7, #12]
 2059 00e4 7A68     		ldr	r2, [r7, #4]
 2060 00e6 5A62     		str	r2, [r3, #36]
 2061 00e8 FB68     		ldr	r3, [r7, #12]
 2062 00ea 3A89     		ldrh	r2, [r7, #8]	@ movhi
 2063 00ec 5A85     		strh	r2, [r3, #42]	@ movhi
 2064 00ee FB68     		ldr	r3, [r7, #12]
 2065 00f0 5B8D     		ldrh	r3, [r3, #42]	@ movhi
 2066 00f2 9AB2     		uxth	r2, r3
 2067 00f4 FB68     		ldr	r3, [r7, #12]
 2068 00f6 1A85     		strh	r2, [r3, #40]	@ movhi
 2069 00f8 FB68     		ldr	r3, [r7, #12]
 2070 00fa 174A     		ldr	r2, .L116+8
 2071 00fc DA62     		str	r2, [r3, #44]
ARM GAS  C:\Users\user\AppData\Local\Temp\cchxWhRb.s 			page 37


 2072 00fe 7A89     		ldrh	r2, [r7, #10]
 2073 0100 FB68     		ldr	r3, [r7, #12]
 2074 0102 5A64     		str	r2, [r3, #68]
 2075 0104 FB68     		ldr	r3, [r7, #12]
 2076 0106 0022     		movs	r2, #0
 2077 0108 83F83C20 		strb	r2, [r3, #60]
 2078 010c FB68     		ldr	r3, [r7, #12]
 2079 010e 1B68     		ldr	r3, [r3]
 2080 0110 5A68     		ldr	r2, [r3, #4]
 2081 0112 FB68     		ldr	r3, [r7, #12]
 2082 0114 1B68     		ldr	r3, [r3]
 2083 0116 42F4E062 		orr	r2, r2, #1792
 2084 011a 5A60     		str	r2, [r3, #4]
 2085 011c FB68     		ldr	r3, [r7, #12]
 2086 011e 1B68     		ldr	r3, [r3]
 2087 0120 1A68     		ldr	r2, [r3]
 2088 0122 FB68     		ldr	r3, [r7, #12]
 2089 0124 1B68     		ldr	r3, [r3]
 2090 0126 42F48062 		orr	r2, r2, #1024
 2091 012a 1A60     		str	r2, [r3]
 2092 012c FB68     		ldr	r3, [r7, #12]
 2093 012e 1B68     		ldr	r3, [r3]
 2094 0130 1A68     		ldr	r2, [r3]
 2095 0132 FB68     		ldr	r3, [r7, #12]
 2096 0134 1B68     		ldr	r3, [r3]
 2097 0136 42F48072 		orr	r2, r2, #256
 2098 013a 1A60     		str	r2, [r3]
 2099 013c 0023     		movs	r3, #0
 2100 013e 00E0     		b	.L112
 2101              	.L110:
 2102 0140 0223     		movs	r3, #2
 2103              	.L112:
 2104 0142 1846     		mov	r0, r3
 2105 0144 1C37     		adds	r7, r7, #28
 2106 0146 BD46     		mov	sp, r7
 2107              		@ sp needed
 2108 0148 5DF8047B 		ldr	r7, [sp], #4
 2109 014c 7047     		bx	lr
 2110              	.L117:
 2111 014e 00BF     		.align	2
 2112              	.L116:
 2113 0150 00000000 		.word	SystemCoreClock
 2114 0154 89B5F814 		.word	351843721
 2115 0158 0000FFFF 		.word	-65536
 2117              		.section	.text.HAL_I2C_Slave_Transmit_IT,"ax",%progbits
 2118              		.align	1
 2119              		.global	HAL_I2C_Slave_Transmit_IT
 2120              		.syntax unified
 2121              		.thumb
 2122              		.thumb_func
 2124              	HAL_I2C_Slave_Transmit_IT:
 2125              		@ args = 0, pretend = 0, frame = 16
 2126              		@ frame_needed = 1, uses_anonymous_args = 0
 2127              		@ link register save eliminated.
 2128 0000 80B4     		push	{r7}
 2129 0002 85B0     		sub	sp, sp, #20
 2130 0004 00AF     		add	r7, sp, #0
ARM GAS  C:\Users\user\AppData\Local\Temp\cchxWhRb.s 			page 38


 2131 0006 F860     		str	r0, [r7, #12]
 2132 0008 B960     		str	r1, [r7, #8]
 2133 000a 1346     		mov	r3, r2
 2134 000c FB80     		strh	r3, [r7, #6]	@ movhi
 2135 000e FB68     		ldr	r3, [r7, #12]
 2136 0010 93F83D30 		ldrb	r3, [r3, #61]
 2137 0014 DBB2     		uxtb	r3, r3
 2138 0016 202B     		cmp	r3, #32
 2139 0018 58D1     		bne	.L119
 2140 001a BB68     		ldr	r3, [r7, #8]
 2141 001c 002B     		cmp	r3, #0
 2142 001e 02D0     		beq	.L120
 2143 0020 FB88     		ldrh	r3, [r7, #6]
 2144 0022 002B     		cmp	r3, #0
 2145 0024 01D1     		bne	.L121
 2146              	.L120:
 2147 0026 0123     		movs	r3, #1
 2148 0028 51E0     		b	.L122
 2149              	.L121:
 2150 002a FB68     		ldr	r3, [r7, #12]
 2151 002c 93F83C30 		ldrb	r3, [r3, #60]	@ zero_extendqisi2
 2152 0030 012B     		cmp	r3, #1
 2153 0032 01D1     		bne	.L123
 2154 0034 0223     		movs	r3, #2
 2155 0036 4AE0     		b	.L122
 2156              	.L123:
 2157 0038 FB68     		ldr	r3, [r7, #12]
 2158 003a 0122     		movs	r2, #1
 2159 003c 83F83C20 		strb	r2, [r3, #60]
 2160 0040 FB68     		ldr	r3, [r7, #12]
 2161 0042 1B68     		ldr	r3, [r3]
 2162 0044 1B68     		ldr	r3, [r3]
 2163 0046 03F00103 		and	r3, r3, #1
 2164 004a 012B     		cmp	r3, #1
 2165 004c 07D0     		beq	.L124
 2166 004e FB68     		ldr	r3, [r7, #12]
 2167 0050 1B68     		ldr	r3, [r3]
 2168 0052 1A68     		ldr	r2, [r3]
 2169 0054 FB68     		ldr	r3, [r7, #12]
 2170 0056 1B68     		ldr	r3, [r3]
 2171 0058 42F00102 		orr	r2, r2, #1
 2172 005c 1A60     		str	r2, [r3]
 2173              	.L124:
 2174 005e FB68     		ldr	r3, [r7, #12]
 2175 0060 1B68     		ldr	r3, [r3]
 2176 0062 1A68     		ldr	r2, [r3]
 2177 0064 FB68     		ldr	r3, [r7, #12]
 2178 0066 1B68     		ldr	r3, [r3]
 2179 0068 22F40062 		bic	r2, r2, #2048
 2180 006c 1A60     		str	r2, [r3]
 2181 006e FB68     		ldr	r3, [r7, #12]
 2182 0070 2122     		movs	r2, #33
 2183 0072 83F83D20 		strb	r2, [r3, #61]
 2184 0076 FB68     		ldr	r3, [r7, #12]
 2185 0078 2022     		movs	r2, #32
 2186 007a 83F83E20 		strb	r2, [r3, #62]
 2187 007e FB68     		ldr	r3, [r7, #12]
ARM GAS  C:\Users\user\AppData\Local\Temp\cchxWhRb.s 			page 39


 2188 0080 0022     		movs	r2, #0
 2189 0082 1A64     		str	r2, [r3, #64]
 2190 0084 FB68     		ldr	r3, [r7, #12]
 2191 0086 BA68     		ldr	r2, [r7, #8]
 2192 0088 5A62     		str	r2, [r3, #36]
 2193 008a FB68     		ldr	r3, [r7, #12]
 2194 008c FA88     		ldrh	r2, [r7, #6]	@ movhi
 2195 008e 5A85     		strh	r2, [r3, #42]	@ movhi
 2196 0090 FB68     		ldr	r3, [r7, #12]
 2197 0092 5B8D     		ldrh	r3, [r3, #42]	@ movhi
 2198 0094 9AB2     		uxth	r2, r3
 2199 0096 FB68     		ldr	r3, [r7, #12]
 2200 0098 1A85     		strh	r2, [r3, #40]	@ movhi
 2201 009a FB68     		ldr	r3, [r7, #12]
 2202 009c 0F4A     		ldr	r2, .L125
 2203 009e DA62     		str	r2, [r3, #44]
 2204 00a0 FB68     		ldr	r3, [r7, #12]
 2205 00a2 1B68     		ldr	r3, [r3]
 2206 00a4 1A68     		ldr	r2, [r3]
 2207 00a6 FB68     		ldr	r3, [r7, #12]
 2208 00a8 1B68     		ldr	r3, [r3]
 2209 00aa 42F48062 		orr	r2, r2, #1024
 2210 00ae 1A60     		str	r2, [r3]
 2211 00b0 FB68     		ldr	r3, [r7, #12]
 2212 00b2 0022     		movs	r2, #0
 2213 00b4 83F83C20 		strb	r2, [r3, #60]
 2214 00b8 FB68     		ldr	r3, [r7, #12]
 2215 00ba 1B68     		ldr	r3, [r3]
 2216 00bc 5A68     		ldr	r2, [r3, #4]
 2217 00be FB68     		ldr	r3, [r7, #12]
 2218 00c0 1B68     		ldr	r3, [r3]
 2219 00c2 42F4E062 		orr	r2, r2, #1792
 2220 00c6 5A60     		str	r2, [r3, #4]
 2221 00c8 0023     		movs	r3, #0
 2222 00ca 00E0     		b	.L122
 2223              	.L119:
 2224 00cc 0223     		movs	r3, #2
 2225              	.L122:
 2226 00ce 1846     		mov	r0, r3
 2227 00d0 1437     		adds	r7, r7, #20
 2228 00d2 BD46     		mov	sp, r7
 2229              		@ sp needed
 2230 00d4 5DF8047B 		ldr	r7, [sp], #4
 2231 00d8 7047     		bx	lr
 2232              	.L126:
 2233 00da 00BF     		.align	2
 2234              	.L125:
 2235 00dc 0000FFFF 		.word	-65536
 2237              		.section	.text.HAL_I2C_Slave_Receive_IT,"ax",%progbits
 2238              		.align	1
 2239              		.global	HAL_I2C_Slave_Receive_IT
 2240              		.syntax unified
 2241              		.thumb
 2242              		.thumb_func
 2244              	HAL_I2C_Slave_Receive_IT:
 2245              		@ args = 0, pretend = 0, frame = 16
 2246              		@ frame_needed = 1, uses_anonymous_args = 0
ARM GAS  C:\Users\user\AppData\Local\Temp\cchxWhRb.s 			page 40


 2247              		@ link register save eliminated.
 2248 0000 80B4     		push	{r7}
 2249 0002 85B0     		sub	sp, sp, #20
 2250 0004 00AF     		add	r7, sp, #0
 2251 0006 F860     		str	r0, [r7, #12]
 2252 0008 B960     		str	r1, [r7, #8]
 2253 000a 1346     		mov	r3, r2
 2254 000c FB80     		strh	r3, [r7, #6]	@ movhi
 2255 000e FB68     		ldr	r3, [r7, #12]
 2256 0010 93F83D30 		ldrb	r3, [r3, #61]
 2257 0014 DBB2     		uxtb	r3, r3
 2258 0016 202B     		cmp	r3, #32
 2259 0018 58D1     		bne	.L128
 2260 001a BB68     		ldr	r3, [r7, #8]
 2261 001c 002B     		cmp	r3, #0
 2262 001e 02D0     		beq	.L129
 2263 0020 FB88     		ldrh	r3, [r7, #6]
 2264 0022 002B     		cmp	r3, #0
 2265 0024 01D1     		bne	.L130
 2266              	.L129:
 2267 0026 0123     		movs	r3, #1
 2268 0028 51E0     		b	.L131
 2269              	.L130:
 2270 002a FB68     		ldr	r3, [r7, #12]
 2271 002c 93F83C30 		ldrb	r3, [r3, #60]	@ zero_extendqisi2
 2272 0030 012B     		cmp	r3, #1
 2273 0032 01D1     		bne	.L132
 2274 0034 0223     		movs	r3, #2
 2275 0036 4AE0     		b	.L131
 2276              	.L132:
 2277 0038 FB68     		ldr	r3, [r7, #12]
 2278 003a 0122     		movs	r2, #1
 2279 003c 83F83C20 		strb	r2, [r3, #60]
 2280 0040 FB68     		ldr	r3, [r7, #12]
 2281 0042 1B68     		ldr	r3, [r3]
 2282 0044 1B68     		ldr	r3, [r3]
 2283 0046 03F00103 		and	r3, r3, #1
 2284 004a 012B     		cmp	r3, #1
 2285 004c 07D0     		beq	.L133
 2286 004e FB68     		ldr	r3, [r7, #12]
 2287 0050 1B68     		ldr	r3, [r3]
 2288 0052 1A68     		ldr	r2, [r3]
 2289 0054 FB68     		ldr	r3, [r7, #12]
 2290 0056 1B68     		ldr	r3, [r3]
 2291 0058 42F00102 		orr	r2, r2, #1
 2292 005c 1A60     		str	r2, [r3]
 2293              	.L133:
 2294 005e FB68     		ldr	r3, [r7, #12]
 2295 0060 1B68     		ldr	r3, [r3]
 2296 0062 1A68     		ldr	r2, [r3]
 2297 0064 FB68     		ldr	r3, [r7, #12]
 2298 0066 1B68     		ldr	r3, [r3]
 2299 0068 22F40062 		bic	r2, r2, #2048
 2300 006c 1A60     		str	r2, [r3]
 2301 006e FB68     		ldr	r3, [r7, #12]
 2302 0070 2222     		movs	r2, #34
 2303 0072 83F83D20 		strb	r2, [r3, #61]
ARM GAS  C:\Users\user\AppData\Local\Temp\cchxWhRb.s 			page 41


 2304 0076 FB68     		ldr	r3, [r7, #12]
 2305 0078 2022     		movs	r2, #32
 2306 007a 83F83E20 		strb	r2, [r3, #62]
 2307 007e FB68     		ldr	r3, [r7, #12]
 2308 0080 0022     		movs	r2, #0
 2309 0082 1A64     		str	r2, [r3, #64]
 2310 0084 FB68     		ldr	r3, [r7, #12]
 2311 0086 BA68     		ldr	r2, [r7, #8]
 2312 0088 5A62     		str	r2, [r3, #36]
 2313 008a FB68     		ldr	r3, [r7, #12]
 2314 008c FA88     		ldrh	r2, [r7, #6]	@ movhi
 2315 008e 5A85     		strh	r2, [r3, #42]	@ movhi
 2316 0090 FB68     		ldr	r3, [r7, #12]
 2317 0092 5B8D     		ldrh	r3, [r3, #42]	@ movhi
 2318 0094 9AB2     		uxth	r2, r3
 2319 0096 FB68     		ldr	r3, [r7, #12]
 2320 0098 1A85     		strh	r2, [r3, #40]	@ movhi
 2321 009a FB68     		ldr	r3, [r7, #12]
 2322 009c 0F4A     		ldr	r2, .L134
 2323 009e DA62     		str	r2, [r3, #44]
 2324 00a0 FB68     		ldr	r3, [r7, #12]
 2325 00a2 1B68     		ldr	r3, [r3]
 2326 00a4 1A68     		ldr	r2, [r3]
 2327 00a6 FB68     		ldr	r3, [r7, #12]
 2328 00a8 1B68     		ldr	r3, [r3]
 2329 00aa 42F48062 		orr	r2, r2, #1024
 2330 00ae 1A60     		str	r2, [r3]
 2331 00b0 FB68     		ldr	r3, [r7, #12]
 2332 00b2 0022     		movs	r2, #0
 2333 00b4 83F83C20 		strb	r2, [r3, #60]
 2334 00b8 FB68     		ldr	r3, [r7, #12]
 2335 00ba 1B68     		ldr	r3, [r3]
 2336 00bc 5A68     		ldr	r2, [r3, #4]
 2337 00be FB68     		ldr	r3, [r7, #12]
 2338 00c0 1B68     		ldr	r3, [r3]
 2339 00c2 42F4E062 		orr	r2, r2, #1792
 2340 00c6 5A60     		str	r2, [r3, #4]
 2341 00c8 0023     		movs	r3, #0
 2342 00ca 00E0     		b	.L131
 2343              	.L128:
 2344 00cc 0223     		movs	r3, #2
 2345              	.L131:
 2346 00ce 1846     		mov	r0, r3
 2347 00d0 1437     		adds	r7, r7, #20
 2348 00d2 BD46     		mov	sp, r7
 2349              		@ sp needed
 2350 00d4 5DF8047B 		ldr	r7, [sp], #4
 2351 00d8 7047     		bx	lr
 2352              	.L135:
 2353 00da 00BF     		.align	2
 2354              	.L134:
 2355 00dc 0000FFFF 		.word	-65536
 2357              		.section	.text.HAL_I2C_Master_Transmit_DMA,"ax",%progbits
 2358              		.align	1
 2359              		.global	HAL_I2C_Master_Transmit_DMA
 2360              		.syntax unified
 2361              		.thumb
ARM GAS  C:\Users\user\AppData\Local\Temp\cchxWhRb.s 			page 42


 2362              		.thumb_func
 2364              	HAL_I2C_Master_Transmit_DMA:
 2365              		@ args = 0, pretend = 0, frame = 24
 2366              		@ frame_needed = 1, uses_anonymous_args = 0
 2367 0000 80B5     		push	{r7, lr}
 2368 0002 86B0     		sub	sp, sp, #24
 2369 0004 00AF     		add	r7, sp, #0
 2370 0006 F860     		str	r0, [r7, #12]
 2371 0008 7A60     		str	r2, [r7, #4]
 2372 000a 1A46     		mov	r2, r3
 2373 000c 0B46     		mov	r3, r1	@ movhi
 2374 000e 7B81     		strh	r3, [r7, #10]	@ movhi
 2375 0010 1346     		mov	r3, r2	@ movhi
 2376 0012 3B81     		strh	r3, [r7, #8]	@ movhi
 2377 0014 0023     		movs	r3, #0
 2378 0016 3B61     		str	r3, [r7, #16]
 2379 0018 FB68     		ldr	r3, [r7, #12]
 2380 001a 93F83D30 		ldrb	r3, [r3, #61]
 2381 001e DBB2     		uxtb	r3, r3
 2382 0020 202B     		cmp	r3, #32
 2383 0022 40F00D81 		bne	.L137
 2384 0026 894B     		ldr	r3, .L149
 2385 0028 1B68     		ldr	r3, [r3]
 2386 002a DB08     		lsrs	r3, r3, #3
 2387 002c 884A     		ldr	r2, .L149+4
 2388 002e A2FB0323 		umull	r2, r3, r2, r3
 2389 0032 1A0A     		lsrs	r2, r3, #8
 2390 0034 1346     		mov	r3, r2
 2391 0036 9B00     		lsls	r3, r3, #2
 2392 0038 1344     		add	r3, r3, r2
 2393 003a 9A00     		lsls	r2, r3, #2
 2394 003c 1344     		add	r3, r3, r2
 2395 003e 3B61     		str	r3, [r7, #16]
 2396              	.L140:
 2397 0040 3B69     		ldr	r3, [r7, #16]
 2398 0042 013B     		subs	r3, r3, #1
 2399 0044 3B61     		str	r3, [r7, #16]
 2400 0046 3B69     		ldr	r3, [r7, #16]
 2401 0048 002B     		cmp	r3, #0
 2402 004a 16D1     		bne	.L138
 2403 004c FB68     		ldr	r3, [r7, #12]
 2404 004e 0022     		movs	r2, #0
 2405 0050 1A63     		str	r2, [r3, #48]
 2406 0052 FB68     		ldr	r3, [r7, #12]
 2407 0054 2022     		movs	r2, #32
 2408 0056 83F83D20 		strb	r2, [r3, #61]
 2409 005a FB68     		ldr	r3, [r7, #12]
 2410 005c 0022     		movs	r2, #0
 2411 005e 83F83E20 		strb	r2, [r3, #62]
 2412 0062 FB68     		ldr	r3, [r7, #12]
 2413 0064 1B6C     		ldr	r3, [r3, #64]
 2414 0066 43F02002 		orr	r2, r3, #32
 2415 006a FB68     		ldr	r3, [r7, #12]
 2416 006c 1A64     		str	r2, [r3, #64]
 2417 006e FB68     		ldr	r3, [r7, #12]
 2418 0070 0022     		movs	r2, #0
 2419 0072 83F83C20 		strb	r2, [r3, #60]
ARM GAS  C:\Users\user\AppData\Local\Temp\cchxWhRb.s 			page 43


 2420 0076 0123     		movs	r3, #1
 2421 0078 E3E0     		b	.L139
 2422              	.L138:
 2423 007a FB68     		ldr	r3, [r7, #12]
 2424 007c 1B68     		ldr	r3, [r3]
 2425 007e 9B69     		ldr	r3, [r3, #24]
 2426 0080 03F00203 		and	r3, r3, #2
 2427 0084 022B     		cmp	r3, #2
 2428 0086 DBD0     		beq	.L140
 2429 0088 FB68     		ldr	r3, [r7, #12]
 2430 008a 93F83C30 		ldrb	r3, [r3, #60]	@ zero_extendqisi2
 2431 008e 012B     		cmp	r3, #1
 2432 0090 01D1     		bne	.L141
 2433 0092 0223     		movs	r3, #2
 2434 0094 D5E0     		b	.L139
 2435              	.L141:
 2436 0096 FB68     		ldr	r3, [r7, #12]
 2437 0098 0122     		movs	r2, #1
 2438 009a 83F83C20 		strb	r2, [r3, #60]
 2439 009e FB68     		ldr	r3, [r7, #12]
 2440 00a0 1B68     		ldr	r3, [r3]
 2441 00a2 1B68     		ldr	r3, [r3]
 2442 00a4 03F00103 		and	r3, r3, #1
 2443 00a8 012B     		cmp	r3, #1
 2444 00aa 07D0     		beq	.L142
 2445 00ac FB68     		ldr	r3, [r7, #12]
 2446 00ae 1B68     		ldr	r3, [r3]
 2447 00b0 1A68     		ldr	r2, [r3]
 2448 00b2 FB68     		ldr	r3, [r7, #12]
 2449 00b4 1B68     		ldr	r3, [r3]
 2450 00b6 42F00102 		orr	r2, r2, #1
 2451 00ba 1A60     		str	r2, [r3]
 2452              	.L142:
 2453 00bc FB68     		ldr	r3, [r7, #12]
 2454 00be 1B68     		ldr	r3, [r3]
 2455 00c0 1A68     		ldr	r2, [r3]
 2456 00c2 FB68     		ldr	r3, [r7, #12]
 2457 00c4 1B68     		ldr	r3, [r3]
 2458 00c6 22F40062 		bic	r2, r2, #2048
 2459 00ca 1A60     		str	r2, [r3]
 2460 00cc FB68     		ldr	r3, [r7, #12]
 2461 00ce 2122     		movs	r2, #33
 2462 00d0 83F83D20 		strb	r2, [r3, #61]
 2463 00d4 FB68     		ldr	r3, [r7, #12]
 2464 00d6 1022     		movs	r2, #16
 2465 00d8 83F83E20 		strb	r2, [r3, #62]
 2466 00dc FB68     		ldr	r3, [r7, #12]
 2467 00de 0022     		movs	r2, #0
 2468 00e0 1A64     		str	r2, [r3, #64]
 2469 00e2 FB68     		ldr	r3, [r7, #12]
 2470 00e4 7A68     		ldr	r2, [r7, #4]
 2471 00e6 5A62     		str	r2, [r3, #36]
 2472 00e8 FB68     		ldr	r3, [r7, #12]
 2473 00ea 3A89     		ldrh	r2, [r7, #8]	@ movhi
 2474 00ec 5A85     		strh	r2, [r3, #42]	@ movhi
 2475 00ee FB68     		ldr	r3, [r7, #12]
 2476 00f0 5B8D     		ldrh	r3, [r3, #42]	@ movhi
ARM GAS  C:\Users\user\AppData\Local\Temp\cchxWhRb.s 			page 44


 2477 00f2 9AB2     		uxth	r2, r3
 2478 00f4 FB68     		ldr	r3, [r7, #12]
 2479 00f6 1A85     		strh	r2, [r3, #40]	@ movhi
 2480 00f8 FB68     		ldr	r3, [r7, #12]
 2481 00fa 564A     		ldr	r2, .L149+8
 2482 00fc DA62     		str	r2, [r3, #44]
 2483 00fe 7A89     		ldrh	r2, [r7, #10]
 2484 0100 FB68     		ldr	r3, [r7, #12]
 2485 0102 5A64     		str	r2, [r3, #68]
 2486 0104 FB68     		ldr	r3, [r7, #12]
 2487 0106 1B8D     		ldrh	r3, [r3, #40]
 2488 0108 002B     		cmp	r3, #0
 2489 010a 7BD0     		beq	.L143
 2490 010c FB68     		ldr	r3, [r7, #12]
 2491 010e 5B6B     		ldr	r3, [r3, #52]
 2492 0110 002B     		cmp	r3, #0
 2493 0112 2AD0     		beq	.L144
 2494 0114 FB68     		ldr	r3, [r7, #12]
 2495 0116 5B6B     		ldr	r3, [r3, #52]
 2496 0118 4F4A     		ldr	r2, .L149+12
 2497 011a DA63     		str	r2, [r3, #60]
 2498 011c FB68     		ldr	r3, [r7, #12]
 2499 011e 5B6B     		ldr	r3, [r3, #52]
 2500 0120 4E4A     		ldr	r2, .L149+16
 2501 0122 DA64     		str	r2, [r3, #76]
 2502 0124 FB68     		ldr	r3, [r7, #12]
 2503 0126 5B6B     		ldr	r3, [r3, #52]
 2504 0128 0022     		movs	r2, #0
 2505 012a 1A64     		str	r2, [r3, #64]
 2506 012c FB68     		ldr	r3, [r7, #12]
 2507 012e 5B6B     		ldr	r3, [r3, #52]
 2508 0130 0022     		movs	r2, #0
 2509 0132 5A64     		str	r2, [r3, #68]
 2510 0134 FB68     		ldr	r3, [r7, #12]
 2511 0136 5B6B     		ldr	r3, [r3, #52]
 2512 0138 0022     		movs	r2, #0
 2513 013a 9A64     		str	r2, [r3, #72]
 2514 013c FB68     		ldr	r3, [r7, #12]
 2515 013e 5B6B     		ldr	r3, [r3, #52]
 2516 0140 0022     		movs	r2, #0
 2517 0142 1A65     		str	r2, [r3, #80]
 2518 0144 FB68     		ldr	r3, [r7, #12]
 2519 0146 586B     		ldr	r0, [r3, #52]
 2520 0148 FB68     		ldr	r3, [r7, #12]
 2521 014a 5B6A     		ldr	r3, [r3, #36]
 2522 014c 1946     		mov	r1, r3
 2523 014e FB68     		ldr	r3, [r7, #12]
 2524 0150 1B68     		ldr	r3, [r3]
 2525 0152 1033     		adds	r3, r3, #16
 2526 0154 1A46     		mov	r2, r3
 2527 0156 FB68     		ldr	r3, [r7, #12]
 2528 0158 1B8D     		ldrh	r3, [r3, #40]
 2529 015a FFF7FEFF 		bl	HAL_DMA_Start_IT
 2530 015e 0346     		mov	r3, r0
 2531 0160 FB75     		strb	r3, [r7, #23]
 2532 0162 FB7D     		ldrb	r3, [r7, #23]	@ zero_extendqisi2
 2533 0164 002B     		cmp	r3, #0
ARM GAS  C:\Users\user\AppData\Local\Temp\cchxWhRb.s 			page 45


 2534 0166 39D1     		bne	.L146
 2535 0168 13E0     		b	.L148
 2536              	.L144:
 2537 016a FB68     		ldr	r3, [r7, #12]
 2538 016c 2022     		movs	r2, #32
 2539 016e 83F83D20 		strb	r2, [r3, #61]
 2540 0172 FB68     		ldr	r3, [r7, #12]
 2541 0174 0022     		movs	r2, #0
 2542 0176 83F83E20 		strb	r2, [r3, #62]
 2543 017a FB68     		ldr	r3, [r7, #12]
 2544 017c 1B6C     		ldr	r3, [r3, #64]
 2545 017e 43F08002 		orr	r2, r3, #128
 2546 0182 FB68     		ldr	r3, [r7, #12]
 2547 0184 1A64     		str	r2, [r3, #64]
 2548 0186 FB68     		ldr	r3, [r7, #12]
 2549 0188 0022     		movs	r2, #0
 2550 018a 83F83C20 		strb	r2, [r3, #60]
 2551 018e 0123     		movs	r3, #1
 2552 0190 57E0     		b	.L139
 2553              	.L148:
 2554 0192 FB68     		ldr	r3, [r7, #12]
 2555 0194 0022     		movs	r2, #0
 2556 0196 83F83C20 		strb	r2, [r3, #60]
 2557 019a FB68     		ldr	r3, [r7, #12]
 2558 019c 1B68     		ldr	r3, [r3]
 2559 019e 5A68     		ldr	r2, [r3, #4]
 2560 01a0 FB68     		ldr	r3, [r7, #12]
 2561 01a2 1B68     		ldr	r3, [r3]
 2562 01a4 42F44072 		orr	r2, r2, #768
 2563 01a8 5A60     		str	r2, [r3, #4]
 2564 01aa FB68     		ldr	r3, [r7, #12]
 2565 01ac 1B68     		ldr	r3, [r3]
 2566 01ae 5A68     		ldr	r2, [r3, #4]
 2567 01b0 FB68     		ldr	r3, [r7, #12]
 2568 01b2 1B68     		ldr	r3, [r3]
 2569 01b4 42F40062 		orr	r2, r2, #2048
 2570 01b8 5A60     		str	r2, [r3, #4]
 2571 01ba FB68     		ldr	r3, [r7, #12]
 2572 01bc 1B68     		ldr	r3, [r3]
 2573 01be 1A68     		ldr	r2, [r3]
 2574 01c0 FB68     		ldr	r3, [r7, #12]
 2575 01c2 1B68     		ldr	r3, [r3]
 2576 01c4 42F48062 		orr	r2, r2, #1024
 2577 01c8 1A60     		str	r2, [r3]
 2578 01ca FB68     		ldr	r3, [r7, #12]
 2579 01cc 1B68     		ldr	r3, [r3]
 2580 01ce 1A68     		ldr	r2, [r3]
 2581 01d0 FB68     		ldr	r3, [r7, #12]
 2582 01d2 1B68     		ldr	r3, [r3]
 2583 01d4 42F48072 		orr	r2, r2, #256
 2584 01d8 1A60     		str	r2, [r3]
 2585 01da 2FE0     		b	.L147
 2586              	.L146:
 2587 01dc FB68     		ldr	r3, [r7, #12]
 2588 01de 2022     		movs	r2, #32
 2589 01e0 83F83D20 		strb	r2, [r3, #61]
 2590 01e4 FB68     		ldr	r3, [r7, #12]
ARM GAS  C:\Users\user\AppData\Local\Temp\cchxWhRb.s 			page 46


 2591 01e6 0022     		movs	r2, #0
 2592 01e8 83F83E20 		strb	r2, [r3, #62]
 2593 01ec FB68     		ldr	r3, [r7, #12]
 2594 01ee 1B6C     		ldr	r3, [r3, #64]
 2595 01f0 43F01002 		orr	r2, r3, #16
 2596 01f4 FB68     		ldr	r3, [r7, #12]
 2597 01f6 1A64     		str	r2, [r3, #64]
 2598 01f8 FB68     		ldr	r3, [r7, #12]
 2599 01fa 0022     		movs	r2, #0
 2600 01fc 83F83C20 		strb	r2, [r3, #60]
 2601 0200 0123     		movs	r3, #1
 2602 0202 1EE0     		b	.L139
 2603              	.L143:
 2604 0204 FB68     		ldr	r3, [r7, #12]
 2605 0206 1B68     		ldr	r3, [r3]
 2606 0208 1A68     		ldr	r2, [r3]
 2607 020a FB68     		ldr	r3, [r7, #12]
 2608 020c 1B68     		ldr	r3, [r3]
 2609 020e 42F48062 		orr	r2, r2, #1024
 2610 0212 1A60     		str	r2, [r3]
 2611 0214 FB68     		ldr	r3, [r7, #12]
 2612 0216 1B68     		ldr	r3, [r3]
 2613 0218 1A68     		ldr	r2, [r3]
 2614 021a FB68     		ldr	r3, [r7, #12]
 2615 021c 1B68     		ldr	r3, [r3]
 2616 021e 42F48072 		orr	r2, r2, #256
 2617 0222 1A60     		str	r2, [r3]
 2618 0224 FB68     		ldr	r3, [r7, #12]
 2619 0226 0022     		movs	r2, #0
 2620 0228 83F83C20 		strb	r2, [r3, #60]
 2621 022c FB68     		ldr	r3, [r7, #12]
 2622 022e 1B68     		ldr	r3, [r3]
 2623 0230 5A68     		ldr	r2, [r3, #4]
 2624 0232 FB68     		ldr	r3, [r7, #12]
 2625 0234 1B68     		ldr	r3, [r3]
 2626 0236 42F4E062 		orr	r2, r2, #1792
 2627 023a 5A60     		str	r2, [r3, #4]
 2628              	.L147:
 2629 023c 0023     		movs	r3, #0
 2630 023e 00E0     		b	.L139
 2631              	.L137:
 2632 0240 0223     		movs	r3, #2
 2633              	.L139:
 2634 0242 1846     		mov	r0, r3
 2635 0244 1837     		adds	r7, r7, #24
 2636 0246 BD46     		mov	sp, r7
 2637              		@ sp needed
 2638 0248 80BD     		pop	{r7, pc}
 2639              	.L150:
 2640 024a 00BF     		.align	2
 2641              	.L149:
 2642 024c 00000000 		.word	SystemCoreClock
 2643 0250 89B5F814 		.word	351843721
 2644 0254 0000FFFF 		.word	-65536
 2645 0258 00000000 		.word	I2C_DMAXferCplt
 2646 025c 00000000 		.word	I2C_DMAError
 2648              		.section	.text.HAL_I2C_Master_Receive_DMA,"ax",%progbits
ARM GAS  C:\Users\user\AppData\Local\Temp\cchxWhRb.s 			page 47


 2649              		.align	1
 2650              		.global	HAL_I2C_Master_Receive_DMA
 2651              		.syntax unified
 2652              		.thumb
 2653              		.thumb_func
 2655              	HAL_I2C_Master_Receive_DMA:
 2656              		@ args = 0, pretend = 0, frame = 24
 2657              		@ frame_needed = 1, uses_anonymous_args = 0
 2658 0000 80B5     		push	{r7, lr}
 2659 0002 86B0     		sub	sp, sp, #24
 2660 0004 00AF     		add	r7, sp, #0
 2661 0006 F860     		str	r0, [r7, #12]
 2662 0008 7A60     		str	r2, [r7, #4]
 2663 000a 1A46     		mov	r2, r3
 2664 000c 0B46     		mov	r3, r1	@ movhi
 2665 000e 7B81     		strh	r3, [r7, #10]	@ movhi
 2666 0010 1346     		mov	r3, r2	@ movhi
 2667 0012 3B81     		strh	r3, [r7, #8]	@ movhi
 2668 0014 0023     		movs	r3, #0
 2669 0016 3B61     		str	r3, [r7, #16]
 2670 0018 FB68     		ldr	r3, [r7, #12]
 2671 001a 93F83D30 		ldrb	r3, [r3, #61]
 2672 001e DBB2     		uxtb	r3, r3
 2673 0020 202B     		cmp	r3, #32
 2674 0022 40F00D81 		bne	.L152
 2675 0026 894B     		ldr	r3, .L164
 2676 0028 1B68     		ldr	r3, [r3]
 2677 002a DB08     		lsrs	r3, r3, #3
 2678 002c 884A     		ldr	r2, .L164+4
 2679 002e A2FB0323 		umull	r2, r3, r2, r3
 2680 0032 1A0A     		lsrs	r2, r3, #8
 2681 0034 1346     		mov	r3, r2
 2682 0036 9B00     		lsls	r3, r3, #2
 2683 0038 1344     		add	r3, r3, r2
 2684 003a 9A00     		lsls	r2, r3, #2
 2685 003c 1344     		add	r3, r3, r2
 2686 003e 3B61     		str	r3, [r7, #16]
 2687              	.L155:
 2688 0040 3B69     		ldr	r3, [r7, #16]
 2689 0042 013B     		subs	r3, r3, #1
 2690 0044 3B61     		str	r3, [r7, #16]
 2691 0046 3B69     		ldr	r3, [r7, #16]
 2692 0048 002B     		cmp	r3, #0
 2693 004a 16D1     		bne	.L153
 2694 004c FB68     		ldr	r3, [r7, #12]
 2695 004e 0022     		movs	r2, #0
 2696 0050 1A63     		str	r2, [r3, #48]
 2697 0052 FB68     		ldr	r3, [r7, #12]
 2698 0054 2022     		movs	r2, #32
 2699 0056 83F83D20 		strb	r2, [r3, #61]
 2700 005a FB68     		ldr	r3, [r7, #12]
 2701 005c 0022     		movs	r2, #0
 2702 005e 83F83E20 		strb	r2, [r3, #62]
 2703 0062 FB68     		ldr	r3, [r7, #12]
 2704 0064 1B6C     		ldr	r3, [r3, #64]
 2705 0066 43F02002 		orr	r2, r3, #32
 2706 006a FB68     		ldr	r3, [r7, #12]
ARM GAS  C:\Users\user\AppData\Local\Temp\cchxWhRb.s 			page 48


 2707 006c 1A64     		str	r2, [r3, #64]
 2708 006e FB68     		ldr	r3, [r7, #12]
 2709 0070 0022     		movs	r2, #0
 2710 0072 83F83C20 		strb	r2, [r3, #60]
 2711 0076 0123     		movs	r3, #1
 2712 0078 E3E0     		b	.L154
 2713              	.L153:
 2714 007a FB68     		ldr	r3, [r7, #12]
 2715 007c 1B68     		ldr	r3, [r3]
 2716 007e 9B69     		ldr	r3, [r3, #24]
 2717 0080 03F00203 		and	r3, r3, #2
 2718 0084 022B     		cmp	r3, #2
 2719 0086 DBD0     		beq	.L155
 2720 0088 FB68     		ldr	r3, [r7, #12]
 2721 008a 93F83C30 		ldrb	r3, [r3, #60]	@ zero_extendqisi2
 2722 008e 012B     		cmp	r3, #1
 2723 0090 01D1     		bne	.L156
 2724 0092 0223     		movs	r3, #2
 2725 0094 D5E0     		b	.L154
 2726              	.L156:
 2727 0096 FB68     		ldr	r3, [r7, #12]
 2728 0098 0122     		movs	r2, #1
 2729 009a 83F83C20 		strb	r2, [r3, #60]
 2730 009e FB68     		ldr	r3, [r7, #12]
 2731 00a0 1B68     		ldr	r3, [r3]
 2732 00a2 1B68     		ldr	r3, [r3]
 2733 00a4 03F00103 		and	r3, r3, #1
 2734 00a8 012B     		cmp	r3, #1
 2735 00aa 07D0     		beq	.L157
 2736 00ac FB68     		ldr	r3, [r7, #12]
 2737 00ae 1B68     		ldr	r3, [r3]
 2738 00b0 1A68     		ldr	r2, [r3]
 2739 00b2 FB68     		ldr	r3, [r7, #12]
 2740 00b4 1B68     		ldr	r3, [r3]
 2741 00b6 42F00102 		orr	r2, r2, #1
 2742 00ba 1A60     		str	r2, [r3]
 2743              	.L157:
 2744 00bc FB68     		ldr	r3, [r7, #12]
 2745 00be 1B68     		ldr	r3, [r3]
 2746 00c0 1A68     		ldr	r2, [r3]
 2747 00c2 FB68     		ldr	r3, [r7, #12]
 2748 00c4 1B68     		ldr	r3, [r3]
 2749 00c6 22F40062 		bic	r2, r2, #2048
 2750 00ca 1A60     		str	r2, [r3]
 2751 00cc FB68     		ldr	r3, [r7, #12]
 2752 00ce 2222     		movs	r2, #34
 2753 00d0 83F83D20 		strb	r2, [r3, #61]
 2754 00d4 FB68     		ldr	r3, [r7, #12]
 2755 00d6 1022     		movs	r2, #16
 2756 00d8 83F83E20 		strb	r2, [r3, #62]
 2757 00dc FB68     		ldr	r3, [r7, #12]
 2758 00de 0022     		movs	r2, #0
 2759 00e0 1A64     		str	r2, [r3, #64]
 2760 00e2 FB68     		ldr	r3, [r7, #12]
 2761 00e4 7A68     		ldr	r2, [r7, #4]
 2762 00e6 5A62     		str	r2, [r3, #36]
 2763 00e8 FB68     		ldr	r3, [r7, #12]
ARM GAS  C:\Users\user\AppData\Local\Temp\cchxWhRb.s 			page 49


 2764 00ea 3A89     		ldrh	r2, [r7, #8]	@ movhi
 2765 00ec 5A85     		strh	r2, [r3, #42]	@ movhi
 2766 00ee FB68     		ldr	r3, [r7, #12]
 2767 00f0 5B8D     		ldrh	r3, [r3, #42]	@ movhi
 2768 00f2 9AB2     		uxth	r2, r3
 2769 00f4 FB68     		ldr	r3, [r7, #12]
 2770 00f6 1A85     		strh	r2, [r3, #40]	@ movhi
 2771 00f8 FB68     		ldr	r3, [r7, #12]
 2772 00fa 564A     		ldr	r2, .L164+8
 2773 00fc DA62     		str	r2, [r3, #44]
 2774 00fe 7A89     		ldrh	r2, [r7, #10]
 2775 0100 FB68     		ldr	r3, [r7, #12]
 2776 0102 5A64     		str	r2, [r3, #68]
 2777 0104 FB68     		ldr	r3, [r7, #12]
 2778 0106 1B8D     		ldrh	r3, [r3, #40]
 2779 0108 002B     		cmp	r3, #0
 2780 010a 7BD0     		beq	.L158
 2781 010c FB68     		ldr	r3, [r7, #12]
 2782 010e 9B6B     		ldr	r3, [r3, #56]
 2783 0110 002B     		cmp	r3, #0
 2784 0112 2AD0     		beq	.L159
 2785 0114 FB68     		ldr	r3, [r7, #12]
 2786 0116 9B6B     		ldr	r3, [r3, #56]
 2787 0118 4F4A     		ldr	r2, .L164+12
 2788 011a DA63     		str	r2, [r3, #60]
 2789 011c FB68     		ldr	r3, [r7, #12]
 2790 011e 9B6B     		ldr	r3, [r3, #56]
 2791 0120 4E4A     		ldr	r2, .L164+16
 2792 0122 DA64     		str	r2, [r3, #76]
 2793 0124 FB68     		ldr	r3, [r7, #12]
 2794 0126 9B6B     		ldr	r3, [r3, #56]
 2795 0128 0022     		movs	r2, #0
 2796 012a 1A64     		str	r2, [r3, #64]
 2797 012c FB68     		ldr	r3, [r7, #12]
 2798 012e 9B6B     		ldr	r3, [r3, #56]
 2799 0130 0022     		movs	r2, #0
 2800 0132 5A64     		str	r2, [r3, #68]
 2801 0134 FB68     		ldr	r3, [r7, #12]
 2802 0136 9B6B     		ldr	r3, [r3, #56]
 2803 0138 0022     		movs	r2, #0
 2804 013a 9A64     		str	r2, [r3, #72]
 2805 013c FB68     		ldr	r3, [r7, #12]
 2806 013e 9B6B     		ldr	r3, [r3, #56]
 2807 0140 0022     		movs	r2, #0
 2808 0142 1A65     		str	r2, [r3, #80]
 2809 0144 FB68     		ldr	r3, [r7, #12]
 2810 0146 986B     		ldr	r0, [r3, #56]
 2811 0148 FB68     		ldr	r3, [r7, #12]
 2812 014a 1B68     		ldr	r3, [r3]
 2813 014c 1033     		adds	r3, r3, #16
 2814 014e 1946     		mov	r1, r3
 2815 0150 FB68     		ldr	r3, [r7, #12]
 2816 0152 5B6A     		ldr	r3, [r3, #36]
 2817 0154 1A46     		mov	r2, r3
 2818 0156 FB68     		ldr	r3, [r7, #12]
 2819 0158 1B8D     		ldrh	r3, [r3, #40]
 2820 015a FFF7FEFF 		bl	HAL_DMA_Start_IT
ARM GAS  C:\Users\user\AppData\Local\Temp\cchxWhRb.s 			page 50


 2821 015e 0346     		mov	r3, r0
 2822 0160 FB75     		strb	r3, [r7, #23]
 2823 0162 FB7D     		ldrb	r3, [r7, #23]	@ zero_extendqisi2
 2824 0164 002B     		cmp	r3, #0
 2825 0166 39D1     		bne	.L161
 2826 0168 13E0     		b	.L163
 2827              	.L159:
 2828 016a FB68     		ldr	r3, [r7, #12]
 2829 016c 2022     		movs	r2, #32
 2830 016e 83F83D20 		strb	r2, [r3, #61]
 2831 0172 FB68     		ldr	r3, [r7, #12]
 2832 0174 0022     		movs	r2, #0
 2833 0176 83F83E20 		strb	r2, [r3, #62]
 2834 017a FB68     		ldr	r3, [r7, #12]
 2835 017c 1B6C     		ldr	r3, [r3, #64]
 2836 017e 43F08002 		orr	r2, r3, #128
 2837 0182 FB68     		ldr	r3, [r7, #12]
 2838 0184 1A64     		str	r2, [r3, #64]
 2839 0186 FB68     		ldr	r3, [r7, #12]
 2840 0188 0022     		movs	r2, #0
 2841 018a 83F83C20 		strb	r2, [r3, #60]
 2842 018e 0123     		movs	r3, #1
 2843 0190 57E0     		b	.L154
 2844              	.L163:
 2845 0192 FB68     		ldr	r3, [r7, #12]
 2846 0194 1B68     		ldr	r3, [r3]
 2847 0196 1A68     		ldr	r2, [r3]
 2848 0198 FB68     		ldr	r3, [r7, #12]
 2849 019a 1B68     		ldr	r3, [r3]
 2850 019c 42F48062 		orr	r2, r2, #1024
 2851 01a0 1A60     		str	r2, [r3]
 2852 01a2 FB68     		ldr	r3, [r7, #12]
 2853 01a4 1B68     		ldr	r3, [r3]
 2854 01a6 1A68     		ldr	r2, [r3]
 2855 01a8 FB68     		ldr	r3, [r7, #12]
 2856 01aa 1B68     		ldr	r3, [r3]
 2857 01ac 42F48072 		orr	r2, r2, #256
 2858 01b0 1A60     		str	r2, [r3]
 2859 01b2 FB68     		ldr	r3, [r7, #12]
 2860 01b4 0022     		movs	r2, #0
 2861 01b6 83F83C20 		strb	r2, [r3, #60]
 2862 01ba FB68     		ldr	r3, [r7, #12]
 2863 01bc 1B68     		ldr	r3, [r3]
 2864 01be 5A68     		ldr	r2, [r3, #4]
 2865 01c0 FB68     		ldr	r3, [r7, #12]
 2866 01c2 1B68     		ldr	r3, [r3]
 2867 01c4 42F44072 		orr	r2, r2, #768
 2868 01c8 5A60     		str	r2, [r3, #4]
 2869 01ca FB68     		ldr	r3, [r7, #12]
 2870 01cc 1B68     		ldr	r3, [r3]
 2871 01ce 5A68     		ldr	r2, [r3, #4]
 2872 01d0 FB68     		ldr	r3, [r7, #12]
 2873 01d2 1B68     		ldr	r3, [r3]
 2874 01d4 42F40062 		orr	r2, r2, #2048
 2875 01d8 5A60     		str	r2, [r3, #4]
 2876 01da 2FE0     		b	.L162
 2877              	.L161:
ARM GAS  C:\Users\user\AppData\Local\Temp\cchxWhRb.s 			page 51


 2878 01dc FB68     		ldr	r3, [r7, #12]
 2879 01de 2022     		movs	r2, #32
 2880 01e0 83F83D20 		strb	r2, [r3, #61]
 2881 01e4 FB68     		ldr	r3, [r7, #12]
 2882 01e6 0022     		movs	r2, #0
 2883 01e8 83F83E20 		strb	r2, [r3, #62]
 2884 01ec FB68     		ldr	r3, [r7, #12]
 2885 01ee 1B6C     		ldr	r3, [r3, #64]
 2886 01f0 43F01002 		orr	r2, r3, #16
 2887 01f4 FB68     		ldr	r3, [r7, #12]
 2888 01f6 1A64     		str	r2, [r3, #64]
 2889 01f8 FB68     		ldr	r3, [r7, #12]
 2890 01fa 0022     		movs	r2, #0
 2891 01fc 83F83C20 		strb	r2, [r3, #60]
 2892 0200 0123     		movs	r3, #1
 2893 0202 1EE0     		b	.L154
 2894              	.L158:
 2895 0204 FB68     		ldr	r3, [r7, #12]
 2896 0206 0022     		movs	r2, #0
 2897 0208 83F83C20 		strb	r2, [r3, #60]
 2898 020c FB68     		ldr	r3, [r7, #12]
 2899 020e 1B68     		ldr	r3, [r3]
 2900 0210 5A68     		ldr	r2, [r3, #4]
 2901 0212 FB68     		ldr	r3, [r7, #12]
 2902 0214 1B68     		ldr	r3, [r3]
 2903 0216 42F4E062 		orr	r2, r2, #1792
 2904 021a 5A60     		str	r2, [r3, #4]
 2905 021c FB68     		ldr	r3, [r7, #12]
 2906 021e 1B68     		ldr	r3, [r3]
 2907 0220 1A68     		ldr	r2, [r3]
 2908 0222 FB68     		ldr	r3, [r7, #12]
 2909 0224 1B68     		ldr	r3, [r3]
 2910 0226 42F48062 		orr	r2, r2, #1024
 2911 022a 1A60     		str	r2, [r3]
 2912 022c FB68     		ldr	r3, [r7, #12]
 2913 022e 1B68     		ldr	r3, [r3]
 2914 0230 1A68     		ldr	r2, [r3]
 2915 0232 FB68     		ldr	r3, [r7, #12]
 2916 0234 1B68     		ldr	r3, [r3]
 2917 0236 42F48072 		orr	r2, r2, #256
 2918 023a 1A60     		str	r2, [r3]
 2919              	.L162:
 2920 023c 0023     		movs	r3, #0
 2921 023e 00E0     		b	.L154
 2922              	.L152:
 2923 0240 0223     		movs	r3, #2
 2924              	.L154:
 2925 0242 1846     		mov	r0, r3
 2926 0244 1837     		adds	r7, r7, #24
 2927 0246 BD46     		mov	sp, r7
 2928              		@ sp needed
 2929 0248 80BD     		pop	{r7, pc}
 2930              	.L165:
 2931 024a 00BF     		.align	2
 2932              	.L164:
 2933 024c 00000000 		.word	SystemCoreClock
 2934 0250 89B5F814 		.word	351843721
ARM GAS  C:\Users\user\AppData\Local\Temp\cchxWhRb.s 			page 52


 2935 0254 0000FFFF 		.word	-65536
 2936 0258 00000000 		.word	I2C_DMAXferCplt
 2937 025c 00000000 		.word	I2C_DMAError
 2939              		.section	.text.HAL_I2C_Slave_Transmit_DMA,"ax",%progbits
 2940              		.align	1
 2941              		.global	HAL_I2C_Slave_Transmit_DMA
 2942              		.syntax unified
 2943              		.thumb
 2944              		.thumb_func
 2946              	HAL_I2C_Slave_Transmit_DMA:
 2947              		@ args = 0, pretend = 0, frame = 24
 2948              		@ frame_needed = 1, uses_anonymous_args = 0
 2949 0000 80B5     		push	{r7, lr}
 2950 0002 86B0     		sub	sp, sp, #24
 2951 0004 00AF     		add	r7, sp, #0
 2952 0006 F860     		str	r0, [r7, #12]
 2953 0008 B960     		str	r1, [r7, #8]
 2954 000a 1346     		mov	r3, r2
 2955 000c FB80     		strh	r3, [r7, #6]	@ movhi
 2956 000e FB68     		ldr	r3, [r7, #12]
 2957 0010 93F83D30 		ldrb	r3, [r3, #61]
 2958 0014 DBB2     		uxtb	r3, r3
 2959 0016 202B     		cmp	r3, #32
 2960 0018 40F0B880 		bne	.L167
 2961 001c BB68     		ldr	r3, [r7, #8]
 2962 001e 002B     		cmp	r3, #0
 2963 0020 02D0     		beq	.L168
 2964 0022 FB88     		ldrh	r3, [r7, #6]
 2965 0024 002B     		cmp	r3, #0
 2966 0026 01D1     		bne	.L169
 2967              	.L168:
 2968 0028 0123     		movs	r3, #1
 2969 002a B0E0     		b	.L170
 2970              	.L169:
 2971 002c FB68     		ldr	r3, [r7, #12]
 2972 002e 93F83C30 		ldrb	r3, [r3, #60]	@ zero_extendqisi2
 2973 0032 012B     		cmp	r3, #1
 2974 0034 01D1     		bne	.L171
 2975 0036 0223     		movs	r3, #2
 2976 0038 A9E0     		b	.L170
 2977              	.L171:
 2978 003a FB68     		ldr	r3, [r7, #12]
 2979 003c 0122     		movs	r2, #1
 2980 003e 83F83C20 		strb	r2, [r3, #60]
 2981 0042 FB68     		ldr	r3, [r7, #12]
 2982 0044 1B68     		ldr	r3, [r3]
 2983 0046 1B68     		ldr	r3, [r3]
 2984 0048 03F00103 		and	r3, r3, #1
 2985 004c 012B     		cmp	r3, #1
 2986 004e 07D0     		beq	.L172
 2987 0050 FB68     		ldr	r3, [r7, #12]
 2988 0052 1B68     		ldr	r3, [r3]
 2989 0054 1A68     		ldr	r2, [r3]
 2990 0056 FB68     		ldr	r3, [r7, #12]
 2991 0058 1B68     		ldr	r3, [r3]
 2992 005a 42F00102 		orr	r2, r2, #1
 2993 005e 1A60     		str	r2, [r3]
ARM GAS  C:\Users\user\AppData\Local\Temp\cchxWhRb.s 			page 53


 2994              	.L172:
 2995 0060 FB68     		ldr	r3, [r7, #12]
 2996 0062 1B68     		ldr	r3, [r3]
 2997 0064 1A68     		ldr	r2, [r3]
 2998 0066 FB68     		ldr	r3, [r7, #12]
 2999 0068 1B68     		ldr	r3, [r3]
 3000 006a 22F40062 		bic	r2, r2, #2048
 3001 006e 1A60     		str	r2, [r3]
 3002 0070 FB68     		ldr	r3, [r7, #12]
 3003 0072 2122     		movs	r2, #33
 3004 0074 83F83D20 		strb	r2, [r3, #61]
 3005 0078 FB68     		ldr	r3, [r7, #12]
 3006 007a 2022     		movs	r2, #32
 3007 007c 83F83E20 		strb	r2, [r3, #62]
 3008 0080 FB68     		ldr	r3, [r7, #12]
 3009 0082 0022     		movs	r2, #0
 3010 0084 1A64     		str	r2, [r3, #64]
 3011 0086 FB68     		ldr	r3, [r7, #12]
 3012 0088 BA68     		ldr	r2, [r7, #8]
 3013 008a 5A62     		str	r2, [r3, #36]
 3014 008c FB68     		ldr	r3, [r7, #12]
 3015 008e FA88     		ldrh	r2, [r7, #6]	@ movhi
 3016 0090 5A85     		strh	r2, [r3, #42]	@ movhi
 3017 0092 FB68     		ldr	r3, [r7, #12]
 3018 0094 5B8D     		ldrh	r3, [r3, #42]	@ movhi
 3019 0096 9AB2     		uxth	r2, r3
 3020 0098 FB68     		ldr	r3, [r7, #12]
 3021 009a 1A85     		strh	r2, [r3, #40]	@ movhi
 3022 009c FB68     		ldr	r3, [r7, #12]
 3023 009e 3E4A     		ldr	r2, .L177
 3024 00a0 DA62     		str	r2, [r3, #44]
 3025 00a2 FB68     		ldr	r3, [r7, #12]
 3026 00a4 5B6B     		ldr	r3, [r3, #52]
 3027 00a6 002B     		cmp	r3, #0
 3028 00a8 2AD0     		beq	.L173
 3029 00aa FB68     		ldr	r3, [r7, #12]
 3030 00ac 5B6B     		ldr	r3, [r3, #52]
 3031 00ae 3B4A     		ldr	r2, .L177+4
 3032 00b0 DA63     		str	r2, [r3, #60]
 3033 00b2 FB68     		ldr	r3, [r7, #12]
 3034 00b4 5B6B     		ldr	r3, [r3, #52]
 3035 00b6 3A4A     		ldr	r2, .L177+8
 3036 00b8 DA64     		str	r2, [r3, #76]
 3037 00ba FB68     		ldr	r3, [r7, #12]
 3038 00bc 5B6B     		ldr	r3, [r3, #52]
 3039 00be 0022     		movs	r2, #0
 3040 00c0 1A64     		str	r2, [r3, #64]
 3041 00c2 FB68     		ldr	r3, [r7, #12]
 3042 00c4 5B6B     		ldr	r3, [r3, #52]
 3043 00c6 0022     		movs	r2, #0
 3044 00c8 5A64     		str	r2, [r3, #68]
 3045 00ca FB68     		ldr	r3, [r7, #12]
 3046 00cc 5B6B     		ldr	r3, [r3, #52]
 3047 00ce 0022     		movs	r2, #0
 3048 00d0 9A64     		str	r2, [r3, #72]
 3049 00d2 FB68     		ldr	r3, [r7, #12]
 3050 00d4 5B6B     		ldr	r3, [r3, #52]
ARM GAS  C:\Users\user\AppData\Local\Temp\cchxWhRb.s 			page 54


 3051 00d6 0022     		movs	r2, #0
 3052 00d8 1A65     		str	r2, [r3, #80]
 3053 00da FB68     		ldr	r3, [r7, #12]
 3054 00dc 586B     		ldr	r0, [r3, #52]
 3055 00de FB68     		ldr	r3, [r7, #12]
 3056 00e0 5B6A     		ldr	r3, [r3, #36]
 3057 00e2 1946     		mov	r1, r3
 3058 00e4 FB68     		ldr	r3, [r7, #12]
 3059 00e6 1B68     		ldr	r3, [r3]
 3060 00e8 1033     		adds	r3, r3, #16
 3061 00ea 1A46     		mov	r2, r3
 3062 00ec FB68     		ldr	r3, [r7, #12]
 3063 00ee 1B8D     		ldrh	r3, [r3, #40]
 3064 00f0 FFF7FEFF 		bl	HAL_DMA_Start_IT
 3065 00f4 0346     		mov	r3, r0
 3066 00f6 FB75     		strb	r3, [r7, #23]
 3067 00f8 FB7D     		ldrb	r3, [r7, #23]	@ zero_extendqisi2
 3068 00fa 002B     		cmp	r3, #0
 3069 00fc 32D1     		bne	.L175
 3070 00fe 13E0     		b	.L176
 3071              	.L173:
 3072 0100 FB68     		ldr	r3, [r7, #12]
 3073 0102 2822     		movs	r2, #40
 3074 0104 83F83D20 		strb	r2, [r3, #61]
 3075 0108 FB68     		ldr	r3, [r7, #12]
 3076 010a 0022     		movs	r2, #0
 3077 010c 83F83E20 		strb	r2, [r3, #62]
 3078 0110 FB68     		ldr	r3, [r7, #12]
 3079 0112 1B6C     		ldr	r3, [r3, #64]
 3080 0114 43F08002 		orr	r2, r3, #128
 3081 0118 FB68     		ldr	r3, [r7, #12]
 3082 011a 1A64     		str	r2, [r3, #64]
 3083 011c FB68     		ldr	r3, [r7, #12]
 3084 011e 0022     		movs	r2, #0
 3085 0120 83F83C20 		strb	r2, [r3, #60]
 3086 0124 0123     		movs	r3, #1
 3087 0126 32E0     		b	.L170
 3088              	.L176:
 3089 0128 FB68     		ldr	r3, [r7, #12]
 3090 012a 1B68     		ldr	r3, [r3]
 3091 012c 1A68     		ldr	r2, [r3]
 3092 012e FB68     		ldr	r3, [r7, #12]
 3093 0130 1B68     		ldr	r3, [r3]
 3094 0132 42F48062 		orr	r2, r2, #1024
 3095 0136 1A60     		str	r2, [r3]
 3096 0138 FB68     		ldr	r3, [r7, #12]
 3097 013a 0022     		movs	r2, #0
 3098 013c 83F83C20 		strb	r2, [r3, #60]
 3099 0140 FB68     		ldr	r3, [r7, #12]
 3100 0142 1B68     		ldr	r3, [r3]
 3101 0144 5A68     		ldr	r2, [r3, #4]
 3102 0146 FB68     		ldr	r3, [r7, #12]
 3103 0148 1B68     		ldr	r3, [r3]
 3104 014a 42F44072 		orr	r2, r2, #768
 3105 014e 5A60     		str	r2, [r3, #4]
 3106 0150 FB68     		ldr	r3, [r7, #12]
 3107 0152 1B68     		ldr	r3, [r3]
ARM GAS  C:\Users\user\AppData\Local\Temp\cchxWhRb.s 			page 55


 3108 0154 5A68     		ldr	r2, [r3, #4]
 3109 0156 FB68     		ldr	r3, [r7, #12]
 3110 0158 1B68     		ldr	r3, [r3]
 3111 015a 42F40062 		orr	r2, r2, #2048
 3112 015e 5A60     		str	r2, [r3, #4]
 3113 0160 0023     		movs	r3, #0
 3114 0162 14E0     		b	.L170
 3115              	.L175:
 3116 0164 FB68     		ldr	r3, [r7, #12]
 3117 0166 2022     		movs	r2, #32
 3118 0168 83F83D20 		strb	r2, [r3, #61]
 3119 016c FB68     		ldr	r3, [r7, #12]
 3120 016e 0022     		movs	r2, #0
 3121 0170 83F83E20 		strb	r2, [r3, #62]
 3122 0174 FB68     		ldr	r3, [r7, #12]
 3123 0176 1B6C     		ldr	r3, [r3, #64]
 3124 0178 43F01002 		orr	r2, r3, #16
 3125 017c FB68     		ldr	r3, [r7, #12]
 3126 017e 1A64     		str	r2, [r3, #64]
 3127 0180 FB68     		ldr	r3, [r7, #12]
 3128 0182 0022     		movs	r2, #0
 3129 0184 83F83C20 		strb	r2, [r3, #60]
 3130 0188 0123     		movs	r3, #1
 3131 018a 00E0     		b	.L170
 3132              	.L167:
 3133 018c 0223     		movs	r3, #2
 3134              	.L170:
 3135 018e 1846     		mov	r0, r3
 3136 0190 1837     		adds	r7, r7, #24
 3137 0192 BD46     		mov	sp, r7
 3138              		@ sp needed
 3139 0194 80BD     		pop	{r7, pc}
 3140              	.L178:
 3141 0196 00BF     		.align	2
 3142              	.L177:
 3143 0198 0000FFFF 		.word	-65536
 3144 019c 00000000 		.word	I2C_DMAXferCplt
 3145 01a0 00000000 		.word	I2C_DMAError
 3147              		.section	.text.HAL_I2C_Slave_Receive_DMA,"ax",%progbits
 3148              		.align	1
 3149              		.global	HAL_I2C_Slave_Receive_DMA
 3150              		.syntax unified
 3151              		.thumb
 3152              		.thumb_func
 3154              	HAL_I2C_Slave_Receive_DMA:
 3155              		@ args = 0, pretend = 0, frame = 24
 3156              		@ frame_needed = 1, uses_anonymous_args = 0
 3157 0000 80B5     		push	{r7, lr}
 3158 0002 86B0     		sub	sp, sp, #24
 3159 0004 00AF     		add	r7, sp, #0
 3160 0006 F860     		str	r0, [r7, #12]
 3161 0008 B960     		str	r1, [r7, #8]
 3162 000a 1346     		mov	r3, r2
 3163 000c FB80     		strh	r3, [r7, #6]	@ movhi
 3164 000e FB68     		ldr	r3, [r7, #12]
 3165 0010 93F83D30 		ldrb	r3, [r3, #61]
 3166 0014 DBB2     		uxtb	r3, r3
ARM GAS  C:\Users\user\AppData\Local\Temp\cchxWhRb.s 			page 56


 3167 0016 202B     		cmp	r3, #32
 3168 0018 40F0B880 		bne	.L180
 3169 001c BB68     		ldr	r3, [r7, #8]
 3170 001e 002B     		cmp	r3, #0
 3171 0020 02D0     		beq	.L181
 3172 0022 FB88     		ldrh	r3, [r7, #6]
 3173 0024 002B     		cmp	r3, #0
 3174 0026 01D1     		bne	.L182
 3175              	.L181:
 3176 0028 0123     		movs	r3, #1
 3177 002a B0E0     		b	.L183
 3178              	.L182:
 3179 002c FB68     		ldr	r3, [r7, #12]
 3180 002e 93F83C30 		ldrb	r3, [r3, #60]	@ zero_extendqisi2
 3181 0032 012B     		cmp	r3, #1
 3182 0034 01D1     		bne	.L184
 3183 0036 0223     		movs	r3, #2
 3184 0038 A9E0     		b	.L183
 3185              	.L184:
 3186 003a FB68     		ldr	r3, [r7, #12]
 3187 003c 0122     		movs	r2, #1
 3188 003e 83F83C20 		strb	r2, [r3, #60]
 3189 0042 FB68     		ldr	r3, [r7, #12]
 3190 0044 1B68     		ldr	r3, [r3]
 3191 0046 1B68     		ldr	r3, [r3]
 3192 0048 03F00103 		and	r3, r3, #1
 3193 004c 012B     		cmp	r3, #1
 3194 004e 07D0     		beq	.L185
 3195 0050 FB68     		ldr	r3, [r7, #12]
 3196 0052 1B68     		ldr	r3, [r3]
 3197 0054 1A68     		ldr	r2, [r3]
 3198 0056 FB68     		ldr	r3, [r7, #12]
 3199 0058 1B68     		ldr	r3, [r3]
 3200 005a 42F00102 		orr	r2, r2, #1
 3201 005e 1A60     		str	r2, [r3]
 3202              	.L185:
 3203 0060 FB68     		ldr	r3, [r7, #12]
 3204 0062 1B68     		ldr	r3, [r3]
 3205 0064 1A68     		ldr	r2, [r3]
 3206 0066 FB68     		ldr	r3, [r7, #12]
 3207 0068 1B68     		ldr	r3, [r3]
 3208 006a 22F40062 		bic	r2, r2, #2048
 3209 006e 1A60     		str	r2, [r3]
 3210 0070 FB68     		ldr	r3, [r7, #12]
 3211 0072 2222     		movs	r2, #34
 3212 0074 83F83D20 		strb	r2, [r3, #61]
 3213 0078 FB68     		ldr	r3, [r7, #12]
 3214 007a 2022     		movs	r2, #32
 3215 007c 83F83E20 		strb	r2, [r3, #62]
 3216 0080 FB68     		ldr	r3, [r7, #12]
 3217 0082 0022     		movs	r2, #0
 3218 0084 1A64     		str	r2, [r3, #64]
 3219 0086 FB68     		ldr	r3, [r7, #12]
 3220 0088 BA68     		ldr	r2, [r7, #8]
 3221 008a 5A62     		str	r2, [r3, #36]
 3222 008c FB68     		ldr	r3, [r7, #12]
 3223 008e FA88     		ldrh	r2, [r7, #6]	@ movhi
ARM GAS  C:\Users\user\AppData\Local\Temp\cchxWhRb.s 			page 57


 3224 0090 5A85     		strh	r2, [r3, #42]	@ movhi
 3225 0092 FB68     		ldr	r3, [r7, #12]
 3226 0094 5B8D     		ldrh	r3, [r3, #42]	@ movhi
 3227 0096 9AB2     		uxth	r2, r3
 3228 0098 FB68     		ldr	r3, [r7, #12]
 3229 009a 1A85     		strh	r2, [r3, #40]	@ movhi
 3230 009c FB68     		ldr	r3, [r7, #12]
 3231 009e 3E4A     		ldr	r2, .L190
 3232 00a0 DA62     		str	r2, [r3, #44]
 3233 00a2 FB68     		ldr	r3, [r7, #12]
 3234 00a4 9B6B     		ldr	r3, [r3, #56]
 3235 00a6 002B     		cmp	r3, #0
 3236 00a8 2AD0     		beq	.L186
 3237 00aa FB68     		ldr	r3, [r7, #12]
 3238 00ac 9B6B     		ldr	r3, [r3, #56]
 3239 00ae 3B4A     		ldr	r2, .L190+4
 3240 00b0 DA63     		str	r2, [r3, #60]
 3241 00b2 FB68     		ldr	r3, [r7, #12]
 3242 00b4 9B6B     		ldr	r3, [r3, #56]
 3243 00b6 3A4A     		ldr	r2, .L190+8
 3244 00b8 DA64     		str	r2, [r3, #76]
 3245 00ba FB68     		ldr	r3, [r7, #12]
 3246 00bc 9B6B     		ldr	r3, [r3, #56]
 3247 00be 0022     		movs	r2, #0
 3248 00c0 1A64     		str	r2, [r3, #64]
 3249 00c2 FB68     		ldr	r3, [r7, #12]
 3250 00c4 9B6B     		ldr	r3, [r3, #56]
 3251 00c6 0022     		movs	r2, #0
 3252 00c8 5A64     		str	r2, [r3, #68]
 3253 00ca FB68     		ldr	r3, [r7, #12]
 3254 00cc 9B6B     		ldr	r3, [r3, #56]
 3255 00ce 0022     		movs	r2, #0
 3256 00d0 9A64     		str	r2, [r3, #72]
 3257 00d2 FB68     		ldr	r3, [r7, #12]
 3258 00d4 9B6B     		ldr	r3, [r3, #56]
 3259 00d6 0022     		movs	r2, #0
 3260 00d8 1A65     		str	r2, [r3, #80]
 3261 00da FB68     		ldr	r3, [r7, #12]
 3262 00dc 986B     		ldr	r0, [r3, #56]
 3263 00de FB68     		ldr	r3, [r7, #12]
 3264 00e0 1B68     		ldr	r3, [r3]
 3265 00e2 1033     		adds	r3, r3, #16
 3266 00e4 1946     		mov	r1, r3
 3267 00e6 FB68     		ldr	r3, [r7, #12]
 3268 00e8 5B6A     		ldr	r3, [r3, #36]
 3269 00ea 1A46     		mov	r2, r3
 3270 00ec FB68     		ldr	r3, [r7, #12]
 3271 00ee 1B8D     		ldrh	r3, [r3, #40]
 3272 00f0 FFF7FEFF 		bl	HAL_DMA_Start_IT
 3273 00f4 0346     		mov	r3, r0
 3274 00f6 FB75     		strb	r3, [r7, #23]
 3275 00f8 FB7D     		ldrb	r3, [r7, #23]	@ zero_extendqisi2
 3276 00fa 002B     		cmp	r3, #0
 3277 00fc 32D1     		bne	.L188
 3278 00fe 13E0     		b	.L189
 3279              	.L186:
 3280 0100 FB68     		ldr	r3, [r7, #12]
ARM GAS  C:\Users\user\AppData\Local\Temp\cchxWhRb.s 			page 58


 3281 0102 2822     		movs	r2, #40
 3282 0104 83F83D20 		strb	r2, [r3, #61]
 3283 0108 FB68     		ldr	r3, [r7, #12]
 3284 010a 0022     		movs	r2, #0
 3285 010c 83F83E20 		strb	r2, [r3, #62]
 3286 0110 FB68     		ldr	r3, [r7, #12]
 3287 0112 1B6C     		ldr	r3, [r3, #64]
 3288 0114 43F08002 		orr	r2, r3, #128
 3289 0118 FB68     		ldr	r3, [r7, #12]
 3290 011a 1A64     		str	r2, [r3, #64]
 3291 011c FB68     		ldr	r3, [r7, #12]
 3292 011e 0022     		movs	r2, #0
 3293 0120 83F83C20 		strb	r2, [r3, #60]
 3294 0124 0123     		movs	r3, #1
 3295 0126 32E0     		b	.L183
 3296              	.L189:
 3297 0128 FB68     		ldr	r3, [r7, #12]
 3298 012a 1B68     		ldr	r3, [r3]
 3299 012c 1A68     		ldr	r2, [r3]
 3300 012e FB68     		ldr	r3, [r7, #12]
 3301 0130 1B68     		ldr	r3, [r3]
 3302 0132 42F48062 		orr	r2, r2, #1024
 3303 0136 1A60     		str	r2, [r3]
 3304 0138 FB68     		ldr	r3, [r7, #12]
 3305 013a 0022     		movs	r2, #0
 3306 013c 83F83C20 		strb	r2, [r3, #60]
 3307 0140 FB68     		ldr	r3, [r7, #12]
 3308 0142 1B68     		ldr	r3, [r3]
 3309 0144 5A68     		ldr	r2, [r3, #4]
 3310 0146 FB68     		ldr	r3, [r7, #12]
 3311 0148 1B68     		ldr	r3, [r3]
 3312 014a 42F44072 		orr	r2, r2, #768
 3313 014e 5A60     		str	r2, [r3, #4]
 3314 0150 FB68     		ldr	r3, [r7, #12]
 3315 0152 1B68     		ldr	r3, [r3]
 3316 0154 5A68     		ldr	r2, [r3, #4]
 3317 0156 FB68     		ldr	r3, [r7, #12]
 3318 0158 1B68     		ldr	r3, [r3]
 3319 015a 42F40062 		orr	r2, r2, #2048
 3320 015e 5A60     		str	r2, [r3, #4]
 3321 0160 0023     		movs	r3, #0
 3322 0162 14E0     		b	.L183
 3323              	.L188:
 3324 0164 FB68     		ldr	r3, [r7, #12]
 3325 0166 2022     		movs	r2, #32
 3326 0168 83F83D20 		strb	r2, [r3, #61]
 3327 016c FB68     		ldr	r3, [r7, #12]
 3328 016e 0022     		movs	r2, #0
 3329 0170 83F83E20 		strb	r2, [r3, #62]
 3330 0174 FB68     		ldr	r3, [r7, #12]
 3331 0176 1B6C     		ldr	r3, [r3, #64]
 3332 0178 43F01002 		orr	r2, r3, #16
 3333 017c FB68     		ldr	r3, [r7, #12]
 3334 017e 1A64     		str	r2, [r3, #64]
 3335 0180 FB68     		ldr	r3, [r7, #12]
 3336 0182 0022     		movs	r2, #0
 3337 0184 83F83C20 		strb	r2, [r3, #60]
ARM GAS  C:\Users\user\AppData\Local\Temp\cchxWhRb.s 			page 59


 3338 0188 0123     		movs	r3, #1
 3339 018a 00E0     		b	.L183
 3340              	.L180:
 3341 018c 0223     		movs	r3, #2
 3342              	.L183:
 3343 018e 1846     		mov	r0, r3
 3344 0190 1837     		adds	r7, r7, #24
 3345 0192 BD46     		mov	sp, r7
 3346              		@ sp needed
 3347 0194 80BD     		pop	{r7, pc}
 3348              	.L191:
 3349 0196 00BF     		.align	2
 3350              	.L190:
 3351 0198 0000FFFF 		.word	-65536
 3352 019c 00000000 		.word	I2C_DMAXferCplt
 3353 01a0 00000000 		.word	I2C_DMAError
 3355              		.section	.text.HAL_I2C_Mem_Write,"ax",%progbits
 3356              		.align	1
 3357              		.global	HAL_I2C_Mem_Write
 3358              		.syntax unified
 3359              		.thumb
 3360              		.thumb_func
 3362              	HAL_I2C_Mem_Write:
 3363              		@ args = 12, pretend = 0, frame = 24
 3364              		@ frame_needed = 1, uses_anonymous_args = 0
 3365 0000 80B5     		push	{r7, lr}
 3366 0002 88B0     		sub	sp, sp, #32
 3367 0004 02AF     		add	r7, sp, #8
 3368 0006 F860     		str	r0, [r7, #12]
 3369 0008 0846     		mov	r0, r1
 3370 000a 1146     		mov	r1, r2
 3371 000c 1A46     		mov	r2, r3
 3372 000e 0346     		mov	r3, r0	@ movhi
 3373 0010 7B81     		strh	r3, [r7, #10]	@ movhi
 3374 0012 0B46     		mov	r3, r1	@ movhi
 3375 0014 3B81     		strh	r3, [r7, #8]	@ movhi
 3376 0016 1346     		mov	r3, r2	@ movhi
 3377 0018 FB80     		strh	r3, [r7, #6]	@ movhi
 3378 001a FFF7FEFF 		bl	HAL_GetTick
 3379 001e 7861     		str	r0, [r7, #20]
 3380 0020 FB68     		ldr	r3, [r7, #12]
 3381 0022 93F83D30 		ldrb	r3, [r3, #61]
 3382 0026 DBB2     		uxtb	r3, r3
 3383 0028 202B     		cmp	r3, #32
 3384 002a 40F0D980 		bne	.L193
 3385 002e 7B69     		ldr	r3, [r7, #20]
 3386 0030 0093     		str	r3, [sp]
 3387 0032 1923     		movs	r3, #25
 3388 0034 0122     		movs	r2, #1
 3389 0036 6D49     		ldr	r1, .L206
 3390 0038 F868     		ldr	r0, [r7, #12]
 3391 003a FFF7FEFF 		bl	I2C_WaitOnFlagUntilTimeout
 3392 003e 0346     		mov	r3, r0
 3393 0040 002B     		cmp	r3, #0
 3394 0042 01D0     		beq	.L194
 3395 0044 0223     		movs	r3, #2
 3396 0046 CCE0     		b	.L195
ARM GAS  C:\Users\user\AppData\Local\Temp\cchxWhRb.s 			page 60


 3397              	.L194:
 3398 0048 FB68     		ldr	r3, [r7, #12]
 3399 004a 93F83C30 		ldrb	r3, [r3, #60]	@ zero_extendqisi2
 3400 004e 012B     		cmp	r3, #1
 3401 0050 01D1     		bne	.L196
 3402 0052 0223     		movs	r3, #2
 3403 0054 C5E0     		b	.L195
 3404              	.L196:
 3405 0056 FB68     		ldr	r3, [r7, #12]
 3406 0058 0122     		movs	r2, #1
 3407 005a 83F83C20 		strb	r2, [r3, #60]
 3408 005e FB68     		ldr	r3, [r7, #12]
 3409 0060 1B68     		ldr	r3, [r3]
 3410 0062 1B68     		ldr	r3, [r3]
 3411 0064 03F00103 		and	r3, r3, #1
 3412 0068 012B     		cmp	r3, #1
 3413 006a 07D0     		beq	.L197
 3414 006c FB68     		ldr	r3, [r7, #12]
 3415 006e 1B68     		ldr	r3, [r3]
 3416 0070 1A68     		ldr	r2, [r3]
 3417 0072 FB68     		ldr	r3, [r7, #12]
 3418 0074 1B68     		ldr	r3, [r3]
 3419 0076 42F00102 		orr	r2, r2, #1
 3420 007a 1A60     		str	r2, [r3]
 3421              	.L197:
 3422 007c FB68     		ldr	r3, [r7, #12]
 3423 007e 1B68     		ldr	r3, [r3]
 3424 0080 1A68     		ldr	r2, [r3]
 3425 0082 FB68     		ldr	r3, [r7, #12]
 3426 0084 1B68     		ldr	r3, [r3]
 3427 0086 22F40062 		bic	r2, r2, #2048
 3428 008a 1A60     		str	r2, [r3]
 3429 008c FB68     		ldr	r3, [r7, #12]
 3430 008e 2122     		movs	r2, #33
 3431 0090 83F83D20 		strb	r2, [r3, #61]
 3432 0094 FB68     		ldr	r3, [r7, #12]
 3433 0096 4022     		movs	r2, #64
 3434 0098 83F83E20 		strb	r2, [r3, #62]
 3435 009c FB68     		ldr	r3, [r7, #12]
 3436 009e 0022     		movs	r2, #0
 3437 00a0 1A64     		str	r2, [r3, #64]
 3438 00a2 FB68     		ldr	r3, [r7, #12]
 3439 00a4 3A6A     		ldr	r2, [r7, #32]
 3440 00a6 5A62     		str	r2, [r3, #36]
 3441 00a8 FB68     		ldr	r3, [r7, #12]
 3442 00aa BA8C     		ldrh	r2, [r7, #36]	@ movhi
 3443 00ac 5A85     		strh	r2, [r3, #42]	@ movhi
 3444 00ae FB68     		ldr	r3, [r7, #12]
 3445 00b0 5B8D     		ldrh	r3, [r3, #42]	@ movhi
 3446 00b2 9AB2     		uxth	r2, r3
 3447 00b4 FB68     		ldr	r3, [r7, #12]
 3448 00b6 1A85     		strh	r2, [r3, #40]	@ movhi
 3449 00b8 FB68     		ldr	r3, [r7, #12]
 3450 00ba 4D4A     		ldr	r2, .L206+4
 3451 00bc DA62     		str	r2, [r3, #44]
 3452 00be F888     		ldrh	r0, [r7, #6]
 3453 00c0 3A89     		ldrh	r2, [r7, #8]
ARM GAS  C:\Users\user\AppData\Local\Temp\cchxWhRb.s 			page 61


 3454 00c2 7989     		ldrh	r1, [r7, #10]
 3455 00c4 7B69     		ldr	r3, [r7, #20]
 3456 00c6 0193     		str	r3, [sp, #4]
 3457 00c8 BB6A     		ldr	r3, [r7, #40]
 3458 00ca 0093     		str	r3, [sp]
 3459 00cc 0346     		mov	r3, r0
 3460 00ce F868     		ldr	r0, [r7, #12]
 3461 00d0 FFF7FEFF 		bl	I2C_RequestMemoryWrite
 3462 00d4 0346     		mov	r3, r0
 3463 00d6 002B     		cmp	r3, #0
 3464 00d8 52D0     		beq	.L199
 3465 00da 0123     		movs	r3, #1
 3466 00dc 81E0     		b	.L195
 3467              	.L203:
 3468 00de 7A69     		ldr	r2, [r7, #20]
 3469 00e0 B96A     		ldr	r1, [r7, #40]
 3470 00e2 F868     		ldr	r0, [r7, #12]
 3471 00e4 FFF7FEFF 		bl	I2C_WaitOnTXEFlagUntilTimeout
 3472 00e8 0346     		mov	r3, r0
 3473 00ea 002B     		cmp	r3, #0
 3474 00ec 0DD0     		beq	.L200
 3475 00ee FB68     		ldr	r3, [r7, #12]
 3476 00f0 1B6C     		ldr	r3, [r3, #64]
 3477 00f2 042B     		cmp	r3, #4
 3478 00f4 07D1     		bne	.L201
 3479 00f6 FB68     		ldr	r3, [r7, #12]
 3480 00f8 1B68     		ldr	r3, [r3]
 3481 00fa 1A68     		ldr	r2, [r3]
 3482 00fc FB68     		ldr	r3, [r7, #12]
 3483 00fe 1B68     		ldr	r3, [r3]
 3484 0100 42F40072 		orr	r2, r2, #512
 3485 0104 1A60     		str	r2, [r3]
 3486              	.L201:
 3487 0106 0123     		movs	r3, #1
 3488 0108 6BE0     		b	.L195
 3489              	.L200:
 3490 010a FB68     		ldr	r3, [r7, #12]
 3491 010c 5B6A     		ldr	r3, [r3, #36]
 3492 010e 1A78     		ldrb	r2, [r3]	@ zero_extendqisi2
 3493 0110 FB68     		ldr	r3, [r7, #12]
 3494 0112 1B68     		ldr	r3, [r3]
 3495 0114 1A61     		str	r2, [r3, #16]
 3496 0116 FB68     		ldr	r3, [r7, #12]
 3497 0118 5B6A     		ldr	r3, [r3, #36]
 3498 011a 5A1C     		adds	r2, r3, #1
 3499 011c FB68     		ldr	r3, [r7, #12]
 3500 011e 5A62     		str	r2, [r3, #36]
 3501 0120 FB68     		ldr	r3, [r7, #12]
 3502 0122 1B8D     		ldrh	r3, [r3, #40]
 3503 0124 013B     		subs	r3, r3, #1
 3504 0126 9AB2     		uxth	r2, r3
 3505 0128 FB68     		ldr	r3, [r7, #12]
 3506 012a 1A85     		strh	r2, [r3, #40]	@ movhi
 3507 012c FB68     		ldr	r3, [r7, #12]
 3508 012e 5B8D     		ldrh	r3, [r3, #42]	@ movhi
 3509 0130 9BB2     		uxth	r3, r3
 3510 0132 013B     		subs	r3, r3, #1
ARM GAS  C:\Users\user\AppData\Local\Temp\cchxWhRb.s 			page 62


 3511 0134 9AB2     		uxth	r2, r3
 3512 0136 FB68     		ldr	r3, [r7, #12]
 3513 0138 5A85     		strh	r2, [r3, #42]	@ movhi
 3514 013a FB68     		ldr	r3, [r7, #12]
 3515 013c 1B68     		ldr	r3, [r3]
 3516 013e 5B69     		ldr	r3, [r3, #20]
 3517 0140 03F00403 		and	r3, r3, #4
 3518 0144 042B     		cmp	r3, #4
 3519 0146 1BD1     		bne	.L199
 3520 0148 FB68     		ldr	r3, [r7, #12]
 3521 014a 1B8D     		ldrh	r3, [r3, #40]
 3522 014c 002B     		cmp	r3, #0
 3523 014e 17D0     		beq	.L199
 3524 0150 FB68     		ldr	r3, [r7, #12]
 3525 0152 5B6A     		ldr	r3, [r3, #36]
 3526 0154 1A78     		ldrb	r2, [r3]	@ zero_extendqisi2
 3527 0156 FB68     		ldr	r3, [r7, #12]
 3528 0158 1B68     		ldr	r3, [r3]
 3529 015a 1A61     		str	r2, [r3, #16]
 3530 015c FB68     		ldr	r3, [r7, #12]
 3531 015e 5B6A     		ldr	r3, [r3, #36]
 3532 0160 5A1C     		adds	r2, r3, #1
 3533 0162 FB68     		ldr	r3, [r7, #12]
 3534 0164 5A62     		str	r2, [r3, #36]
 3535 0166 FB68     		ldr	r3, [r7, #12]
 3536 0168 1B8D     		ldrh	r3, [r3, #40]
 3537 016a 013B     		subs	r3, r3, #1
 3538 016c 9AB2     		uxth	r2, r3
 3539 016e FB68     		ldr	r3, [r7, #12]
 3540 0170 1A85     		strh	r2, [r3, #40]	@ movhi
 3541 0172 FB68     		ldr	r3, [r7, #12]
 3542 0174 5B8D     		ldrh	r3, [r3, #42]	@ movhi
 3543 0176 9BB2     		uxth	r3, r3
 3544 0178 013B     		subs	r3, r3, #1
 3545 017a 9AB2     		uxth	r2, r3
 3546 017c FB68     		ldr	r3, [r7, #12]
 3547 017e 5A85     		strh	r2, [r3, #42]	@ movhi
 3548              	.L199:
 3549 0180 FB68     		ldr	r3, [r7, #12]
 3550 0182 1B8D     		ldrh	r3, [r3, #40]
 3551 0184 002B     		cmp	r3, #0
 3552 0186 AAD1     		bne	.L203
 3553 0188 7A69     		ldr	r2, [r7, #20]
 3554 018a B96A     		ldr	r1, [r7, #40]
 3555 018c F868     		ldr	r0, [r7, #12]
 3556 018e FFF7FEFF 		bl	I2C_WaitOnBTFFlagUntilTimeout
 3557 0192 0346     		mov	r3, r0
 3558 0194 002B     		cmp	r3, #0
 3559 0196 0DD0     		beq	.L204
 3560 0198 FB68     		ldr	r3, [r7, #12]
 3561 019a 1B6C     		ldr	r3, [r3, #64]
 3562 019c 042B     		cmp	r3, #4
 3563 019e 07D1     		bne	.L205
 3564 01a0 FB68     		ldr	r3, [r7, #12]
 3565 01a2 1B68     		ldr	r3, [r3]
 3566 01a4 1A68     		ldr	r2, [r3]
 3567 01a6 FB68     		ldr	r3, [r7, #12]
ARM GAS  C:\Users\user\AppData\Local\Temp\cchxWhRb.s 			page 63


 3568 01a8 1B68     		ldr	r3, [r3]
 3569 01aa 42F40072 		orr	r2, r2, #512
 3570 01ae 1A60     		str	r2, [r3]
 3571              	.L205:
 3572 01b0 0123     		movs	r3, #1
 3573 01b2 16E0     		b	.L195
 3574              	.L204:
 3575 01b4 FB68     		ldr	r3, [r7, #12]
 3576 01b6 1B68     		ldr	r3, [r3]
 3577 01b8 1A68     		ldr	r2, [r3]
 3578 01ba FB68     		ldr	r3, [r7, #12]
 3579 01bc 1B68     		ldr	r3, [r3]
 3580 01be 42F40072 		orr	r2, r2, #512
 3581 01c2 1A60     		str	r2, [r3]
 3582 01c4 FB68     		ldr	r3, [r7, #12]
 3583 01c6 2022     		movs	r2, #32
 3584 01c8 83F83D20 		strb	r2, [r3, #61]
 3585 01cc FB68     		ldr	r3, [r7, #12]
 3586 01ce 0022     		movs	r2, #0
 3587 01d0 83F83E20 		strb	r2, [r3, #62]
 3588 01d4 FB68     		ldr	r3, [r7, #12]
 3589 01d6 0022     		movs	r2, #0
 3590 01d8 83F83C20 		strb	r2, [r3, #60]
 3591 01dc 0023     		movs	r3, #0
 3592 01de 00E0     		b	.L195
 3593              	.L193:
 3594 01e0 0223     		movs	r3, #2
 3595              	.L195:
 3596 01e2 1846     		mov	r0, r3
 3597 01e4 1837     		adds	r7, r7, #24
 3598 01e6 BD46     		mov	sp, r7
 3599              		@ sp needed
 3600 01e8 80BD     		pop	{r7, pc}
 3601              	.L207:
 3602 01ea 00BF     		.align	2
 3603              	.L206:
 3604 01ec 02001000 		.word	1048578
 3605 01f0 0000FFFF 		.word	-65536
 3607              		.section	.text.HAL_I2C_Mem_Read,"ax",%progbits
 3608              		.align	1
 3609              		.global	HAL_I2C_Mem_Read
 3610              		.syntax unified
 3611              		.thumb
 3612              		.thumb_func
 3614              	HAL_I2C_Mem_Read:
 3615              		@ args = 12, pretend = 0, frame = 40
 3616              		@ frame_needed = 1, uses_anonymous_args = 0
 3617 0000 80B5     		push	{r7, lr}
 3618 0002 8CB0     		sub	sp, sp, #48
 3619 0004 02AF     		add	r7, sp, #8
 3620 0006 F860     		str	r0, [r7, #12]
 3621 0008 0846     		mov	r0, r1
 3622 000a 1146     		mov	r1, r2
 3623 000c 1A46     		mov	r2, r3
 3624 000e 0346     		mov	r3, r0	@ movhi
 3625 0010 7B81     		strh	r3, [r7, #10]	@ movhi
 3626 0012 0B46     		mov	r3, r1	@ movhi
ARM GAS  C:\Users\user\AppData\Local\Temp\cchxWhRb.s 			page 64


 3627 0014 3B81     		strh	r3, [r7, #8]	@ movhi
 3628 0016 1346     		mov	r3, r2	@ movhi
 3629 0018 FB80     		strh	r3, [r7, #6]	@ movhi
 3630 001a FFF7FEFF 		bl	HAL_GetTick
 3631 001e 7862     		str	r0, [r7, #36]
 3632 0020 FB68     		ldr	r3, [r7, #12]
 3633 0022 93F83D30 		ldrb	r3, [r3, #61]
 3634 0026 DBB2     		uxtb	r3, r3
 3635 0028 202B     		cmp	r3, #32
 3636 002a 40F00882 		bne	.L209
 3637 002e 7B6A     		ldr	r3, [r7, #36]
 3638 0030 0093     		str	r3, [sp]
 3639 0032 1923     		movs	r3, #25
 3640 0034 0122     		movs	r2, #1
 3641 0036 7B49     		ldr	r1, .L230
 3642 0038 F868     		ldr	r0, [r7, #12]
 3643 003a FFF7FEFF 		bl	I2C_WaitOnFlagUntilTimeout
 3644 003e 0346     		mov	r3, r0
 3645 0040 002B     		cmp	r3, #0
 3646 0042 01D0     		beq	.L210
 3647 0044 0223     		movs	r3, #2
 3648 0046 FBE1     		b	.L211
 3649              	.L210:
 3650 0048 FB68     		ldr	r3, [r7, #12]
 3651 004a 93F83C30 		ldrb	r3, [r3, #60]	@ zero_extendqisi2
 3652 004e 012B     		cmp	r3, #1
 3653 0050 01D1     		bne	.L212
 3654 0052 0223     		movs	r3, #2
 3655 0054 F4E1     		b	.L211
 3656              	.L212:
 3657 0056 FB68     		ldr	r3, [r7, #12]
 3658 0058 0122     		movs	r2, #1
 3659 005a 83F83C20 		strb	r2, [r3, #60]
 3660 005e FB68     		ldr	r3, [r7, #12]
 3661 0060 1B68     		ldr	r3, [r3]
 3662 0062 1B68     		ldr	r3, [r3]
 3663 0064 03F00103 		and	r3, r3, #1
 3664 0068 012B     		cmp	r3, #1
 3665 006a 07D0     		beq	.L213
 3666 006c FB68     		ldr	r3, [r7, #12]
 3667 006e 1B68     		ldr	r3, [r3]
 3668 0070 1A68     		ldr	r2, [r3]
 3669 0072 FB68     		ldr	r3, [r7, #12]
 3670 0074 1B68     		ldr	r3, [r3]
 3671 0076 42F00102 		orr	r2, r2, #1
 3672 007a 1A60     		str	r2, [r3]
 3673              	.L213:
 3674 007c FB68     		ldr	r3, [r7, #12]
 3675 007e 1B68     		ldr	r3, [r3]
 3676 0080 1A68     		ldr	r2, [r3]
 3677 0082 FB68     		ldr	r3, [r7, #12]
 3678 0084 1B68     		ldr	r3, [r3]
 3679 0086 22F40062 		bic	r2, r2, #2048
 3680 008a 1A60     		str	r2, [r3]
 3681 008c FB68     		ldr	r3, [r7, #12]
 3682 008e 2222     		movs	r2, #34
 3683 0090 83F83D20 		strb	r2, [r3, #61]
ARM GAS  C:\Users\user\AppData\Local\Temp\cchxWhRb.s 			page 65


 3684 0094 FB68     		ldr	r3, [r7, #12]
 3685 0096 4022     		movs	r2, #64
 3686 0098 83F83E20 		strb	r2, [r3, #62]
 3687 009c FB68     		ldr	r3, [r7, #12]
 3688 009e 0022     		movs	r2, #0
 3689 00a0 1A64     		str	r2, [r3, #64]
 3690 00a2 FB68     		ldr	r3, [r7, #12]
 3691 00a4 3A6B     		ldr	r2, [r7, #48]
 3692 00a6 5A62     		str	r2, [r3, #36]
 3693 00a8 FB68     		ldr	r3, [r7, #12]
 3694 00aa BA8E     		ldrh	r2, [r7, #52]	@ movhi
 3695 00ac 5A85     		strh	r2, [r3, #42]	@ movhi
 3696 00ae FB68     		ldr	r3, [r7, #12]
 3697 00b0 5B8D     		ldrh	r3, [r3, #42]	@ movhi
 3698 00b2 9AB2     		uxth	r2, r3
 3699 00b4 FB68     		ldr	r3, [r7, #12]
 3700 00b6 1A85     		strh	r2, [r3, #40]	@ movhi
 3701 00b8 FB68     		ldr	r3, [r7, #12]
 3702 00ba 5B4A     		ldr	r2, .L230+4
 3703 00bc DA62     		str	r2, [r3, #44]
 3704 00be F888     		ldrh	r0, [r7, #6]
 3705 00c0 3A89     		ldrh	r2, [r7, #8]
 3706 00c2 7989     		ldrh	r1, [r7, #10]
 3707 00c4 7B6A     		ldr	r3, [r7, #36]
 3708 00c6 0193     		str	r3, [sp, #4]
 3709 00c8 BB6B     		ldr	r3, [r7, #56]
 3710 00ca 0093     		str	r3, [sp]
 3711 00cc 0346     		mov	r3, r0
 3712 00ce F868     		ldr	r0, [r7, #12]
 3713 00d0 FFF7FEFF 		bl	I2C_RequestMemoryRead
 3714 00d4 0346     		mov	r3, r0
 3715 00d6 002B     		cmp	r3, #0
 3716 00d8 01D0     		beq	.L214
 3717 00da 0123     		movs	r3, #1
 3718 00dc B0E1     		b	.L211
 3719              	.L214:
 3720 00de FB68     		ldr	r3, [r7, #12]
 3721 00e0 1B8D     		ldrh	r3, [r3, #40]
 3722 00e2 002B     		cmp	r3, #0
 3723 00e4 13D1     		bne	.L215
 3724 00e6 0023     		movs	r3, #0
 3725 00e8 3B62     		str	r3, [r7, #32]
 3726 00ea FB68     		ldr	r3, [r7, #12]
 3727 00ec 1B68     		ldr	r3, [r3]
 3728 00ee 5B69     		ldr	r3, [r3, #20]
 3729 00f0 3B62     		str	r3, [r7, #32]
 3730 00f2 FB68     		ldr	r3, [r7, #12]
 3731 00f4 1B68     		ldr	r3, [r3]
 3732 00f6 9B69     		ldr	r3, [r3, #24]
 3733 00f8 3B62     		str	r3, [r7, #32]
 3734 00fa 3B6A     		ldr	r3, [r7, #32]
 3735 00fc FB68     		ldr	r3, [r7, #12]
 3736 00fe 1B68     		ldr	r3, [r3]
 3737 0100 1A68     		ldr	r2, [r3]
 3738 0102 FB68     		ldr	r3, [r7, #12]
 3739 0104 1B68     		ldr	r3, [r3]
 3740 0106 42F40072 		orr	r2, r2, #512
ARM GAS  C:\Users\user\AppData\Local\Temp\cchxWhRb.s 			page 66


 3741 010a 1A60     		str	r2, [r3]
 3742 010c 84E1     		b	.L219
 3743              	.L215:
 3744 010e FB68     		ldr	r3, [r7, #12]
 3745 0110 1B8D     		ldrh	r3, [r3, #40]
 3746 0112 012B     		cmp	r3, #1
 3747 0114 1BD1     		bne	.L217
 3748 0116 FB68     		ldr	r3, [r7, #12]
 3749 0118 1B68     		ldr	r3, [r3]
 3750 011a 1A68     		ldr	r2, [r3]
 3751 011c FB68     		ldr	r3, [r7, #12]
 3752 011e 1B68     		ldr	r3, [r3]
 3753 0120 22F48062 		bic	r2, r2, #1024
 3754 0124 1A60     		str	r2, [r3]
 3755 0126 0023     		movs	r3, #0
 3756 0128 FB61     		str	r3, [r7, #28]
 3757 012a FB68     		ldr	r3, [r7, #12]
 3758 012c 1B68     		ldr	r3, [r3]
 3759 012e 5B69     		ldr	r3, [r3, #20]
 3760 0130 FB61     		str	r3, [r7, #28]
 3761 0132 FB68     		ldr	r3, [r7, #12]
 3762 0134 1B68     		ldr	r3, [r3]
 3763 0136 9B69     		ldr	r3, [r3, #24]
 3764 0138 FB61     		str	r3, [r7, #28]
 3765 013a FB69     		ldr	r3, [r7, #28]
 3766 013c FB68     		ldr	r3, [r7, #12]
 3767 013e 1B68     		ldr	r3, [r3]
 3768 0140 1A68     		ldr	r2, [r3]
 3769 0142 FB68     		ldr	r3, [r7, #12]
 3770 0144 1B68     		ldr	r3, [r3]
 3771 0146 42F40072 		orr	r2, r2, #512
 3772 014a 1A60     		str	r2, [r3]
 3773 014c 64E1     		b	.L219
 3774              	.L217:
 3775 014e FB68     		ldr	r3, [r7, #12]
 3776 0150 1B8D     		ldrh	r3, [r3, #40]
 3777 0152 022B     		cmp	r3, #2
 3778 0154 1BD1     		bne	.L218
 3779 0156 FB68     		ldr	r3, [r7, #12]
 3780 0158 1B68     		ldr	r3, [r3]
 3781 015a 1A68     		ldr	r2, [r3]
 3782 015c FB68     		ldr	r3, [r7, #12]
 3783 015e 1B68     		ldr	r3, [r3]
 3784 0160 22F48062 		bic	r2, r2, #1024
 3785 0164 1A60     		str	r2, [r3]
 3786 0166 FB68     		ldr	r3, [r7, #12]
 3787 0168 1B68     		ldr	r3, [r3]
 3788 016a 1A68     		ldr	r2, [r3]
 3789 016c FB68     		ldr	r3, [r7, #12]
 3790 016e 1B68     		ldr	r3, [r3]
 3791 0170 42F40062 		orr	r2, r2, #2048
 3792 0174 1A60     		str	r2, [r3]
 3793 0176 0023     		movs	r3, #0
 3794 0178 BB61     		str	r3, [r7, #24]
 3795 017a FB68     		ldr	r3, [r7, #12]
 3796 017c 1B68     		ldr	r3, [r3]
 3797 017e 5B69     		ldr	r3, [r3, #20]
ARM GAS  C:\Users\user\AppData\Local\Temp\cchxWhRb.s 			page 67


 3798 0180 BB61     		str	r3, [r7, #24]
 3799 0182 FB68     		ldr	r3, [r7, #12]
 3800 0184 1B68     		ldr	r3, [r3]
 3801 0186 9B69     		ldr	r3, [r3, #24]
 3802 0188 BB61     		str	r3, [r7, #24]
 3803 018a BB69     		ldr	r3, [r7, #24]
 3804 018c 44E1     		b	.L219
 3805              	.L218:
 3806 018e 0023     		movs	r3, #0
 3807 0190 7B61     		str	r3, [r7, #20]
 3808 0192 FB68     		ldr	r3, [r7, #12]
 3809 0194 1B68     		ldr	r3, [r3]
 3810 0196 5B69     		ldr	r3, [r3, #20]
 3811 0198 7B61     		str	r3, [r7, #20]
 3812 019a FB68     		ldr	r3, [r7, #12]
 3813 019c 1B68     		ldr	r3, [r3]
 3814 019e 9B69     		ldr	r3, [r3, #24]
 3815 01a0 7B61     		str	r3, [r7, #20]
 3816 01a2 7B69     		ldr	r3, [r7, #20]
 3817 01a4 38E1     		b	.L219
 3818              	.L229:
 3819 01a6 FB68     		ldr	r3, [r7, #12]
 3820 01a8 1B8D     		ldrh	r3, [r3, #40]
 3821 01aa 032B     		cmp	r3, #3
 3822 01ac 00F2F180 		bhi	.L220
 3823 01b0 FB68     		ldr	r3, [r7, #12]
 3824 01b2 1B8D     		ldrh	r3, [r3, #40]
 3825 01b4 012B     		cmp	r3, #1
 3826 01b6 23D1     		bne	.L221
 3827 01b8 7A6A     		ldr	r2, [r7, #36]
 3828 01ba B96B     		ldr	r1, [r7, #56]
 3829 01bc F868     		ldr	r0, [r7, #12]
 3830 01be FFF7FEFF 		bl	I2C_WaitOnRXNEFlagUntilTimeout
 3831 01c2 0346     		mov	r3, r0
 3832 01c4 002B     		cmp	r3, #0
 3833 01c6 01D0     		beq	.L222
 3834 01c8 0123     		movs	r3, #1
 3835 01ca 39E1     		b	.L211
 3836              	.L222:
 3837 01cc FB68     		ldr	r3, [r7, #12]
 3838 01ce 1B68     		ldr	r3, [r3]
 3839 01d0 1A69     		ldr	r2, [r3, #16]
 3840 01d2 FB68     		ldr	r3, [r7, #12]
 3841 01d4 5B6A     		ldr	r3, [r3, #36]
 3842 01d6 D2B2     		uxtb	r2, r2
 3843 01d8 1A70     		strb	r2, [r3]
 3844 01da FB68     		ldr	r3, [r7, #12]
 3845 01dc 5B6A     		ldr	r3, [r3, #36]
 3846 01de 5A1C     		adds	r2, r3, #1
 3847 01e0 FB68     		ldr	r3, [r7, #12]
 3848 01e2 5A62     		str	r2, [r3, #36]
 3849 01e4 FB68     		ldr	r3, [r7, #12]
 3850 01e6 1B8D     		ldrh	r3, [r3, #40]
 3851 01e8 013B     		subs	r3, r3, #1
 3852 01ea 9AB2     		uxth	r2, r3
 3853 01ec FB68     		ldr	r3, [r7, #12]
 3854 01ee 1A85     		strh	r2, [r3, #40]	@ movhi
ARM GAS  C:\Users\user\AppData\Local\Temp\cchxWhRb.s 			page 68


 3855 01f0 FB68     		ldr	r3, [r7, #12]
 3856 01f2 5B8D     		ldrh	r3, [r3, #42]	@ movhi
 3857 01f4 9BB2     		uxth	r3, r3
 3858 01f6 013B     		subs	r3, r3, #1
 3859 01f8 9AB2     		uxth	r2, r3
 3860 01fa FB68     		ldr	r3, [r7, #12]
 3861 01fc 5A85     		strh	r2, [r3, #42]	@ movhi
 3862 01fe 0BE1     		b	.L219
 3863              	.L221:
 3864 0200 FB68     		ldr	r3, [r7, #12]
 3865 0202 1B8D     		ldrh	r3, [r3, #40]
 3866 0204 022B     		cmp	r3, #2
 3867 0206 4ED1     		bne	.L224
 3868 0208 7B6A     		ldr	r3, [r7, #36]
 3869 020a 0093     		str	r3, [sp]
 3870 020c BB6B     		ldr	r3, [r7, #56]
 3871 020e 0022     		movs	r2, #0
 3872 0210 0649     		ldr	r1, .L230+8
 3873 0212 F868     		ldr	r0, [r7, #12]
 3874 0214 FFF7FEFF 		bl	I2C_WaitOnFlagUntilTimeout
 3875 0218 0346     		mov	r3, r0
 3876 021a 002B     		cmp	r3, #0
 3877 021c 08D0     		beq	.L225
 3878 021e 0123     		movs	r3, #1
 3879 0220 0EE1     		b	.L211
 3880              	.L231:
 3881 0222 00BF     		.align	2
 3882              	.L230:
 3883 0224 02001000 		.word	1048578
 3884 0228 0000FFFF 		.word	-65536
 3885 022c 04000100 		.word	65540
 3886              	.L225:
 3887 0230 FB68     		ldr	r3, [r7, #12]
 3888 0232 1B68     		ldr	r3, [r3]
 3889 0234 1A68     		ldr	r2, [r3]
 3890 0236 FB68     		ldr	r3, [r7, #12]
 3891 0238 1B68     		ldr	r3, [r3]
 3892 023a 42F40072 		orr	r2, r2, #512
 3893 023e 1A60     		str	r2, [r3]
 3894 0240 FB68     		ldr	r3, [r7, #12]
 3895 0242 1B68     		ldr	r3, [r3]
 3896 0244 1A69     		ldr	r2, [r3, #16]
 3897 0246 FB68     		ldr	r3, [r7, #12]
 3898 0248 5B6A     		ldr	r3, [r3, #36]
 3899 024a D2B2     		uxtb	r2, r2
 3900 024c 1A70     		strb	r2, [r3]
 3901 024e FB68     		ldr	r3, [r7, #12]
 3902 0250 5B6A     		ldr	r3, [r3, #36]
 3903 0252 5A1C     		adds	r2, r3, #1
 3904 0254 FB68     		ldr	r3, [r7, #12]
 3905 0256 5A62     		str	r2, [r3, #36]
 3906 0258 FB68     		ldr	r3, [r7, #12]
 3907 025a 1B8D     		ldrh	r3, [r3, #40]
 3908 025c 013B     		subs	r3, r3, #1
 3909 025e 9AB2     		uxth	r2, r3
 3910 0260 FB68     		ldr	r3, [r7, #12]
 3911 0262 1A85     		strh	r2, [r3, #40]	@ movhi
ARM GAS  C:\Users\user\AppData\Local\Temp\cchxWhRb.s 			page 69


 3912 0264 FB68     		ldr	r3, [r7, #12]
 3913 0266 5B8D     		ldrh	r3, [r3, #42]	@ movhi
 3914 0268 9BB2     		uxth	r3, r3
 3915 026a 013B     		subs	r3, r3, #1
 3916 026c 9AB2     		uxth	r2, r3
 3917 026e FB68     		ldr	r3, [r7, #12]
 3918 0270 5A85     		strh	r2, [r3, #42]	@ movhi
 3919 0272 FB68     		ldr	r3, [r7, #12]
 3920 0274 1B68     		ldr	r3, [r3]
 3921 0276 1A69     		ldr	r2, [r3, #16]
 3922 0278 FB68     		ldr	r3, [r7, #12]
 3923 027a 5B6A     		ldr	r3, [r3, #36]
 3924 027c D2B2     		uxtb	r2, r2
 3925 027e 1A70     		strb	r2, [r3]
 3926 0280 FB68     		ldr	r3, [r7, #12]
 3927 0282 5B6A     		ldr	r3, [r3, #36]
 3928 0284 5A1C     		adds	r2, r3, #1
 3929 0286 FB68     		ldr	r3, [r7, #12]
 3930 0288 5A62     		str	r2, [r3, #36]
 3931 028a FB68     		ldr	r3, [r7, #12]
 3932 028c 1B8D     		ldrh	r3, [r3, #40]
 3933 028e 013B     		subs	r3, r3, #1
 3934 0290 9AB2     		uxth	r2, r3
 3935 0292 FB68     		ldr	r3, [r7, #12]
 3936 0294 1A85     		strh	r2, [r3, #40]	@ movhi
 3937 0296 FB68     		ldr	r3, [r7, #12]
 3938 0298 5B8D     		ldrh	r3, [r3, #42]	@ movhi
 3939 029a 9BB2     		uxth	r3, r3
 3940 029c 013B     		subs	r3, r3, #1
 3941 029e 9AB2     		uxth	r2, r3
 3942 02a0 FB68     		ldr	r3, [r7, #12]
 3943 02a2 5A85     		strh	r2, [r3, #42]	@ movhi
 3944 02a4 B8E0     		b	.L219
 3945              	.L224:
 3946 02a6 7B6A     		ldr	r3, [r7, #36]
 3947 02a8 0093     		str	r3, [sp]
 3948 02aa BB6B     		ldr	r3, [r7, #56]
 3949 02ac 0022     		movs	r2, #0
 3950 02ae 6649     		ldr	r1, .L232
 3951 02b0 F868     		ldr	r0, [r7, #12]
 3952 02b2 FFF7FEFF 		bl	I2C_WaitOnFlagUntilTimeout
 3953 02b6 0346     		mov	r3, r0
 3954 02b8 002B     		cmp	r3, #0
 3955 02ba 01D0     		beq	.L226
 3956 02bc 0123     		movs	r3, #1
 3957 02be BFE0     		b	.L211
 3958              	.L226:
 3959 02c0 FB68     		ldr	r3, [r7, #12]
 3960 02c2 1B68     		ldr	r3, [r3]
 3961 02c4 1A68     		ldr	r2, [r3]
 3962 02c6 FB68     		ldr	r3, [r7, #12]
 3963 02c8 1B68     		ldr	r3, [r3]
 3964 02ca 22F48062 		bic	r2, r2, #1024
 3965 02ce 1A60     		str	r2, [r3]
 3966 02d0 FB68     		ldr	r3, [r7, #12]
 3967 02d2 1B68     		ldr	r3, [r3]
 3968 02d4 1A69     		ldr	r2, [r3, #16]
ARM GAS  C:\Users\user\AppData\Local\Temp\cchxWhRb.s 			page 70


 3969 02d6 FB68     		ldr	r3, [r7, #12]
 3970 02d8 5B6A     		ldr	r3, [r3, #36]
 3971 02da D2B2     		uxtb	r2, r2
 3972 02dc 1A70     		strb	r2, [r3]
 3973 02de FB68     		ldr	r3, [r7, #12]
 3974 02e0 5B6A     		ldr	r3, [r3, #36]
 3975 02e2 5A1C     		adds	r2, r3, #1
 3976 02e4 FB68     		ldr	r3, [r7, #12]
 3977 02e6 5A62     		str	r2, [r3, #36]
 3978 02e8 FB68     		ldr	r3, [r7, #12]
 3979 02ea 1B8D     		ldrh	r3, [r3, #40]
 3980 02ec 013B     		subs	r3, r3, #1
 3981 02ee 9AB2     		uxth	r2, r3
 3982 02f0 FB68     		ldr	r3, [r7, #12]
 3983 02f2 1A85     		strh	r2, [r3, #40]	@ movhi
 3984 02f4 FB68     		ldr	r3, [r7, #12]
 3985 02f6 5B8D     		ldrh	r3, [r3, #42]	@ movhi
 3986 02f8 9BB2     		uxth	r3, r3
 3987 02fa 013B     		subs	r3, r3, #1
 3988 02fc 9AB2     		uxth	r2, r3
 3989 02fe FB68     		ldr	r3, [r7, #12]
 3990 0300 5A85     		strh	r2, [r3, #42]	@ movhi
 3991 0302 7B6A     		ldr	r3, [r7, #36]
 3992 0304 0093     		str	r3, [sp]
 3993 0306 BB6B     		ldr	r3, [r7, #56]
 3994 0308 0022     		movs	r2, #0
 3995 030a 4F49     		ldr	r1, .L232
 3996 030c F868     		ldr	r0, [r7, #12]
 3997 030e FFF7FEFF 		bl	I2C_WaitOnFlagUntilTimeout
 3998 0312 0346     		mov	r3, r0
 3999 0314 002B     		cmp	r3, #0
 4000 0316 01D0     		beq	.L227
 4001 0318 0123     		movs	r3, #1
 4002 031a 91E0     		b	.L211
 4003              	.L227:
 4004 031c FB68     		ldr	r3, [r7, #12]
 4005 031e 1B68     		ldr	r3, [r3]
 4006 0320 1A68     		ldr	r2, [r3]
 4007 0322 FB68     		ldr	r3, [r7, #12]
 4008 0324 1B68     		ldr	r3, [r3]
 4009 0326 42F40072 		orr	r2, r2, #512
 4010 032a 1A60     		str	r2, [r3]
 4011 032c FB68     		ldr	r3, [r7, #12]
 4012 032e 1B68     		ldr	r3, [r3]
 4013 0330 1A69     		ldr	r2, [r3, #16]
 4014 0332 FB68     		ldr	r3, [r7, #12]
 4015 0334 5B6A     		ldr	r3, [r3, #36]
 4016 0336 D2B2     		uxtb	r2, r2
 4017 0338 1A70     		strb	r2, [r3]
 4018 033a FB68     		ldr	r3, [r7, #12]
 4019 033c 5B6A     		ldr	r3, [r3, #36]
 4020 033e 5A1C     		adds	r2, r3, #1
 4021 0340 FB68     		ldr	r3, [r7, #12]
 4022 0342 5A62     		str	r2, [r3, #36]
 4023 0344 FB68     		ldr	r3, [r7, #12]
 4024 0346 1B8D     		ldrh	r3, [r3, #40]
 4025 0348 013B     		subs	r3, r3, #1
ARM GAS  C:\Users\user\AppData\Local\Temp\cchxWhRb.s 			page 71


 4026 034a 9AB2     		uxth	r2, r3
 4027 034c FB68     		ldr	r3, [r7, #12]
 4028 034e 1A85     		strh	r2, [r3, #40]	@ movhi
 4029 0350 FB68     		ldr	r3, [r7, #12]
 4030 0352 5B8D     		ldrh	r3, [r3, #42]	@ movhi
 4031 0354 9BB2     		uxth	r3, r3
 4032 0356 013B     		subs	r3, r3, #1
 4033 0358 9AB2     		uxth	r2, r3
 4034 035a FB68     		ldr	r3, [r7, #12]
 4035 035c 5A85     		strh	r2, [r3, #42]	@ movhi
 4036 035e FB68     		ldr	r3, [r7, #12]
 4037 0360 1B68     		ldr	r3, [r3]
 4038 0362 1A69     		ldr	r2, [r3, #16]
 4039 0364 FB68     		ldr	r3, [r7, #12]
 4040 0366 5B6A     		ldr	r3, [r3, #36]
 4041 0368 D2B2     		uxtb	r2, r2
 4042 036a 1A70     		strb	r2, [r3]
 4043 036c FB68     		ldr	r3, [r7, #12]
 4044 036e 5B6A     		ldr	r3, [r3, #36]
 4045 0370 5A1C     		adds	r2, r3, #1
 4046 0372 FB68     		ldr	r3, [r7, #12]
 4047 0374 5A62     		str	r2, [r3, #36]
 4048 0376 FB68     		ldr	r3, [r7, #12]
 4049 0378 1B8D     		ldrh	r3, [r3, #40]
 4050 037a 013B     		subs	r3, r3, #1
 4051 037c 9AB2     		uxth	r2, r3
 4052 037e FB68     		ldr	r3, [r7, #12]
 4053 0380 1A85     		strh	r2, [r3, #40]	@ movhi
 4054 0382 FB68     		ldr	r3, [r7, #12]
 4055 0384 5B8D     		ldrh	r3, [r3, #42]	@ movhi
 4056 0386 9BB2     		uxth	r3, r3
 4057 0388 013B     		subs	r3, r3, #1
 4058 038a 9AB2     		uxth	r2, r3
 4059 038c FB68     		ldr	r3, [r7, #12]
 4060 038e 5A85     		strh	r2, [r3, #42]	@ movhi
 4061 0390 42E0     		b	.L219
 4062              	.L220:
 4063 0392 7A6A     		ldr	r2, [r7, #36]
 4064 0394 B96B     		ldr	r1, [r7, #56]
 4065 0396 F868     		ldr	r0, [r7, #12]
 4066 0398 FFF7FEFF 		bl	I2C_WaitOnRXNEFlagUntilTimeout
 4067 039c 0346     		mov	r3, r0
 4068 039e 002B     		cmp	r3, #0
 4069 03a0 01D0     		beq	.L228
 4070 03a2 0123     		movs	r3, #1
 4071 03a4 4CE0     		b	.L211
 4072              	.L228:
 4073 03a6 FB68     		ldr	r3, [r7, #12]
 4074 03a8 1B68     		ldr	r3, [r3]
 4075 03aa 1A69     		ldr	r2, [r3, #16]
 4076 03ac FB68     		ldr	r3, [r7, #12]
 4077 03ae 5B6A     		ldr	r3, [r3, #36]
 4078 03b0 D2B2     		uxtb	r2, r2
 4079 03b2 1A70     		strb	r2, [r3]
 4080 03b4 FB68     		ldr	r3, [r7, #12]
 4081 03b6 5B6A     		ldr	r3, [r3, #36]
 4082 03b8 5A1C     		adds	r2, r3, #1
ARM GAS  C:\Users\user\AppData\Local\Temp\cchxWhRb.s 			page 72


 4083 03ba FB68     		ldr	r3, [r7, #12]
 4084 03bc 5A62     		str	r2, [r3, #36]
 4085 03be FB68     		ldr	r3, [r7, #12]
 4086 03c0 1B8D     		ldrh	r3, [r3, #40]
 4087 03c2 013B     		subs	r3, r3, #1
 4088 03c4 9AB2     		uxth	r2, r3
 4089 03c6 FB68     		ldr	r3, [r7, #12]
 4090 03c8 1A85     		strh	r2, [r3, #40]	@ movhi
 4091 03ca FB68     		ldr	r3, [r7, #12]
 4092 03cc 5B8D     		ldrh	r3, [r3, #42]	@ movhi
 4093 03ce 9BB2     		uxth	r3, r3
 4094 03d0 013B     		subs	r3, r3, #1
 4095 03d2 9AB2     		uxth	r2, r3
 4096 03d4 FB68     		ldr	r3, [r7, #12]
 4097 03d6 5A85     		strh	r2, [r3, #42]	@ movhi
 4098 03d8 FB68     		ldr	r3, [r7, #12]
 4099 03da 1B68     		ldr	r3, [r3]
 4100 03dc 5B69     		ldr	r3, [r3, #20]
 4101 03de 03F00403 		and	r3, r3, #4
 4102 03e2 042B     		cmp	r3, #4
 4103 03e4 18D1     		bne	.L219
 4104 03e6 FB68     		ldr	r3, [r7, #12]
 4105 03e8 1B68     		ldr	r3, [r3]
 4106 03ea 1A69     		ldr	r2, [r3, #16]
 4107 03ec FB68     		ldr	r3, [r7, #12]
 4108 03ee 5B6A     		ldr	r3, [r3, #36]
 4109 03f0 D2B2     		uxtb	r2, r2
 4110 03f2 1A70     		strb	r2, [r3]
 4111 03f4 FB68     		ldr	r3, [r7, #12]
 4112 03f6 5B6A     		ldr	r3, [r3, #36]
 4113 03f8 5A1C     		adds	r2, r3, #1
 4114 03fa FB68     		ldr	r3, [r7, #12]
 4115 03fc 5A62     		str	r2, [r3, #36]
 4116 03fe FB68     		ldr	r3, [r7, #12]
 4117 0400 1B8D     		ldrh	r3, [r3, #40]
 4118 0402 013B     		subs	r3, r3, #1
 4119 0404 9AB2     		uxth	r2, r3
 4120 0406 FB68     		ldr	r3, [r7, #12]
 4121 0408 1A85     		strh	r2, [r3, #40]	@ movhi
 4122 040a FB68     		ldr	r3, [r7, #12]
 4123 040c 5B8D     		ldrh	r3, [r3, #42]	@ movhi
 4124 040e 9BB2     		uxth	r3, r3
 4125 0410 013B     		subs	r3, r3, #1
 4126 0412 9AB2     		uxth	r2, r3
 4127 0414 FB68     		ldr	r3, [r7, #12]
 4128 0416 5A85     		strh	r2, [r3, #42]	@ movhi
 4129              	.L219:
 4130 0418 FB68     		ldr	r3, [r7, #12]
 4131 041a 1B8D     		ldrh	r3, [r3, #40]
 4132 041c 002B     		cmp	r3, #0
 4133 041e 7FF4C2AE 		bne	.L229
 4134 0422 FB68     		ldr	r3, [r7, #12]
 4135 0424 2022     		movs	r2, #32
 4136 0426 83F83D20 		strb	r2, [r3, #61]
 4137 042a FB68     		ldr	r3, [r7, #12]
 4138 042c 0022     		movs	r2, #0
 4139 042e 83F83E20 		strb	r2, [r3, #62]
ARM GAS  C:\Users\user\AppData\Local\Temp\cchxWhRb.s 			page 73


 4140 0432 FB68     		ldr	r3, [r7, #12]
 4141 0434 0022     		movs	r2, #0
 4142 0436 83F83C20 		strb	r2, [r3, #60]
 4143 043a 0023     		movs	r3, #0
 4144 043c 00E0     		b	.L211
 4145              	.L209:
 4146 043e 0223     		movs	r3, #2
 4147              	.L211:
 4148 0440 1846     		mov	r0, r3
 4149 0442 2837     		adds	r7, r7, #40
 4150 0444 BD46     		mov	sp, r7
 4151              		@ sp needed
 4152 0446 80BD     		pop	{r7, pc}
 4153              	.L233:
 4154              		.align	2
 4155              	.L232:
 4156 0448 04000100 		.word	65540
 4158              		.section	.text.HAL_I2C_Mem_Write_IT,"ax",%progbits
 4159              		.align	1
 4160              		.global	HAL_I2C_Mem_Write_IT
 4161              		.syntax unified
 4162              		.thumb
 4163              		.thumb_func
 4165              	HAL_I2C_Mem_Write_IT:
 4166              		@ args = 8, pretend = 0, frame = 24
 4167              		@ frame_needed = 1, uses_anonymous_args = 0
 4168              		@ link register save eliminated.
 4169 0000 80B4     		push	{r7}
 4170 0002 87B0     		sub	sp, sp, #28
 4171 0004 00AF     		add	r7, sp, #0
 4172 0006 F860     		str	r0, [r7, #12]
 4173 0008 0846     		mov	r0, r1
 4174 000a 1146     		mov	r1, r2
 4175 000c 1A46     		mov	r2, r3
 4176 000e 0346     		mov	r3, r0	@ movhi
 4177 0010 7B81     		strh	r3, [r7, #10]	@ movhi
 4178 0012 0B46     		mov	r3, r1	@ movhi
 4179 0014 3B81     		strh	r3, [r7, #8]	@ movhi
 4180 0016 1346     		mov	r3, r2	@ movhi
 4181 0018 FB80     		strh	r3, [r7, #6]	@ movhi
 4182 001a 0023     		movs	r3, #0
 4183 001c 7B61     		str	r3, [r7, #20]
 4184 001e FB68     		ldr	r3, [r7, #12]
 4185 0020 93F83D30 		ldrb	r3, [r3, #61]
 4186 0024 DBB2     		uxtb	r3, r3
 4187 0026 202B     		cmp	r3, #32
 4188 0028 40F08E80 		bne	.L235
 4189 002c 4A4B     		ldr	r3, .L241
 4190 002e 1B68     		ldr	r3, [r3]
 4191 0030 DB08     		lsrs	r3, r3, #3
 4192 0032 4A4A     		ldr	r2, .L241+4
 4193 0034 A2FB0323 		umull	r2, r3, r2, r3
 4194 0038 1A0A     		lsrs	r2, r3, #8
 4195 003a 1346     		mov	r3, r2
 4196 003c 9B00     		lsls	r3, r3, #2
 4197 003e 1344     		add	r3, r3, r2
 4198 0040 9A00     		lsls	r2, r3, #2
ARM GAS  C:\Users\user\AppData\Local\Temp\cchxWhRb.s 			page 74


 4199 0042 1344     		add	r3, r3, r2
 4200 0044 7B61     		str	r3, [r7, #20]
 4201              	.L238:
 4202 0046 7B69     		ldr	r3, [r7, #20]
 4203 0048 013B     		subs	r3, r3, #1
 4204 004a 7B61     		str	r3, [r7, #20]
 4205 004c 7B69     		ldr	r3, [r7, #20]
 4206 004e 002B     		cmp	r3, #0
 4207 0050 16D1     		bne	.L236
 4208 0052 FB68     		ldr	r3, [r7, #12]
 4209 0054 0022     		movs	r2, #0
 4210 0056 1A63     		str	r2, [r3, #48]
 4211 0058 FB68     		ldr	r3, [r7, #12]
 4212 005a 2022     		movs	r2, #32
 4213 005c 83F83D20 		strb	r2, [r3, #61]
 4214 0060 FB68     		ldr	r3, [r7, #12]
 4215 0062 0022     		movs	r2, #0
 4216 0064 83F83E20 		strb	r2, [r3, #62]
 4217 0068 FB68     		ldr	r3, [r7, #12]
 4218 006a 1B6C     		ldr	r3, [r3, #64]
 4219 006c 43F02002 		orr	r2, r3, #32
 4220 0070 FB68     		ldr	r3, [r7, #12]
 4221 0072 1A64     		str	r2, [r3, #64]
 4222 0074 FB68     		ldr	r3, [r7, #12]
 4223 0076 0022     		movs	r2, #0
 4224 0078 83F83C20 		strb	r2, [r3, #60]
 4225 007c 0123     		movs	r3, #1
 4226 007e 64E0     		b	.L237
 4227              	.L236:
 4228 0080 FB68     		ldr	r3, [r7, #12]
 4229 0082 1B68     		ldr	r3, [r3]
 4230 0084 9B69     		ldr	r3, [r3, #24]
 4231 0086 03F00203 		and	r3, r3, #2
 4232 008a 022B     		cmp	r3, #2
 4233 008c DBD0     		beq	.L238
 4234 008e FB68     		ldr	r3, [r7, #12]
 4235 0090 93F83C30 		ldrb	r3, [r3, #60]	@ zero_extendqisi2
 4236 0094 012B     		cmp	r3, #1
 4237 0096 01D1     		bne	.L239
 4238 0098 0223     		movs	r3, #2
 4239 009a 56E0     		b	.L237
 4240              	.L239:
 4241 009c FB68     		ldr	r3, [r7, #12]
 4242 009e 0122     		movs	r2, #1
 4243 00a0 83F83C20 		strb	r2, [r3, #60]
 4244 00a4 FB68     		ldr	r3, [r7, #12]
 4245 00a6 1B68     		ldr	r3, [r3]
 4246 00a8 1B68     		ldr	r3, [r3]
 4247 00aa 03F00103 		and	r3, r3, #1
 4248 00ae 012B     		cmp	r3, #1
 4249 00b0 07D0     		beq	.L240
 4250 00b2 FB68     		ldr	r3, [r7, #12]
 4251 00b4 1B68     		ldr	r3, [r3]
 4252 00b6 1A68     		ldr	r2, [r3]
 4253 00b8 FB68     		ldr	r3, [r7, #12]
 4254 00ba 1B68     		ldr	r3, [r3]
 4255 00bc 42F00102 		orr	r2, r2, #1
ARM GAS  C:\Users\user\AppData\Local\Temp\cchxWhRb.s 			page 75


 4256 00c0 1A60     		str	r2, [r3]
 4257              	.L240:
 4258 00c2 FB68     		ldr	r3, [r7, #12]
 4259 00c4 1B68     		ldr	r3, [r3]
 4260 00c6 1A68     		ldr	r2, [r3]
 4261 00c8 FB68     		ldr	r3, [r7, #12]
 4262 00ca 1B68     		ldr	r3, [r3]
 4263 00cc 22F40062 		bic	r2, r2, #2048
 4264 00d0 1A60     		str	r2, [r3]
 4265 00d2 FB68     		ldr	r3, [r7, #12]
 4266 00d4 2122     		movs	r2, #33
 4267 00d6 83F83D20 		strb	r2, [r3, #61]
 4268 00da FB68     		ldr	r3, [r7, #12]
 4269 00dc 4022     		movs	r2, #64
 4270 00de 83F83E20 		strb	r2, [r3, #62]
 4271 00e2 FB68     		ldr	r3, [r7, #12]
 4272 00e4 0022     		movs	r2, #0
 4273 00e6 1A64     		str	r2, [r3, #64]
 4274 00e8 FB68     		ldr	r3, [r7, #12]
 4275 00ea 3A6A     		ldr	r2, [r7, #32]
 4276 00ec 5A62     		str	r2, [r3, #36]
 4277 00ee FB68     		ldr	r3, [r7, #12]
 4278 00f0 BA8C     		ldrh	r2, [r7, #36]	@ movhi
 4279 00f2 5A85     		strh	r2, [r3, #42]	@ movhi
 4280 00f4 FB68     		ldr	r3, [r7, #12]
 4281 00f6 5B8D     		ldrh	r3, [r3, #42]	@ movhi
 4282 00f8 9AB2     		uxth	r2, r3
 4283 00fa FB68     		ldr	r3, [r7, #12]
 4284 00fc 1A85     		strh	r2, [r3, #40]	@ movhi
 4285 00fe FB68     		ldr	r3, [r7, #12]
 4286 0100 174A     		ldr	r2, .L241+8
 4287 0102 DA62     		str	r2, [r3, #44]
 4288 0104 7A89     		ldrh	r2, [r7, #10]
 4289 0106 FB68     		ldr	r3, [r7, #12]
 4290 0108 5A64     		str	r2, [r3, #68]
 4291 010a 3A89     		ldrh	r2, [r7, #8]
 4292 010c FB68     		ldr	r3, [r7, #12]
 4293 010e 9A64     		str	r2, [r3, #72]
 4294 0110 FA88     		ldrh	r2, [r7, #6]
 4295 0112 FB68     		ldr	r3, [r7, #12]
 4296 0114 DA64     		str	r2, [r3, #76]
 4297 0116 FB68     		ldr	r3, [r7, #12]
 4298 0118 0022     		movs	r2, #0
 4299 011a 1A65     		str	r2, [r3, #80]
 4300 011c FB68     		ldr	r3, [r7, #12]
 4301 011e 1B68     		ldr	r3, [r3]
 4302 0120 1A68     		ldr	r2, [r3]
 4303 0122 FB68     		ldr	r3, [r7, #12]
 4304 0124 1B68     		ldr	r3, [r3]
 4305 0126 42F48072 		orr	r2, r2, #256
 4306 012a 1A60     		str	r2, [r3]
 4307 012c FB68     		ldr	r3, [r7, #12]
 4308 012e 0022     		movs	r2, #0
 4309 0130 83F83C20 		strb	r2, [r3, #60]
 4310 0134 FB68     		ldr	r3, [r7, #12]
 4311 0136 1B68     		ldr	r3, [r3]
 4312 0138 5A68     		ldr	r2, [r3, #4]
ARM GAS  C:\Users\user\AppData\Local\Temp\cchxWhRb.s 			page 76


 4313 013a FB68     		ldr	r3, [r7, #12]
 4314 013c 1B68     		ldr	r3, [r3]
 4315 013e 42F4E062 		orr	r2, r2, #1792
 4316 0142 5A60     		str	r2, [r3, #4]
 4317 0144 0023     		movs	r3, #0
 4318 0146 00E0     		b	.L237
 4319              	.L235:
 4320 0148 0223     		movs	r3, #2
 4321              	.L237:
 4322 014a 1846     		mov	r0, r3
 4323 014c 1C37     		adds	r7, r7, #28
 4324 014e BD46     		mov	sp, r7
 4325              		@ sp needed
 4326 0150 5DF8047B 		ldr	r7, [sp], #4
 4327 0154 7047     		bx	lr
 4328              	.L242:
 4329 0156 00BF     		.align	2
 4330              	.L241:
 4331 0158 00000000 		.word	SystemCoreClock
 4332 015c 89B5F814 		.word	351843721
 4333 0160 0000FFFF 		.word	-65536
 4335              		.section	.text.HAL_I2C_Mem_Read_IT,"ax",%progbits
 4336              		.align	1
 4337              		.global	HAL_I2C_Mem_Read_IT
 4338              		.syntax unified
 4339              		.thumb
 4340              		.thumb_func
 4342              	HAL_I2C_Mem_Read_IT:
 4343              		@ args = 8, pretend = 0, frame = 24
 4344              		@ frame_needed = 1, uses_anonymous_args = 0
 4345              		@ link register save eliminated.
 4346 0000 80B4     		push	{r7}
 4347 0002 87B0     		sub	sp, sp, #28
 4348 0004 00AF     		add	r7, sp, #0
 4349 0006 F860     		str	r0, [r7, #12]
 4350 0008 0846     		mov	r0, r1
 4351 000a 1146     		mov	r1, r2
 4352 000c 1A46     		mov	r2, r3
 4353 000e 0346     		mov	r3, r0	@ movhi
 4354 0010 7B81     		strh	r3, [r7, #10]	@ movhi
 4355 0012 0B46     		mov	r3, r1	@ movhi
 4356 0014 3B81     		strh	r3, [r7, #8]	@ movhi
 4357 0016 1346     		mov	r3, r2	@ movhi
 4358 0018 FB80     		strh	r3, [r7, #6]	@ movhi
 4359 001a 0023     		movs	r3, #0
 4360 001c 7B61     		str	r3, [r7, #20]
 4361 001e FB68     		ldr	r3, [r7, #12]
 4362 0020 93F83D30 		ldrb	r3, [r3, #61]
 4363 0024 DBB2     		uxtb	r3, r3
 4364 0026 202B     		cmp	r3, #32
 4365 0028 40F09A80 		bne	.L244
 4366 002c 504B     		ldr	r3, .L251
 4367 002e 1B68     		ldr	r3, [r3]
 4368 0030 DB08     		lsrs	r3, r3, #3
 4369 0032 504A     		ldr	r2, .L251+4
 4370 0034 A2FB0323 		umull	r2, r3, r2, r3
 4371 0038 1A0A     		lsrs	r2, r3, #8
ARM GAS  C:\Users\user\AppData\Local\Temp\cchxWhRb.s 			page 77


 4372 003a 1346     		mov	r3, r2
 4373 003c 9B00     		lsls	r3, r3, #2
 4374 003e 1344     		add	r3, r3, r2
 4375 0040 9A00     		lsls	r2, r3, #2
 4376 0042 1344     		add	r3, r3, r2
 4377 0044 7B61     		str	r3, [r7, #20]
 4378              	.L247:
 4379 0046 7B69     		ldr	r3, [r7, #20]
 4380 0048 013B     		subs	r3, r3, #1
 4381 004a 7B61     		str	r3, [r7, #20]
 4382 004c 7B69     		ldr	r3, [r7, #20]
 4383 004e 002B     		cmp	r3, #0
 4384 0050 16D1     		bne	.L245
 4385 0052 FB68     		ldr	r3, [r7, #12]
 4386 0054 0022     		movs	r2, #0
 4387 0056 1A63     		str	r2, [r3, #48]
 4388 0058 FB68     		ldr	r3, [r7, #12]
 4389 005a 2022     		movs	r2, #32
 4390 005c 83F83D20 		strb	r2, [r3, #61]
 4391 0060 FB68     		ldr	r3, [r7, #12]
 4392 0062 0022     		movs	r2, #0
 4393 0064 83F83E20 		strb	r2, [r3, #62]
 4394 0068 FB68     		ldr	r3, [r7, #12]
 4395 006a 1B6C     		ldr	r3, [r3, #64]
 4396 006c 43F02002 		orr	r2, r3, #32
 4397 0070 FB68     		ldr	r3, [r7, #12]
 4398 0072 1A64     		str	r2, [r3, #64]
 4399 0074 FB68     		ldr	r3, [r7, #12]
 4400 0076 0022     		movs	r2, #0
 4401 0078 83F83C20 		strb	r2, [r3, #60]
 4402 007c 0123     		movs	r3, #1
 4403 007e 70E0     		b	.L246
 4404              	.L245:
 4405 0080 FB68     		ldr	r3, [r7, #12]
 4406 0082 1B68     		ldr	r3, [r3]
 4407 0084 9B69     		ldr	r3, [r3, #24]
 4408 0086 03F00203 		and	r3, r3, #2
 4409 008a 022B     		cmp	r3, #2
 4410 008c DBD0     		beq	.L247
 4411 008e FB68     		ldr	r3, [r7, #12]
 4412 0090 93F83C30 		ldrb	r3, [r3, #60]	@ zero_extendqisi2
 4413 0094 012B     		cmp	r3, #1
 4414 0096 01D1     		bne	.L248
 4415 0098 0223     		movs	r3, #2
 4416 009a 62E0     		b	.L246
 4417              	.L248:
 4418 009c FB68     		ldr	r3, [r7, #12]
 4419 009e 0122     		movs	r2, #1
 4420 00a0 83F83C20 		strb	r2, [r3, #60]
 4421 00a4 FB68     		ldr	r3, [r7, #12]
 4422 00a6 1B68     		ldr	r3, [r3]
 4423 00a8 1B68     		ldr	r3, [r3]
 4424 00aa 03F00103 		and	r3, r3, #1
 4425 00ae 012B     		cmp	r3, #1
 4426 00b0 07D0     		beq	.L249
 4427 00b2 FB68     		ldr	r3, [r7, #12]
 4428 00b4 1B68     		ldr	r3, [r3]
ARM GAS  C:\Users\user\AppData\Local\Temp\cchxWhRb.s 			page 78


 4429 00b6 1A68     		ldr	r2, [r3]
 4430 00b8 FB68     		ldr	r3, [r7, #12]
 4431 00ba 1B68     		ldr	r3, [r3]
 4432 00bc 42F00102 		orr	r2, r2, #1
 4433 00c0 1A60     		str	r2, [r3]
 4434              	.L249:
 4435 00c2 FB68     		ldr	r3, [r7, #12]
 4436 00c4 1B68     		ldr	r3, [r3]
 4437 00c6 1A68     		ldr	r2, [r3]
 4438 00c8 FB68     		ldr	r3, [r7, #12]
 4439 00ca 1B68     		ldr	r3, [r3]
 4440 00cc 22F40062 		bic	r2, r2, #2048
 4441 00d0 1A60     		str	r2, [r3]
 4442 00d2 FB68     		ldr	r3, [r7, #12]
 4443 00d4 2222     		movs	r2, #34
 4444 00d6 83F83D20 		strb	r2, [r3, #61]
 4445 00da FB68     		ldr	r3, [r7, #12]
 4446 00dc 4022     		movs	r2, #64
 4447 00de 83F83E20 		strb	r2, [r3, #62]
 4448 00e2 FB68     		ldr	r3, [r7, #12]
 4449 00e4 0022     		movs	r2, #0
 4450 00e6 1A64     		str	r2, [r3, #64]
 4451 00e8 FB68     		ldr	r3, [r7, #12]
 4452 00ea 3A6A     		ldr	r2, [r7, #32]
 4453 00ec 5A62     		str	r2, [r3, #36]
 4454 00ee FB68     		ldr	r3, [r7, #12]
 4455 00f0 BA8C     		ldrh	r2, [r7, #36]	@ movhi
 4456 00f2 5A85     		strh	r2, [r3, #42]	@ movhi
 4457 00f4 FB68     		ldr	r3, [r7, #12]
 4458 00f6 5B8D     		ldrh	r3, [r3, #42]	@ movhi
 4459 00f8 9AB2     		uxth	r2, r3
 4460 00fa FB68     		ldr	r3, [r7, #12]
 4461 00fc 1A85     		strh	r2, [r3, #40]	@ movhi
 4462 00fe FB68     		ldr	r3, [r7, #12]
 4463 0100 1D4A     		ldr	r2, .L251+8
 4464 0102 DA62     		str	r2, [r3, #44]
 4465 0104 7A89     		ldrh	r2, [r7, #10]
 4466 0106 FB68     		ldr	r3, [r7, #12]
 4467 0108 5A64     		str	r2, [r3, #68]
 4468 010a 3A89     		ldrh	r2, [r7, #8]
 4469 010c FB68     		ldr	r3, [r7, #12]
 4470 010e 9A64     		str	r2, [r3, #72]
 4471 0110 FA88     		ldrh	r2, [r7, #6]
 4472 0112 FB68     		ldr	r3, [r7, #12]
 4473 0114 DA64     		str	r2, [r3, #76]
 4474 0116 FB68     		ldr	r3, [r7, #12]
 4475 0118 0022     		movs	r2, #0
 4476 011a 1A65     		str	r2, [r3, #80]
 4477 011c FB68     		ldr	r3, [r7, #12]
 4478 011e 1B68     		ldr	r3, [r3]
 4479 0120 1A68     		ldr	r2, [r3]
 4480 0122 FB68     		ldr	r3, [r7, #12]
 4481 0124 1B68     		ldr	r3, [r3]
 4482 0126 42F48062 		orr	r2, r2, #1024
 4483 012a 1A60     		str	r2, [r3]
 4484 012c FB68     		ldr	r3, [r7, #12]
 4485 012e 1B68     		ldr	r3, [r3]
ARM GAS  C:\Users\user\AppData\Local\Temp\cchxWhRb.s 			page 79


 4486 0130 1A68     		ldr	r2, [r3]
 4487 0132 FB68     		ldr	r3, [r7, #12]
 4488 0134 1B68     		ldr	r3, [r3]
 4489 0136 42F48072 		orr	r2, r2, #256
 4490 013a 1A60     		str	r2, [r3]
 4491 013c FB68     		ldr	r3, [r7, #12]
 4492 013e 0022     		movs	r2, #0
 4493 0140 83F83C20 		strb	r2, [r3, #60]
 4494 0144 FB68     		ldr	r3, [r7, #12]
 4495 0146 1B8D     		ldrh	r3, [r3, #40]
 4496 0148 002B     		cmp	r3, #0
 4497 014a 07D0     		beq	.L250
 4498 014c FB68     		ldr	r3, [r7, #12]
 4499 014e 1B68     		ldr	r3, [r3]
 4500 0150 5A68     		ldr	r2, [r3, #4]
 4501 0152 FB68     		ldr	r3, [r7, #12]
 4502 0154 1B68     		ldr	r3, [r3]
 4503 0156 42F4E062 		orr	r2, r2, #1792
 4504 015a 5A60     		str	r2, [r3, #4]
 4505              	.L250:
 4506 015c 0023     		movs	r3, #0
 4507 015e 00E0     		b	.L246
 4508              	.L244:
 4509 0160 0223     		movs	r3, #2
 4510              	.L246:
 4511 0162 1846     		mov	r0, r3
 4512 0164 1C37     		adds	r7, r7, #28
 4513 0166 BD46     		mov	sp, r7
 4514              		@ sp needed
 4515 0168 5DF8047B 		ldr	r7, [sp], #4
 4516 016c 7047     		bx	lr
 4517              	.L252:
 4518 016e 00BF     		.align	2
 4519              	.L251:
 4520 0170 00000000 		.word	SystemCoreClock
 4521 0174 89B5F814 		.word	351843721
 4522 0178 0000FFFF 		.word	-65536
 4524              		.section	.text.HAL_I2C_Mem_Write_DMA,"ax",%progbits
 4525              		.align	1
 4526              		.global	HAL_I2C_Mem_Write_DMA
 4527              		.syntax unified
 4528              		.thumb
 4529              		.thumb_func
 4531              	HAL_I2C_Mem_Write_DMA:
 4532              		@ args = 8, pretend = 0, frame = 32
 4533              		@ frame_needed = 1, uses_anonymous_args = 0
 4534 0000 80B5     		push	{r7, lr}
 4535 0002 8AB0     		sub	sp, sp, #40
 4536 0004 02AF     		add	r7, sp, #8
 4537 0006 F860     		str	r0, [r7, #12]
 4538 0008 0846     		mov	r0, r1
 4539 000a 1146     		mov	r1, r2
 4540 000c 1A46     		mov	r2, r3
 4541 000e 0346     		mov	r3, r0	@ movhi
 4542 0010 7B81     		strh	r3, [r7, #10]	@ movhi
 4543 0012 0B46     		mov	r3, r1	@ movhi
 4544 0014 3B81     		strh	r3, [r7, #8]	@ movhi
ARM GAS  C:\Users\user\AppData\Local\Temp\cchxWhRb.s 			page 80


 4545 0016 1346     		mov	r3, r2	@ movhi
 4546 0018 FB80     		strh	r3, [r7, #6]	@ movhi
 4547 001a 0023     		movs	r3, #0
 4548 001c 7B61     		str	r3, [r7, #20]
 4549 001e FFF7FEFF 		bl	HAL_GetTick
 4550 0022 F861     		str	r0, [r7, #28]
 4551 0024 FB68     		ldr	r3, [r7, #12]
 4552 0026 93F83D30 		ldrb	r3, [r3, #61]
 4553 002a DBB2     		uxtb	r3, r3
 4554 002c 202B     		cmp	r3, #32
 4555 002e 40F04581 		bne	.L254
 4556 0032 9D4B     		ldr	r3, .L266
 4557 0034 1B68     		ldr	r3, [r3]
 4558 0036 DB08     		lsrs	r3, r3, #3
 4559 0038 9C4A     		ldr	r2, .L266+4
 4560 003a A2FB0323 		umull	r2, r3, r2, r3
 4561 003e 1A0A     		lsrs	r2, r3, #8
 4562 0040 1346     		mov	r3, r2
 4563 0042 9B00     		lsls	r3, r3, #2
 4564 0044 1344     		add	r3, r3, r2
 4565 0046 9A00     		lsls	r2, r3, #2
 4566 0048 1344     		add	r3, r3, r2
 4567 004a 7B61     		str	r3, [r7, #20]
 4568              	.L257:
 4569 004c 7B69     		ldr	r3, [r7, #20]
 4570 004e 013B     		subs	r3, r3, #1
 4571 0050 7B61     		str	r3, [r7, #20]
 4572 0052 7B69     		ldr	r3, [r7, #20]
 4573 0054 002B     		cmp	r3, #0
 4574 0056 16D1     		bne	.L255
 4575 0058 FB68     		ldr	r3, [r7, #12]
 4576 005a 0022     		movs	r2, #0
 4577 005c 1A63     		str	r2, [r3, #48]
 4578 005e FB68     		ldr	r3, [r7, #12]
 4579 0060 2022     		movs	r2, #32
 4580 0062 83F83D20 		strb	r2, [r3, #61]
 4581 0066 FB68     		ldr	r3, [r7, #12]
 4582 0068 0022     		movs	r2, #0
 4583 006a 83F83E20 		strb	r2, [r3, #62]
 4584 006e FB68     		ldr	r3, [r7, #12]
 4585 0070 1B6C     		ldr	r3, [r3, #64]
 4586 0072 43F02002 		orr	r2, r3, #32
 4587 0076 FB68     		ldr	r3, [r7, #12]
 4588 0078 1A64     		str	r2, [r3, #64]
 4589 007a FB68     		ldr	r3, [r7, #12]
 4590 007c 0022     		movs	r2, #0
 4591 007e 83F83C20 		strb	r2, [r3, #60]
 4592 0082 0123     		movs	r3, #1
 4593 0084 1BE1     		b	.L256
 4594              	.L255:
 4595 0086 FB68     		ldr	r3, [r7, #12]
 4596 0088 1B68     		ldr	r3, [r3]
 4597 008a 9B69     		ldr	r3, [r3, #24]
 4598 008c 03F00203 		and	r3, r3, #2
 4599 0090 022B     		cmp	r3, #2
 4600 0092 DBD0     		beq	.L257
 4601 0094 FB68     		ldr	r3, [r7, #12]
ARM GAS  C:\Users\user\AppData\Local\Temp\cchxWhRb.s 			page 81


 4602 0096 93F83C30 		ldrb	r3, [r3, #60]	@ zero_extendqisi2
 4603 009a 012B     		cmp	r3, #1
 4604 009c 01D1     		bne	.L258
 4605 009e 0223     		movs	r3, #2
 4606 00a0 0DE1     		b	.L256
 4607              	.L258:
 4608 00a2 FB68     		ldr	r3, [r7, #12]
 4609 00a4 0122     		movs	r2, #1
 4610 00a6 83F83C20 		strb	r2, [r3, #60]
 4611 00aa FB68     		ldr	r3, [r7, #12]
 4612 00ac 1B68     		ldr	r3, [r3]
 4613 00ae 1B68     		ldr	r3, [r3]
 4614 00b0 03F00103 		and	r3, r3, #1
 4615 00b4 012B     		cmp	r3, #1
 4616 00b6 07D0     		beq	.L259
 4617 00b8 FB68     		ldr	r3, [r7, #12]
 4618 00ba 1B68     		ldr	r3, [r3]
 4619 00bc 1A68     		ldr	r2, [r3]
 4620 00be FB68     		ldr	r3, [r7, #12]
 4621 00c0 1B68     		ldr	r3, [r3]
 4622 00c2 42F00102 		orr	r2, r2, #1
 4623 00c6 1A60     		str	r2, [r3]
 4624              	.L259:
 4625 00c8 FB68     		ldr	r3, [r7, #12]
 4626 00ca 1B68     		ldr	r3, [r3]
 4627 00cc 1A68     		ldr	r2, [r3]
 4628 00ce FB68     		ldr	r3, [r7, #12]
 4629 00d0 1B68     		ldr	r3, [r3]
 4630 00d2 22F40062 		bic	r2, r2, #2048
 4631 00d6 1A60     		str	r2, [r3]
 4632 00d8 FB68     		ldr	r3, [r7, #12]
 4633 00da 2122     		movs	r2, #33
 4634 00dc 83F83D20 		strb	r2, [r3, #61]
 4635 00e0 FB68     		ldr	r3, [r7, #12]
 4636 00e2 4022     		movs	r2, #64
 4637 00e4 83F83E20 		strb	r2, [r3, #62]
 4638 00e8 FB68     		ldr	r3, [r7, #12]
 4639 00ea 0022     		movs	r2, #0
 4640 00ec 1A64     		str	r2, [r3, #64]
 4641 00ee FB68     		ldr	r3, [r7, #12]
 4642 00f0 BA6A     		ldr	r2, [r7, #40]
 4643 00f2 5A62     		str	r2, [r3, #36]
 4644 00f4 FB68     		ldr	r3, [r7, #12]
 4645 00f6 BA8D     		ldrh	r2, [r7, #44]	@ movhi
 4646 00f8 5A85     		strh	r2, [r3, #42]	@ movhi
 4647 00fa FB68     		ldr	r3, [r7, #12]
 4648 00fc 5B8D     		ldrh	r3, [r3, #42]	@ movhi
 4649 00fe 9AB2     		uxth	r2, r3
 4650 0100 FB68     		ldr	r3, [r7, #12]
 4651 0102 1A85     		strh	r2, [r3, #40]	@ movhi
 4652 0104 FB68     		ldr	r3, [r7, #12]
 4653 0106 6A4A     		ldr	r2, .L266+8
 4654 0108 DA62     		str	r2, [r3, #44]
 4655 010a 7A89     		ldrh	r2, [r7, #10]
 4656 010c FB68     		ldr	r3, [r7, #12]
 4657 010e 5A64     		str	r2, [r3, #68]
 4658 0110 3A89     		ldrh	r2, [r7, #8]
ARM GAS  C:\Users\user\AppData\Local\Temp\cchxWhRb.s 			page 82


 4659 0112 FB68     		ldr	r3, [r7, #12]
 4660 0114 9A64     		str	r2, [r3, #72]
 4661 0116 FA88     		ldrh	r2, [r7, #6]
 4662 0118 FB68     		ldr	r3, [r7, #12]
 4663 011a DA64     		str	r2, [r3, #76]
 4664 011c FB68     		ldr	r3, [r7, #12]
 4665 011e 0022     		movs	r2, #0
 4666 0120 1A65     		str	r2, [r3, #80]
 4667 0122 FB68     		ldr	r3, [r7, #12]
 4668 0124 1B8D     		ldrh	r3, [r3, #40]
 4669 0126 002B     		cmp	r3, #0
 4670 0128 00F0A980 		beq	.L260
 4671 012c FB68     		ldr	r3, [r7, #12]
 4672 012e 5B6B     		ldr	r3, [r3, #52]
 4673 0130 002B     		cmp	r3, #0
 4674 0132 2AD0     		beq	.L261
 4675 0134 FB68     		ldr	r3, [r7, #12]
 4676 0136 5B6B     		ldr	r3, [r3, #52]
 4677 0138 5E4A     		ldr	r2, .L266+12
 4678 013a DA63     		str	r2, [r3, #60]
 4679 013c FB68     		ldr	r3, [r7, #12]
 4680 013e 5B6B     		ldr	r3, [r3, #52]
 4681 0140 5D4A     		ldr	r2, .L266+16
 4682 0142 DA64     		str	r2, [r3, #76]
 4683 0144 FB68     		ldr	r3, [r7, #12]
 4684 0146 5B6B     		ldr	r3, [r3, #52]
 4685 0148 0022     		movs	r2, #0
 4686 014a 1A64     		str	r2, [r3, #64]
 4687 014c FB68     		ldr	r3, [r7, #12]
 4688 014e 5B6B     		ldr	r3, [r3, #52]
 4689 0150 0022     		movs	r2, #0
 4690 0152 5A64     		str	r2, [r3, #68]
 4691 0154 FB68     		ldr	r3, [r7, #12]
 4692 0156 5B6B     		ldr	r3, [r3, #52]
 4693 0158 0022     		movs	r2, #0
 4694 015a 9A64     		str	r2, [r3, #72]
 4695 015c FB68     		ldr	r3, [r7, #12]
 4696 015e 5B6B     		ldr	r3, [r3, #52]
 4697 0160 0022     		movs	r2, #0
 4698 0162 1A65     		str	r2, [r3, #80]
 4699 0164 FB68     		ldr	r3, [r7, #12]
 4700 0166 586B     		ldr	r0, [r3, #52]
 4701 0168 FB68     		ldr	r3, [r7, #12]
 4702 016a 5B6A     		ldr	r3, [r3, #36]
 4703 016c 1946     		mov	r1, r3
 4704 016e FB68     		ldr	r3, [r7, #12]
 4705 0170 1B68     		ldr	r3, [r3]
 4706 0172 1033     		adds	r3, r3, #16
 4707 0174 1A46     		mov	r2, r3
 4708 0176 FB68     		ldr	r3, [r7, #12]
 4709 0178 1B8D     		ldrh	r3, [r3, #40]
 4710 017a FFF7FEFF 		bl	HAL_DMA_Start_IT
 4711 017e 0346     		mov	r3, r0
 4712 0180 FB76     		strb	r3, [r7, #27]
 4713 0182 FB7E     		ldrb	r3, [r7, #27]	@ zero_extendqisi2
 4714 0184 002B     		cmp	r3, #0
 4715 0186 66D1     		bne	.L263
ARM GAS  C:\Users\user\AppData\Local\Temp\cchxWhRb.s 			page 83


 4716 0188 13E0     		b	.L265
 4717              	.L261:
 4718 018a FB68     		ldr	r3, [r7, #12]
 4719 018c 2022     		movs	r2, #32
 4720 018e 83F83D20 		strb	r2, [r3, #61]
 4721 0192 FB68     		ldr	r3, [r7, #12]
 4722 0194 0022     		movs	r2, #0
 4723 0196 83F83E20 		strb	r2, [r3, #62]
 4724 019a FB68     		ldr	r3, [r7, #12]
 4725 019c 1B6C     		ldr	r3, [r3, #64]
 4726 019e 43F08002 		orr	r2, r3, #128
 4727 01a2 FB68     		ldr	r3, [r7, #12]
 4728 01a4 1A64     		str	r2, [r3, #64]
 4729 01a6 FB68     		ldr	r3, [r7, #12]
 4730 01a8 0022     		movs	r2, #0
 4731 01aa 83F83C20 		strb	r2, [r3, #60]
 4732 01ae 0123     		movs	r3, #1
 4733 01b0 85E0     		b	.L256
 4734              	.L265:
 4735 01b2 F888     		ldrh	r0, [r7, #6]
 4736 01b4 3A89     		ldrh	r2, [r7, #8]
 4737 01b6 7989     		ldrh	r1, [r7, #10]
 4738 01b8 FB69     		ldr	r3, [r7, #28]
 4739 01ba 0193     		str	r3, [sp, #4]
 4740 01bc 2323     		movs	r3, #35
 4741 01be 0093     		str	r3, [sp]
 4742 01c0 0346     		mov	r3, r0
 4743 01c2 F868     		ldr	r0, [r7, #12]
 4744 01c4 FFF7FEFF 		bl	I2C_RequestMemoryWrite
 4745 01c8 0346     		mov	r3, r0
 4746 01ca 002B     		cmp	r3, #0
 4747 01cc 22D0     		beq	.L264
 4748 01ce FB68     		ldr	r3, [r7, #12]
 4749 01d0 5B6B     		ldr	r3, [r3, #52]
 4750 01d2 1846     		mov	r0, r3
 4751 01d4 FFF7FEFF 		bl	HAL_DMA_Abort_IT
 4752 01d8 0346     		mov	r3, r0
 4753 01da FB76     		strb	r3, [r7, #27]
 4754 01dc FB68     		ldr	r3, [r7, #12]
 4755 01de 5B6B     		ldr	r3, [r3, #52]
 4756 01e0 0022     		movs	r2, #0
 4757 01e2 DA63     		str	r2, [r3, #60]
 4758 01e4 FB68     		ldr	r3, [r7, #12]
 4759 01e6 1B68     		ldr	r3, [r3]
 4760 01e8 1A68     		ldr	r2, [r3]
 4761 01ea FB68     		ldr	r3, [r7, #12]
 4762 01ec 1B68     		ldr	r3, [r3]
 4763 01ee 22F48062 		bic	r2, r2, #1024
 4764 01f2 1A60     		str	r2, [r3]
 4765 01f4 FB68     		ldr	r3, [r7, #12]
 4766 01f6 0022     		movs	r2, #0
 4767 01f8 1A85     		strh	r2, [r3, #40]	@ movhi
 4768 01fa FB68     		ldr	r3, [r7, #12]
 4769 01fc 0022     		movs	r2, #0
 4770 01fe 5A85     		strh	r2, [r3, #42]	@ movhi
 4771 0200 FB68     		ldr	r3, [r7, #12]
 4772 0202 1B68     		ldr	r3, [r3]
ARM GAS  C:\Users\user\AppData\Local\Temp\cchxWhRb.s 			page 84


 4773 0204 1A68     		ldr	r2, [r3]
 4774 0206 FB68     		ldr	r3, [r7, #12]
 4775 0208 1B68     		ldr	r3, [r3]
 4776 020a 22F00102 		bic	r2, r2, #1
 4777 020e 1A60     		str	r2, [r3]
 4778 0210 0123     		movs	r3, #1
 4779 0212 54E0     		b	.L256
 4780              	.L264:
 4781 0214 0023     		movs	r3, #0
 4782 0216 3B61     		str	r3, [r7, #16]
 4783 0218 FB68     		ldr	r3, [r7, #12]
 4784 021a 1B68     		ldr	r3, [r3]
 4785 021c 5B69     		ldr	r3, [r3, #20]
 4786 021e 3B61     		str	r3, [r7, #16]
 4787 0220 FB68     		ldr	r3, [r7, #12]
 4788 0222 1B68     		ldr	r3, [r3]
 4789 0224 9B69     		ldr	r3, [r3, #24]
 4790 0226 3B61     		str	r3, [r7, #16]
 4791 0228 3B69     		ldr	r3, [r7, #16]
 4792 022a FB68     		ldr	r3, [r7, #12]
 4793 022c 0022     		movs	r2, #0
 4794 022e 83F83C20 		strb	r2, [r3, #60]
 4795 0232 FB68     		ldr	r3, [r7, #12]
 4796 0234 1B68     		ldr	r3, [r3]
 4797 0236 5A68     		ldr	r2, [r3, #4]
 4798 0238 FB68     		ldr	r3, [r7, #12]
 4799 023a 1B68     		ldr	r3, [r3]
 4800 023c 42F48072 		orr	r2, r2, #256
 4801 0240 5A60     		str	r2, [r3, #4]
 4802 0242 FB68     		ldr	r3, [r7, #12]
 4803 0244 1B68     		ldr	r3, [r3]
 4804 0246 5A68     		ldr	r2, [r3, #4]
 4805 0248 FB68     		ldr	r3, [r7, #12]
 4806 024a 1B68     		ldr	r3, [r3]
 4807 024c 42F40062 		orr	r2, r2, #2048
 4808 0250 5A60     		str	r2, [r3, #4]
 4809 0252 0023     		movs	r3, #0
 4810 0254 33E0     		b	.L256
 4811              	.L263:
 4812 0256 FB68     		ldr	r3, [r7, #12]
 4813 0258 2022     		movs	r2, #32
 4814 025a 83F83D20 		strb	r2, [r3, #61]
 4815 025e FB68     		ldr	r3, [r7, #12]
 4816 0260 0022     		movs	r2, #0
 4817 0262 83F83E20 		strb	r2, [r3, #62]
 4818 0266 FB68     		ldr	r3, [r7, #12]
 4819 0268 1B6C     		ldr	r3, [r3, #64]
 4820 026a 43F01002 		orr	r2, r3, #16
 4821 026e FB68     		ldr	r3, [r7, #12]
 4822 0270 1A64     		str	r2, [r3, #64]
 4823 0272 FB68     		ldr	r3, [r7, #12]
 4824 0274 0022     		movs	r2, #0
 4825 0276 83F83C20 		strb	r2, [r3, #60]
 4826 027a 0123     		movs	r3, #1
 4827 027c 1FE0     		b	.L256
 4828              	.L260:
 4829 027e FB68     		ldr	r3, [r7, #12]
ARM GAS  C:\Users\user\AppData\Local\Temp\cchxWhRb.s 			page 85


 4830 0280 2022     		movs	r2, #32
 4831 0282 83F83D20 		strb	r2, [r3, #61]
 4832 0286 FB68     		ldr	r3, [r7, #12]
 4833 0288 0022     		movs	r2, #0
 4834 028a 83F83E20 		strb	r2, [r3, #62]
 4835 028e FB68     		ldr	r3, [r7, #12]
 4836 0290 1B6C     		ldr	r3, [r3, #64]
 4837 0292 43F04002 		orr	r2, r3, #64
 4838 0296 FB68     		ldr	r3, [r7, #12]
 4839 0298 1A64     		str	r2, [r3, #64]
 4840 029a FB68     		ldr	r3, [r7, #12]
 4841 029c 0022     		movs	r2, #0
 4842 029e 83F83C20 		strb	r2, [r3, #60]
 4843 02a2 0123     		movs	r3, #1
 4844 02a4 0BE0     		b	.L256
 4845              	.L267:
 4846 02a6 00BF     		.align	2
 4847              	.L266:
 4848 02a8 00000000 		.word	SystemCoreClock
 4849 02ac 89B5F814 		.word	351843721
 4850 02b0 0000FFFF 		.word	-65536
 4851 02b4 00000000 		.word	I2C_DMAXferCplt
 4852 02b8 00000000 		.word	I2C_DMAError
 4853              	.L254:
 4854 02bc 0223     		movs	r3, #2
 4855              	.L256:
 4856 02be 1846     		mov	r0, r3
 4857 02c0 2037     		adds	r7, r7, #32
 4858 02c2 BD46     		mov	sp, r7
 4859              		@ sp needed
 4860 02c4 80BD     		pop	{r7, pc}
 4862              		.section	.text.HAL_I2C_Mem_Read_DMA,"ax",%progbits
 4863              		.align	1
 4864              		.global	HAL_I2C_Mem_Read_DMA
 4865              		.syntax unified
 4866              		.thumb
 4867              		.thumb_func
 4869              	HAL_I2C_Mem_Read_DMA:
 4870              		@ args = 8, pretend = 0, frame = 40
 4871              		@ frame_needed = 1, uses_anonymous_args = 0
 4872 0000 80B5     		push	{r7, lr}
 4873 0002 8CB0     		sub	sp, sp, #48
 4874 0004 02AF     		add	r7, sp, #8
 4875 0006 F860     		str	r0, [r7, #12]
 4876 0008 0846     		mov	r0, r1
 4877 000a 1146     		mov	r1, r2
 4878 000c 1A46     		mov	r2, r3
 4879 000e 0346     		mov	r3, r0	@ movhi
 4880 0010 7B81     		strh	r3, [r7, #10]	@ movhi
 4881 0012 0B46     		mov	r3, r1	@ movhi
 4882 0014 3B81     		strh	r3, [r7, #8]	@ movhi
 4883 0016 1346     		mov	r3, r2	@ movhi
 4884 0018 FB80     		strh	r3, [r7, #6]	@ movhi
 4885 001a FFF7FEFF 		bl	HAL_GetTick
 4886 001e 7862     		str	r0, [r7, #36]
 4887 0020 0023     		movs	r3, #0
 4888 0022 FB61     		str	r3, [r7, #28]
ARM GAS  C:\Users\user\AppData\Local\Temp\cchxWhRb.s 			page 86


 4889 0024 FB68     		ldr	r3, [r7, #12]
 4890 0026 93F83D30 		ldrb	r3, [r3, #61]
 4891 002a DBB2     		uxtb	r3, r3
 4892 002c 202B     		cmp	r3, #32
 4893 002e 40F07681 		bne	.L269
 4894 0032 954B     		ldr	r3, .L285
 4895 0034 1B68     		ldr	r3, [r3]
 4896 0036 DB08     		lsrs	r3, r3, #3
 4897 0038 944A     		ldr	r2, .L285+4
 4898 003a A2FB0323 		umull	r2, r3, r2, r3
 4899 003e 1A0A     		lsrs	r2, r3, #8
 4900 0040 1346     		mov	r3, r2
 4901 0042 9B00     		lsls	r3, r3, #2
 4902 0044 1344     		add	r3, r3, r2
 4903 0046 9A00     		lsls	r2, r3, #2
 4904 0048 1344     		add	r3, r3, r2
 4905 004a FB61     		str	r3, [r7, #28]
 4906              	.L272:
 4907 004c FB69     		ldr	r3, [r7, #28]
 4908 004e 013B     		subs	r3, r3, #1
 4909 0050 FB61     		str	r3, [r7, #28]
 4910 0052 FB69     		ldr	r3, [r7, #28]
 4911 0054 002B     		cmp	r3, #0
 4912 0056 16D1     		bne	.L270
 4913 0058 FB68     		ldr	r3, [r7, #12]
 4914 005a 0022     		movs	r2, #0
 4915 005c 1A63     		str	r2, [r3, #48]
 4916 005e FB68     		ldr	r3, [r7, #12]
 4917 0060 2022     		movs	r2, #32
 4918 0062 83F83D20 		strb	r2, [r3, #61]
 4919 0066 FB68     		ldr	r3, [r7, #12]
 4920 0068 0022     		movs	r2, #0
 4921 006a 83F83E20 		strb	r2, [r3, #62]
 4922 006e FB68     		ldr	r3, [r7, #12]
 4923 0070 1B6C     		ldr	r3, [r3, #64]
 4924 0072 43F02002 		orr	r2, r3, #32
 4925 0076 FB68     		ldr	r3, [r7, #12]
 4926 0078 1A64     		str	r2, [r3, #64]
 4927 007a FB68     		ldr	r3, [r7, #12]
 4928 007c 0022     		movs	r2, #0
 4929 007e 83F83C20 		strb	r2, [r3, #60]
 4930 0082 0123     		movs	r3, #1
 4931 0084 4CE1     		b	.L271
 4932              	.L270:
 4933 0086 FB68     		ldr	r3, [r7, #12]
 4934 0088 1B68     		ldr	r3, [r3]
 4935 008a 9B69     		ldr	r3, [r3, #24]
 4936 008c 03F00203 		and	r3, r3, #2
 4937 0090 022B     		cmp	r3, #2
 4938 0092 DBD0     		beq	.L272
 4939 0094 FB68     		ldr	r3, [r7, #12]
 4940 0096 93F83C30 		ldrb	r3, [r3, #60]	@ zero_extendqisi2
 4941 009a 012B     		cmp	r3, #1
 4942 009c 01D1     		bne	.L273
 4943 009e 0223     		movs	r3, #2
 4944 00a0 3EE1     		b	.L271
 4945              	.L273:
ARM GAS  C:\Users\user\AppData\Local\Temp\cchxWhRb.s 			page 87


 4946 00a2 FB68     		ldr	r3, [r7, #12]
 4947 00a4 0122     		movs	r2, #1
 4948 00a6 83F83C20 		strb	r2, [r3, #60]
 4949 00aa FB68     		ldr	r3, [r7, #12]
 4950 00ac 1B68     		ldr	r3, [r3]
 4951 00ae 1B68     		ldr	r3, [r3]
 4952 00b0 03F00103 		and	r3, r3, #1
 4953 00b4 012B     		cmp	r3, #1
 4954 00b6 07D0     		beq	.L274
 4955 00b8 FB68     		ldr	r3, [r7, #12]
 4956 00ba 1B68     		ldr	r3, [r3]
 4957 00bc 1A68     		ldr	r2, [r3]
 4958 00be FB68     		ldr	r3, [r7, #12]
 4959 00c0 1B68     		ldr	r3, [r3]
 4960 00c2 42F00102 		orr	r2, r2, #1
 4961 00c6 1A60     		str	r2, [r3]
 4962              	.L274:
 4963 00c8 FB68     		ldr	r3, [r7, #12]
 4964 00ca 1B68     		ldr	r3, [r3]
 4965 00cc 1A68     		ldr	r2, [r3]
 4966 00ce FB68     		ldr	r3, [r7, #12]
 4967 00d0 1B68     		ldr	r3, [r3]
 4968 00d2 22F40062 		bic	r2, r2, #2048
 4969 00d6 1A60     		str	r2, [r3]
 4970 00d8 FB68     		ldr	r3, [r7, #12]
 4971 00da 2222     		movs	r2, #34
 4972 00dc 83F83D20 		strb	r2, [r3, #61]
 4973 00e0 FB68     		ldr	r3, [r7, #12]
 4974 00e2 4022     		movs	r2, #64
 4975 00e4 83F83E20 		strb	r2, [r3, #62]
 4976 00e8 FB68     		ldr	r3, [r7, #12]
 4977 00ea 0022     		movs	r2, #0
 4978 00ec 1A64     		str	r2, [r3, #64]
 4979 00ee FB68     		ldr	r3, [r7, #12]
 4980 00f0 3A6B     		ldr	r2, [r7, #48]
 4981 00f2 5A62     		str	r2, [r3, #36]
 4982 00f4 FB68     		ldr	r3, [r7, #12]
 4983 00f6 BA8E     		ldrh	r2, [r7, #52]	@ movhi
 4984 00f8 5A85     		strh	r2, [r3, #42]	@ movhi
 4985 00fa FB68     		ldr	r3, [r7, #12]
 4986 00fc 5B8D     		ldrh	r3, [r3, #42]	@ movhi
 4987 00fe 9AB2     		uxth	r2, r3
 4988 0100 FB68     		ldr	r3, [r7, #12]
 4989 0102 1A85     		strh	r2, [r3, #40]	@ movhi
 4990 0104 FB68     		ldr	r3, [r7, #12]
 4991 0106 624A     		ldr	r2, .L285+8
 4992 0108 DA62     		str	r2, [r3, #44]
 4993 010a 7A89     		ldrh	r2, [r7, #10]
 4994 010c FB68     		ldr	r3, [r7, #12]
 4995 010e 5A64     		str	r2, [r3, #68]
 4996 0110 3A89     		ldrh	r2, [r7, #8]
 4997 0112 FB68     		ldr	r3, [r7, #12]
 4998 0114 9A64     		str	r2, [r3, #72]
 4999 0116 FA88     		ldrh	r2, [r7, #6]
 5000 0118 FB68     		ldr	r3, [r7, #12]
 5001 011a DA64     		str	r2, [r3, #76]
 5002 011c FB68     		ldr	r3, [r7, #12]
ARM GAS  C:\Users\user\AppData\Local\Temp\cchxWhRb.s 			page 88


 5003 011e 0022     		movs	r2, #0
 5004 0120 1A65     		str	r2, [r3, #80]
 5005 0122 FB68     		ldr	r3, [r7, #12]
 5006 0124 1B8D     		ldrh	r3, [r3, #40]
 5007 0126 002B     		cmp	r3, #0
 5008 0128 00F0CC80 		beq	.L275
 5009 012c FB68     		ldr	r3, [r7, #12]
 5010 012e 9B6B     		ldr	r3, [r3, #56]
 5011 0130 002B     		cmp	r3, #0
 5012 0132 2DD0     		beq	.L276
 5013 0134 FB68     		ldr	r3, [r7, #12]
 5014 0136 9B6B     		ldr	r3, [r3, #56]
 5015 0138 564A     		ldr	r2, .L285+12
 5016 013a DA63     		str	r2, [r3, #60]
 5017 013c FB68     		ldr	r3, [r7, #12]
 5018 013e 9B6B     		ldr	r3, [r3, #56]
 5019 0140 554A     		ldr	r2, .L285+16
 5020 0142 DA64     		str	r2, [r3, #76]
 5021 0144 FB68     		ldr	r3, [r7, #12]
 5022 0146 9B6B     		ldr	r3, [r3, #56]
 5023 0148 0022     		movs	r2, #0
 5024 014a 1A64     		str	r2, [r3, #64]
 5025 014c FB68     		ldr	r3, [r7, #12]
 5026 014e 9B6B     		ldr	r3, [r3, #56]
 5027 0150 0022     		movs	r2, #0
 5028 0152 5A64     		str	r2, [r3, #68]
 5029 0154 FB68     		ldr	r3, [r7, #12]
 5030 0156 9B6B     		ldr	r3, [r3, #56]
 5031 0158 0022     		movs	r2, #0
 5032 015a 9A64     		str	r2, [r3, #72]
 5033 015c FB68     		ldr	r3, [r7, #12]
 5034 015e 9B6B     		ldr	r3, [r3, #56]
 5035 0160 0022     		movs	r2, #0
 5036 0162 1A65     		str	r2, [r3, #80]
 5037 0164 FB68     		ldr	r3, [r7, #12]
 5038 0166 986B     		ldr	r0, [r3, #56]
 5039 0168 FB68     		ldr	r3, [r7, #12]
 5040 016a 1B68     		ldr	r3, [r3]
 5041 016c 1033     		adds	r3, r3, #16
 5042 016e 1946     		mov	r1, r3
 5043 0170 FB68     		ldr	r3, [r7, #12]
 5044 0172 5B6A     		ldr	r3, [r3, #36]
 5045 0174 1A46     		mov	r2, r3
 5046 0176 FB68     		ldr	r3, [r7, #12]
 5047 0178 1B8D     		ldrh	r3, [r3, #40]
 5048 017a FFF7FEFF 		bl	HAL_DMA_Start_IT
 5049 017e 0346     		mov	r3, r0
 5050 0180 87F82330 		strb	r3, [r7, #35]
 5051 0184 97F82330 		ldrb	r3, [r7, #35]	@ zero_extendqisi2
 5052 0188 002B     		cmp	r3, #0
 5053 018a 40F08780 		bne	.L278
 5054 018e 13E0     		b	.L284
 5055              	.L276:
 5056 0190 FB68     		ldr	r3, [r7, #12]
 5057 0192 2022     		movs	r2, #32
 5058 0194 83F83D20 		strb	r2, [r3, #61]
 5059 0198 FB68     		ldr	r3, [r7, #12]
ARM GAS  C:\Users\user\AppData\Local\Temp\cchxWhRb.s 			page 89


 5060 019a 0022     		movs	r2, #0
 5061 019c 83F83E20 		strb	r2, [r3, #62]
 5062 01a0 FB68     		ldr	r3, [r7, #12]
 5063 01a2 1B6C     		ldr	r3, [r3, #64]
 5064 01a4 43F08002 		orr	r2, r3, #128
 5065 01a8 FB68     		ldr	r3, [r7, #12]
 5066 01aa 1A64     		str	r2, [r3, #64]
 5067 01ac FB68     		ldr	r3, [r7, #12]
 5068 01ae 0022     		movs	r2, #0
 5069 01b0 83F83C20 		strb	r2, [r3, #60]
 5070 01b4 0123     		movs	r3, #1
 5071 01b6 B3E0     		b	.L271
 5072              	.L284:
 5073 01b8 F888     		ldrh	r0, [r7, #6]
 5074 01ba 3A89     		ldrh	r2, [r7, #8]
 5075 01bc 7989     		ldrh	r1, [r7, #10]
 5076 01be 7B6A     		ldr	r3, [r7, #36]
 5077 01c0 0193     		str	r3, [sp, #4]
 5078 01c2 2323     		movs	r3, #35
 5079 01c4 0093     		str	r3, [sp]
 5080 01c6 0346     		mov	r3, r0
 5081 01c8 F868     		ldr	r0, [r7, #12]
 5082 01ca FFF7FEFF 		bl	I2C_RequestMemoryRead
 5083 01ce 0346     		mov	r3, r0
 5084 01d0 002B     		cmp	r3, #0
 5085 01d2 23D0     		beq	.L279
 5086 01d4 FB68     		ldr	r3, [r7, #12]
 5087 01d6 9B6B     		ldr	r3, [r3, #56]
 5088 01d8 1846     		mov	r0, r3
 5089 01da FFF7FEFF 		bl	HAL_DMA_Abort_IT
 5090 01de 0346     		mov	r3, r0
 5091 01e0 87F82330 		strb	r3, [r7, #35]
 5092 01e4 FB68     		ldr	r3, [r7, #12]
 5093 01e6 9B6B     		ldr	r3, [r3, #56]
 5094 01e8 0022     		movs	r2, #0
 5095 01ea DA63     		str	r2, [r3, #60]
 5096 01ec FB68     		ldr	r3, [r7, #12]
 5097 01ee 1B68     		ldr	r3, [r3]
 5098 01f0 1A68     		ldr	r2, [r3]
 5099 01f2 FB68     		ldr	r3, [r7, #12]
 5100 01f4 1B68     		ldr	r3, [r3]
 5101 01f6 22F48062 		bic	r2, r2, #1024
 5102 01fa 1A60     		str	r2, [r3]
 5103 01fc FB68     		ldr	r3, [r7, #12]
 5104 01fe 0022     		movs	r2, #0
 5105 0200 1A85     		strh	r2, [r3, #40]	@ movhi
 5106 0202 FB68     		ldr	r3, [r7, #12]
 5107 0204 0022     		movs	r2, #0
 5108 0206 5A85     		strh	r2, [r3, #42]	@ movhi
 5109 0208 FB68     		ldr	r3, [r7, #12]
 5110 020a 1B68     		ldr	r3, [r3]
 5111 020c 1A68     		ldr	r2, [r3]
 5112 020e FB68     		ldr	r3, [r7, #12]
 5113 0210 1B68     		ldr	r3, [r3]
 5114 0212 22F00102 		bic	r2, r2, #1
 5115 0216 1A60     		str	r2, [r3]
 5116 0218 0123     		movs	r3, #1
ARM GAS  C:\Users\user\AppData\Local\Temp\cchxWhRb.s 			page 90


 5117 021a 81E0     		b	.L271
 5118              	.L279:
 5119 021c FB68     		ldr	r3, [r7, #12]
 5120 021e 1B8D     		ldrh	r3, [r3, #40]
 5121 0220 012B     		cmp	r3, #1
 5122 0222 08D1     		bne	.L280
 5123 0224 FB68     		ldr	r3, [r7, #12]
 5124 0226 1B68     		ldr	r3, [r3]
 5125 0228 1A68     		ldr	r2, [r3]
 5126 022a FB68     		ldr	r3, [r7, #12]
 5127 022c 1B68     		ldr	r3, [r3]
 5128 022e 22F48062 		bic	r2, r2, #1024
 5129 0232 1A60     		str	r2, [r3]
 5130 0234 07E0     		b	.L281
 5131              	.L280:
 5132 0236 FB68     		ldr	r3, [r7, #12]
 5133 0238 1B68     		ldr	r3, [r3]
 5134 023a 5A68     		ldr	r2, [r3, #4]
 5135 023c FB68     		ldr	r3, [r7, #12]
 5136 023e 1B68     		ldr	r3, [r3]
 5137 0240 42F48052 		orr	r2, r2, #4096
 5138 0244 5A60     		str	r2, [r3, #4]
 5139              	.L281:
 5140 0246 0023     		movs	r3, #0
 5141 0248 BB61     		str	r3, [r7, #24]
 5142 024a FB68     		ldr	r3, [r7, #12]
 5143 024c 1B68     		ldr	r3, [r3]
 5144 024e 5B69     		ldr	r3, [r3, #20]
 5145 0250 BB61     		str	r3, [r7, #24]
 5146 0252 FB68     		ldr	r3, [r7, #12]
 5147 0254 1B68     		ldr	r3, [r3]
 5148 0256 9B69     		ldr	r3, [r3, #24]
 5149 0258 BB61     		str	r3, [r7, #24]
 5150 025a BB69     		ldr	r3, [r7, #24]
 5151 025c FB68     		ldr	r3, [r7, #12]
 5152 025e 0022     		movs	r2, #0
 5153 0260 83F83C20 		strb	r2, [r3, #60]
 5154 0264 FB68     		ldr	r3, [r7, #12]
 5155 0266 1B68     		ldr	r3, [r3]
 5156 0268 5A68     		ldr	r2, [r3, #4]
 5157 026a FB68     		ldr	r3, [r7, #12]
 5158 026c 1B68     		ldr	r3, [r3]
 5159 026e 42F48072 		orr	r2, r2, #256
 5160 0272 5A60     		str	r2, [r3, #4]
 5161 0274 FB68     		ldr	r3, [r7, #12]
 5162 0276 1B68     		ldr	r3, [r3]
 5163 0278 5A68     		ldr	r2, [r3, #4]
 5164 027a FB68     		ldr	r3, [r7, #12]
 5165 027c 1B68     		ldr	r3, [r3]
 5166 027e 42F40062 		orr	r2, r2, #2048
 5167 0282 5A60     		str	r2, [r3, #4]
 5168 0284 49E0     		b	.L282
 5169              	.L286:
 5170 0286 00BF     		.align	2
 5171              	.L285:
 5172 0288 00000000 		.word	SystemCoreClock
 5173 028c 89B5F814 		.word	351843721
ARM GAS  C:\Users\user\AppData\Local\Temp\cchxWhRb.s 			page 91


 5174 0290 0000FFFF 		.word	-65536
 5175 0294 00000000 		.word	I2C_DMAXferCplt
 5176 0298 00000000 		.word	I2C_DMAError
 5177              	.L278:
 5178 029c FB68     		ldr	r3, [r7, #12]
 5179 029e 2022     		movs	r2, #32
 5180 02a0 83F83D20 		strb	r2, [r3, #61]
 5181 02a4 FB68     		ldr	r3, [r7, #12]
 5182 02a6 0022     		movs	r2, #0
 5183 02a8 83F83E20 		strb	r2, [r3, #62]
 5184 02ac FB68     		ldr	r3, [r7, #12]
 5185 02ae 1B6C     		ldr	r3, [r3, #64]
 5186 02b0 43F01002 		orr	r2, r3, #16
 5187 02b4 FB68     		ldr	r3, [r7, #12]
 5188 02b6 1A64     		str	r2, [r3, #64]
 5189 02b8 FB68     		ldr	r3, [r7, #12]
 5190 02ba 0022     		movs	r2, #0
 5191 02bc 83F83C20 		strb	r2, [r3, #60]
 5192 02c0 0123     		movs	r3, #1
 5193 02c2 2DE0     		b	.L271
 5194              	.L275:
 5195 02c4 F888     		ldrh	r0, [r7, #6]
 5196 02c6 3A89     		ldrh	r2, [r7, #8]
 5197 02c8 7989     		ldrh	r1, [r7, #10]
 5198 02ca 7B6A     		ldr	r3, [r7, #36]
 5199 02cc 0193     		str	r3, [sp, #4]
 5200 02ce 2323     		movs	r3, #35
 5201 02d0 0093     		str	r3, [sp]
 5202 02d2 0346     		mov	r3, r0
 5203 02d4 F868     		ldr	r0, [r7, #12]
 5204 02d6 FFF7FEFF 		bl	I2C_RequestMemoryRead
 5205 02da 0346     		mov	r3, r0
 5206 02dc 002B     		cmp	r3, #0
 5207 02de 01D0     		beq	.L283
 5208 02e0 0123     		movs	r3, #1
 5209 02e2 1DE0     		b	.L271
 5210              	.L283:
 5211 02e4 0023     		movs	r3, #0
 5212 02e6 7B61     		str	r3, [r7, #20]
 5213 02e8 FB68     		ldr	r3, [r7, #12]
 5214 02ea 1B68     		ldr	r3, [r3]
 5215 02ec 5B69     		ldr	r3, [r3, #20]
 5216 02ee 7B61     		str	r3, [r7, #20]
 5217 02f0 FB68     		ldr	r3, [r7, #12]
 5218 02f2 1B68     		ldr	r3, [r3]
 5219 02f4 9B69     		ldr	r3, [r3, #24]
 5220 02f6 7B61     		str	r3, [r7, #20]
 5221 02f8 7B69     		ldr	r3, [r7, #20]
 5222 02fa FB68     		ldr	r3, [r7, #12]
 5223 02fc 1B68     		ldr	r3, [r3]
 5224 02fe 1A68     		ldr	r2, [r3]
 5225 0300 FB68     		ldr	r3, [r7, #12]
 5226 0302 1B68     		ldr	r3, [r3]
 5227 0304 42F40072 		orr	r2, r2, #512
 5228 0308 1A60     		str	r2, [r3]
 5229 030a FB68     		ldr	r3, [r7, #12]
 5230 030c 2022     		movs	r2, #32
ARM GAS  C:\Users\user\AppData\Local\Temp\cchxWhRb.s 			page 92


 5231 030e 83F83D20 		strb	r2, [r3, #61]
 5232 0312 FB68     		ldr	r3, [r7, #12]
 5233 0314 0022     		movs	r2, #0
 5234 0316 83F83C20 		strb	r2, [r3, #60]
 5235              	.L282:
 5236 031a 0023     		movs	r3, #0
 5237 031c 00E0     		b	.L271
 5238              	.L269:
 5239 031e 0223     		movs	r3, #2
 5240              	.L271:
 5241 0320 1846     		mov	r0, r3
 5242 0322 2837     		adds	r7, r7, #40
 5243 0324 BD46     		mov	sp, r7
 5244              		@ sp needed
 5245 0326 80BD     		pop	{r7, pc}
 5247              		.section	.text.HAL_I2C_IsDeviceReady,"ax",%progbits
 5248              		.align	1
 5249              		.global	HAL_I2C_IsDeviceReady
 5250              		.syntax unified
 5251              		.thumb
 5252              		.thumb_func
 5254              	HAL_I2C_IsDeviceReady:
 5255              		@ args = 0, pretend = 0, frame = 32
 5256              		@ frame_needed = 1, uses_anonymous_args = 0
 5257 0000 80B5     		push	{r7, lr}
 5258 0002 8AB0     		sub	sp, sp, #40
 5259 0004 02AF     		add	r7, sp, #8
 5260 0006 F860     		str	r0, [r7, #12]
 5261 0008 7A60     		str	r2, [r7, #4]
 5262 000a 3B60     		str	r3, [r7]
 5263 000c 0B46     		mov	r3, r1	@ movhi
 5264 000e 7B81     		strh	r3, [r7, #10]	@ movhi
 5265 0010 FFF7FEFF 		bl	HAL_GetTick
 5266 0014 F861     		str	r0, [r7, #28]
 5267 0016 0023     		movs	r3, #0
 5268 0018 BB61     		str	r3, [r7, #24]
 5269 001a FB68     		ldr	r3, [r7, #12]
 5270 001c 93F83D30 		ldrb	r3, [r3, #61]
 5271 0020 DBB2     		uxtb	r3, r3
 5272 0022 202B     		cmp	r3, #32
 5273 0024 40F01181 		bne	.L288
 5274 0028 FB69     		ldr	r3, [r7, #28]
 5275 002a 0093     		str	r3, [sp]
 5276 002c 1923     		movs	r3, #25
 5277 002e 0122     		movs	r2, #1
 5278 0030 8849     		ldr	r1, .L304
 5279 0032 F868     		ldr	r0, [r7, #12]
 5280 0034 FFF7FEFF 		bl	I2C_WaitOnFlagUntilTimeout
 5281 0038 0346     		mov	r3, r0
 5282 003a 002B     		cmp	r3, #0
 5283 003c 01D0     		beq	.L289
 5284 003e 0223     		movs	r3, #2
 5285 0040 04E1     		b	.L290
 5286              	.L289:
 5287 0042 FB68     		ldr	r3, [r7, #12]
 5288 0044 93F83C30 		ldrb	r3, [r3, #60]	@ zero_extendqisi2
 5289 0048 012B     		cmp	r3, #1
ARM GAS  C:\Users\user\AppData\Local\Temp\cchxWhRb.s 			page 93


 5290 004a 01D1     		bne	.L291
 5291 004c 0223     		movs	r3, #2
 5292 004e FDE0     		b	.L290
 5293              	.L291:
 5294 0050 FB68     		ldr	r3, [r7, #12]
 5295 0052 0122     		movs	r2, #1
 5296 0054 83F83C20 		strb	r2, [r3, #60]
 5297 0058 FB68     		ldr	r3, [r7, #12]
 5298 005a 1B68     		ldr	r3, [r3]
 5299 005c 1B68     		ldr	r3, [r3]
 5300 005e 03F00103 		and	r3, r3, #1
 5301 0062 012B     		cmp	r3, #1
 5302 0064 07D0     		beq	.L292
 5303 0066 FB68     		ldr	r3, [r7, #12]
 5304 0068 1B68     		ldr	r3, [r3]
 5305 006a 1A68     		ldr	r2, [r3]
 5306 006c FB68     		ldr	r3, [r7, #12]
 5307 006e 1B68     		ldr	r3, [r3]
 5308 0070 42F00102 		orr	r2, r2, #1
 5309 0074 1A60     		str	r2, [r3]
 5310              	.L292:
 5311 0076 FB68     		ldr	r3, [r7, #12]
 5312 0078 1B68     		ldr	r3, [r3]
 5313 007a 1A68     		ldr	r2, [r3]
 5314 007c FB68     		ldr	r3, [r7, #12]
 5315 007e 1B68     		ldr	r3, [r3]
 5316 0080 22F40062 		bic	r2, r2, #2048
 5317 0084 1A60     		str	r2, [r3]
 5318 0086 FB68     		ldr	r3, [r7, #12]
 5319 0088 2422     		movs	r2, #36
 5320 008a 83F83D20 		strb	r2, [r3, #61]
 5321 008e FB68     		ldr	r3, [r7, #12]
 5322 0090 0022     		movs	r2, #0
 5323 0092 1A64     		str	r2, [r3, #64]
 5324 0094 FB68     		ldr	r3, [r7, #12]
 5325 0096 704A     		ldr	r2, .L304+4
 5326 0098 DA62     		str	r2, [r3, #44]
 5327              	.L303:
 5328 009a FB68     		ldr	r3, [r7, #12]
 5329 009c 1B68     		ldr	r3, [r3]
 5330 009e 1A68     		ldr	r2, [r3]
 5331 00a0 FB68     		ldr	r3, [r7, #12]
 5332 00a2 1B68     		ldr	r3, [r3]
 5333 00a4 42F48072 		orr	r2, r2, #256
 5334 00a8 1A60     		str	r2, [r3]
 5335 00aa FB69     		ldr	r3, [r7, #28]
 5336 00ac 0093     		str	r3, [sp]
 5337 00ae 3B68     		ldr	r3, [r7]
 5338 00b0 0022     		movs	r2, #0
 5339 00b2 4FF00111 		mov	r1, #65537
 5340 00b6 F868     		ldr	r0, [r7, #12]
 5341 00b8 FFF7FEFF 		bl	I2C_WaitOnFlagUntilTimeout
 5342 00bc 0346     		mov	r3, r0
 5343 00be 002B     		cmp	r3, #0
 5344 00c0 0DD0     		beq	.L293
 5345 00c2 FB68     		ldr	r3, [r7, #12]
 5346 00c4 1B68     		ldr	r3, [r3]
ARM GAS  C:\Users\user\AppData\Local\Temp\cchxWhRb.s 			page 94


 5347 00c6 1B68     		ldr	r3, [r3]
 5348 00c8 03F48073 		and	r3, r3, #256
 5349 00cc B3F5807F 		cmp	r3, #256
 5350 00d0 03D1     		bne	.L294
 5351 00d2 FB68     		ldr	r3, [r7, #12]
 5352 00d4 4FF40072 		mov	r2, #512
 5353 00d8 1A64     		str	r2, [r3, #64]
 5354              	.L294:
 5355 00da 0323     		movs	r3, #3
 5356 00dc B6E0     		b	.L290
 5357              	.L293:
 5358 00de 7B89     		ldrh	r3, [r7, #10]	@ movhi
 5359 00e0 DBB2     		uxtb	r3, r3
 5360 00e2 1A46     		mov	r2, r3
 5361 00e4 FB68     		ldr	r3, [r7, #12]
 5362 00e6 1B68     		ldr	r3, [r3]
 5363 00e8 02F0FE02 		and	r2, r2, #254
 5364 00ec 1A61     		str	r2, [r3, #16]
 5365 00ee FFF7FEFF 		bl	HAL_GetTick
 5366 00f2 F861     		str	r0, [r7, #28]
 5367 00f4 FB68     		ldr	r3, [r7, #12]
 5368 00f6 1B68     		ldr	r3, [r3]
 5369 00f8 5B69     		ldr	r3, [r3, #20]
 5370 00fa 03F00203 		and	r3, r3, #2
 5371 00fe 022B     		cmp	r3, #2
 5372 0100 0CBF     		ite	eq
 5373 0102 0123     		moveq	r3, #1
 5374 0104 0023     		movne	r3, #0
 5375 0106 DBB2     		uxtb	r3, r3
 5376 0108 FB75     		strb	r3, [r7, #23]
 5377 010a FB68     		ldr	r3, [r7, #12]
 5378 010c 1B68     		ldr	r3, [r3]
 5379 010e 5B69     		ldr	r3, [r3, #20]
 5380 0110 03F48063 		and	r3, r3, #1024
 5381 0114 B3F5806F 		cmp	r3, #1024
 5382 0118 0CBF     		ite	eq
 5383 011a 0123     		moveq	r3, #1
 5384 011c 0023     		movne	r3, #0
 5385 011e DBB2     		uxtb	r3, r3
 5386 0120 BB75     		strb	r3, [r7, #22]
 5387 0122 25E0     		b	.L295
 5388              	.L299:
 5389 0124 FFF7FEFF 		bl	HAL_GetTick
 5390 0128 0246     		mov	r2, r0
 5391 012a FB69     		ldr	r3, [r7, #28]
 5392 012c D31A     		subs	r3, r2, r3
 5393 012e 3A68     		ldr	r2, [r7]
 5394 0130 9A42     		cmp	r2, r3
 5395 0132 02D3     		bcc	.L296
 5396 0134 3B68     		ldr	r3, [r7]
 5397 0136 002B     		cmp	r3, #0
 5398 0138 03D1     		bne	.L297
 5399              	.L296:
 5400 013a FB68     		ldr	r3, [r7, #12]
 5401 013c A022     		movs	r2, #160
 5402 013e 83F83D20 		strb	r2, [r3, #61]
 5403              	.L297:
ARM GAS  C:\Users\user\AppData\Local\Temp\cchxWhRb.s 			page 95


 5404 0142 FB68     		ldr	r3, [r7, #12]
 5405 0144 1B68     		ldr	r3, [r3]
 5406 0146 5B69     		ldr	r3, [r3, #20]
 5407 0148 03F00203 		and	r3, r3, #2
 5408 014c 022B     		cmp	r3, #2
 5409 014e 0CBF     		ite	eq
 5410 0150 0123     		moveq	r3, #1
 5411 0152 0023     		movne	r3, #0
 5412 0154 DBB2     		uxtb	r3, r3
 5413 0156 FB75     		strb	r3, [r7, #23]
 5414 0158 FB68     		ldr	r3, [r7, #12]
 5415 015a 1B68     		ldr	r3, [r3]
 5416 015c 5B69     		ldr	r3, [r3, #20]
 5417 015e 03F48063 		and	r3, r3, #1024
 5418 0162 B3F5806F 		cmp	r3, #1024
 5419 0166 0CBF     		ite	eq
 5420 0168 0123     		moveq	r3, #1
 5421 016a 0023     		movne	r3, #0
 5422 016c DBB2     		uxtb	r3, r3
 5423 016e BB75     		strb	r3, [r7, #22]
 5424              	.L295:
 5425 0170 FB68     		ldr	r3, [r7, #12]
 5426 0172 93F83D30 		ldrb	r3, [r3, #61]
 5427 0176 DBB2     		uxtb	r3, r3
 5428 0178 A02B     		cmp	r3, #160
 5429 017a 05D0     		beq	.L298
 5430 017c FB7D     		ldrb	r3, [r7, #23]	@ zero_extendqisi2
 5431 017e 002B     		cmp	r3, #0
 5432 0180 02D1     		bne	.L298
 5433 0182 BB7D     		ldrb	r3, [r7, #22]	@ zero_extendqisi2
 5434 0184 002B     		cmp	r3, #0
 5435 0186 CDD0     		beq	.L299
 5436              	.L298:
 5437 0188 FB68     		ldr	r3, [r7, #12]
 5438 018a 2022     		movs	r2, #32
 5439 018c 83F83D20 		strb	r2, [r3, #61]
 5440 0190 FB68     		ldr	r3, [r7, #12]
 5441 0192 1B68     		ldr	r3, [r3]
 5442 0194 5B69     		ldr	r3, [r3, #20]
 5443 0196 03F00203 		and	r3, r3, #2
 5444 019a 022B     		cmp	r3, #2
 5445 019c 29D1     		bne	.L300
 5446 019e FB68     		ldr	r3, [r7, #12]
 5447 01a0 1B68     		ldr	r3, [r3]
 5448 01a2 1A68     		ldr	r2, [r3]
 5449 01a4 FB68     		ldr	r3, [r7, #12]
 5450 01a6 1B68     		ldr	r3, [r3]
 5451 01a8 42F40072 		orr	r2, r2, #512
 5452 01ac 1A60     		str	r2, [r3]
 5453 01ae 0023     		movs	r3, #0
 5454 01b0 3B61     		str	r3, [r7, #16]
 5455 01b2 FB68     		ldr	r3, [r7, #12]
 5456 01b4 1B68     		ldr	r3, [r3]
 5457 01b6 5B69     		ldr	r3, [r3, #20]
 5458 01b8 3B61     		str	r3, [r7, #16]
 5459 01ba FB68     		ldr	r3, [r7, #12]
 5460 01bc 1B68     		ldr	r3, [r3]
ARM GAS  C:\Users\user\AppData\Local\Temp\cchxWhRb.s 			page 96


 5461 01be 9B69     		ldr	r3, [r3, #24]
 5462 01c0 3B61     		str	r3, [r7, #16]
 5463 01c2 3B69     		ldr	r3, [r7, #16]
 5464 01c4 FB69     		ldr	r3, [r7, #28]
 5465 01c6 0093     		str	r3, [sp]
 5466 01c8 1923     		movs	r3, #25
 5467 01ca 0122     		movs	r2, #1
 5468 01cc 2149     		ldr	r1, .L304
 5469 01ce F868     		ldr	r0, [r7, #12]
 5470 01d0 FFF7FEFF 		bl	I2C_WaitOnFlagUntilTimeout
 5471 01d4 0346     		mov	r3, r0
 5472 01d6 002B     		cmp	r3, #0
 5473 01d8 01D0     		beq	.L301
 5474 01da 0123     		movs	r3, #1
 5475 01dc 36E0     		b	.L290
 5476              	.L301:
 5477 01de FB68     		ldr	r3, [r7, #12]
 5478 01e0 2022     		movs	r2, #32
 5479 01e2 83F83D20 		strb	r2, [r3, #61]
 5480 01e6 FB68     		ldr	r3, [r7, #12]
 5481 01e8 0022     		movs	r2, #0
 5482 01ea 83F83C20 		strb	r2, [r3, #60]
 5483 01ee 0023     		movs	r3, #0
 5484 01f0 2CE0     		b	.L290
 5485              	.L300:
 5486 01f2 FB68     		ldr	r3, [r7, #12]
 5487 01f4 1B68     		ldr	r3, [r3]
 5488 01f6 1A68     		ldr	r2, [r3]
 5489 01f8 FB68     		ldr	r3, [r7, #12]
 5490 01fa 1B68     		ldr	r3, [r3]
 5491 01fc 42F40072 		orr	r2, r2, #512
 5492 0200 1A60     		str	r2, [r3]
 5493 0202 FB68     		ldr	r3, [r7, #12]
 5494 0204 1B68     		ldr	r3, [r3]
 5495 0206 6FF48062 		mvn	r2, #1024
 5496 020a 5A61     		str	r2, [r3, #20]
 5497 020c FB69     		ldr	r3, [r7, #28]
 5498 020e 0093     		str	r3, [sp]
 5499 0210 1923     		movs	r3, #25
 5500 0212 0122     		movs	r2, #1
 5501 0214 0F49     		ldr	r1, .L304
 5502 0216 F868     		ldr	r0, [r7, #12]
 5503 0218 FFF7FEFF 		bl	I2C_WaitOnFlagUntilTimeout
 5504 021c 0346     		mov	r3, r0
 5505 021e 002B     		cmp	r3, #0
 5506 0220 01D0     		beq	.L302
 5507 0222 0123     		movs	r3, #1
 5508 0224 12E0     		b	.L290
 5509              	.L302:
 5510 0226 BB69     		ldr	r3, [r7, #24]
 5511 0228 0133     		adds	r3, r3, #1
 5512 022a BB61     		str	r3, [r7, #24]
 5513 022c BA69     		ldr	r2, [r7, #24]
 5514 022e 7B68     		ldr	r3, [r7, #4]
 5515 0230 9A42     		cmp	r2, r3
 5516 0232 FFF432AF 		bcc	.L303
 5517 0236 FB68     		ldr	r3, [r7, #12]
ARM GAS  C:\Users\user\AppData\Local\Temp\cchxWhRb.s 			page 97


 5518 0238 2022     		movs	r2, #32
 5519 023a 83F83D20 		strb	r2, [r3, #61]
 5520 023e FB68     		ldr	r3, [r7, #12]
 5521 0240 0022     		movs	r2, #0
 5522 0242 83F83C20 		strb	r2, [r3, #60]
 5523 0246 0123     		movs	r3, #1
 5524 0248 00E0     		b	.L290
 5525              	.L288:
 5526 024a 0223     		movs	r3, #2
 5527              	.L290:
 5528 024c 1846     		mov	r0, r3
 5529 024e 2037     		adds	r7, r7, #32
 5530 0250 BD46     		mov	sp, r7
 5531              		@ sp needed
 5532 0252 80BD     		pop	{r7, pc}
 5533              	.L305:
 5534              		.align	2
 5535              	.L304:
 5536 0254 02001000 		.word	1048578
 5537 0258 0000FFFF 		.word	-65536
 5539              		.section	.text.HAL_I2C_Master_Seq_Transmit_IT,"ax",%progbits
 5540              		.align	1
 5541              		.global	HAL_I2C_Master_Seq_Transmit_IT
 5542              		.syntax unified
 5543              		.thumb
 5544              		.thumb_func
 5546              	HAL_I2C_Master_Seq_Transmit_IT:
 5547              		@ args = 4, pretend = 0, frame = 24
 5548              		@ frame_needed = 1, uses_anonymous_args = 0
 5549              		@ link register save eliminated.
 5550 0000 80B4     		push	{r7}
 5551 0002 87B0     		sub	sp, sp, #28
 5552 0004 00AF     		add	r7, sp, #0
 5553 0006 F860     		str	r0, [r7, #12]
 5554 0008 7A60     		str	r2, [r7, #4]
 5555 000a 1A46     		mov	r2, r3
 5556 000c 0B46     		mov	r3, r1	@ movhi
 5557 000e 7B81     		strh	r3, [r7, #10]	@ movhi
 5558 0010 1346     		mov	r3, r2	@ movhi
 5559 0012 3B81     		strh	r3, [r7, #8]	@ movhi
 5560 0014 0023     		movs	r3, #0
 5561 0016 7B61     		str	r3, [r7, #20]
 5562 0018 0023     		movs	r3, #0
 5563 001a 3B61     		str	r3, [r7, #16]
 5564 001c FB68     		ldr	r3, [r7, #12]
 5565 001e 93F83D30 		ldrb	r3, [r3, #61]
 5566 0022 DBB2     		uxtb	r3, r3
 5567 0024 202B     		cmp	r3, #32
 5568 0026 40F0A680 		bne	.L307
 5569 002a FB68     		ldr	r3, [r7, #12]
 5570 002c 1B68     		ldr	r3, [r3]
 5571 002e 1B68     		ldr	r3, [r3]
 5572 0030 03F40073 		and	r3, r3, #512
 5573 0034 B3F5007F 		cmp	r3, #512
 5574 0038 05D0     		beq	.L308
 5575 003a 3B6A     		ldr	r3, [r7, #32]
 5576 003c 082B     		cmp	r3, #8
ARM GAS  C:\Users\user\AppData\Local\Temp\cchxWhRb.s 			page 98


 5577 003e 02D0     		beq	.L308
 5578 0040 3B6A     		ldr	r3, [r7, #32]
 5579 0042 012B     		cmp	r3, #1
 5580 0044 30D1     		bne	.L309
 5581              	.L308:
 5582 0046 4F4B     		ldr	r3, .L320
 5583 0048 1B68     		ldr	r3, [r3]
 5584 004a DB08     		lsrs	r3, r3, #3
 5585 004c 4E4A     		ldr	r2, .L320+4
 5586 004e A2FB0323 		umull	r2, r3, r2, r3
 5587 0052 1A0A     		lsrs	r2, r3, #8
 5588 0054 1346     		mov	r3, r2
 5589 0056 9B00     		lsls	r3, r3, #2
 5590 0058 1344     		add	r3, r3, r2
 5591 005a 9A00     		lsls	r2, r3, #2
 5592 005c 1344     		add	r3, r3, r2
 5593 005e 3B61     		str	r3, [r7, #16]
 5594              	.L312:
 5595 0060 3B69     		ldr	r3, [r7, #16]
 5596 0062 013B     		subs	r3, r3, #1
 5597 0064 3B61     		str	r3, [r7, #16]
 5598 0066 3B69     		ldr	r3, [r7, #16]
 5599 0068 002B     		cmp	r3, #0
 5600 006a 16D1     		bne	.L310
 5601 006c FB68     		ldr	r3, [r7, #12]
 5602 006e 0022     		movs	r2, #0
 5603 0070 1A63     		str	r2, [r3, #48]
 5604 0072 FB68     		ldr	r3, [r7, #12]
 5605 0074 2022     		movs	r2, #32
 5606 0076 83F83D20 		strb	r2, [r3, #61]
 5607 007a FB68     		ldr	r3, [r7, #12]
 5608 007c 0022     		movs	r2, #0
 5609 007e 83F83E20 		strb	r2, [r3, #62]
 5610 0082 FB68     		ldr	r3, [r7, #12]
 5611 0084 1B6C     		ldr	r3, [r3, #64]
 5612 0086 43F02002 		orr	r2, r3, #32
 5613 008a FB68     		ldr	r3, [r7, #12]
 5614 008c 1A64     		str	r2, [r3, #64]
 5615 008e FB68     		ldr	r3, [r7, #12]
 5616 0090 0022     		movs	r2, #0
 5617 0092 83F83C20 		strb	r2, [r3, #60]
 5618 0096 0123     		movs	r3, #1
 5619 0098 6EE0     		b	.L311
 5620              	.L310:
 5621 009a FB68     		ldr	r3, [r7, #12]
 5622 009c 1B68     		ldr	r3, [r3]
 5623 009e 9B69     		ldr	r3, [r3, #24]
 5624 00a0 03F00203 		and	r3, r3, #2
 5625 00a4 022B     		cmp	r3, #2
 5626 00a6 DBD0     		beq	.L312
 5627              	.L309:
 5628 00a8 FB68     		ldr	r3, [r7, #12]
 5629 00aa 93F83C30 		ldrb	r3, [r3, #60]	@ zero_extendqisi2
 5630 00ae 012B     		cmp	r3, #1
 5631 00b0 01D1     		bne	.L313
 5632 00b2 0223     		movs	r3, #2
 5633 00b4 60E0     		b	.L311
ARM GAS  C:\Users\user\AppData\Local\Temp\cchxWhRb.s 			page 99


 5634              	.L313:
 5635 00b6 FB68     		ldr	r3, [r7, #12]
 5636 00b8 0122     		movs	r2, #1
 5637 00ba 83F83C20 		strb	r2, [r3, #60]
 5638 00be FB68     		ldr	r3, [r7, #12]
 5639 00c0 1B68     		ldr	r3, [r3]
 5640 00c2 1B68     		ldr	r3, [r3]
 5641 00c4 03F00103 		and	r3, r3, #1
 5642 00c8 012B     		cmp	r3, #1
 5643 00ca 07D0     		beq	.L314
 5644 00cc FB68     		ldr	r3, [r7, #12]
 5645 00ce 1B68     		ldr	r3, [r3]
 5646 00d0 1A68     		ldr	r2, [r3]
 5647 00d2 FB68     		ldr	r3, [r7, #12]
 5648 00d4 1B68     		ldr	r3, [r3]
 5649 00d6 42F00102 		orr	r2, r2, #1
 5650 00da 1A60     		str	r2, [r3]
 5651              	.L314:
 5652 00dc FB68     		ldr	r3, [r7, #12]
 5653 00de 1B68     		ldr	r3, [r3]
 5654 00e0 1A68     		ldr	r2, [r3]
 5655 00e2 FB68     		ldr	r3, [r7, #12]
 5656 00e4 1B68     		ldr	r3, [r3]
 5657 00e6 22F40062 		bic	r2, r2, #2048
 5658 00ea 1A60     		str	r2, [r3]
 5659 00ec FB68     		ldr	r3, [r7, #12]
 5660 00ee 2122     		movs	r2, #33
 5661 00f0 83F83D20 		strb	r2, [r3, #61]
 5662 00f4 FB68     		ldr	r3, [r7, #12]
 5663 00f6 1022     		movs	r2, #16
 5664 00f8 83F83E20 		strb	r2, [r3, #62]
 5665 00fc FB68     		ldr	r3, [r7, #12]
 5666 00fe 0022     		movs	r2, #0
 5667 0100 1A64     		str	r2, [r3, #64]
 5668 0102 FB68     		ldr	r3, [r7, #12]
 5669 0104 7A68     		ldr	r2, [r7, #4]
 5670 0106 5A62     		str	r2, [r3, #36]
 5671 0108 FB68     		ldr	r3, [r7, #12]
 5672 010a 3A89     		ldrh	r2, [r7, #8]	@ movhi
 5673 010c 5A85     		strh	r2, [r3, #42]	@ movhi
 5674 010e FB68     		ldr	r3, [r7, #12]
 5675 0110 5B8D     		ldrh	r3, [r3, #42]	@ movhi
 5676 0112 9AB2     		uxth	r2, r3
 5677 0114 FB68     		ldr	r3, [r7, #12]
 5678 0116 1A85     		strh	r2, [r3, #40]	@ movhi
 5679 0118 FB68     		ldr	r3, [r7, #12]
 5680 011a 3A6A     		ldr	r2, [r7, #32]
 5681 011c DA62     		str	r2, [r3, #44]
 5682 011e 7A89     		ldrh	r2, [r7, #10]
 5683 0120 FB68     		ldr	r3, [r7, #12]
 5684 0122 5A64     		str	r2, [r3, #68]
 5685 0124 FB68     		ldr	r3, [r7, #12]
 5686 0126 1B6B     		ldr	r3, [r3, #48]
 5687 0128 7B61     		str	r3, [r7, #20]
 5688 012a 7B69     		ldr	r3, [r7, #20]
 5689 012c 112B     		cmp	r3, #17
 5690 012e 0CD1     		bne	.L315
ARM GAS  C:\Users\user\AppData\Local\Temp\cchxWhRb.s 			page 100


 5691 0130 3B6A     		ldr	r3, [r7, #32]
 5692 0132 B3F52A0F 		cmp	r3, #11141120
 5693 0136 03D0     		beq	.L316
 5694 0138 3B6A     		ldr	r3, [r7, #32]
 5695 013a B3F12A4F 		cmp	r3, #-1442840576
 5696 013e 01D1     		bne	.L317
 5697              	.L316:
 5698 0140 0123     		movs	r3, #1
 5699 0142 00E0     		b	.L318
 5700              	.L317:
 5701 0144 0023     		movs	r3, #0
 5702              	.L318:
 5703 0146 012B     		cmp	r3, #1
 5704 0148 07D1     		bne	.L319
 5705              	.L315:
 5706 014a FB68     		ldr	r3, [r7, #12]
 5707 014c 1B68     		ldr	r3, [r3]
 5708 014e 1A68     		ldr	r2, [r3]
 5709 0150 FB68     		ldr	r3, [r7, #12]
 5710 0152 1B68     		ldr	r3, [r3]
 5711 0154 42F48072 		orr	r2, r2, #256
 5712 0158 1A60     		str	r2, [r3]
 5713              	.L319:
 5714 015a FB68     		ldr	r3, [r7, #12]
 5715 015c 0022     		movs	r2, #0
 5716 015e 83F83C20 		strb	r2, [r3, #60]
 5717 0162 FB68     		ldr	r3, [r7, #12]
 5718 0164 1B68     		ldr	r3, [r3]
 5719 0166 5A68     		ldr	r2, [r3, #4]
 5720 0168 FB68     		ldr	r3, [r7, #12]
 5721 016a 1B68     		ldr	r3, [r3]
 5722 016c 42F4E062 		orr	r2, r2, #1792
 5723 0170 5A60     		str	r2, [r3, #4]
 5724 0172 0023     		movs	r3, #0
 5725 0174 00E0     		b	.L311
 5726              	.L307:
 5727 0176 0223     		movs	r3, #2
 5728              	.L311:
 5729 0178 1846     		mov	r0, r3
 5730 017a 1C37     		adds	r7, r7, #28
 5731 017c BD46     		mov	sp, r7
 5732              		@ sp needed
 5733 017e 5DF8047B 		ldr	r7, [sp], #4
 5734 0182 7047     		bx	lr
 5735              	.L321:
 5736              		.align	2
 5737              	.L320:
 5738 0184 00000000 		.word	SystemCoreClock
 5739 0188 89B5F814 		.word	351843721
 5741              		.section	.text.HAL_I2C_Master_Seq_Transmit_DMA,"ax",%progbits
 5742              		.align	1
 5743              		.global	HAL_I2C_Master_Seq_Transmit_DMA
 5744              		.syntax unified
 5745              		.thumb
 5746              		.thumb_func
 5748              	HAL_I2C_Master_Seq_Transmit_DMA:
 5749              		@ args = 4, pretend = 0, frame = 32
ARM GAS  C:\Users\user\AppData\Local\Temp\cchxWhRb.s 			page 101


 5750              		@ frame_needed = 1, uses_anonymous_args = 0
 5751 0000 80B5     		push	{r7, lr}
 5752 0002 88B0     		sub	sp, sp, #32
 5753 0004 00AF     		add	r7, sp, #0
 5754 0006 F860     		str	r0, [r7, #12]
 5755 0008 7A60     		str	r2, [r7, #4]
 5756 000a 1A46     		mov	r2, r3
 5757 000c 0B46     		mov	r3, r1	@ movhi
 5758 000e 7B81     		strh	r3, [r7, #10]	@ movhi
 5759 0010 1346     		mov	r3, r2	@ movhi
 5760 0012 3B81     		strh	r3, [r7, #8]	@ movhi
 5761 0014 0023     		movs	r3, #0
 5762 0016 BB61     		str	r3, [r7, #24]
 5763 0018 0023     		movs	r3, #0
 5764 001a 7B61     		str	r3, [r7, #20]
 5765 001c FB68     		ldr	r3, [r7, #12]
 5766 001e 93F83D30 		ldrb	r3, [r3, #61]
 5767 0022 DBB2     		uxtb	r3, r3
 5768 0024 202B     		cmp	r3, #32
 5769 0026 40F04981 		bne	.L323
 5770 002a FB68     		ldr	r3, [r7, #12]
 5771 002c 1B68     		ldr	r3, [r3]
 5772 002e 1B68     		ldr	r3, [r3]
 5773 0030 03F40073 		and	r3, r3, #512
 5774 0034 B3F5007F 		cmp	r3, #512
 5775 0038 05D0     		beq	.L324
 5776 003a BB6A     		ldr	r3, [r7, #40]
 5777 003c 082B     		cmp	r3, #8
 5778 003e 02D0     		beq	.L324
 5779 0040 BB6A     		ldr	r3, [r7, #40]
 5780 0042 012B     		cmp	r3, #1
 5781 0044 30D1     		bne	.L325
 5782              	.L324:
 5783 0046 994B     		ldr	r3, .L349
 5784 0048 1B68     		ldr	r3, [r3]
 5785 004a DB08     		lsrs	r3, r3, #3
 5786 004c 984A     		ldr	r2, .L349+4
 5787 004e A2FB0323 		umull	r2, r3, r2, r3
 5788 0052 1A0A     		lsrs	r2, r3, #8
 5789 0054 1346     		mov	r3, r2
 5790 0056 9B00     		lsls	r3, r3, #2
 5791 0058 1344     		add	r3, r3, r2
 5792 005a 9A00     		lsls	r2, r3, #2
 5793 005c 1344     		add	r3, r3, r2
 5794 005e 7B61     		str	r3, [r7, #20]
 5795              	.L328:
 5796 0060 7B69     		ldr	r3, [r7, #20]
 5797 0062 013B     		subs	r3, r3, #1
 5798 0064 7B61     		str	r3, [r7, #20]
 5799 0066 7B69     		ldr	r3, [r7, #20]
 5800 0068 002B     		cmp	r3, #0
 5801 006a 16D1     		bne	.L326
 5802 006c FB68     		ldr	r3, [r7, #12]
 5803 006e 0022     		movs	r2, #0
 5804 0070 1A63     		str	r2, [r3, #48]
 5805 0072 FB68     		ldr	r3, [r7, #12]
 5806 0074 2022     		movs	r2, #32
ARM GAS  C:\Users\user\AppData\Local\Temp\cchxWhRb.s 			page 102


 5807 0076 83F83D20 		strb	r2, [r3, #61]
 5808 007a FB68     		ldr	r3, [r7, #12]
 5809 007c 0022     		movs	r2, #0
 5810 007e 83F83E20 		strb	r2, [r3, #62]
 5811 0082 FB68     		ldr	r3, [r7, #12]
 5812 0084 1B6C     		ldr	r3, [r3, #64]
 5813 0086 43F02002 		orr	r2, r3, #32
 5814 008a FB68     		ldr	r3, [r7, #12]
 5815 008c 1A64     		str	r2, [r3, #64]
 5816 008e FB68     		ldr	r3, [r7, #12]
 5817 0090 0022     		movs	r2, #0
 5818 0092 83F83C20 		strb	r2, [r3, #60]
 5819 0096 0123     		movs	r3, #1
 5820 0098 11E1     		b	.L327
 5821              	.L326:
 5822 009a FB68     		ldr	r3, [r7, #12]
 5823 009c 1B68     		ldr	r3, [r3]
 5824 009e 9B69     		ldr	r3, [r3, #24]
 5825 00a0 03F00203 		and	r3, r3, #2
 5826 00a4 022B     		cmp	r3, #2
 5827 00a6 DBD0     		beq	.L328
 5828              	.L325:
 5829 00a8 FB68     		ldr	r3, [r7, #12]
 5830 00aa 93F83C30 		ldrb	r3, [r3, #60]	@ zero_extendqisi2
 5831 00ae 012B     		cmp	r3, #1
 5832 00b0 01D1     		bne	.L329
 5833 00b2 0223     		movs	r3, #2
 5834 00b4 03E1     		b	.L327
 5835              	.L329:
 5836 00b6 FB68     		ldr	r3, [r7, #12]
 5837 00b8 0122     		movs	r2, #1
 5838 00ba 83F83C20 		strb	r2, [r3, #60]
 5839 00be FB68     		ldr	r3, [r7, #12]
 5840 00c0 1B68     		ldr	r3, [r3]
 5841 00c2 1B68     		ldr	r3, [r3]
 5842 00c4 03F00103 		and	r3, r3, #1
 5843 00c8 012B     		cmp	r3, #1
 5844 00ca 07D0     		beq	.L330
 5845 00cc FB68     		ldr	r3, [r7, #12]
 5846 00ce 1B68     		ldr	r3, [r3]
 5847 00d0 1A68     		ldr	r2, [r3]
 5848 00d2 FB68     		ldr	r3, [r7, #12]
 5849 00d4 1B68     		ldr	r3, [r3]
 5850 00d6 42F00102 		orr	r2, r2, #1
 5851 00da 1A60     		str	r2, [r3]
 5852              	.L330:
 5853 00dc FB68     		ldr	r3, [r7, #12]
 5854 00de 1B68     		ldr	r3, [r3]
 5855 00e0 1A68     		ldr	r2, [r3]
 5856 00e2 FB68     		ldr	r3, [r7, #12]
 5857 00e4 1B68     		ldr	r3, [r3]
 5858 00e6 22F40062 		bic	r2, r2, #2048
 5859 00ea 1A60     		str	r2, [r3]
 5860 00ec FB68     		ldr	r3, [r7, #12]
 5861 00ee 2122     		movs	r2, #33
 5862 00f0 83F83D20 		strb	r2, [r3, #61]
 5863 00f4 FB68     		ldr	r3, [r7, #12]
ARM GAS  C:\Users\user\AppData\Local\Temp\cchxWhRb.s 			page 103


 5864 00f6 1022     		movs	r2, #16
 5865 00f8 83F83E20 		strb	r2, [r3, #62]
 5866 00fc FB68     		ldr	r3, [r7, #12]
 5867 00fe 0022     		movs	r2, #0
 5868 0100 1A64     		str	r2, [r3, #64]
 5869 0102 FB68     		ldr	r3, [r7, #12]
 5870 0104 7A68     		ldr	r2, [r7, #4]
 5871 0106 5A62     		str	r2, [r3, #36]
 5872 0108 FB68     		ldr	r3, [r7, #12]
 5873 010a 3A89     		ldrh	r2, [r7, #8]	@ movhi
 5874 010c 5A85     		strh	r2, [r3, #42]	@ movhi
 5875 010e FB68     		ldr	r3, [r7, #12]
 5876 0110 5B8D     		ldrh	r3, [r3, #42]	@ movhi
 5877 0112 9AB2     		uxth	r2, r3
 5878 0114 FB68     		ldr	r3, [r7, #12]
 5879 0116 1A85     		strh	r2, [r3, #40]	@ movhi
 5880 0118 FB68     		ldr	r3, [r7, #12]
 5881 011a BA6A     		ldr	r2, [r7, #40]
 5882 011c DA62     		str	r2, [r3, #44]
 5883 011e 7A89     		ldrh	r2, [r7, #10]
 5884 0120 FB68     		ldr	r3, [r7, #12]
 5885 0122 5A64     		str	r2, [r3, #68]
 5886 0124 FB68     		ldr	r3, [r7, #12]
 5887 0126 1B6B     		ldr	r3, [r3, #48]
 5888 0128 BB61     		str	r3, [r7, #24]
 5889 012a FB68     		ldr	r3, [r7, #12]
 5890 012c 1B8D     		ldrh	r3, [r3, #40]
 5891 012e 002B     		cmp	r3, #0
 5892 0130 00F08D80 		beq	.L331
 5893 0134 FB68     		ldr	r3, [r7, #12]
 5894 0136 5B6B     		ldr	r3, [r3, #52]
 5895 0138 002B     		cmp	r3, #0
 5896 013a 22D0     		beq	.L332
 5897 013c FB68     		ldr	r3, [r7, #12]
 5898 013e 5B6B     		ldr	r3, [r3, #52]
 5899 0140 5C4A     		ldr	r2, .L349+8
 5900 0142 DA63     		str	r2, [r3, #60]
 5901 0144 FB68     		ldr	r3, [r7, #12]
 5902 0146 5B6B     		ldr	r3, [r3, #52]
 5903 0148 5B4A     		ldr	r2, .L349+12
 5904 014a DA64     		str	r2, [r3, #76]
 5905 014c FB68     		ldr	r3, [r7, #12]
 5906 014e 5B6B     		ldr	r3, [r3, #52]
 5907 0150 0022     		movs	r2, #0
 5908 0152 1A64     		str	r2, [r3, #64]
 5909 0154 FB68     		ldr	r3, [r7, #12]
 5910 0156 5B6B     		ldr	r3, [r3, #52]
 5911 0158 0022     		movs	r2, #0
 5912 015a 1A65     		str	r2, [r3, #80]
 5913 015c FB68     		ldr	r3, [r7, #12]
 5914 015e 586B     		ldr	r0, [r3, #52]
 5915 0160 FB68     		ldr	r3, [r7, #12]
 5916 0162 5B6A     		ldr	r3, [r3, #36]
 5917 0164 1946     		mov	r1, r3
 5918 0166 FB68     		ldr	r3, [r7, #12]
 5919 0168 1B68     		ldr	r3, [r3]
 5920 016a 1033     		adds	r3, r3, #16
ARM GAS  C:\Users\user\AppData\Local\Temp\cchxWhRb.s 			page 104


 5921 016c 1A46     		mov	r2, r3
 5922 016e FB68     		ldr	r3, [r7, #12]
 5923 0170 1B8D     		ldrh	r3, [r3, #40]
 5924 0172 FFF7FEFF 		bl	HAL_DMA_Start_IT
 5925 0176 0346     		mov	r3, r0
 5926 0178 FB77     		strb	r3, [r7, #31]
 5927 017a FB7F     		ldrb	r3, [r7, #31]	@ zero_extendqisi2
 5928 017c 002B     		cmp	r3, #0
 5929 017e 52D1     		bne	.L334
 5930 0180 13E0     		b	.L348
 5931              	.L332:
 5932 0182 FB68     		ldr	r3, [r7, #12]
 5933 0184 2022     		movs	r2, #32
 5934 0186 83F83D20 		strb	r2, [r3, #61]
 5935 018a FB68     		ldr	r3, [r7, #12]
 5936 018c 0022     		movs	r2, #0
 5937 018e 83F83E20 		strb	r2, [r3, #62]
 5938 0192 FB68     		ldr	r3, [r7, #12]
 5939 0194 1B6C     		ldr	r3, [r3, #64]
 5940 0196 43F08002 		orr	r2, r3, #128
 5941 019a FB68     		ldr	r3, [r7, #12]
 5942 019c 1A64     		str	r2, [r3, #64]
 5943 019e FB68     		ldr	r3, [r7, #12]
 5944 01a0 0022     		movs	r2, #0
 5945 01a2 83F83C20 		strb	r2, [r3, #60]
 5946 01a6 0123     		movs	r3, #1
 5947 01a8 89E0     		b	.L327
 5948              	.L348:
 5949 01aa FB68     		ldr	r3, [r7, #12]
 5950 01ac 1B68     		ldr	r3, [r3]
 5951 01ae 1A68     		ldr	r2, [r3]
 5952 01b0 FB68     		ldr	r3, [r7, #12]
 5953 01b2 1B68     		ldr	r3, [r3]
 5954 01b4 42F48062 		orr	r2, r2, #1024
 5955 01b8 1A60     		str	r2, [r3]
 5956 01ba BB69     		ldr	r3, [r7, #24]
 5957 01bc 112B     		cmp	r3, #17
 5958 01be 0CD1     		bne	.L335
 5959 01c0 BB6A     		ldr	r3, [r7, #40]
 5960 01c2 B3F52A0F 		cmp	r3, #11141120
 5961 01c6 03D0     		beq	.L336
 5962 01c8 BB6A     		ldr	r3, [r7, #40]
 5963 01ca B3F12A4F 		cmp	r3, #-1442840576
 5964 01ce 01D1     		bne	.L337
 5965              	.L336:
 5966 01d0 0123     		movs	r3, #1
 5967 01d2 00E0     		b	.L338
 5968              	.L337:
 5969 01d4 0023     		movs	r3, #0
 5970              	.L338:
 5971 01d6 012B     		cmp	r3, #1
 5972 01d8 07D1     		bne	.L339
 5973              	.L335:
 5974 01da FB68     		ldr	r3, [r7, #12]
 5975 01dc 1B68     		ldr	r3, [r3]
 5976 01de 1A68     		ldr	r2, [r3]
 5977 01e0 FB68     		ldr	r3, [r7, #12]
ARM GAS  C:\Users\user\AppData\Local\Temp\cchxWhRb.s 			page 105


 5978 01e2 1B68     		ldr	r3, [r3]
 5979 01e4 42F48072 		orr	r2, r2, #256
 5980 01e8 1A60     		str	r2, [r3]
 5981              	.L339:
 5982 01ea FB68     		ldr	r3, [r7, #12]
 5983 01ec 0022     		movs	r2, #0
 5984 01ee 83F83C20 		strb	r2, [r3, #60]
 5985 01f2 BB6A     		ldr	r3, [r7, #40]
 5986 01f4 042B     		cmp	r3, #4
 5987 01f6 05D0     		beq	.L340
 5988 01f8 BB6A     		ldr	r3, [r7, #40]
 5989 01fa 202B     		cmp	r3, #32
 5990 01fc 02D0     		beq	.L340
 5991 01fe BB6A     		ldr	r3, [r7, #40]
 5992 0200 102B     		cmp	r3, #16
 5993 0202 07D1     		bne	.L341
 5994              	.L340:
 5995 0204 FB68     		ldr	r3, [r7, #12]
 5996 0206 1B68     		ldr	r3, [r3]
 5997 0208 5A68     		ldr	r2, [r3, #4]
 5998 020a FB68     		ldr	r3, [r7, #12]
 5999 020c 1B68     		ldr	r3, [r3]
 6000 020e 42F40062 		orr	r2, r2, #2048
 6001 0212 5A60     		str	r2, [r3, #4]
 6002              	.L341:
 6003 0214 FB68     		ldr	r3, [r7, #12]
 6004 0216 1B68     		ldr	r3, [r3]
 6005 0218 5A68     		ldr	r2, [r3, #4]
 6006 021a FB68     		ldr	r3, [r7, #12]
 6007 021c 1B68     		ldr	r3, [r3]
 6008 021e 42F44072 		orr	r2, r2, #768
 6009 0222 5A60     		str	r2, [r3, #4]
 6010 0224 3FE0     		b	.L342
 6011              	.L334:
 6012 0226 FB68     		ldr	r3, [r7, #12]
 6013 0228 2022     		movs	r2, #32
 6014 022a 83F83D20 		strb	r2, [r3, #61]
 6015 022e FB68     		ldr	r3, [r7, #12]
 6016 0230 0022     		movs	r2, #0
 6017 0232 83F83E20 		strb	r2, [r3, #62]
 6018 0236 FB68     		ldr	r3, [r7, #12]
 6019 0238 1B6C     		ldr	r3, [r3, #64]
 6020 023a 43F01002 		orr	r2, r3, #16
 6021 023e FB68     		ldr	r3, [r7, #12]
 6022 0240 1A64     		str	r2, [r3, #64]
 6023 0242 FB68     		ldr	r3, [r7, #12]
 6024 0244 0022     		movs	r2, #0
 6025 0246 83F83C20 		strb	r2, [r3, #60]
 6026 024a 0123     		movs	r3, #1
 6027 024c 37E0     		b	.L327
 6028              	.L331:
 6029 024e FB68     		ldr	r3, [r7, #12]
 6030 0250 1B68     		ldr	r3, [r3]
 6031 0252 1A68     		ldr	r2, [r3]
 6032 0254 FB68     		ldr	r3, [r7, #12]
 6033 0256 1B68     		ldr	r3, [r3]
 6034 0258 42F48062 		orr	r2, r2, #1024
ARM GAS  C:\Users\user\AppData\Local\Temp\cchxWhRb.s 			page 106


 6035 025c 1A60     		str	r2, [r3]
 6036 025e BB69     		ldr	r3, [r7, #24]
 6037 0260 112B     		cmp	r3, #17
 6038 0262 0CD1     		bne	.L343
 6039 0264 BB6A     		ldr	r3, [r7, #40]
 6040 0266 B3F52A0F 		cmp	r3, #11141120
 6041 026a 03D0     		beq	.L344
 6042 026c BB6A     		ldr	r3, [r7, #40]
 6043 026e B3F12A4F 		cmp	r3, #-1442840576
 6044 0272 01D1     		bne	.L345
 6045              	.L344:
 6046 0274 0123     		movs	r3, #1
 6047 0276 00E0     		b	.L346
 6048              	.L345:
 6049 0278 0023     		movs	r3, #0
 6050              	.L346:
 6051 027a 012B     		cmp	r3, #1
 6052 027c 07D1     		bne	.L347
 6053              	.L343:
 6054 027e FB68     		ldr	r3, [r7, #12]
 6055 0280 1B68     		ldr	r3, [r3]
 6056 0282 1A68     		ldr	r2, [r3]
 6057 0284 FB68     		ldr	r3, [r7, #12]
 6058 0286 1B68     		ldr	r3, [r3]
 6059 0288 42F48072 		orr	r2, r2, #256
 6060 028c 1A60     		str	r2, [r3]
 6061              	.L347:
 6062 028e FB68     		ldr	r3, [r7, #12]
 6063 0290 0022     		movs	r2, #0
 6064 0292 83F83C20 		strb	r2, [r3, #60]
 6065 0296 FB68     		ldr	r3, [r7, #12]
 6066 0298 1B68     		ldr	r3, [r3]
 6067 029a 5A68     		ldr	r2, [r3, #4]
 6068 029c FB68     		ldr	r3, [r7, #12]
 6069 029e 1B68     		ldr	r3, [r3]
 6070 02a0 42F4E062 		orr	r2, r2, #1792
 6071 02a4 5A60     		str	r2, [r3, #4]
 6072              	.L342:
 6073 02a6 0023     		movs	r3, #0
 6074 02a8 09E0     		b	.L327
 6075              	.L350:
 6076 02aa 00BF     		.align	2
 6077              	.L349:
 6078 02ac 00000000 		.word	SystemCoreClock
 6079 02b0 89B5F814 		.word	351843721
 6080 02b4 00000000 		.word	I2C_DMAXferCplt
 6081 02b8 00000000 		.word	I2C_DMAError
 6082              	.L323:
 6083 02bc 0223     		movs	r3, #2
 6084              	.L327:
 6085 02be 1846     		mov	r0, r3
 6086 02c0 2037     		adds	r7, r7, #32
 6087 02c2 BD46     		mov	sp, r7
 6088              		@ sp needed
 6089 02c4 80BD     		pop	{r7, pc}
 6091 02c6 00BF     		.section	.text.HAL_I2C_Master_Seq_Receive_IT,"ax",%progbits
 6092              		.align	1
ARM GAS  C:\Users\user\AppData\Local\Temp\cchxWhRb.s 			page 107


 6093              		.global	HAL_I2C_Master_Seq_Receive_IT
 6094              		.syntax unified
 6095              		.thumb
 6096              		.thumb_func
 6098              	HAL_I2C_Master_Seq_Receive_IT:
 6099              		@ args = 4, pretend = 0, frame = 32
 6100              		@ frame_needed = 1, uses_anonymous_args = 0
 6101              		@ link register save eliminated.
 6102 0000 80B4     		push	{r7}
 6103 0002 89B0     		sub	sp, sp, #36
 6104 0004 00AF     		add	r7, sp, #0
 6105 0006 F860     		str	r0, [r7, #12]
 6106 0008 7A60     		str	r2, [r7, #4]
 6107 000a 1A46     		mov	r2, r3
 6108 000c 0B46     		mov	r3, r1	@ movhi
 6109 000e 7B81     		strh	r3, [r7, #10]	@ movhi
 6110 0010 1346     		mov	r3, r2	@ movhi
 6111 0012 3B81     		strh	r3, [r7, #8]	@ movhi
 6112 0014 0023     		movs	r3, #0
 6113 0016 BB61     		str	r3, [r7, #24]
 6114 0018 0023     		movs	r3, #0
 6115 001a 7B61     		str	r3, [r7, #20]
 6116 001c 4FF4E063 		mov	r3, #1792
 6117 0020 FB61     		str	r3, [r7, #28]
 6118 0022 FB68     		ldr	r3, [r7, #12]
 6119 0024 93F83D30 		ldrb	r3, [r3, #61]
 6120 0028 DBB2     		uxtb	r3, r3
 6121 002a 202B     		cmp	r3, #32
 6122 002c 40F0DA80 		bne	.L352
 6123 0030 FB68     		ldr	r3, [r7, #12]
 6124 0032 1B68     		ldr	r3, [r3]
 6125 0034 1B68     		ldr	r3, [r3]
 6126 0036 03F40073 		and	r3, r3, #512
 6127 003a B3F5007F 		cmp	r3, #512
 6128 003e 05D0     		beq	.L353
 6129 0040 BB6A     		ldr	r3, [r7, #40]
 6130 0042 082B     		cmp	r3, #8
 6131 0044 02D0     		beq	.L353
 6132 0046 BB6A     		ldr	r3, [r7, #40]
 6133 0048 012B     		cmp	r3, #1
 6134 004a 30D1     		bne	.L354
 6135              	.L353:
 6136 004c 694B     		ldr	r3, .L370
 6137 004e 1B68     		ldr	r3, [r3]
 6138 0050 DB08     		lsrs	r3, r3, #3
 6139 0052 694A     		ldr	r2, .L370+4
 6140 0054 A2FB0323 		umull	r2, r3, r2, r3
 6141 0058 1A0A     		lsrs	r2, r3, #8
 6142 005a 1346     		mov	r3, r2
 6143 005c 9B00     		lsls	r3, r3, #2
 6144 005e 1344     		add	r3, r3, r2
 6145 0060 9A00     		lsls	r2, r3, #2
 6146 0062 1344     		add	r3, r3, r2
 6147 0064 7B61     		str	r3, [r7, #20]
 6148              	.L357:
 6149 0066 7B69     		ldr	r3, [r7, #20]
 6150 0068 013B     		subs	r3, r3, #1
ARM GAS  C:\Users\user\AppData\Local\Temp\cchxWhRb.s 			page 108


 6151 006a 7B61     		str	r3, [r7, #20]
 6152 006c 7B69     		ldr	r3, [r7, #20]
 6153 006e 002B     		cmp	r3, #0
 6154 0070 16D1     		bne	.L355
 6155 0072 FB68     		ldr	r3, [r7, #12]
 6156 0074 0022     		movs	r2, #0
 6157 0076 1A63     		str	r2, [r3, #48]
 6158 0078 FB68     		ldr	r3, [r7, #12]
 6159 007a 2022     		movs	r2, #32
 6160 007c 83F83D20 		strb	r2, [r3, #61]
 6161 0080 FB68     		ldr	r3, [r7, #12]
 6162 0082 0022     		movs	r2, #0
 6163 0084 83F83E20 		strb	r2, [r3, #62]
 6164 0088 FB68     		ldr	r3, [r7, #12]
 6165 008a 1B6C     		ldr	r3, [r3, #64]
 6166 008c 43F02002 		orr	r2, r3, #32
 6167 0090 FB68     		ldr	r3, [r7, #12]
 6168 0092 1A64     		str	r2, [r3, #64]
 6169 0094 FB68     		ldr	r3, [r7, #12]
 6170 0096 0022     		movs	r2, #0
 6171 0098 83F83C20 		strb	r2, [r3, #60]
 6172 009c 0123     		movs	r3, #1
 6173 009e A2E0     		b	.L356
 6174              	.L355:
 6175 00a0 FB68     		ldr	r3, [r7, #12]
 6176 00a2 1B68     		ldr	r3, [r3]
 6177 00a4 9B69     		ldr	r3, [r3, #24]
 6178 00a6 03F00203 		and	r3, r3, #2
 6179 00aa 022B     		cmp	r3, #2
 6180 00ac DBD0     		beq	.L357
 6181              	.L354:
 6182 00ae FB68     		ldr	r3, [r7, #12]
 6183 00b0 93F83C30 		ldrb	r3, [r3, #60]	@ zero_extendqisi2
 6184 00b4 012B     		cmp	r3, #1
 6185 00b6 01D1     		bne	.L358
 6186 00b8 0223     		movs	r3, #2
 6187 00ba 94E0     		b	.L356
 6188              	.L358:
 6189 00bc FB68     		ldr	r3, [r7, #12]
 6190 00be 0122     		movs	r2, #1
 6191 00c0 83F83C20 		strb	r2, [r3, #60]
 6192 00c4 FB68     		ldr	r3, [r7, #12]
 6193 00c6 1B68     		ldr	r3, [r3]
 6194 00c8 1B68     		ldr	r3, [r3]
 6195 00ca 03F00103 		and	r3, r3, #1
 6196 00ce 012B     		cmp	r3, #1
 6197 00d0 07D0     		beq	.L359
 6198 00d2 FB68     		ldr	r3, [r7, #12]
 6199 00d4 1B68     		ldr	r3, [r3]
 6200 00d6 1A68     		ldr	r2, [r3]
 6201 00d8 FB68     		ldr	r3, [r7, #12]
 6202 00da 1B68     		ldr	r3, [r3]
 6203 00dc 42F00102 		orr	r2, r2, #1
 6204 00e0 1A60     		str	r2, [r3]
 6205              	.L359:
 6206 00e2 FB68     		ldr	r3, [r7, #12]
 6207 00e4 1B68     		ldr	r3, [r3]
ARM GAS  C:\Users\user\AppData\Local\Temp\cchxWhRb.s 			page 109


 6208 00e6 1A68     		ldr	r2, [r3]
 6209 00e8 FB68     		ldr	r3, [r7, #12]
 6210 00ea 1B68     		ldr	r3, [r3]
 6211 00ec 22F40062 		bic	r2, r2, #2048
 6212 00f0 1A60     		str	r2, [r3]
 6213 00f2 FB68     		ldr	r3, [r7, #12]
 6214 00f4 2222     		movs	r2, #34
 6215 00f6 83F83D20 		strb	r2, [r3, #61]
 6216 00fa FB68     		ldr	r3, [r7, #12]
 6217 00fc 1022     		movs	r2, #16
 6218 00fe 83F83E20 		strb	r2, [r3, #62]
 6219 0102 FB68     		ldr	r3, [r7, #12]
 6220 0104 0022     		movs	r2, #0
 6221 0106 1A64     		str	r2, [r3, #64]
 6222 0108 FB68     		ldr	r3, [r7, #12]
 6223 010a 7A68     		ldr	r2, [r7, #4]
 6224 010c 5A62     		str	r2, [r3, #36]
 6225 010e FB68     		ldr	r3, [r7, #12]
 6226 0110 3A89     		ldrh	r2, [r7, #8]	@ movhi
 6227 0112 5A85     		strh	r2, [r3, #42]	@ movhi
 6228 0114 FB68     		ldr	r3, [r7, #12]
 6229 0116 5B8D     		ldrh	r3, [r3, #42]	@ movhi
 6230 0118 9AB2     		uxth	r2, r3
 6231 011a FB68     		ldr	r3, [r7, #12]
 6232 011c 1A85     		strh	r2, [r3, #40]	@ movhi
 6233 011e FB68     		ldr	r3, [r7, #12]
 6234 0120 BA6A     		ldr	r2, [r7, #40]
 6235 0122 DA62     		str	r2, [r3, #44]
 6236 0124 7A89     		ldrh	r2, [r7, #10]
 6237 0126 FB68     		ldr	r3, [r7, #12]
 6238 0128 5A64     		str	r2, [r3, #68]
 6239 012a FB68     		ldr	r3, [r7, #12]
 6240 012c 1B6B     		ldr	r3, [r3, #48]
 6241 012e BB61     		str	r3, [r7, #24]
 6242 0130 FB68     		ldr	r3, [r7, #12]
 6243 0132 5B8D     		ldrh	r3, [r3, #42]	@ movhi
 6244 0134 9BB2     		uxth	r3, r3
 6245 0136 022B     		cmp	r3, #2
 6246 0138 26D1     		bne	.L360
 6247 013a BB6A     		ldr	r3, [r7, #40]
 6248 013c 202B     		cmp	r3, #32
 6249 013e 02D0     		beq	.L361
 6250 0140 BB6A     		ldr	r3, [r7, #40]
 6251 0142 102B     		cmp	r3, #16
 6252 0144 20D1     		bne	.L360
 6253              	.L361:
 6254 0146 BB69     		ldr	r3, [r7, #24]
 6255 0148 122B     		cmp	r3, #18
 6256 014a 14D1     		bne	.L362
 6257 014c FB68     		ldr	r3, [r7, #12]
 6258 014e 1B68     		ldr	r3, [r3]
 6259 0150 1A68     		ldr	r2, [r3]
 6260 0152 FB68     		ldr	r3, [r7, #12]
 6261 0154 1B68     		ldr	r3, [r3]
 6262 0156 22F48062 		bic	r2, r2, #1024
 6263 015a 1A60     		str	r2, [r3]
 6264 015c FB68     		ldr	r3, [r7, #12]
ARM GAS  C:\Users\user\AppData\Local\Temp\cchxWhRb.s 			page 110


 6265 015e 1B68     		ldr	r3, [r3]
 6266 0160 1A68     		ldr	r2, [r3]
 6267 0162 FB68     		ldr	r3, [r7, #12]
 6268 0164 1B68     		ldr	r3, [r3]
 6269 0166 42F40062 		orr	r2, r2, #2048
 6270 016a 1A60     		str	r2, [r3]
 6271 016c FB69     		ldr	r3, [r7, #28]
 6272 016e 23F48063 		bic	r3, r3, #1024
 6273 0172 FB61     		str	r3, [r7, #28]
 6274 0174 10E0     		b	.L364
 6275              	.L362:
 6276 0176 FB68     		ldr	r3, [r7, #12]
 6277 0178 1B68     		ldr	r3, [r3]
 6278 017a 1A68     		ldr	r2, [r3]
 6279 017c FB68     		ldr	r3, [r7, #12]
 6280 017e 1B68     		ldr	r3, [r3]
 6281 0180 42F48062 		orr	r2, r2, #1024
 6282 0184 1A60     		str	r2, [r3]
 6283 0186 07E0     		b	.L364
 6284              	.L360:
 6285 0188 FB68     		ldr	r3, [r7, #12]
 6286 018a 1B68     		ldr	r3, [r3]
 6287 018c 1A68     		ldr	r2, [r3]
 6288 018e FB68     		ldr	r3, [r7, #12]
 6289 0190 1B68     		ldr	r3, [r3]
 6290 0192 42F48062 		orr	r2, r2, #1024
 6291 0196 1A60     		str	r2, [r3]
 6292              	.L364:
 6293 0198 BB69     		ldr	r3, [r7, #24]
 6294 019a 122B     		cmp	r3, #18
 6295 019c 0CD1     		bne	.L365
 6296 019e BB6A     		ldr	r3, [r7, #40]
 6297 01a0 B3F52A0F 		cmp	r3, #11141120
 6298 01a4 03D0     		beq	.L366
 6299 01a6 BB6A     		ldr	r3, [r7, #40]
 6300 01a8 B3F12A4F 		cmp	r3, #-1442840576
 6301 01ac 01D1     		bne	.L367
 6302              	.L366:
 6303 01ae 0123     		movs	r3, #1
 6304 01b0 00E0     		b	.L368
 6305              	.L367:
 6306 01b2 0023     		movs	r3, #0
 6307              	.L368:
 6308 01b4 012B     		cmp	r3, #1
 6309 01b6 07D1     		bne	.L369
 6310              	.L365:
 6311 01b8 FB68     		ldr	r3, [r7, #12]
 6312 01ba 1B68     		ldr	r3, [r3]
 6313 01bc 1A68     		ldr	r2, [r3]
 6314 01be FB68     		ldr	r3, [r7, #12]
 6315 01c0 1B68     		ldr	r3, [r3]
 6316 01c2 42F48072 		orr	r2, r2, #256
 6317 01c6 1A60     		str	r2, [r3]
 6318              	.L369:
 6319 01c8 FB68     		ldr	r3, [r7, #12]
 6320 01ca 0022     		movs	r2, #0
 6321 01cc 83F83C20 		strb	r2, [r3, #60]
ARM GAS  C:\Users\user\AppData\Local\Temp\cchxWhRb.s 			page 111


 6322 01d0 FB68     		ldr	r3, [r7, #12]
 6323 01d2 1B68     		ldr	r3, [r3]
 6324 01d4 5968     		ldr	r1, [r3, #4]
 6325 01d6 FB68     		ldr	r3, [r7, #12]
 6326 01d8 1B68     		ldr	r3, [r3]
 6327 01da FA69     		ldr	r2, [r7, #28]
 6328 01dc 0A43     		orrs	r2, r2, r1
 6329 01de 5A60     		str	r2, [r3, #4]
 6330 01e0 0023     		movs	r3, #0
 6331 01e2 00E0     		b	.L356
 6332              	.L352:
 6333 01e4 0223     		movs	r3, #2
 6334              	.L356:
 6335 01e6 1846     		mov	r0, r3
 6336 01e8 2437     		adds	r7, r7, #36
 6337 01ea BD46     		mov	sp, r7
 6338              		@ sp needed
 6339 01ec 5DF8047B 		ldr	r7, [sp], #4
 6340 01f0 7047     		bx	lr
 6341              	.L371:
 6342 01f2 00BF     		.align	2
 6343              	.L370:
 6344 01f4 00000000 		.word	SystemCoreClock
 6345 01f8 89B5F814 		.word	351843721
 6347              		.section	.text.HAL_I2C_Master_Seq_Receive_DMA,"ax",%progbits
 6348              		.align	1
 6349              		.global	HAL_I2C_Master_Seq_Receive_DMA
 6350              		.syntax unified
 6351              		.thumb
 6352              		.thumb_func
 6354              	HAL_I2C_Master_Seq_Receive_DMA:
 6355              		@ args = 4, pretend = 0, frame = 32
 6356              		@ frame_needed = 1, uses_anonymous_args = 0
 6357 0000 80B5     		push	{r7, lr}
 6358 0002 88B0     		sub	sp, sp, #32
 6359 0004 00AF     		add	r7, sp, #0
 6360 0006 F860     		str	r0, [r7, #12]
 6361 0008 7A60     		str	r2, [r7, #4]
 6362 000a 1A46     		mov	r2, r3
 6363 000c 0B46     		mov	r3, r1	@ movhi
 6364 000e 7B81     		strh	r3, [r7, #10]	@ movhi
 6365 0010 1346     		mov	r3, r2	@ movhi
 6366 0012 3B81     		strh	r3, [r7, #8]	@ movhi
 6367 0014 0023     		movs	r3, #0
 6368 0016 7B61     		str	r3, [r7, #20]
 6369 0018 0023     		movs	r3, #0
 6370 001a 3B61     		str	r3, [r7, #16]
 6371 001c 4FF4E063 		mov	r3, #1792
 6372 0020 FB61     		str	r3, [r7, #28]
 6373 0022 FB68     		ldr	r3, [r7, #12]
 6374 0024 93F83D30 		ldrb	r3, [r3, #61]
 6375 0028 DBB2     		uxtb	r3, r3
 6376 002a 202B     		cmp	r3, #32
 6377 002c 40F09981 		bne	.L373
 6378 0030 FB68     		ldr	r3, [r7, #12]
 6379 0032 1B68     		ldr	r3, [r3]
 6380 0034 1B68     		ldr	r3, [r3]
ARM GAS  C:\Users\user\AppData\Local\Temp\cchxWhRb.s 			page 112


 6381 0036 03F40073 		and	r3, r3, #512
 6382 003a B3F5007F 		cmp	r3, #512
 6383 003e 05D0     		beq	.L374
 6384 0040 BB6A     		ldr	r3, [r7, #40]
 6385 0042 082B     		cmp	r3, #8
 6386 0044 02D0     		beq	.L374
 6387 0046 BB6A     		ldr	r3, [r7, #40]
 6388 0048 012B     		cmp	r3, #1
 6389 004a 30D1     		bne	.L375
 6390              	.L374:
 6391 004c 8F4B     		ldr	r3, .L406
 6392 004e 1B68     		ldr	r3, [r3]
 6393 0050 DB08     		lsrs	r3, r3, #3
 6394 0052 8F4A     		ldr	r2, .L406+4
 6395 0054 A2FB0323 		umull	r2, r3, r2, r3
 6396 0058 1A0A     		lsrs	r2, r3, #8
 6397 005a 1346     		mov	r3, r2
 6398 005c 9B00     		lsls	r3, r3, #2
 6399 005e 1344     		add	r3, r3, r2
 6400 0060 9A00     		lsls	r2, r3, #2
 6401 0062 1344     		add	r3, r3, r2
 6402 0064 3B61     		str	r3, [r7, #16]
 6403              	.L378:
 6404 0066 3B69     		ldr	r3, [r7, #16]
 6405 0068 013B     		subs	r3, r3, #1
 6406 006a 3B61     		str	r3, [r7, #16]
 6407 006c 3B69     		ldr	r3, [r7, #16]
 6408 006e 002B     		cmp	r3, #0
 6409 0070 16D1     		bne	.L376
 6410 0072 FB68     		ldr	r3, [r7, #12]
 6411 0074 0022     		movs	r2, #0
 6412 0076 1A63     		str	r2, [r3, #48]
 6413 0078 FB68     		ldr	r3, [r7, #12]
 6414 007a 2022     		movs	r2, #32
 6415 007c 83F83D20 		strb	r2, [r3, #61]
 6416 0080 FB68     		ldr	r3, [r7, #12]
 6417 0082 0022     		movs	r2, #0
 6418 0084 83F83E20 		strb	r2, [r3, #62]
 6419 0088 FB68     		ldr	r3, [r7, #12]
 6420 008a 1B6C     		ldr	r3, [r3, #64]
 6421 008c 43F02002 		orr	r2, r3, #32
 6422 0090 FB68     		ldr	r3, [r7, #12]
 6423 0092 1A64     		str	r2, [r3, #64]
 6424 0094 FB68     		ldr	r3, [r7, #12]
 6425 0096 0022     		movs	r2, #0
 6426 0098 83F83C20 		strb	r2, [r3, #60]
 6427 009c 0123     		movs	r3, #1
 6428 009e 61E1     		b	.L377
 6429              	.L376:
 6430 00a0 FB68     		ldr	r3, [r7, #12]
 6431 00a2 1B68     		ldr	r3, [r3]
 6432 00a4 9B69     		ldr	r3, [r3, #24]
 6433 00a6 03F00203 		and	r3, r3, #2
 6434 00aa 022B     		cmp	r3, #2
 6435 00ac DBD0     		beq	.L378
 6436              	.L375:
 6437 00ae FB68     		ldr	r3, [r7, #12]
ARM GAS  C:\Users\user\AppData\Local\Temp\cchxWhRb.s 			page 113


 6438 00b0 93F83C30 		ldrb	r3, [r3, #60]	@ zero_extendqisi2
 6439 00b4 012B     		cmp	r3, #1
 6440 00b6 01D1     		bne	.L379
 6441 00b8 0223     		movs	r3, #2
 6442 00ba 53E1     		b	.L377
 6443              	.L379:
 6444 00bc FB68     		ldr	r3, [r7, #12]
 6445 00be 0122     		movs	r2, #1
 6446 00c0 83F83C20 		strb	r2, [r3, #60]
 6447 00c4 FB68     		ldr	r3, [r7, #12]
 6448 00c6 1B68     		ldr	r3, [r3]
 6449 00c8 1B68     		ldr	r3, [r3]
 6450 00ca 03F00103 		and	r3, r3, #1
 6451 00ce 012B     		cmp	r3, #1
 6452 00d0 07D0     		beq	.L380
 6453 00d2 FB68     		ldr	r3, [r7, #12]
 6454 00d4 1B68     		ldr	r3, [r3]
 6455 00d6 1A68     		ldr	r2, [r3]
 6456 00d8 FB68     		ldr	r3, [r7, #12]
 6457 00da 1B68     		ldr	r3, [r3]
 6458 00dc 42F00102 		orr	r2, r2, #1
 6459 00e0 1A60     		str	r2, [r3]
 6460              	.L380:
 6461 00e2 FB68     		ldr	r3, [r7, #12]
 6462 00e4 1B68     		ldr	r3, [r3]
 6463 00e6 1A68     		ldr	r2, [r3]
 6464 00e8 FB68     		ldr	r3, [r7, #12]
 6465 00ea 1B68     		ldr	r3, [r3]
 6466 00ec 22F40062 		bic	r2, r2, #2048
 6467 00f0 1A60     		str	r2, [r3]
 6468 00f2 FB68     		ldr	r3, [r7, #12]
 6469 00f4 1B68     		ldr	r3, [r3]
 6470 00f6 5A68     		ldr	r2, [r3, #4]
 6471 00f8 FB68     		ldr	r3, [r7, #12]
 6472 00fa 1B68     		ldr	r3, [r3]
 6473 00fc 22F48052 		bic	r2, r2, #4096
 6474 0100 5A60     		str	r2, [r3, #4]
 6475 0102 FB68     		ldr	r3, [r7, #12]
 6476 0104 2222     		movs	r2, #34
 6477 0106 83F83D20 		strb	r2, [r3, #61]
 6478 010a FB68     		ldr	r3, [r7, #12]
 6479 010c 1022     		movs	r2, #16
 6480 010e 83F83E20 		strb	r2, [r3, #62]
 6481 0112 FB68     		ldr	r3, [r7, #12]
 6482 0114 0022     		movs	r2, #0
 6483 0116 1A64     		str	r2, [r3, #64]
 6484 0118 FB68     		ldr	r3, [r7, #12]
 6485 011a 7A68     		ldr	r2, [r7, #4]
 6486 011c 5A62     		str	r2, [r3, #36]
 6487 011e FB68     		ldr	r3, [r7, #12]
 6488 0120 3A89     		ldrh	r2, [r7, #8]	@ movhi
 6489 0122 5A85     		strh	r2, [r3, #42]	@ movhi
 6490 0124 FB68     		ldr	r3, [r7, #12]
 6491 0126 5B8D     		ldrh	r3, [r3, #42]	@ movhi
 6492 0128 9AB2     		uxth	r2, r3
 6493 012a FB68     		ldr	r3, [r7, #12]
 6494 012c 1A85     		strh	r2, [r3, #40]	@ movhi
ARM GAS  C:\Users\user\AppData\Local\Temp\cchxWhRb.s 			page 114


 6495 012e FB68     		ldr	r3, [r7, #12]
 6496 0130 BA6A     		ldr	r2, [r7, #40]
 6497 0132 DA62     		str	r2, [r3, #44]
 6498 0134 7A89     		ldrh	r2, [r7, #10]
 6499 0136 FB68     		ldr	r3, [r7, #12]
 6500 0138 5A64     		str	r2, [r3, #68]
 6501 013a FB68     		ldr	r3, [r7, #12]
 6502 013c 1B6B     		ldr	r3, [r3, #48]
 6503 013e 7B61     		str	r3, [r7, #20]
 6504 0140 FB68     		ldr	r3, [r7, #12]
 6505 0142 1B8D     		ldrh	r3, [r3, #40]
 6506 0144 002B     		cmp	r3, #0
 6507 0146 00F0DE80 		beq	.L381
 6508 014a FB68     		ldr	r3, [r7, #12]
 6509 014c 5B8D     		ldrh	r3, [r3, #42]	@ movhi
 6510 014e 9BB2     		uxth	r3, r3
 6511 0150 022B     		cmp	r3, #2
 6512 0152 2AD1     		bne	.L382
 6513 0154 BB6A     		ldr	r3, [r7, #40]
 6514 0156 202B     		cmp	r3, #32
 6515 0158 02D0     		beq	.L383
 6516 015a BB6A     		ldr	r3, [r7, #40]
 6517 015c 102B     		cmp	r3, #16
 6518 015e 24D1     		bne	.L382
 6519              	.L383:
 6520 0160 7B69     		ldr	r3, [r7, #20]
 6521 0162 122B     		cmp	r3, #18
 6522 0164 18D1     		bne	.L384
 6523 0166 FB68     		ldr	r3, [r7, #12]
 6524 0168 1B68     		ldr	r3, [r3]
 6525 016a 1A68     		ldr	r2, [r3]
 6526 016c FB68     		ldr	r3, [r7, #12]
 6527 016e 1B68     		ldr	r3, [r3]
 6528 0170 22F48062 		bic	r2, r2, #1024
 6529 0174 1A60     		str	r2, [r3]
 6530 0176 FB68     		ldr	r3, [r7, #12]
 6531 0178 1B68     		ldr	r3, [r3]
 6532 017a 1A68     		ldr	r2, [r3]
 6533 017c FB68     		ldr	r3, [r7, #12]
 6534 017e 1B68     		ldr	r3, [r3]
 6535 0180 42F40062 		orr	r2, r2, #2048
 6536 0184 1A60     		str	r2, [r3]
 6537 0186 FB68     		ldr	r3, [r7, #12]
 6538 0188 1B68     		ldr	r3, [r3]
 6539 018a 5A68     		ldr	r2, [r3, #4]
 6540 018c FB68     		ldr	r3, [r7, #12]
 6541 018e 1B68     		ldr	r3, [r3]
 6542 0190 42F48052 		orr	r2, r2, #4096
 6543 0194 5A60     		str	r2, [r3, #4]
 6544 0196 22E0     		b	.L386
 6545              	.L384:
 6546 0198 FB68     		ldr	r3, [r7, #12]
 6547 019a 1B68     		ldr	r3, [r3]
 6548 019c 1A68     		ldr	r2, [r3]
 6549 019e FB68     		ldr	r3, [r7, #12]
 6550 01a0 1B68     		ldr	r3, [r3]
 6551 01a2 42F48062 		orr	r2, r2, #1024
ARM GAS  C:\Users\user\AppData\Local\Temp\cchxWhRb.s 			page 115


 6552 01a6 1A60     		str	r2, [r3]
 6553 01a8 19E0     		b	.L386
 6554              	.L382:
 6555 01aa FB68     		ldr	r3, [r7, #12]
 6556 01ac 1B68     		ldr	r3, [r3]
 6557 01ae 1A68     		ldr	r2, [r3]
 6558 01b0 FB68     		ldr	r3, [r7, #12]
 6559 01b2 1B68     		ldr	r3, [r3]
 6560 01b4 42F48062 		orr	r2, r2, #1024
 6561 01b8 1A60     		str	r2, [r3]
 6562 01ba BB6A     		ldr	r3, [r7, #40]
 6563 01bc 202B     		cmp	r3, #32
 6564 01be 06D0     		beq	.L387
 6565 01c0 BB6A     		ldr	r3, [r7, #40]
 6566 01c2 B3F12A4F 		cmp	r3, #-1442840576
 6567 01c6 02D0     		beq	.L387
 6568 01c8 BB6A     		ldr	r3, [r7, #40]
 6569 01ca 102B     		cmp	r3, #16
 6570 01cc 07D1     		bne	.L386
 6571              	.L387:
 6572 01ce FB68     		ldr	r3, [r7, #12]
 6573 01d0 1B68     		ldr	r3, [r3]
 6574 01d2 5A68     		ldr	r2, [r3, #4]
 6575 01d4 FB68     		ldr	r3, [r7, #12]
 6576 01d6 1B68     		ldr	r3, [r3]
 6577 01d8 42F48052 		orr	r2, r2, #4096
 6578 01dc 5A60     		str	r2, [r3, #4]
 6579              	.L386:
 6580 01de FB68     		ldr	r3, [r7, #12]
 6581 01e0 9B6B     		ldr	r3, [r3, #56]
 6582 01e2 002B     		cmp	r3, #0
 6583 01e4 22D0     		beq	.L388
 6584 01e6 FB68     		ldr	r3, [r7, #12]
 6585 01e8 9B6B     		ldr	r3, [r3, #56]
 6586 01ea 2A4A     		ldr	r2, .L406+8
 6587 01ec DA63     		str	r2, [r3, #60]
 6588 01ee FB68     		ldr	r3, [r7, #12]
 6589 01f0 9B6B     		ldr	r3, [r3, #56]
 6590 01f2 294A     		ldr	r2, .L406+12
 6591 01f4 DA64     		str	r2, [r3, #76]
 6592 01f6 FB68     		ldr	r3, [r7, #12]
 6593 01f8 9B6B     		ldr	r3, [r3, #56]
 6594 01fa 0022     		movs	r2, #0
 6595 01fc 1A64     		str	r2, [r3, #64]
 6596 01fe FB68     		ldr	r3, [r7, #12]
 6597 0200 9B6B     		ldr	r3, [r3, #56]
 6598 0202 0022     		movs	r2, #0
 6599 0204 1A65     		str	r2, [r3, #80]
 6600 0206 FB68     		ldr	r3, [r7, #12]
 6601 0208 986B     		ldr	r0, [r3, #56]
 6602 020a FB68     		ldr	r3, [r7, #12]
 6603 020c 1B68     		ldr	r3, [r3]
 6604 020e 1033     		adds	r3, r3, #16
 6605 0210 1946     		mov	r1, r3
 6606 0212 FB68     		ldr	r3, [r7, #12]
 6607 0214 5B6A     		ldr	r3, [r3, #36]
 6608 0216 1A46     		mov	r2, r3
ARM GAS  C:\Users\user\AppData\Local\Temp\cchxWhRb.s 			page 116


 6609 0218 FB68     		ldr	r3, [r7, #12]
 6610 021a 1B8D     		ldrh	r3, [r3, #40]
 6611 021c FFF7FEFF 		bl	HAL_DMA_Start_IT
 6612 0220 0346     		mov	r3, r0
 6613 0222 FB76     		strb	r3, [r7, #27]
 6614 0224 FB7E     		ldrb	r3, [r7, #27]	@ zero_extendqisi2
 6615 0226 002B     		cmp	r3, #0
 6616 0228 59D1     		bne	.L390
 6617 022a 13E0     		b	.L405
 6618              	.L388:
 6619 022c FB68     		ldr	r3, [r7, #12]
 6620 022e 2022     		movs	r2, #32
 6621 0230 83F83D20 		strb	r2, [r3, #61]
 6622 0234 FB68     		ldr	r3, [r7, #12]
 6623 0236 0022     		movs	r2, #0
 6624 0238 83F83E20 		strb	r2, [r3, #62]
 6625 023c FB68     		ldr	r3, [r7, #12]
 6626 023e 1B6C     		ldr	r3, [r3, #64]
 6627 0240 43F08002 		orr	r2, r3, #128
 6628 0244 FB68     		ldr	r3, [r7, #12]
 6629 0246 1A64     		str	r2, [r3, #64]
 6630 0248 FB68     		ldr	r3, [r7, #12]
 6631 024a 0022     		movs	r2, #0
 6632 024c 83F83C20 		strb	r2, [r3, #60]
 6633 0250 0123     		movs	r3, #1
 6634 0252 87E0     		b	.L377
 6635              	.L405:
 6636 0254 7B69     		ldr	r3, [r7, #20]
 6637 0256 122B     		cmp	r3, #18
 6638 0258 0CD1     		bne	.L391
 6639 025a BB6A     		ldr	r3, [r7, #40]
 6640 025c B3F52A0F 		cmp	r3, #11141120
 6641 0260 03D0     		beq	.L392
 6642 0262 BB6A     		ldr	r3, [r7, #40]
 6643 0264 B3F12A4F 		cmp	r3, #-1442840576
 6644 0268 01D1     		bne	.L393
 6645              	.L392:
 6646 026a 0123     		movs	r3, #1
 6647 026c 00E0     		b	.L394
 6648              	.L393:
 6649 026e 0023     		movs	r3, #0
 6650              	.L394:
 6651 0270 012B     		cmp	r3, #1
 6652 0272 13D1     		bne	.L395
 6653              	.L391:
 6654 0274 FB68     		ldr	r3, [r7, #12]
 6655 0276 1B68     		ldr	r3, [r3]
 6656 0278 1A68     		ldr	r2, [r3]
 6657 027a FB68     		ldr	r3, [r7, #12]
 6658 027c 1B68     		ldr	r3, [r3]
 6659 027e 42F48072 		orr	r2, r2, #256
 6660 0282 1A60     		str	r2, [r3]
 6661 0284 4FF44073 		mov	r3, #768
 6662 0288 FB61     		str	r3, [r7, #28]
 6663 028a 0AE0     		b	.L396
 6664              	.L407:
 6665              		.align	2
ARM GAS  C:\Users\user\AppData\Local\Temp\cchxWhRb.s 			page 117


 6666              	.L406:
 6667 028c 00000000 		.word	SystemCoreClock
 6668 0290 89B5F814 		.word	351843721
 6669 0294 00000000 		.word	I2C_DMAXferCplt
 6670 0298 00000000 		.word	I2C_DMAError
 6671              	.L395:
 6672 029c 4FF48073 		mov	r3, #256
 6673 02a0 FB61     		str	r3, [r7, #28]
 6674              	.L396:
 6675 02a2 FB68     		ldr	r3, [r7, #12]
 6676 02a4 0022     		movs	r2, #0
 6677 02a6 83F83C20 		strb	r2, [r3, #60]
 6678 02aa BB6A     		ldr	r3, [r7, #40]
 6679 02ac 042B     		cmp	r3, #4
 6680 02ae 05D0     		beq	.L397
 6681 02b0 BB6A     		ldr	r3, [r7, #40]
 6682 02b2 202B     		cmp	r3, #32
 6683 02b4 02D0     		beq	.L397
 6684 02b6 BB6A     		ldr	r3, [r7, #40]
 6685 02b8 102B     		cmp	r3, #16
 6686 02ba 07D1     		bne	.L398
 6687              	.L397:
 6688 02bc FB68     		ldr	r3, [r7, #12]
 6689 02be 1B68     		ldr	r3, [r3]
 6690 02c0 5A68     		ldr	r2, [r3, #4]
 6691 02c2 FB68     		ldr	r3, [r7, #12]
 6692 02c4 1B68     		ldr	r3, [r3]
 6693 02c6 42F40062 		orr	r2, r2, #2048
 6694 02ca 5A60     		str	r2, [r3, #4]
 6695              	.L398:
 6696 02cc FB68     		ldr	r3, [r7, #12]
 6697 02ce 1B68     		ldr	r3, [r3]
 6698 02d0 5968     		ldr	r1, [r3, #4]
 6699 02d2 FB68     		ldr	r3, [r7, #12]
 6700 02d4 1B68     		ldr	r3, [r3]
 6701 02d6 FA69     		ldr	r2, [r7, #28]
 6702 02d8 0A43     		orrs	r2, r2, r1
 6703 02da 5A60     		str	r2, [r3, #4]
 6704 02dc 3FE0     		b	.L399
 6705              	.L390:
 6706 02de FB68     		ldr	r3, [r7, #12]
 6707 02e0 2022     		movs	r2, #32
 6708 02e2 83F83D20 		strb	r2, [r3, #61]
 6709 02e6 FB68     		ldr	r3, [r7, #12]
 6710 02e8 0022     		movs	r2, #0
 6711 02ea 83F83E20 		strb	r2, [r3, #62]
 6712 02ee FB68     		ldr	r3, [r7, #12]
 6713 02f0 1B6C     		ldr	r3, [r3, #64]
 6714 02f2 43F01002 		orr	r2, r3, #16
 6715 02f6 FB68     		ldr	r3, [r7, #12]
 6716 02f8 1A64     		str	r2, [r3, #64]
 6717 02fa FB68     		ldr	r3, [r7, #12]
 6718 02fc 0022     		movs	r2, #0
 6719 02fe 83F83C20 		strb	r2, [r3, #60]
 6720 0302 0123     		movs	r3, #1
 6721 0304 2EE0     		b	.L377
 6722              	.L381:
ARM GAS  C:\Users\user\AppData\Local\Temp\cchxWhRb.s 			page 118


 6723 0306 FB68     		ldr	r3, [r7, #12]
 6724 0308 1B68     		ldr	r3, [r3]
 6725 030a 1A68     		ldr	r2, [r3]
 6726 030c FB68     		ldr	r3, [r7, #12]
 6727 030e 1B68     		ldr	r3, [r3]
 6728 0310 42F48062 		orr	r2, r2, #1024
 6729 0314 1A60     		str	r2, [r3]
 6730 0316 7B69     		ldr	r3, [r7, #20]
 6731 0318 122B     		cmp	r3, #18
 6732 031a 0CD1     		bne	.L400
 6733 031c BB6A     		ldr	r3, [r7, #40]
 6734 031e B3F52A0F 		cmp	r3, #11141120
 6735 0322 03D0     		beq	.L401
 6736 0324 BB6A     		ldr	r3, [r7, #40]
 6737 0326 B3F12A4F 		cmp	r3, #-1442840576
 6738 032a 01D1     		bne	.L402
 6739              	.L401:
 6740 032c 0123     		movs	r3, #1
 6741 032e 00E0     		b	.L403
 6742              	.L402:
 6743 0330 0023     		movs	r3, #0
 6744              	.L403:
 6745 0332 012B     		cmp	r3, #1
 6746 0334 07D1     		bne	.L404
 6747              	.L400:
 6748 0336 FB68     		ldr	r3, [r7, #12]
 6749 0338 1B68     		ldr	r3, [r3]
 6750 033a 1A68     		ldr	r2, [r3]
 6751 033c FB68     		ldr	r3, [r7, #12]
 6752 033e 1B68     		ldr	r3, [r3]
 6753 0340 42F48072 		orr	r2, r2, #256
 6754 0344 1A60     		str	r2, [r3]
 6755              	.L404:
 6756 0346 FB68     		ldr	r3, [r7, #12]
 6757 0348 0022     		movs	r2, #0
 6758 034a 83F83C20 		strb	r2, [r3, #60]
 6759 034e FB68     		ldr	r3, [r7, #12]
 6760 0350 1B68     		ldr	r3, [r3]
 6761 0352 5968     		ldr	r1, [r3, #4]
 6762 0354 FB68     		ldr	r3, [r7, #12]
 6763 0356 1B68     		ldr	r3, [r3]
 6764 0358 FA69     		ldr	r2, [r7, #28]
 6765 035a 0A43     		orrs	r2, r2, r1
 6766 035c 5A60     		str	r2, [r3, #4]
 6767              	.L399:
 6768 035e 0023     		movs	r3, #0
 6769 0360 00E0     		b	.L377
 6770              	.L373:
 6771 0362 0223     		movs	r3, #2
 6772              	.L377:
 6773 0364 1846     		mov	r0, r3
 6774 0366 2037     		adds	r7, r7, #32
 6775 0368 BD46     		mov	sp, r7
 6776              		@ sp needed
 6777 036a 80BD     		pop	{r7, pc}
 6779              		.section	.text.HAL_I2C_Slave_Seq_Transmit_IT,"ax",%progbits
 6780              		.align	1
ARM GAS  C:\Users\user\AppData\Local\Temp\cchxWhRb.s 			page 119


 6781              		.global	HAL_I2C_Slave_Seq_Transmit_IT
 6782              		.syntax unified
 6783              		.thumb
 6784              		.thumb_func
 6786              	HAL_I2C_Slave_Seq_Transmit_IT:
 6787              		@ args = 0, pretend = 0, frame = 24
 6788              		@ frame_needed = 1, uses_anonymous_args = 0
 6789              		@ link register save eliminated.
 6790 0000 80B4     		push	{r7}
 6791 0002 87B0     		sub	sp, sp, #28
 6792 0004 00AF     		add	r7, sp, #0
 6793 0006 F860     		str	r0, [r7, #12]
 6794 0008 B960     		str	r1, [r7, #8]
 6795 000a 3B60     		str	r3, [r7]
 6796 000c 1346     		mov	r3, r2	@ movhi
 6797 000e FB80     		strh	r3, [r7, #6]	@ movhi
 6798 0010 FB68     		ldr	r3, [r7, #12]
 6799 0012 93F83D30 		ldrb	r3, [r3, #61]
 6800 0016 DBB2     		uxtb	r3, r3
 6801 0018 03F02803 		and	r3, r3, #40
 6802 001c 282B     		cmp	r3, #40
 6803 001e 5BD1     		bne	.L409
 6804 0020 BB68     		ldr	r3, [r7, #8]
 6805 0022 002B     		cmp	r3, #0
 6806 0024 02D0     		beq	.L410
 6807 0026 FB88     		ldrh	r3, [r7, #6]
 6808 0028 002B     		cmp	r3, #0
 6809 002a 01D1     		bne	.L411
 6810              	.L410:
 6811 002c 0123     		movs	r3, #1
 6812 002e 54E0     		b	.L412
 6813              	.L411:
 6814 0030 FB68     		ldr	r3, [r7, #12]
 6815 0032 93F83C30 		ldrb	r3, [r3, #60]	@ zero_extendqisi2
 6816 0036 012B     		cmp	r3, #1
 6817 0038 01D1     		bne	.L413
 6818 003a 0223     		movs	r3, #2
 6819 003c 4DE0     		b	.L412
 6820              	.L413:
 6821 003e FB68     		ldr	r3, [r7, #12]
 6822 0040 0122     		movs	r2, #1
 6823 0042 83F83C20 		strb	r2, [r3, #60]
 6824 0046 FB68     		ldr	r3, [r7, #12]
 6825 0048 1B68     		ldr	r3, [r3]
 6826 004a 1B68     		ldr	r3, [r3]
 6827 004c 03F00103 		and	r3, r3, #1
 6828 0050 012B     		cmp	r3, #1
 6829 0052 07D0     		beq	.L414
 6830 0054 FB68     		ldr	r3, [r7, #12]
 6831 0056 1B68     		ldr	r3, [r3]
 6832 0058 1A68     		ldr	r2, [r3]
 6833 005a FB68     		ldr	r3, [r7, #12]
 6834 005c 1B68     		ldr	r3, [r3]
 6835 005e 42F00102 		orr	r2, r2, #1
 6836 0062 1A60     		str	r2, [r3]
 6837              	.L414:
 6838 0064 FB68     		ldr	r3, [r7, #12]
ARM GAS  C:\Users\user\AppData\Local\Temp\cchxWhRb.s 			page 120


 6839 0066 1B68     		ldr	r3, [r3]
 6840 0068 1A68     		ldr	r2, [r3]
 6841 006a FB68     		ldr	r3, [r7, #12]
 6842 006c 1B68     		ldr	r3, [r3]
 6843 006e 22F40062 		bic	r2, r2, #2048
 6844 0072 1A60     		str	r2, [r3]
 6845 0074 FB68     		ldr	r3, [r7, #12]
 6846 0076 2922     		movs	r2, #41
 6847 0078 83F83D20 		strb	r2, [r3, #61]
 6848 007c FB68     		ldr	r3, [r7, #12]
 6849 007e 2022     		movs	r2, #32
 6850 0080 83F83E20 		strb	r2, [r3, #62]
 6851 0084 FB68     		ldr	r3, [r7, #12]
 6852 0086 0022     		movs	r2, #0
 6853 0088 1A64     		str	r2, [r3, #64]
 6854 008a FB68     		ldr	r3, [r7, #12]
 6855 008c BA68     		ldr	r2, [r7, #8]
 6856 008e 5A62     		str	r2, [r3, #36]
 6857 0090 FB68     		ldr	r3, [r7, #12]
 6858 0092 FA88     		ldrh	r2, [r7, #6]	@ movhi
 6859 0094 5A85     		strh	r2, [r3, #42]	@ movhi
 6860 0096 FB68     		ldr	r3, [r7, #12]
 6861 0098 5B8D     		ldrh	r3, [r3, #42]	@ movhi
 6862 009a 9AB2     		uxth	r2, r3
 6863 009c FB68     		ldr	r3, [r7, #12]
 6864 009e 1A85     		strh	r2, [r3, #40]	@ movhi
 6865 00a0 FB68     		ldr	r3, [r7, #12]
 6866 00a2 3A68     		ldr	r2, [r7]
 6867 00a4 DA62     		str	r2, [r3, #44]
 6868 00a6 0023     		movs	r3, #0
 6869 00a8 7B61     		str	r3, [r7, #20]
 6870 00aa FB68     		ldr	r3, [r7, #12]
 6871 00ac 1B68     		ldr	r3, [r3]
 6872 00ae 5B69     		ldr	r3, [r3, #20]
 6873 00b0 7B61     		str	r3, [r7, #20]
 6874 00b2 FB68     		ldr	r3, [r7, #12]
 6875 00b4 1B68     		ldr	r3, [r3]
 6876 00b6 9B69     		ldr	r3, [r3, #24]
 6877 00b8 7B61     		str	r3, [r7, #20]
 6878 00ba 7B69     		ldr	r3, [r7, #20]
 6879 00bc FB68     		ldr	r3, [r7, #12]
 6880 00be 0022     		movs	r2, #0
 6881 00c0 83F83C20 		strb	r2, [r3, #60]
 6882 00c4 FB68     		ldr	r3, [r7, #12]
 6883 00c6 1B68     		ldr	r3, [r3]
 6884 00c8 5A68     		ldr	r2, [r3, #4]
 6885 00ca FB68     		ldr	r3, [r7, #12]
 6886 00cc 1B68     		ldr	r3, [r3]
 6887 00ce 42F4E062 		orr	r2, r2, #1792
 6888 00d2 5A60     		str	r2, [r3, #4]
 6889 00d4 0023     		movs	r3, #0
 6890 00d6 00E0     		b	.L412
 6891              	.L409:
 6892 00d8 0223     		movs	r3, #2
 6893              	.L412:
 6894 00da 1846     		mov	r0, r3
 6895 00dc 1C37     		adds	r7, r7, #28
ARM GAS  C:\Users\user\AppData\Local\Temp\cchxWhRb.s 			page 121


 6896 00de BD46     		mov	sp, r7
 6897              		@ sp needed
 6898 00e0 5DF8047B 		ldr	r7, [sp], #4
 6899 00e4 7047     		bx	lr
 6901              		.section	.text.HAL_I2C_Slave_Seq_Transmit_DMA,"ax",%progbits
 6902              		.align	1
 6903              		.global	HAL_I2C_Slave_Seq_Transmit_DMA
 6904              		.syntax unified
 6905              		.thumb
 6906              		.thumb_func
 6908              	HAL_I2C_Slave_Seq_Transmit_DMA:
 6909              		@ args = 0, pretend = 0, frame = 24
 6910              		@ frame_needed = 1, uses_anonymous_args = 0
 6911 0000 80B5     		push	{r7, lr}
 6912 0002 86B0     		sub	sp, sp, #24
 6913 0004 00AF     		add	r7, sp, #0
 6914 0006 F860     		str	r0, [r7, #12]
 6915 0008 B960     		str	r1, [r7, #8]
 6916 000a 3B60     		str	r3, [r7]
 6917 000c 1346     		mov	r3, r2	@ movhi
 6918 000e FB80     		strh	r3, [r7, #6]	@ movhi
 6919 0010 FB68     		ldr	r3, [r7, #12]
 6920 0012 93F83D30 		ldrb	r3, [r3, #61]
 6921 0016 DBB2     		uxtb	r3, r3
 6922 0018 03F02803 		and	r3, r3, #40
 6923 001c 282B     		cmp	r3, #40
 6924 001e 40F01E81 		bne	.L416
 6925 0022 BB68     		ldr	r3, [r7, #8]
 6926 0024 002B     		cmp	r3, #0
 6927 0026 02D0     		beq	.L417
 6928 0028 FB88     		ldrh	r3, [r7, #6]
 6929 002a 002B     		cmp	r3, #0
 6930 002c 01D1     		bne	.L418
 6931              	.L417:
 6932 002e 0123     		movs	r3, #1
 6933 0030 16E1     		b	.L419
 6934              	.L418:
 6935 0032 FB68     		ldr	r3, [r7, #12]
 6936 0034 93F83C30 		ldrb	r3, [r3, #60]	@ zero_extendqisi2
 6937 0038 012B     		cmp	r3, #1
 6938 003a 01D1     		bne	.L420
 6939 003c 0223     		movs	r3, #2
 6940 003e 0FE1     		b	.L419
 6941              	.L420:
 6942 0040 FB68     		ldr	r3, [r7, #12]
 6943 0042 0122     		movs	r2, #1
 6944 0044 83F83C20 		strb	r2, [r3, #60]
 6945 0048 FB68     		ldr	r3, [r7, #12]
 6946 004a 1B68     		ldr	r3, [r3]
 6947 004c 5A68     		ldr	r2, [r3, #4]
 6948 004e FB68     		ldr	r3, [r7, #12]
 6949 0050 1B68     		ldr	r3, [r3]
 6950 0052 22F44072 		bic	r2, r2, #768
 6951 0056 5A60     		str	r2, [r3, #4]
 6952 0058 FB68     		ldr	r3, [r7, #12]
 6953 005a 93F83D30 		ldrb	r3, [r3, #61]
 6954 005e DBB2     		uxtb	r3, r3
ARM GAS  C:\Users\user\AppData\Local\Temp\cchxWhRb.s 			page 122


 6955 0060 2A2B     		cmp	r3, #42
 6956 0062 27D1     		bne	.L421
 6957 0064 FB68     		ldr	r3, [r7, #12]
 6958 0066 1B68     		ldr	r3, [r3]
 6959 0068 5B68     		ldr	r3, [r3, #4]
 6960 006a 03F40063 		and	r3, r3, #2048
 6961 006e B3F5006F 		cmp	r3, #2048
 6962 0072 4CD1     		bne	.L422
 6963 0074 FB68     		ldr	r3, [r7, #12]
 6964 0076 9B6B     		ldr	r3, [r3, #56]
 6965 0078 002B     		cmp	r3, #0
 6966 007a 48D0     		beq	.L422
 6967 007c FB68     		ldr	r3, [r7, #12]
 6968 007e 1B68     		ldr	r3, [r3]
 6969 0080 5A68     		ldr	r2, [r3, #4]
 6970 0082 FB68     		ldr	r3, [r7, #12]
 6971 0084 1B68     		ldr	r3, [r3]
 6972 0086 22F40062 		bic	r2, r2, #2048
 6973 008a 5A60     		str	r2, [r3, #4]
 6974 008c FB68     		ldr	r3, [r7, #12]
 6975 008e 9B6B     		ldr	r3, [r3, #56]
 6976 0090 754A     		ldr	r2, .L428
 6977 0092 1A65     		str	r2, [r3, #80]
 6978 0094 FB68     		ldr	r3, [r7, #12]
 6979 0096 9B6B     		ldr	r3, [r3, #56]
 6980 0098 1846     		mov	r0, r3
 6981 009a FFF7FEFF 		bl	HAL_DMA_Abort_IT
 6982 009e 0346     		mov	r3, r0
 6983 00a0 002B     		cmp	r3, #0
 6984 00a2 34D0     		beq	.L422
 6985 00a4 FB68     		ldr	r3, [r7, #12]
 6986 00a6 9B6B     		ldr	r3, [r3, #56]
 6987 00a8 1B6D     		ldr	r3, [r3, #80]
 6988 00aa FA68     		ldr	r2, [r7, #12]
 6989 00ac 926B     		ldr	r2, [r2, #56]
 6990 00ae 1046     		mov	r0, r2
 6991 00b0 9847     		blx	r3
 6992 00b2 2CE0     		b	.L422
 6993              	.L421:
 6994 00b4 FB68     		ldr	r3, [r7, #12]
 6995 00b6 93F83D30 		ldrb	r3, [r3, #61]
 6996 00ba DBB2     		uxtb	r3, r3
 6997 00bc 292B     		cmp	r3, #41
 6998 00be 26D1     		bne	.L422
 6999 00c0 FB68     		ldr	r3, [r7, #12]
 7000 00c2 1B68     		ldr	r3, [r3]
 7001 00c4 5B68     		ldr	r3, [r3, #4]
 7002 00c6 03F40063 		and	r3, r3, #2048
 7003 00ca B3F5006F 		cmp	r3, #2048
 7004 00ce 1ED1     		bne	.L422
 7005 00d0 FB68     		ldr	r3, [r7, #12]
 7006 00d2 1B68     		ldr	r3, [r3]
 7007 00d4 5A68     		ldr	r2, [r3, #4]
 7008 00d6 FB68     		ldr	r3, [r7, #12]
 7009 00d8 1B68     		ldr	r3, [r3]
 7010 00da 22F40062 		bic	r2, r2, #2048
 7011 00de 5A60     		str	r2, [r3, #4]
ARM GAS  C:\Users\user\AppData\Local\Temp\cchxWhRb.s 			page 123


 7012 00e0 FB68     		ldr	r3, [r7, #12]
 7013 00e2 5B6B     		ldr	r3, [r3, #52]
 7014 00e4 002B     		cmp	r3, #0
 7015 00e6 12D0     		beq	.L422
 7016 00e8 FB68     		ldr	r3, [r7, #12]
 7017 00ea 5B6B     		ldr	r3, [r3, #52]
 7018 00ec 5E4A     		ldr	r2, .L428
 7019 00ee 1A65     		str	r2, [r3, #80]
 7020 00f0 FB68     		ldr	r3, [r7, #12]
 7021 00f2 5B6B     		ldr	r3, [r3, #52]
 7022 00f4 1846     		mov	r0, r3
 7023 00f6 FFF7FEFF 		bl	HAL_DMA_Abort_IT
 7024 00fa 0346     		mov	r3, r0
 7025 00fc 002B     		cmp	r3, #0
 7026 00fe 06D0     		beq	.L422
 7027 0100 FB68     		ldr	r3, [r7, #12]
 7028 0102 5B6B     		ldr	r3, [r3, #52]
 7029 0104 1B6D     		ldr	r3, [r3, #80]
 7030 0106 FA68     		ldr	r2, [r7, #12]
 7031 0108 526B     		ldr	r2, [r2, #52]
 7032 010a 1046     		mov	r0, r2
 7033 010c 9847     		blx	r3
 7034              	.L422:
 7035 010e FB68     		ldr	r3, [r7, #12]
 7036 0110 1B68     		ldr	r3, [r3]
 7037 0112 1B68     		ldr	r3, [r3]
 7038 0114 03F00103 		and	r3, r3, #1
 7039 0118 012B     		cmp	r3, #1
 7040 011a 07D0     		beq	.L423
 7041 011c FB68     		ldr	r3, [r7, #12]
 7042 011e 1B68     		ldr	r3, [r3]
 7043 0120 1A68     		ldr	r2, [r3]
 7044 0122 FB68     		ldr	r3, [r7, #12]
 7045 0124 1B68     		ldr	r3, [r3]
 7046 0126 42F00102 		orr	r2, r2, #1
 7047 012a 1A60     		str	r2, [r3]
 7048              	.L423:
 7049 012c FB68     		ldr	r3, [r7, #12]
 7050 012e 1B68     		ldr	r3, [r3]
 7051 0130 1A68     		ldr	r2, [r3]
 7052 0132 FB68     		ldr	r3, [r7, #12]
 7053 0134 1B68     		ldr	r3, [r3]
 7054 0136 22F40062 		bic	r2, r2, #2048
 7055 013a 1A60     		str	r2, [r3]
 7056 013c FB68     		ldr	r3, [r7, #12]
 7057 013e 2922     		movs	r2, #41
 7058 0140 83F83D20 		strb	r2, [r3, #61]
 7059 0144 FB68     		ldr	r3, [r7, #12]
 7060 0146 2022     		movs	r2, #32
 7061 0148 83F83E20 		strb	r2, [r3, #62]
 7062 014c FB68     		ldr	r3, [r7, #12]
 7063 014e 0022     		movs	r2, #0
 7064 0150 1A64     		str	r2, [r3, #64]
 7065 0152 FB68     		ldr	r3, [r7, #12]
 7066 0154 BA68     		ldr	r2, [r7, #8]
 7067 0156 5A62     		str	r2, [r3, #36]
 7068 0158 FB68     		ldr	r3, [r7, #12]
ARM GAS  C:\Users\user\AppData\Local\Temp\cchxWhRb.s 			page 124


 7069 015a FA88     		ldrh	r2, [r7, #6]	@ movhi
 7070 015c 5A85     		strh	r2, [r3, #42]	@ movhi
 7071 015e FB68     		ldr	r3, [r7, #12]
 7072 0160 5B8D     		ldrh	r3, [r3, #42]	@ movhi
 7073 0162 9AB2     		uxth	r2, r3
 7074 0164 FB68     		ldr	r3, [r7, #12]
 7075 0166 1A85     		strh	r2, [r3, #40]	@ movhi
 7076 0168 FB68     		ldr	r3, [r7, #12]
 7077 016a 3A68     		ldr	r2, [r7]
 7078 016c DA62     		str	r2, [r3, #44]
 7079 016e FB68     		ldr	r3, [r7, #12]
 7080 0170 5B6B     		ldr	r3, [r3, #52]
 7081 0172 002B     		cmp	r3, #0
 7082 0174 22D0     		beq	.L424
 7083 0176 FB68     		ldr	r3, [r7, #12]
 7084 0178 5B6B     		ldr	r3, [r3, #52]
 7085 017a 3C4A     		ldr	r2, .L428+4
 7086 017c DA63     		str	r2, [r3, #60]
 7087 017e FB68     		ldr	r3, [r7, #12]
 7088 0180 5B6B     		ldr	r3, [r3, #52]
 7089 0182 3B4A     		ldr	r2, .L428+8
 7090 0184 DA64     		str	r2, [r3, #76]
 7091 0186 FB68     		ldr	r3, [r7, #12]
 7092 0188 5B6B     		ldr	r3, [r3, #52]
 7093 018a 0022     		movs	r2, #0
 7094 018c 1A64     		str	r2, [r3, #64]
 7095 018e FB68     		ldr	r3, [r7, #12]
 7096 0190 5B6B     		ldr	r3, [r3, #52]
 7097 0192 0022     		movs	r2, #0
 7098 0194 1A65     		str	r2, [r3, #80]
 7099 0196 FB68     		ldr	r3, [r7, #12]
 7100 0198 586B     		ldr	r0, [r3, #52]
 7101 019a FB68     		ldr	r3, [r7, #12]
 7102 019c 5B6A     		ldr	r3, [r3, #36]
 7103 019e 1946     		mov	r1, r3
 7104 01a0 FB68     		ldr	r3, [r7, #12]
 7105 01a2 1B68     		ldr	r3, [r3]
 7106 01a4 1033     		adds	r3, r3, #16
 7107 01a6 1A46     		mov	r2, r3
 7108 01a8 FB68     		ldr	r3, [r7, #12]
 7109 01aa 1B8D     		ldrh	r3, [r3, #40]
 7110 01ac FFF7FEFF 		bl	HAL_DMA_Start_IT
 7111 01b0 0346     		mov	r3, r0
 7112 01b2 FB75     		strb	r3, [r7, #23]
 7113 01b4 FB7D     		ldrb	r3, [r7, #23]	@ zero_extendqisi2
 7114 01b6 002B     		cmp	r3, #0
 7115 01b8 3DD1     		bne	.L426
 7116 01ba 13E0     		b	.L427
 7117              	.L424:
 7118 01bc FB68     		ldr	r3, [r7, #12]
 7119 01be 2822     		movs	r2, #40
 7120 01c0 83F83D20 		strb	r2, [r3, #61]
 7121 01c4 FB68     		ldr	r3, [r7, #12]
 7122 01c6 0022     		movs	r2, #0
 7123 01c8 83F83E20 		strb	r2, [r3, #62]
 7124 01cc FB68     		ldr	r3, [r7, #12]
 7125 01ce 1B6C     		ldr	r3, [r3, #64]
ARM GAS  C:\Users\user\AppData\Local\Temp\cchxWhRb.s 			page 125


 7126 01d0 43F08002 		orr	r2, r3, #128
 7127 01d4 FB68     		ldr	r3, [r7, #12]
 7128 01d6 1A64     		str	r2, [r3, #64]
 7129 01d8 FB68     		ldr	r3, [r7, #12]
 7130 01da 0022     		movs	r2, #0
 7131 01dc 83F83C20 		strb	r2, [r3, #60]
 7132 01e0 0123     		movs	r3, #1
 7133 01e2 3DE0     		b	.L419
 7134              	.L427:
 7135 01e4 FB68     		ldr	r3, [r7, #12]
 7136 01e6 1B68     		ldr	r3, [r3]
 7137 01e8 1A68     		ldr	r2, [r3]
 7138 01ea FB68     		ldr	r3, [r7, #12]
 7139 01ec 1B68     		ldr	r3, [r3]
 7140 01ee 42F48062 		orr	r2, r2, #1024
 7141 01f2 1A60     		str	r2, [r3]
 7142 01f4 0023     		movs	r3, #0
 7143 01f6 3B61     		str	r3, [r7, #16]
 7144 01f8 FB68     		ldr	r3, [r7, #12]
 7145 01fa 1B68     		ldr	r3, [r3]
 7146 01fc 5B69     		ldr	r3, [r3, #20]
 7147 01fe 3B61     		str	r3, [r7, #16]
 7148 0200 FB68     		ldr	r3, [r7, #12]
 7149 0202 1B68     		ldr	r3, [r3]
 7150 0204 9B69     		ldr	r3, [r3, #24]
 7151 0206 3B61     		str	r3, [r7, #16]
 7152 0208 3B69     		ldr	r3, [r7, #16]
 7153 020a FB68     		ldr	r3, [r7, #12]
 7154 020c 0022     		movs	r2, #0
 7155 020e 83F83C20 		strb	r2, [r3, #60]
 7156 0212 FB68     		ldr	r3, [r7, #12]
 7157 0214 1B68     		ldr	r3, [r3]
 7158 0216 5A68     		ldr	r2, [r3, #4]
 7159 0218 FB68     		ldr	r3, [r7, #12]
 7160 021a 1B68     		ldr	r3, [r3]
 7161 021c 42F44072 		orr	r2, r2, #768
 7162 0220 5A60     		str	r2, [r3, #4]
 7163 0222 FB68     		ldr	r3, [r7, #12]
 7164 0224 1B68     		ldr	r3, [r3]
 7165 0226 5A68     		ldr	r2, [r3, #4]
 7166 0228 FB68     		ldr	r3, [r7, #12]
 7167 022a 1B68     		ldr	r3, [r3]
 7168 022c 42F40062 		orr	r2, r2, #2048
 7169 0230 5A60     		str	r2, [r3, #4]
 7170 0232 0023     		movs	r3, #0
 7171 0234 14E0     		b	.L419
 7172              	.L426:
 7173 0236 FB68     		ldr	r3, [r7, #12]
 7174 0238 2022     		movs	r2, #32
 7175 023a 83F83D20 		strb	r2, [r3, #61]
 7176 023e FB68     		ldr	r3, [r7, #12]
 7177 0240 0022     		movs	r2, #0
 7178 0242 83F83E20 		strb	r2, [r3, #62]
 7179 0246 FB68     		ldr	r3, [r7, #12]
 7180 0248 1B6C     		ldr	r3, [r3, #64]
 7181 024a 43F01002 		orr	r2, r3, #16
 7182 024e FB68     		ldr	r3, [r7, #12]
ARM GAS  C:\Users\user\AppData\Local\Temp\cchxWhRb.s 			page 126


 7183 0250 1A64     		str	r2, [r3, #64]
 7184 0252 FB68     		ldr	r3, [r7, #12]
 7185 0254 0022     		movs	r2, #0
 7186 0256 83F83C20 		strb	r2, [r3, #60]
 7187 025a 0123     		movs	r3, #1
 7188 025c 00E0     		b	.L419
 7189              	.L416:
 7190 025e 0223     		movs	r3, #2
 7191              	.L419:
 7192 0260 1846     		mov	r0, r3
 7193 0262 1837     		adds	r7, r7, #24
 7194 0264 BD46     		mov	sp, r7
 7195              		@ sp needed
 7196 0266 80BD     		pop	{r7, pc}
 7197              	.L429:
 7198              		.align	2
 7199              	.L428:
 7200 0268 00000000 		.word	I2C_DMAAbort
 7201 026c 00000000 		.word	I2C_DMAXferCplt
 7202 0270 00000000 		.word	I2C_DMAError
 7204              		.section	.text.HAL_I2C_Slave_Seq_Receive_IT,"ax",%progbits
 7205              		.align	1
 7206              		.global	HAL_I2C_Slave_Seq_Receive_IT
 7207              		.syntax unified
 7208              		.thumb
 7209              		.thumb_func
 7211              	HAL_I2C_Slave_Seq_Receive_IT:
 7212              		@ args = 0, pretend = 0, frame = 24
 7213              		@ frame_needed = 1, uses_anonymous_args = 0
 7214              		@ link register save eliminated.
 7215 0000 80B4     		push	{r7}
 7216 0002 87B0     		sub	sp, sp, #28
 7217 0004 00AF     		add	r7, sp, #0
 7218 0006 F860     		str	r0, [r7, #12]
 7219 0008 B960     		str	r1, [r7, #8]
 7220 000a 3B60     		str	r3, [r7]
 7221 000c 1346     		mov	r3, r2	@ movhi
 7222 000e FB80     		strh	r3, [r7, #6]	@ movhi
 7223 0010 FB68     		ldr	r3, [r7, #12]
 7224 0012 93F83D30 		ldrb	r3, [r3, #61]
 7225 0016 DBB2     		uxtb	r3, r3
 7226 0018 03F02803 		and	r3, r3, #40
 7227 001c 282B     		cmp	r3, #40
 7228 001e 5BD1     		bne	.L431
 7229 0020 BB68     		ldr	r3, [r7, #8]
 7230 0022 002B     		cmp	r3, #0
 7231 0024 02D0     		beq	.L432
 7232 0026 FB88     		ldrh	r3, [r7, #6]
 7233 0028 002B     		cmp	r3, #0
 7234 002a 01D1     		bne	.L433
 7235              	.L432:
 7236 002c 0123     		movs	r3, #1
 7237 002e 54E0     		b	.L434
 7238              	.L433:
 7239 0030 FB68     		ldr	r3, [r7, #12]
 7240 0032 93F83C30 		ldrb	r3, [r3, #60]	@ zero_extendqisi2
 7241 0036 012B     		cmp	r3, #1
ARM GAS  C:\Users\user\AppData\Local\Temp\cchxWhRb.s 			page 127


 7242 0038 01D1     		bne	.L435
 7243 003a 0223     		movs	r3, #2
 7244 003c 4DE0     		b	.L434
 7245              	.L435:
 7246 003e FB68     		ldr	r3, [r7, #12]
 7247 0040 0122     		movs	r2, #1
 7248 0042 83F83C20 		strb	r2, [r3, #60]
 7249 0046 FB68     		ldr	r3, [r7, #12]
 7250 0048 1B68     		ldr	r3, [r3]
 7251 004a 1B68     		ldr	r3, [r3]
 7252 004c 03F00103 		and	r3, r3, #1
 7253 0050 012B     		cmp	r3, #1
 7254 0052 07D0     		beq	.L436
 7255 0054 FB68     		ldr	r3, [r7, #12]
 7256 0056 1B68     		ldr	r3, [r3]
 7257 0058 1A68     		ldr	r2, [r3]
 7258 005a FB68     		ldr	r3, [r7, #12]
 7259 005c 1B68     		ldr	r3, [r3]
 7260 005e 42F00102 		orr	r2, r2, #1
 7261 0062 1A60     		str	r2, [r3]
 7262              	.L436:
 7263 0064 FB68     		ldr	r3, [r7, #12]
 7264 0066 1B68     		ldr	r3, [r3]
 7265 0068 1A68     		ldr	r2, [r3]
 7266 006a FB68     		ldr	r3, [r7, #12]
 7267 006c 1B68     		ldr	r3, [r3]
 7268 006e 22F40062 		bic	r2, r2, #2048
 7269 0072 1A60     		str	r2, [r3]
 7270 0074 FB68     		ldr	r3, [r7, #12]
 7271 0076 2A22     		movs	r2, #42
 7272 0078 83F83D20 		strb	r2, [r3, #61]
 7273 007c FB68     		ldr	r3, [r7, #12]
 7274 007e 2022     		movs	r2, #32
 7275 0080 83F83E20 		strb	r2, [r3, #62]
 7276 0084 FB68     		ldr	r3, [r7, #12]
 7277 0086 0022     		movs	r2, #0
 7278 0088 1A64     		str	r2, [r3, #64]
 7279 008a FB68     		ldr	r3, [r7, #12]
 7280 008c BA68     		ldr	r2, [r7, #8]
 7281 008e 5A62     		str	r2, [r3, #36]
 7282 0090 FB68     		ldr	r3, [r7, #12]
 7283 0092 FA88     		ldrh	r2, [r7, #6]	@ movhi
 7284 0094 5A85     		strh	r2, [r3, #42]	@ movhi
 7285 0096 FB68     		ldr	r3, [r7, #12]
 7286 0098 5B8D     		ldrh	r3, [r3, #42]	@ movhi
 7287 009a 9AB2     		uxth	r2, r3
 7288 009c FB68     		ldr	r3, [r7, #12]
 7289 009e 1A85     		strh	r2, [r3, #40]	@ movhi
 7290 00a0 FB68     		ldr	r3, [r7, #12]
 7291 00a2 3A68     		ldr	r2, [r7]
 7292 00a4 DA62     		str	r2, [r3, #44]
 7293 00a6 0023     		movs	r3, #0
 7294 00a8 7B61     		str	r3, [r7, #20]
 7295 00aa FB68     		ldr	r3, [r7, #12]
 7296 00ac 1B68     		ldr	r3, [r3]
 7297 00ae 5B69     		ldr	r3, [r3, #20]
 7298 00b0 7B61     		str	r3, [r7, #20]
ARM GAS  C:\Users\user\AppData\Local\Temp\cchxWhRb.s 			page 128


 7299 00b2 FB68     		ldr	r3, [r7, #12]
 7300 00b4 1B68     		ldr	r3, [r3]
 7301 00b6 9B69     		ldr	r3, [r3, #24]
 7302 00b8 7B61     		str	r3, [r7, #20]
 7303 00ba 7B69     		ldr	r3, [r7, #20]
 7304 00bc FB68     		ldr	r3, [r7, #12]
 7305 00be 0022     		movs	r2, #0
 7306 00c0 83F83C20 		strb	r2, [r3, #60]
 7307 00c4 FB68     		ldr	r3, [r7, #12]
 7308 00c6 1B68     		ldr	r3, [r3]
 7309 00c8 5A68     		ldr	r2, [r3, #4]
 7310 00ca FB68     		ldr	r3, [r7, #12]
 7311 00cc 1B68     		ldr	r3, [r3]
 7312 00ce 42F4E062 		orr	r2, r2, #1792
 7313 00d2 5A60     		str	r2, [r3, #4]
 7314 00d4 0023     		movs	r3, #0
 7315 00d6 00E0     		b	.L434
 7316              	.L431:
 7317 00d8 0223     		movs	r3, #2
 7318              	.L434:
 7319 00da 1846     		mov	r0, r3
 7320 00dc 1C37     		adds	r7, r7, #28
 7321 00de BD46     		mov	sp, r7
 7322              		@ sp needed
 7323 00e0 5DF8047B 		ldr	r7, [sp], #4
 7324 00e4 7047     		bx	lr
 7326              		.section	.text.HAL_I2C_Slave_Seq_Receive_DMA,"ax",%progbits
 7327              		.align	1
 7328              		.global	HAL_I2C_Slave_Seq_Receive_DMA
 7329              		.syntax unified
 7330              		.thumb
 7331              		.thumb_func
 7333              	HAL_I2C_Slave_Seq_Receive_DMA:
 7334              		@ args = 0, pretend = 0, frame = 24
 7335              		@ frame_needed = 1, uses_anonymous_args = 0
 7336 0000 80B5     		push	{r7, lr}
 7337 0002 86B0     		sub	sp, sp, #24
 7338 0004 00AF     		add	r7, sp, #0
 7339 0006 F860     		str	r0, [r7, #12]
 7340 0008 B960     		str	r1, [r7, #8]
 7341 000a 3B60     		str	r3, [r7]
 7342 000c 1346     		mov	r3, r2	@ movhi
 7343 000e FB80     		strh	r3, [r7, #6]	@ movhi
 7344 0010 FB68     		ldr	r3, [r7, #12]
 7345 0012 93F83D30 		ldrb	r3, [r3, #61]
 7346 0016 DBB2     		uxtb	r3, r3
 7347 0018 03F02803 		and	r3, r3, #40
 7348 001c 282B     		cmp	r3, #40
 7349 001e 40F01E81 		bne	.L438
 7350 0022 BB68     		ldr	r3, [r7, #8]
 7351 0024 002B     		cmp	r3, #0
 7352 0026 02D0     		beq	.L439
 7353 0028 FB88     		ldrh	r3, [r7, #6]
 7354 002a 002B     		cmp	r3, #0
 7355 002c 01D1     		bne	.L440
 7356              	.L439:
 7357 002e 0123     		movs	r3, #1
ARM GAS  C:\Users\user\AppData\Local\Temp\cchxWhRb.s 			page 129


 7358 0030 16E1     		b	.L441
 7359              	.L440:
 7360 0032 FB68     		ldr	r3, [r7, #12]
 7361 0034 93F83C30 		ldrb	r3, [r3, #60]	@ zero_extendqisi2
 7362 0038 012B     		cmp	r3, #1
 7363 003a 01D1     		bne	.L442
 7364 003c 0223     		movs	r3, #2
 7365 003e 0FE1     		b	.L441
 7366              	.L442:
 7367 0040 FB68     		ldr	r3, [r7, #12]
 7368 0042 0122     		movs	r2, #1
 7369 0044 83F83C20 		strb	r2, [r3, #60]
 7370 0048 FB68     		ldr	r3, [r7, #12]
 7371 004a 1B68     		ldr	r3, [r3]
 7372 004c 5A68     		ldr	r2, [r3, #4]
 7373 004e FB68     		ldr	r3, [r7, #12]
 7374 0050 1B68     		ldr	r3, [r3]
 7375 0052 22F44072 		bic	r2, r2, #768
 7376 0056 5A60     		str	r2, [r3, #4]
 7377 0058 FB68     		ldr	r3, [r7, #12]
 7378 005a 93F83D30 		ldrb	r3, [r3, #61]
 7379 005e DBB2     		uxtb	r3, r3
 7380 0060 2A2B     		cmp	r3, #42
 7381 0062 27D1     		bne	.L443
 7382 0064 FB68     		ldr	r3, [r7, #12]
 7383 0066 1B68     		ldr	r3, [r3]
 7384 0068 5B68     		ldr	r3, [r3, #4]
 7385 006a 03F40063 		and	r3, r3, #2048
 7386 006e B3F5006F 		cmp	r3, #2048
 7387 0072 4CD1     		bne	.L444
 7388 0074 FB68     		ldr	r3, [r7, #12]
 7389 0076 9B6B     		ldr	r3, [r3, #56]
 7390 0078 002B     		cmp	r3, #0
 7391 007a 48D0     		beq	.L444
 7392 007c FB68     		ldr	r3, [r7, #12]
 7393 007e 1B68     		ldr	r3, [r3]
 7394 0080 5A68     		ldr	r2, [r3, #4]
 7395 0082 FB68     		ldr	r3, [r7, #12]
 7396 0084 1B68     		ldr	r3, [r3]
 7397 0086 22F40062 		bic	r2, r2, #2048
 7398 008a 5A60     		str	r2, [r3, #4]
 7399 008c FB68     		ldr	r3, [r7, #12]
 7400 008e 9B6B     		ldr	r3, [r3, #56]
 7401 0090 754A     		ldr	r2, .L450
 7402 0092 1A65     		str	r2, [r3, #80]
 7403 0094 FB68     		ldr	r3, [r7, #12]
 7404 0096 9B6B     		ldr	r3, [r3, #56]
 7405 0098 1846     		mov	r0, r3
 7406 009a FFF7FEFF 		bl	HAL_DMA_Abort_IT
 7407 009e 0346     		mov	r3, r0
 7408 00a0 002B     		cmp	r3, #0
 7409 00a2 34D0     		beq	.L444
 7410 00a4 FB68     		ldr	r3, [r7, #12]
 7411 00a6 9B6B     		ldr	r3, [r3, #56]
 7412 00a8 1B6D     		ldr	r3, [r3, #80]
 7413 00aa FA68     		ldr	r2, [r7, #12]
 7414 00ac 926B     		ldr	r2, [r2, #56]
ARM GAS  C:\Users\user\AppData\Local\Temp\cchxWhRb.s 			page 130


 7415 00ae 1046     		mov	r0, r2
 7416 00b0 9847     		blx	r3
 7417 00b2 2CE0     		b	.L444
 7418              	.L443:
 7419 00b4 FB68     		ldr	r3, [r7, #12]
 7420 00b6 93F83D30 		ldrb	r3, [r3, #61]
 7421 00ba DBB2     		uxtb	r3, r3
 7422 00bc 292B     		cmp	r3, #41
 7423 00be 26D1     		bne	.L444
 7424 00c0 FB68     		ldr	r3, [r7, #12]
 7425 00c2 1B68     		ldr	r3, [r3]
 7426 00c4 5B68     		ldr	r3, [r3, #4]
 7427 00c6 03F40063 		and	r3, r3, #2048
 7428 00ca B3F5006F 		cmp	r3, #2048
 7429 00ce 1ED1     		bne	.L444
 7430 00d0 FB68     		ldr	r3, [r7, #12]
 7431 00d2 1B68     		ldr	r3, [r3]
 7432 00d4 5A68     		ldr	r2, [r3, #4]
 7433 00d6 FB68     		ldr	r3, [r7, #12]
 7434 00d8 1B68     		ldr	r3, [r3]
 7435 00da 22F40062 		bic	r2, r2, #2048
 7436 00de 5A60     		str	r2, [r3, #4]
 7437 00e0 FB68     		ldr	r3, [r7, #12]
 7438 00e2 5B6B     		ldr	r3, [r3, #52]
 7439 00e4 002B     		cmp	r3, #0
 7440 00e6 12D0     		beq	.L444
 7441 00e8 FB68     		ldr	r3, [r7, #12]
 7442 00ea 5B6B     		ldr	r3, [r3, #52]
 7443 00ec 5E4A     		ldr	r2, .L450
 7444 00ee 1A65     		str	r2, [r3, #80]
 7445 00f0 FB68     		ldr	r3, [r7, #12]
 7446 00f2 5B6B     		ldr	r3, [r3, #52]
 7447 00f4 1846     		mov	r0, r3
 7448 00f6 FFF7FEFF 		bl	HAL_DMA_Abort_IT
 7449 00fa 0346     		mov	r3, r0
 7450 00fc 002B     		cmp	r3, #0
 7451 00fe 06D0     		beq	.L444
 7452 0100 FB68     		ldr	r3, [r7, #12]
 7453 0102 5B6B     		ldr	r3, [r3, #52]
 7454 0104 1B6D     		ldr	r3, [r3, #80]
 7455 0106 FA68     		ldr	r2, [r7, #12]
 7456 0108 526B     		ldr	r2, [r2, #52]
 7457 010a 1046     		mov	r0, r2
 7458 010c 9847     		blx	r3
 7459              	.L444:
 7460 010e FB68     		ldr	r3, [r7, #12]
 7461 0110 1B68     		ldr	r3, [r3]
 7462 0112 1B68     		ldr	r3, [r3]
 7463 0114 03F00103 		and	r3, r3, #1
 7464 0118 012B     		cmp	r3, #1
 7465 011a 07D0     		beq	.L445
 7466 011c FB68     		ldr	r3, [r7, #12]
 7467 011e 1B68     		ldr	r3, [r3]
 7468 0120 1A68     		ldr	r2, [r3]
 7469 0122 FB68     		ldr	r3, [r7, #12]
 7470 0124 1B68     		ldr	r3, [r3]
 7471 0126 42F00102 		orr	r2, r2, #1
ARM GAS  C:\Users\user\AppData\Local\Temp\cchxWhRb.s 			page 131


 7472 012a 1A60     		str	r2, [r3]
 7473              	.L445:
 7474 012c FB68     		ldr	r3, [r7, #12]
 7475 012e 1B68     		ldr	r3, [r3]
 7476 0130 1A68     		ldr	r2, [r3]
 7477 0132 FB68     		ldr	r3, [r7, #12]
 7478 0134 1B68     		ldr	r3, [r3]
 7479 0136 22F40062 		bic	r2, r2, #2048
 7480 013a 1A60     		str	r2, [r3]
 7481 013c FB68     		ldr	r3, [r7, #12]
 7482 013e 2A22     		movs	r2, #42
 7483 0140 83F83D20 		strb	r2, [r3, #61]
 7484 0144 FB68     		ldr	r3, [r7, #12]
 7485 0146 2022     		movs	r2, #32
 7486 0148 83F83E20 		strb	r2, [r3, #62]
 7487 014c FB68     		ldr	r3, [r7, #12]
 7488 014e 0022     		movs	r2, #0
 7489 0150 1A64     		str	r2, [r3, #64]
 7490 0152 FB68     		ldr	r3, [r7, #12]
 7491 0154 BA68     		ldr	r2, [r7, #8]
 7492 0156 5A62     		str	r2, [r3, #36]
 7493 0158 FB68     		ldr	r3, [r7, #12]
 7494 015a FA88     		ldrh	r2, [r7, #6]	@ movhi
 7495 015c 5A85     		strh	r2, [r3, #42]	@ movhi
 7496 015e FB68     		ldr	r3, [r7, #12]
 7497 0160 5B8D     		ldrh	r3, [r3, #42]	@ movhi
 7498 0162 9AB2     		uxth	r2, r3
 7499 0164 FB68     		ldr	r3, [r7, #12]
 7500 0166 1A85     		strh	r2, [r3, #40]	@ movhi
 7501 0168 FB68     		ldr	r3, [r7, #12]
 7502 016a 3A68     		ldr	r2, [r7]
 7503 016c DA62     		str	r2, [r3, #44]
 7504 016e FB68     		ldr	r3, [r7, #12]
 7505 0170 9B6B     		ldr	r3, [r3, #56]
 7506 0172 002B     		cmp	r3, #0
 7507 0174 22D0     		beq	.L446
 7508 0176 FB68     		ldr	r3, [r7, #12]
 7509 0178 9B6B     		ldr	r3, [r3, #56]
 7510 017a 3C4A     		ldr	r2, .L450+4
 7511 017c DA63     		str	r2, [r3, #60]
 7512 017e FB68     		ldr	r3, [r7, #12]
 7513 0180 9B6B     		ldr	r3, [r3, #56]
 7514 0182 3B4A     		ldr	r2, .L450+8
 7515 0184 DA64     		str	r2, [r3, #76]
 7516 0186 FB68     		ldr	r3, [r7, #12]
 7517 0188 9B6B     		ldr	r3, [r3, #56]
 7518 018a 0022     		movs	r2, #0
 7519 018c 1A64     		str	r2, [r3, #64]
 7520 018e FB68     		ldr	r3, [r7, #12]
 7521 0190 9B6B     		ldr	r3, [r3, #56]
 7522 0192 0022     		movs	r2, #0
 7523 0194 1A65     		str	r2, [r3, #80]
 7524 0196 FB68     		ldr	r3, [r7, #12]
 7525 0198 986B     		ldr	r0, [r3, #56]
 7526 019a FB68     		ldr	r3, [r7, #12]
 7527 019c 1B68     		ldr	r3, [r3]
 7528 019e 1033     		adds	r3, r3, #16
ARM GAS  C:\Users\user\AppData\Local\Temp\cchxWhRb.s 			page 132


 7529 01a0 1946     		mov	r1, r3
 7530 01a2 FB68     		ldr	r3, [r7, #12]
 7531 01a4 5B6A     		ldr	r3, [r3, #36]
 7532 01a6 1A46     		mov	r2, r3
 7533 01a8 FB68     		ldr	r3, [r7, #12]
 7534 01aa 1B8D     		ldrh	r3, [r3, #40]
 7535 01ac FFF7FEFF 		bl	HAL_DMA_Start_IT
 7536 01b0 0346     		mov	r3, r0
 7537 01b2 FB75     		strb	r3, [r7, #23]
 7538 01b4 FB7D     		ldrb	r3, [r7, #23]	@ zero_extendqisi2
 7539 01b6 002B     		cmp	r3, #0
 7540 01b8 3DD1     		bne	.L448
 7541 01ba 13E0     		b	.L449
 7542              	.L446:
 7543 01bc FB68     		ldr	r3, [r7, #12]
 7544 01be 2822     		movs	r2, #40
 7545 01c0 83F83D20 		strb	r2, [r3, #61]
 7546 01c4 FB68     		ldr	r3, [r7, #12]
 7547 01c6 0022     		movs	r2, #0
 7548 01c8 83F83E20 		strb	r2, [r3, #62]
 7549 01cc FB68     		ldr	r3, [r7, #12]
 7550 01ce 1B6C     		ldr	r3, [r3, #64]
 7551 01d0 43F08002 		orr	r2, r3, #128
 7552 01d4 FB68     		ldr	r3, [r7, #12]
 7553 01d6 1A64     		str	r2, [r3, #64]
 7554 01d8 FB68     		ldr	r3, [r7, #12]
 7555 01da 0022     		movs	r2, #0
 7556 01dc 83F83C20 		strb	r2, [r3, #60]
 7557 01e0 0123     		movs	r3, #1
 7558 01e2 3DE0     		b	.L441
 7559              	.L449:
 7560 01e4 FB68     		ldr	r3, [r7, #12]
 7561 01e6 1B68     		ldr	r3, [r3]
 7562 01e8 1A68     		ldr	r2, [r3]
 7563 01ea FB68     		ldr	r3, [r7, #12]
 7564 01ec 1B68     		ldr	r3, [r3]
 7565 01ee 42F48062 		orr	r2, r2, #1024
 7566 01f2 1A60     		str	r2, [r3]
 7567 01f4 0023     		movs	r3, #0
 7568 01f6 3B61     		str	r3, [r7, #16]
 7569 01f8 FB68     		ldr	r3, [r7, #12]
 7570 01fa 1B68     		ldr	r3, [r3]
 7571 01fc 5B69     		ldr	r3, [r3, #20]
 7572 01fe 3B61     		str	r3, [r7, #16]
 7573 0200 FB68     		ldr	r3, [r7, #12]
 7574 0202 1B68     		ldr	r3, [r3]
 7575 0204 9B69     		ldr	r3, [r3, #24]
 7576 0206 3B61     		str	r3, [r7, #16]
 7577 0208 3B69     		ldr	r3, [r7, #16]
 7578 020a FB68     		ldr	r3, [r7, #12]
 7579 020c 0022     		movs	r2, #0
 7580 020e 83F83C20 		strb	r2, [r3, #60]
 7581 0212 FB68     		ldr	r3, [r7, #12]
 7582 0214 1B68     		ldr	r3, [r3]
 7583 0216 5A68     		ldr	r2, [r3, #4]
 7584 0218 FB68     		ldr	r3, [r7, #12]
 7585 021a 1B68     		ldr	r3, [r3]
ARM GAS  C:\Users\user\AppData\Local\Temp\cchxWhRb.s 			page 133


 7586 021c 42F40062 		orr	r2, r2, #2048
 7587 0220 5A60     		str	r2, [r3, #4]
 7588 0222 FB68     		ldr	r3, [r7, #12]
 7589 0224 1B68     		ldr	r3, [r3]
 7590 0226 5A68     		ldr	r2, [r3, #4]
 7591 0228 FB68     		ldr	r3, [r7, #12]
 7592 022a 1B68     		ldr	r3, [r3]
 7593 022c 42F44072 		orr	r2, r2, #768
 7594 0230 5A60     		str	r2, [r3, #4]
 7595 0232 0023     		movs	r3, #0
 7596 0234 14E0     		b	.L441
 7597              	.L448:
 7598 0236 FB68     		ldr	r3, [r7, #12]
 7599 0238 2022     		movs	r2, #32
 7600 023a 83F83D20 		strb	r2, [r3, #61]
 7601 023e FB68     		ldr	r3, [r7, #12]
 7602 0240 0022     		movs	r2, #0
 7603 0242 83F83E20 		strb	r2, [r3, #62]
 7604 0246 FB68     		ldr	r3, [r7, #12]
 7605 0248 1B6C     		ldr	r3, [r3, #64]
 7606 024a 43F01002 		orr	r2, r3, #16
 7607 024e FB68     		ldr	r3, [r7, #12]
 7608 0250 1A64     		str	r2, [r3, #64]
 7609 0252 FB68     		ldr	r3, [r7, #12]
 7610 0254 0022     		movs	r2, #0
 7611 0256 83F83C20 		strb	r2, [r3, #60]
 7612 025a 0123     		movs	r3, #1
 7613 025c 00E0     		b	.L441
 7614              	.L438:
 7615 025e 0223     		movs	r3, #2
 7616              	.L441:
 7617 0260 1846     		mov	r0, r3
 7618 0262 1837     		adds	r7, r7, #24
 7619 0264 BD46     		mov	sp, r7
 7620              		@ sp needed
 7621 0266 80BD     		pop	{r7, pc}
 7622              	.L451:
 7623              		.align	2
 7624              	.L450:
 7625 0268 00000000 		.word	I2C_DMAAbort
 7626 026c 00000000 		.word	I2C_DMAXferCplt
 7627 0270 00000000 		.word	I2C_DMAError
 7629              		.section	.text.HAL_I2C_EnableListen_IT,"ax",%progbits
 7630              		.align	1
 7631              		.global	HAL_I2C_EnableListen_IT
 7632              		.syntax unified
 7633              		.thumb
 7634              		.thumb_func
 7636              	HAL_I2C_EnableListen_IT:
 7637              		@ args = 0, pretend = 0, frame = 8
 7638              		@ frame_needed = 1, uses_anonymous_args = 0
 7639              		@ link register save eliminated.
 7640 0000 80B4     		push	{r7}
 7641 0002 83B0     		sub	sp, sp, #12
 7642 0004 00AF     		add	r7, sp, #0
 7643 0006 7860     		str	r0, [r7, #4]
 7644 0008 7B68     		ldr	r3, [r7, #4]
ARM GAS  C:\Users\user\AppData\Local\Temp\cchxWhRb.s 			page 134


 7645 000a 93F83D30 		ldrb	r3, [r3, #61]
 7646 000e DBB2     		uxtb	r3, r3
 7647 0010 202B     		cmp	r3, #32
 7648 0012 24D1     		bne	.L453
 7649 0014 7B68     		ldr	r3, [r7, #4]
 7650 0016 2822     		movs	r2, #40
 7651 0018 83F83D20 		strb	r2, [r3, #61]
 7652 001c 7B68     		ldr	r3, [r7, #4]
 7653 001e 1B68     		ldr	r3, [r3]
 7654 0020 1B68     		ldr	r3, [r3]
 7655 0022 03F00103 		and	r3, r3, #1
 7656 0026 012B     		cmp	r3, #1
 7657 0028 07D0     		beq	.L454
 7658 002a 7B68     		ldr	r3, [r7, #4]
 7659 002c 1B68     		ldr	r3, [r3]
 7660 002e 1A68     		ldr	r2, [r3]
 7661 0030 7B68     		ldr	r3, [r7, #4]
 7662 0032 1B68     		ldr	r3, [r3]
 7663 0034 42F00102 		orr	r2, r2, #1
 7664 0038 1A60     		str	r2, [r3]
 7665              	.L454:
 7666 003a 7B68     		ldr	r3, [r7, #4]
 7667 003c 1B68     		ldr	r3, [r3]
 7668 003e 1A68     		ldr	r2, [r3]
 7669 0040 7B68     		ldr	r3, [r7, #4]
 7670 0042 1B68     		ldr	r3, [r3]
 7671 0044 42F48062 		orr	r2, r2, #1024
 7672 0048 1A60     		str	r2, [r3]
 7673 004a 7B68     		ldr	r3, [r7, #4]
 7674 004c 1B68     		ldr	r3, [r3]
 7675 004e 5A68     		ldr	r2, [r3, #4]
 7676 0050 7B68     		ldr	r3, [r7, #4]
 7677 0052 1B68     		ldr	r3, [r3]
 7678 0054 42F44072 		orr	r2, r2, #768
 7679 0058 5A60     		str	r2, [r3, #4]
 7680 005a 0023     		movs	r3, #0
 7681 005c 00E0     		b	.L455
 7682              	.L453:
 7683 005e 0223     		movs	r3, #2
 7684              	.L455:
 7685 0060 1846     		mov	r0, r3
 7686 0062 0C37     		adds	r7, r7, #12
 7687 0064 BD46     		mov	sp, r7
 7688              		@ sp needed
 7689 0066 5DF8047B 		ldr	r7, [sp], #4
 7690 006a 7047     		bx	lr
 7692              		.section	.text.HAL_I2C_DisableListen_IT,"ax",%progbits
 7693              		.align	1
 7694              		.global	HAL_I2C_DisableListen_IT
 7695              		.syntax unified
 7696              		.thumb
 7697              		.thumb_func
 7699              	HAL_I2C_DisableListen_IT:
 7700              		@ args = 0, pretend = 0, frame = 16
 7701              		@ frame_needed = 1, uses_anonymous_args = 0
 7702              		@ link register save eliminated.
 7703 0000 80B4     		push	{r7}
ARM GAS  C:\Users\user\AppData\Local\Temp\cchxWhRb.s 			page 135


 7704 0002 85B0     		sub	sp, sp, #20
 7705 0004 00AF     		add	r7, sp, #0
 7706 0006 7860     		str	r0, [r7, #4]
 7707 0008 7B68     		ldr	r3, [r7, #4]
 7708 000a 93F83D30 		ldrb	r3, [r3, #61]
 7709 000e DBB2     		uxtb	r3, r3
 7710 0010 282B     		cmp	r3, #40
 7711 0012 29D1     		bne	.L457
 7712 0014 7B68     		ldr	r3, [r7, #4]
 7713 0016 93F83D30 		ldrb	r3, [r3, #61]
 7714 001a DBB2     		uxtb	r3, r3
 7715 001c 03F00303 		and	r3, r3, #3
 7716 0020 FB60     		str	r3, [r7, #12]
 7717 0022 7B68     		ldr	r3, [r7, #4]
 7718 0024 93F83E30 		ldrb	r3, [r3, #62]
 7719 0028 DBB2     		uxtb	r3, r3
 7720 002a 1A46     		mov	r2, r3
 7721 002c FB68     		ldr	r3, [r7, #12]
 7722 002e 1A43     		orrs	r2, r2, r3
 7723 0030 7B68     		ldr	r3, [r7, #4]
 7724 0032 1A63     		str	r2, [r3, #48]
 7725 0034 7B68     		ldr	r3, [r7, #4]
 7726 0036 2022     		movs	r2, #32
 7727 0038 83F83D20 		strb	r2, [r3, #61]
 7728 003c 7B68     		ldr	r3, [r7, #4]
 7729 003e 0022     		movs	r2, #0
 7730 0040 83F83E20 		strb	r2, [r3, #62]
 7731 0044 7B68     		ldr	r3, [r7, #4]
 7732 0046 1B68     		ldr	r3, [r3]
 7733 0048 1A68     		ldr	r2, [r3]
 7734 004a 7B68     		ldr	r3, [r7, #4]
 7735 004c 1B68     		ldr	r3, [r3]
 7736 004e 22F48062 		bic	r2, r2, #1024
 7737 0052 1A60     		str	r2, [r3]
 7738 0054 7B68     		ldr	r3, [r7, #4]
 7739 0056 1B68     		ldr	r3, [r3]
 7740 0058 5A68     		ldr	r2, [r3, #4]
 7741 005a 7B68     		ldr	r3, [r7, #4]
 7742 005c 1B68     		ldr	r3, [r3]
 7743 005e 22F44072 		bic	r2, r2, #768
 7744 0062 5A60     		str	r2, [r3, #4]
 7745 0064 0023     		movs	r3, #0
 7746 0066 00E0     		b	.L458
 7747              	.L457:
 7748 0068 0223     		movs	r3, #2
 7749              	.L458:
 7750 006a 1846     		mov	r0, r3
 7751 006c 1437     		adds	r7, r7, #20
 7752 006e BD46     		mov	sp, r7
 7753              		@ sp needed
 7754 0070 5DF8047B 		ldr	r7, [sp], #4
 7755 0074 7047     		bx	lr
 7757              		.section	.text.HAL_I2C_Master_Abort_IT,"ax",%progbits
 7758              		.align	1
 7759              		.global	HAL_I2C_Master_Abort_IT
 7760              		.syntax unified
 7761              		.thumb
ARM GAS  C:\Users\user\AppData\Local\Temp\cchxWhRb.s 			page 136


 7762              		.thumb_func
 7764              	HAL_I2C_Master_Abort_IT:
 7765              		@ args = 0, pretend = 0, frame = 16
 7766              		@ frame_needed = 1, uses_anonymous_args = 0
 7767 0000 80B5     		push	{r7, lr}
 7768 0002 84B0     		sub	sp, sp, #16
 7769 0004 00AF     		add	r7, sp, #0
 7770 0006 7860     		str	r0, [r7, #4]
 7771 0008 0B46     		mov	r3, r1
 7772 000a 7B80     		strh	r3, [r7, #2]	@ movhi
 7773 000c 7B68     		ldr	r3, [r7, #4]
 7774 000e 93F83E30 		ldrb	r3, [r3, #62]
 7775 0012 FB73     		strb	r3, [r7, #15]
 7776 0014 7B68     		ldr	r3, [r7, #4]
 7777 0016 1B68     		ldr	r3, [r3]
 7778 0018 9B69     		ldr	r3, [r3, #24]
 7779 001a 03F00203 		and	r3, r3, #2
 7780 001e 022B     		cmp	r3, #2
 7781 0020 38D1     		bne	.L460
 7782 0022 FB7B     		ldrb	r3, [r7, #15]	@ zero_extendqisi2
 7783 0024 102B     		cmp	r3, #16
 7784 0026 35D1     		bne	.L460
 7785 0028 7B68     		ldr	r3, [r7, #4]
 7786 002a 93F83C30 		ldrb	r3, [r3, #60]	@ zero_extendqisi2
 7787 002e 012B     		cmp	r3, #1
 7788 0030 01D1     		bne	.L461
 7789 0032 0223     		movs	r3, #2
 7790 0034 2FE0     		b	.L462
 7791              	.L461:
 7792 0036 7B68     		ldr	r3, [r7, #4]
 7793 0038 0122     		movs	r2, #1
 7794 003a 83F83C20 		strb	r2, [r3, #60]
 7795 003e 7B68     		ldr	r3, [r7, #4]
 7796 0040 0022     		movs	r2, #0
 7797 0042 1A63     		str	r2, [r3, #48]
 7798 0044 7B68     		ldr	r3, [r7, #4]
 7799 0046 6022     		movs	r2, #96
 7800 0048 83F83D20 		strb	r2, [r3, #61]
 7801 004c 7B68     		ldr	r3, [r7, #4]
 7802 004e 1B68     		ldr	r3, [r3]
 7803 0050 1A68     		ldr	r2, [r3]
 7804 0052 7B68     		ldr	r3, [r7, #4]
 7805 0054 1B68     		ldr	r3, [r3]
 7806 0056 22F48062 		bic	r2, r2, #1024
 7807 005a 1A60     		str	r2, [r3]
 7808 005c 7B68     		ldr	r3, [r7, #4]
 7809 005e 1B68     		ldr	r3, [r3]
 7810 0060 1A68     		ldr	r2, [r3]
 7811 0062 7B68     		ldr	r3, [r7, #4]
 7812 0064 1B68     		ldr	r3, [r3]
 7813 0066 42F40072 		orr	r2, r2, #512
 7814 006a 1A60     		str	r2, [r3]
 7815 006c 7B68     		ldr	r3, [r7, #4]
 7816 006e 0022     		movs	r2, #0
 7817 0070 5A85     		strh	r2, [r3, #42]	@ movhi
 7818 0072 7B68     		ldr	r3, [r7, #4]
 7819 0074 1B68     		ldr	r3, [r3]
ARM GAS  C:\Users\user\AppData\Local\Temp\cchxWhRb.s 			page 137


 7820 0076 5A68     		ldr	r2, [r3, #4]
 7821 0078 7B68     		ldr	r3, [r7, #4]
 7822 007a 1B68     		ldr	r3, [r3]
 7823 007c 22F4E062 		bic	r2, r2, #1792
 7824 0080 5A60     		str	r2, [r3, #4]
 7825 0082 7B68     		ldr	r3, [r7, #4]
 7826 0084 0022     		movs	r2, #0
 7827 0086 83F83C20 		strb	r2, [r3, #60]
 7828 008a 7868     		ldr	r0, [r7, #4]
 7829 008c FFF7FEFF 		bl	I2C_ITError
 7830 0090 0023     		movs	r3, #0
 7831 0092 00E0     		b	.L462
 7832              	.L460:
 7833 0094 0123     		movs	r3, #1
 7834              	.L462:
 7835 0096 1846     		mov	r0, r3
 7836 0098 1037     		adds	r7, r7, #16
 7837 009a BD46     		mov	sp, r7
 7838              		@ sp needed
 7839 009c 80BD     		pop	{r7, pc}
 7841              		.section	.text.HAL_I2C_EV_IRQHandler,"ax",%progbits
 7842              		.align	1
 7843              		.global	HAL_I2C_EV_IRQHandler
 7844              		.syntax unified
 7845              		.thumb
 7846              		.thumb_func
 7848              	HAL_I2C_EV_IRQHandler:
 7849              		@ args = 0, pretend = 0, frame = 32
 7850              		@ frame_needed = 1, uses_anonymous_args = 0
 7851 0000 80B5     		push	{r7, lr}
 7852 0002 88B0     		sub	sp, sp, #32
 7853 0004 00AF     		add	r7, sp, #0
 7854 0006 7860     		str	r0, [r7, #4]
 7855 0008 0023     		movs	r3, #0
 7856 000a BB61     		str	r3, [r7, #24]
 7857 000c 7B68     		ldr	r3, [r7, #4]
 7858 000e 1B68     		ldr	r3, [r3]
 7859 0010 5B68     		ldr	r3, [r3, #4]
 7860 0012 7B61     		str	r3, [r7, #20]
 7861 0014 7B68     		ldr	r3, [r7, #4]
 7862 0016 DB6A     		ldr	r3, [r3, #44]
 7863 0018 3B61     		str	r3, [r7, #16]
 7864 001a 7B68     		ldr	r3, [r7, #4]
 7865 001c 93F83E30 		ldrb	r3, [r3, #62]
 7866 0020 FB73     		strb	r3, [r7, #15]
 7867 0022 7B68     		ldr	r3, [r7, #4]
 7868 0024 93F83D30 		ldrb	r3, [r3, #61]
 7869 0028 BB73     		strb	r3, [r7, #14]
 7870 002a FB7B     		ldrb	r3, [r7, #15]	@ zero_extendqisi2
 7871 002c 102B     		cmp	r3, #16
 7872 002e 03D0     		beq	.L464
 7873 0030 FB7B     		ldrb	r3, [r7, #15]	@ zero_extendqisi2
 7874 0032 402B     		cmp	r3, #64
 7875 0034 40F0B180 		bne	.L465
 7876              	.L464:
 7877 0038 7B68     		ldr	r3, [r7, #4]
 7878 003a 1B68     		ldr	r3, [r3]
ARM GAS  C:\Users\user\AppData\Local\Temp\cchxWhRb.s 			page 138


 7879 003c 9B69     		ldr	r3, [r3, #24]
 7880 003e BB61     		str	r3, [r7, #24]
 7881 0040 7B68     		ldr	r3, [r7, #4]
 7882 0042 1B68     		ldr	r3, [r3]
 7883 0044 5B69     		ldr	r3, [r3, #20]
 7884 0046 FB61     		str	r3, [r7, #28]
 7885 0048 FB69     		ldr	r3, [r7, #28]
 7886 004a 03F00103 		and	r3, r3, #1
 7887 004e 002B     		cmp	r3, #0
 7888 0050 0DD1     		bne	.L466
 7889 0052 3B69     		ldr	r3, [r7, #16]
 7890 0054 B3F52A0F 		cmp	r3, #11141120
 7891 0058 03D0     		beq	.L467
 7892 005a 3B69     		ldr	r3, [r7, #16]
 7893 005c B3F12A4F 		cmp	r3, #-1442840576
 7894 0060 01D1     		bne	.L468
 7895              	.L467:
 7896 0062 0123     		movs	r3, #1
 7897 0064 00E0     		b	.L469
 7898              	.L468:
 7899 0066 0023     		movs	r3, #0
 7900              	.L469:
 7901 0068 012B     		cmp	r3, #1
 7902 006a 00F01481 		beq	.L490
 7903              	.L466:
 7904 006e FB69     		ldr	r3, [r7, #28]
 7905 0070 03F00103 		and	r3, r3, #1
 7906 0074 002B     		cmp	r3, #0
 7907 0076 0BD0     		beq	.L471
 7908 0078 7B69     		ldr	r3, [r7, #20]
 7909 007a 03F40073 		and	r3, r3, #512
 7910 007e 002B     		cmp	r3, #0
 7911 0080 06D0     		beq	.L471
 7912 0082 7868     		ldr	r0, [r7, #4]
 7913 0084 FFF7FEFF 		bl	I2C_ConvertOtherXferOptions
 7914 0088 7868     		ldr	r0, [r7, #4]
 7915 008a FFF7FEFF 		bl	I2C_Master_SB
 7916 008e 83E0     		b	.L472
 7917              	.L471:
 7918 0090 FB69     		ldr	r3, [r7, #28]
 7919 0092 03F00803 		and	r3, r3, #8
 7920 0096 002B     		cmp	r3, #0
 7921 0098 08D0     		beq	.L473
 7922 009a 7B69     		ldr	r3, [r7, #20]
 7923 009c 03F40073 		and	r3, r3, #512
 7924 00a0 002B     		cmp	r3, #0
 7925 00a2 03D0     		beq	.L473
 7926 00a4 7868     		ldr	r0, [r7, #4]
 7927 00a6 FFF7FEFF 		bl	I2C_Master_ADD10
 7928 00aa 75E0     		b	.L472
 7929              	.L473:
 7930 00ac FB69     		ldr	r3, [r7, #28]
 7931 00ae 03F00203 		and	r3, r3, #2
 7932 00b2 002B     		cmp	r3, #0
 7933 00b4 08D0     		beq	.L474
 7934 00b6 7B69     		ldr	r3, [r7, #20]
 7935 00b8 03F40073 		and	r3, r3, #512
ARM GAS  C:\Users\user\AppData\Local\Temp\cchxWhRb.s 			page 139


 7936 00bc 002B     		cmp	r3, #0
 7937 00be 03D0     		beq	.L474
 7938 00c0 7868     		ldr	r0, [r7, #4]
 7939 00c2 FFF7FEFF 		bl	I2C_Master_ADDR
 7940 00c6 67E0     		b	.L472
 7941              	.L474:
 7942 00c8 BB69     		ldr	r3, [r7, #24]
 7943 00ca 03F00403 		and	r3, r3, #4
 7944 00ce 002B     		cmp	r3, #0
 7945 00d0 36D0     		beq	.L475
 7946 00d2 7B68     		ldr	r3, [r7, #4]
 7947 00d4 1B68     		ldr	r3, [r3]
 7948 00d6 5B68     		ldr	r3, [r3, #4]
 7949 00d8 03F40063 		and	r3, r3, #2048
 7950 00dc B3F5006F 		cmp	r3, #2048
 7951 00e0 00F0DB80 		beq	.L491
 7952 00e4 FB69     		ldr	r3, [r7, #28]
 7953 00e6 03F08003 		and	r3, r3, #128
 7954 00ea 002B     		cmp	r3, #0
 7955 00ec 0DD0     		beq	.L477
 7956 00ee 7B69     		ldr	r3, [r7, #20]
 7957 00f0 03F48063 		and	r3, r3, #1024
 7958 00f4 002B     		cmp	r3, #0
 7959 00f6 08D0     		beq	.L477
 7960 00f8 FB69     		ldr	r3, [r7, #28]
 7961 00fa 03F00403 		and	r3, r3, #4
 7962 00fe 002B     		cmp	r3, #0
 7963 0100 03D1     		bne	.L477
 7964 0102 7868     		ldr	r0, [r7, #4]
 7965 0104 FFF7FEFF 		bl	I2C_MasterTransmit_TXE
 7966 0108 46E0     		b	.L472
 7967              	.L477:
 7968 010a FB69     		ldr	r3, [r7, #28]
 7969 010c 03F00403 		and	r3, r3, #4
 7970 0110 002B     		cmp	r3, #0
 7971 0112 00F0C280 		beq	.L491
 7972 0116 7B69     		ldr	r3, [r7, #20]
 7973 0118 03F40073 		and	r3, r3, #512
 7974 011c 002B     		cmp	r3, #0
 7975 011e 00F0BC80 		beq	.L491
 7976 0122 BB7B     		ldrb	r3, [r7, #14]	@ zero_extendqisi2
 7977 0124 212B     		cmp	r3, #33
 7978 0126 03D1     		bne	.L478
 7979 0128 7868     		ldr	r0, [r7, #4]
 7980 012a FFF7FEFF 		bl	I2C_MasterTransmit_BTF
 7981 012e B4E0     		b	.L491
 7982              	.L478:
 7983 0130 FB7B     		ldrb	r3, [r7, #15]	@ zero_extendqisi2
 7984 0132 402B     		cmp	r3, #64
 7985 0134 40F0B180 		bne	.L491
 7986 0138 7868     		ldr	r0, [r7, #4]
 7987 013a FFF7FEFF 		bl	I2C_MemoryTransmit_TXE_BTF
 7988 013e ACE0     		b	.L491
 7989              	.L475:
 7990 0140 7B68     		ldr	r3, [r7, #4]
 7991 0142 1B68     		ldr	r3, [r3]
 7992 0144 5B68     		ldr	r3, [r3, #4]
ARM GAS  C:\Users\user\AppData\Local\Temp\cchxWhRb.s 			page 140


 7993 0146 03F40063 		and	r3, r3, #2048
 7994 014a B3F5006F 		cmp	r3, #2048
 7995 014e 00F0A480 		beq	.L491
 7996 0152 FB69     		ldr	r3, [r7, #28]
 7997 0154 03F04003 		and	r3, r3, #64
 7998 0158 002B     		cmp	r3, #0
 7999 015a 0DD0     		beq	.L479
 8000 015c 7B69     		ldr	r3, [r7, #20]
 8001 015e 03F48063 		and	r3, r3, #1024
 8002 0162 002B     		cmp	r3, #0
 8003 0164 08D0     		beq	.L479
 8004 0166 FB69     		ldr	r3, [r7, #28]
 8005 0168 03F00403 		and	r3, r3, #4
 8006 016c 002B     		cmp	r3, #0
 8007 016e 03D1     		bne	.L479
 8008 0170 7868     		ldr	r0, [r7, #4]
 8009 0172 FFF7FEFF 		bl	I2C_MasterReceive_RXNE
 8010 0176 0FE0     		b	.L472
 8011              	.L479:
 8012 0178 FB69     		ldr	r3, [r7, #28]
 8013 017a 03F00403 		and	r3, r3, #4
 8014 017e 002B     		cmp	r3, #0
 8015 0180 00F08B80 		beq	.L491
 8016 0184 7B69     		ldr	r3, [r7, #20]
 8017 0186 03F40073 		and	r3, r3, #512
 8018 018a 002B     		cmp	r3, #0
 8019 018c 00F08580 		beq	.L491
 8020 0190 7868     		ldr	r0, [r7, #4]
 8021 0192 FFF7FEFF 		bl	I2C_MasterReceive_BTF
 8022 0196 80E0     		b	.L491
 8023              	.L472:
 8024 0198 7FE0     		b	.L491
 8025              	.L465:
 8026 019a 7B68     		ldr	r3, [r7, #4]
 8027 019c 1B6C     		ldr	r3, [r3, #64]
 8028 019e 002B     		cmp	r3, #0
 8029 01a0 04D0     		beq	.L480
 8030 01a2 7B68     		ldr	r3, [r7, #4]
 8031 01a4 1B68     		ldr	r3, [r3]
 8032 01a6 5B69     		ldr	r3, [r3, #20]
 8033 01a8 FB61     		str	r3, [r7, #28]
 8034 01aa 07E0     		b	.L481
 8035              	.L480:
 8036 01ac 7B68     		ldr	r3, [r7, #4]
 8037 01ae 1B68     		ldr	r3, [r3]
 8038 01b0 9B69     		ldr	r3, [r3, #24]
 8039 01b2 BB61     		str	r3, [r7, #24]
 8040 01b4 7B68     		ldr	r3, [r7, #4]
 8041 01b6 1B68     		ldr	r3, [r3]
 8042 01b8 5B69     		ldr	r3, [r3, #20]
 8043 01ba FB61     		str	r3, [r7, #28]
 8044              	.L481:
 8045 01bc FB69     		ldr	r3, [r7, #28]
 8046 01be 03F00203 		and	r3, r3, #2
 8047 01c2 002B     		cmp	r3, #0
 8048 01c4 11D0     		beq	.L482
 8049 01c6 7B69     		ldr	r3, [r7, #20]
ARM GAS  C:\Users\user\AppData\Local\Temp\cchxWhRb.s 			page 141


 8050 01c8 03F40073 		and	r3, r3, #512
 8051 01cc 002B     		cmp	r3, #0
 8052 01ce 0CD0     		beq	.L482
 8053 01d0 7B68     		ldr	r3, [r7, #4]
 8054 01d2 1B6C     		ldr	r3, [r3, #64]
 8055 01d4 002B     		cmp	r3, #0
 8056 01d6 03D0     		beq	.L483
 8057 01d8 7B68     		ldr	r3, [r7, #4]
 8058 01da 1B68     		ldr	r3, [r3]
 8059 01dc 9B69     		ldr	r3, [r3, #24]
 8060 01de BB61     		str	r3, [r7, #24]
 8061              	.L483:
 8062 01e0 B969     		ldr	r1, [r7, #24]
 8063 01e2 7868     		ldr	r0, [r7, #4]
 8064 01e4 FFF7FEFF 		bl	I2C_Slave_ADDR
 8065 01e8 5AE0     		b	.L463
 8066              	.L482:
 8067 01ea FB69     		ldr	r3, [r7, #28]
 8068 01ec 03F01003 		and	r3, r3, #16
 8069 01f0 002B     		cmp	r3, #0
 8070 01f2 08D0     		beq	.L484
 8071 01f4 7B69     		ldr	r3, [r7, #20]
 8072 01f6 03F40073 		and	r3, r3, #512
 8073 01fa 002B     		cmp	r3, #0
 8074 01fc 03D0     		beq	.L484
 8075 01fe 7868     		ldr	r0, [r7, #4]
 8076 0200 FFF7FEFF 		bl	I2C_Slave_STOPF
 8077 0204 4CE0     		b	.L463
 8078              	.L484:
 8079 0206 BB7B     		ldrb	r3, [r7, #14]	@ zero_extendqisi2
 8080 0208 212B     		cmp	r3, #33
 8081 020a 02D0     		beq	.L485
 8082 020c BB7B     		ldrb	r3, [r7, #14]	@ zero_extendqisi2
 8083 020e 292B     		cmp	r3, #41
 8084 0210 20D1     		bne	.L486
 8085              	.L485:
 8086 0212 FB69     		ldr	r3, [r7, #28]
 8087 0214 03F08003 		and	r3, r3, #128
 8088 0218 002B     		cmp	r3, #0
 8089 021a 0DD0     		beq	.L487
 8090 021c 7B69     		ldr	r3, [r7, #20]
 8091 021e 03F48063 		and	r3, r3, #1024
 8092 0222 002B     		cmp	r3, #0
 8093 0224 08D0     		beq	.L487
 8094 0226 FB69     		ldr	r3, [r7, #28]
 8095 0228 03F00403 		and	r3, r3, #4
 8096 022c 002B     		cmp	r3, #0
 8097 022e 03D1     		bne	.L487
 8098 0230 7868     		ldr	r0, [r7, #4]
 8099 0232 FFF7FEFF 		bl	I2C_SlaveTransmit_TXE
 8100 0236 32E0     		b	.L492
 8101              	.L487:
 8102 0238 FB69     		ldr	r3, [r7, #28]
 8103 023a 03F00403 		and	r3, r3, #4
 8104 023e 002B     		cmp	r3, #0
 8105 0240 2DD0     		beq	.L492
 8106 0242 7B69     		ldr	r3, [r7, #20]
ARM GAS  C:\Users\user\AppData\Local\Temp\cchxWhRb.s 			page 142


 8107 0244 03F40073 		and	r3, r3, #512
 8108 0248 002B     		cmp	r3, #0
 8109 024a 28D0     		beq	.L492
 8110 024c 7868     		ldr	r0, [r7, #4]
 8111 024e FFF7FEFF 		bl	I2C_SlaveTransmit_BTF
 8112 0252 24E0     		b	.L492
 8113              	.L486:
 8114 0254 FB69     		ldr	r3, [r7, #28]
 8115 0256 03F04003 		and	r3, r3, #64
 8116 025a 002B     		cmp	r3, #0
 8117 025c 0DD0     		beq	.L489
 8118 025e 7B69     		ldr	r3, [r7, #20]
 8119 0260 03F48063 		and	r3, r3, #1024
 8120 0264 002B     		cmp	r3, #0
 8121 0266 08D0     		beq	.L489
 8122 0268 FB69     		ldr	r3, [r7, #28]
 8123 026a 03F00403 		and	r3, r3, #4
 8124 026e 002B     		cmp	r3, #0
 8125 0270 03D1     		bne	.L489
 8126 0272 7868     		ldr	r0, [r7, #4]
 8127 0274 FFF7FEFF 		bl	I2C_SlaveReceive_RXNE
 8128 0278 12E0     		b	.L463
 8129              	.L489:
 8130 027a FB69     		ldr	r3, [r7, #28]
 8131 027c 03F00403 		and	r3, r3, #4
 8132 0280 002B     		cmp	r3, #0
 8133 0282 0DD0     		beq	.L463
 8134 0284 7B69     		ldr	r3, [r7, #20]
 8135 0286 03F40073 		and	r3, r3, #512
 8136 028a 002B     		cmp	r3, #0
 8137 028c 08D0     		beq	.L463
 8138 028e 7868     		ldr	r0, [r7, #4]
 8139 0290 FFF7FEFF 		bl	I2C_SlaveReceive_BTF
 8140 0294 04E0     		b	.L463
 8141              	.L490:
 8142 0296 00BF     		nop
 8143 0298 02E0     		b	.L463
 8144              	.L491:
 8145 029a 00BF     		nop
 8146 029c 00E0     		b	.L463
 8147              	.L492:
 8148 029e 00BF     		nop
 8149              	.L463:
 8150 02a0 2037     		adds	r7, r7, #32
 8151 02a2 BD46     		mov	sp, r7
 8152              		@ sp needed
 8153 02a4 80BD     		pop	{r7, pc}
 8155              		.section	.text.HAL_I2C_ER_IRQHandler,"ax",%progbits
 8156              		.align	1
 8157              		.global	HAL_I2C_ER_IRQHandler
 8158              		.syntax unified
 8159              		.thumb
 8160              		.thumb_func
 8162              	HAL_I2C_ER_IRQHandler:
 8163              		@ args = 0, pretend = 0, frame = 40
 8164              		@ frame_needed = 1, uses_anonymous_args = 0
 8165 0000 80B5     		push	{r7, lr}
ARM GAS  C:\Users\user\AppData\Local\Temp\cchxWhRb.s 			page 143


 8166 0002 8AB0     		sub	sp, sp, #40
 8167 0004 00AF     		add	r7, sp, #0
 8168 0006 7860     		str	r0, [r7, #4]
 8169 0008 7B68     		ldr	r3, [r7, #4]
 8170 000a 1B68     		ldr	r3, [r3]
 8171 000c 5B69     		ldr	r3, [r3, #20]
 8172 000e 3B62     		str	r3, [r7, #32]
 8173 0010 7B68     		ldr	r3, [r7, #4]
 8174 0012 1B68     		ldr	r3, [r3]
 8175 0014 5B68     		ldr	r3, [r3, #4]
 8176 0016 FB61     		str	r3, [r7, #28]
 8177 0018 0023     		movs	r3, #0
 8178 001a 7B62     		str	r3, [r7, #36]
 8179 001c 7B68     		ldr	r3, [r7, #4]
 8180 001e 93F83E30 		ldrb	r3, [r3, #62]
 8181 0022 FB76     		strb	r3, [r7, #27]
 8182 0024 3B6A     		ldr	r3, [r7, #32]
 8183 0026 03F48073 		and	r3, r3, #256
 8184 002a 002B     		cmp	r3, #0
 8185 002c 0DD0     		beq	.L494
 8186 002e FB69     		ldr	r3, [r7, #28]
 8187 0030 03F48073 		and	r3, r3, #256
 8188 0034 002B     		cmp	r3, #0
 8189 0036 08D0     		beq	.L494
 8190 0038 7B6A     		ldr	r3, [r7, #36]
 8191 003a 43F00103 		orr	r3, r3, #1
 8192 003e 7B62     		str	r3, [r7, #36]
 8193 0040 7B68     		ldr	r3, [r7, #4]
 8194 0042 1B68     		ldr	r3, [r3]
 8195 0044 6FF48072 		mvn	r2, #256
 8196 0048 5A61     		str	r2, [r3, #20]
 8197              	.L494:
 8198 004a 3B6A     		ldr	r3, [r7, #32]
 8199 004c 03F40073 		and	r3, r3, #512
 8200 0050 002B     		cmp	r3, #0
 8201 0052 0DD0     		beq	.L495
 8202 0054 FB69     		ldr	r3, [r7, #28]
 8203 0056 03F48073 		and	r3, r3, #256
 8204 005a 002B     		cmp	r3, #0
 8205 005c 08D0     		beq	.L495
 8206 005e 7B6A     		ldr	r3, [r7, #36]
 8207 0060 43F00203 		orr	r3, r3, #2
 8208 0064 7B62     		str	r3, [r7, #36]
 8209 0066 7B68     		ldr	r3, [r7, #4]
 8210 0068 1B68     		ldr	r3, [r3]
 8211 006a 6FF40072 		mvn	r2, #512
 8212 006e 5A61     		str	r2, [r3, #20]
 8213              	.L495:
 8214 0070 3B6A     		ldr	r3, [r7, #32]
 8215 0072 03F48063 		and	r3, r3, #1024
 8216 0076 002B     		cmp	r3, #0
 8217 0078 3ED0     		beq	.L496
 8218 007a FB69     		ldr	r3, [r7, #28]
 8219 007c 03F48073 		and	r3, r3, #256
 8220 0080 002B     		cmp	r3, #0
 8221 0082 39D0     		beq	.L496
 8222 0084 FB7E     		ldrb	r3, [r7, #27]
ARM GAS  C:\Users\user\AppData\Local\Temp\cchxWhRb.s 			page 144


 8223 0086 BB76     		strb	r3, [r7, #26]
 8224 0088 7B68     		ldr	r3, [r7, #4]
 8225 008a 5B8D     		ldrh	r3, [r3, #42]	@ movhi
 8226 008c 9BB2     		uxth	r3, r3
 8227 008e 7B61     		str	r3, [r7, #20]
 8228 0090 7B68     		ldr	r3, [r7, #4]
 8229 0092 93F83D30 		ldrb	r3, [r3, #61]
 8230 0096 FB74     		strb	r3, [r7, #19]
 8231 0098 7B68     		ldr	r3, [r7, #4]
 8232 009a 1B6B     		ldr	r3, [r3, #48]
 8233 009c FB60     		str	r3, [r7, #12]
 8234 009e BB7E     		ldrb	r3, [r7, #26]	@ zero_extendqisi2
 8235 00a0 202B     		cmp	r3, #32
 8236 00a2 12D1     		bne	.L497
 8237 00a4 7B69     		ldr	r3, [r7, #20]
 8238 00a6 002B     		cmp	r3, #0
 8239 00a8 0FD1     		bne	.L497
 8240 00aa FB7C     		ldrb	r3, [r7, #19]	@ zero_extendqisi2
 8241 00ac 212B     		cmp	r3, #33
 8242 00ae 08D0     		beq	.L498
 8243 00b0 FB7C     		ldrb	r3, [r7, #19]	@ zero_extendqisi2
 8244 00b2 292B     		cmp	r3, #41
 8245 00b4 05D0     		beq	.L498
 8246 00b6 FB7C     		ldrb	r3, [r7, #19]	@ zero_extendqisi2
 8247 00b8 282B     		cmp	r3, #40
 8248 00ba 06D1     		bne	.L497
 8249 00bc FB68     		ldr	r3, [r7, #12]
 8250 00be 212B     		cmp	r3, #33
 8251 00c0 03D1     		bne	.L497
 8252              	.L498:
 8253 00c2 7868     		ldr	r0, [r7, #4]
 8254 00c4 FFF7FEFF 		bl	I2C_Slave_AF
 8255 00c8 16E0     		b	.L496
 8256              	.L497:
 8257 00ca 7B68     		ldr	r3, [r7, #4]
 8258 00cc 1B68     		ldr	r3, [r3]
 8259 00ce 6FF48062 		mvn	r2, #1024
 8260 00d2 5A61     		str	r2, [r3, #20]
 8261 00d4 7B6A     		ldr	r3, [r7, #36]
 8262 00d6 43F00403 		orr	r3, r3, #4
 8263 00da 7B62     		str	r3, [r7, #36]
 8264 00dc FB7E     		ldrb	r3, [r7, #27]	@ zero_extendqisi2
 8265 00de 102B     		cmp	r3, #16
 8266 00e0 02D0     		beq	.L499
 8267 00e2 FB7E     		ldrb	r3, [r7, #27]	@ zero_extendqisi2
 8268 00e4 402B     		cmp	r3, #64
 8269 00e6 07D1     		bne	.L496
 8270              	.L499:
 8271 00e8 7B68     		ldr	r3, [r7, #4]
 8272 00ea 1B68     		ldr	r3, [r3]
 8273 00ec 1A68     		ldr	r2, [r3]
 8274 00ee 7B68     		ldr	r3, [r7, #4]
 8275 00f0 1B68     		ldr	r3, [r3]
 8276 00f2 42F40072 		orr	r2, r2, #512
 8277 00f6 1A60     		str	r2, [r3]
 8278              	.L496:
 8279 00f8 3B6A     		ldr	r3, [r7, #32]
ARM GAS  C:\Users\user\AppData\Local\Temp\cchxWhRb.s 			page 145


 8280 00fa 03F40063 		and	r3, r3, #2048
 8281 00fe 002B     		cmp	r3, #0
 8282 0100 0DD0     		beq	.L500
 8283 0102 FB69     		ldr	r3, [r7, #28]
 8284 0104 03F48073 		and	r3, r3, #256
 8285 0108 002B     		cmp	r3, #0
 8286 010a 08D0     		beq	.L500
 8287 010c 7B6A     		ldr	r3, [r7, #36]
 8288 010e 43F00803 		orr	r3, r3, #8
 8289 0112 7B62     		str	r3, [r7, #36]
 8290 0114 7B68     		ldr	r3, [r7, #4]
 8291 0116 1B68     		ldr	r3, [r3]
 8292 0118 6FF40062 		mvn	r2, #2048
 8293 011c 5A61     		str	r2, [r3, #20]
 8294              	.L500:
 8295 011e 7B6A     		ldr	r3, [r7, #36]
 8296 0120 002B     		cmp	r3, #0
 8297 0122 08D0     		beq	.L502
 8298 0124 7B68     		ldr	r3, [r7, #4]
 8299 0126 1A6C     		ldr	r2, [r3, #64]
 8300 0128 7B6A     		ldr	r3, [r7, #36]
 8301 012a 1A43     		orrs	r2, r2, r3
 8302 012c 7B68     		ldr	r3, [r7, #4]
 8303 012e 1A64     		str	r2, [r3, #64]
 8304 0130 7868     		ldr	r0, [r7, #4]
 8305 0132 FFF7FEFF 		bl	I2C_ITError
 8306              	.L502:
 8307 0136 00BF     		nop
 8308 0138 2837     		adds	r7, r7, #40
 8309 013a BD46     		mov	sp, r7
 8310              		@ sp needed
 8311 013c 80BD     		pop	{r7, pc}
 8313              		.section	.text.HAL_I2C_MasterTxCpltCallback,"ax",%progbits
 8314              		.align	1
 8315              		.weak	HAL_I2C_MasterTxCpltCallback
 8316              		.syntax unified
 8317              		.thumb
 8318              		.thumb_func
 8320              	HAL_I2C_MasterTxCpltCallback:
 8321              		@ args = 0, pretend = 0, frame = 8
 8322              		@ frame_needed = 1, uses_anonymous_args = 0
 8323              		@ link register save eliminated.
 8324 0000 80B4     		push	{r7}
 8325 0002 83B0     		sub	sp, sp, #12
 8326 0004 00AF     		add	r7, sp, #0
 8327 0006 7860     		str	r0, [r7, #4]
 8328 0008 00BF     		nop
 8329 000a 0C37     		adds	r7, r7, #12
 8330 000c BD46     		mov	sp, r7
 8331              		@ sp needed
 8332 000e 5DF8047B 		ldr	r7, [sp], #4
 8333 0012 7047     		bx	lr
 8335              		.section	.text.HAL_I2C_MasterRxCpltCallback,"ax",%progbits
 8336              		.align	1
 8337              		.weak	HAL_I2C_MasterRxCpltCallback
 8338              		.syntax unified
 8339              		.thumb
ARM GAS  C:\Users\user\AppData\Local\Temp\cchxWhRb.s 			page 146


 8340              		.thumb_func
 8342              	HAL_I2C_MasterRxCpltCallback:
 8343              		@ args = 0, pretend = 0, frame = 8
 8344              		@ frame_needed = 1, uses_anonymous_args = 0
 8345              		@ link register save eliminated.
 8346 0000 80B4     		push	{r7}
 8347 0002 83B0     		sub	sp, sp, #12
 8348 0004 00AF     		add	r7, sp, #0
 8349 0006 7860     		str	r0, [r7, #4]
 8350 0008 00BF     		nop
 8351 000a 0C37     		adds	r7, r7, #12
 8352 000c BD46     		mov	sp, r7
 8353              		@ sp needed
 8354 000e 5DF8047B 		ldr	r7, [sp], #4
 8355 0012 7047     		bx	lr
 8357              		.section	.text.HAL_I2C_SlaveTxCpltCallback,"ax",%progbits
 8358              		.align	1
 8359              		.weak	HAL_I2C_SlaveTxCpltCallback
 8360              		.syntax unified
 8361              		.thumb
 8362              		.thumb_func
 8364              	HAL_I2C_SlaveTxCpltCallback:
 8365              		@ args = 0, pretend = 0, frame = 8
 8366              		@ frame_needed = 1, uses_anonymous_args = 0
 8367              		@ link register save eliminated.
 8368 0000 80B4     		push	{r7}
 8369 0002 83B0     		sub	sp, sp, #12
 8370 0004 00AF     		add	r7, sp, #0
 8371 0006 7860     		str	r0, [r7, #4]
 8372 0008 00BF     		nop
 8373 000a 0C37     		adds	r7, r7, #12
 8374 000c BD46     		mov	sp, r7
 8375              		@ sp needed
 8376 000e 5DF8047B 		ldr	r7, [sp], #4
 8377 0012 7047     		bx	lr
 8379              		.section	.text.HAL_I2C_SlaveRxCpltCallback,"ax",%progbits
 8380              		.align	1
 8381              		.weak	HAL_I2C_SlaveRxCpltCallback
 8382              		.syntax unified
 8383              		.thumb
 8384              		.thumb_func
 8386              	HAL_I2C_SlaveRxCpltCallback:
 8387              		@ args = 0, pretend = 0, frame = 8
 8388              		@ frame_needed = 1, uses_anonymous_args = 0
 8389              		@ link register save eliminated.
 8390 0000 80B4     		push	{r7}
 8391 0002 83B0     		sub	sp, sp, #12
 8392 0004 00AF     		add	r7, sp, #0
 8393 0006 7860     		str	r0, [r7, #4]
 8394 0008 00BF     		nop
 8395 000a 0C37     		adds	r7, r7, #12
 8396 000c BD46     		mov	sp, r7
 8397              		@ sp needed
 8398 000e 5DF8047B 		ldr	r7, [sp], #4
 8399 0012 7047     		bx	lr
 8401              		.section	.text.HAL_I2C_AddrCallback,"ax",%progbits
 8402              		.align	1
ARM GAS  C:\Users\user\AppData\Local\Temp\cchxWhRb.s 			page 147


 8403              		.weak	HAL_I2C_AddrCallback
 8404              		.syntax unified
 8405              		.thumb
 8406              		.thumb_func
 8408              	HAL_I2C_AddrCallback:
 8409              		@ args = 0, pretend = 0, frame = 8
 8410              		@ frame_needed = 1, uses_anonymous_args = 0
 8411              		@ link register save eliminated.
 8412 0000 80B4     		push	{r7}
 8413 0002 83B0     		sub	sp, sp, #12
 8414 0004 00AF     		add	r7, sp, #0
 8415 0006 7860     		str	r0, [r7, #4]
 8416 0008 0B46     		mov	r3, r1
 8417 000a FB70     		strb	r3, [r7, #3]
 8418 000c 1346     		mov	r3, r2	@ movhi
 8419 000e 3B80     		strh	r3, [r7]	@ movhi
 8420 0010 00BF     		nop
 8421 0012 0C37     		adds	r7, r7, #12
 8422 0014 BD46     		mov	sp, r7
 8423              		@ sp needed
 8424 0016 5DF8047B 		ldr	r7, [sp], #4
 8425 001a 7047     		bx	lr
 8427              		.section	.text.HAL_I2C_ListenCpltCallback,"ax",%progbits
 8428              		.align	1
 8429              		.weak	HAL_I2C_ListenCpltCallback
 8430              		.syntax unified
 8431              		.thumb
 8432              		.thumb_func
 8434              	HAL_I2C_ListenCpltCallback:
 8435              		@ args = 0, pretend = 0, frame = 8
 8436              		@ frame_needed = 1, uses_anonymous_args = 0
 8437              		@ link register save eliminated.
 8438 0000 80B4     		push	{r7}
 8439 0002 83B0     		sub	sp, sp, #12
 8440 0004 00AF     		add	r7, sp, #0
 8441 0006 7860     		str	r0, [r7, #4]
 8442 0008 00BF     		nop
 8443 000a 0C37     		adds	r7, r7, #12
 8444 000c BD46     		mov	sp, r7
 8445              		@ sp needed
 8446 000e 5DF8047B 		ldr	r7, [sp], #4
 8447 0012 7047     		bx	lr
 8449              		.section	.text.HAL_I2C_MemTxCpltCallback,"ax",%progbits
 8450              		.align	1
 8451              		.weak	HAL_I2C_MemTxCpltCallback
 8452              		.syntax unified
 8453              		.thumb
 8454              		.thumb_func
 8456              	HAL_I2C_MemTxCpltCallback:
 8457              		@ args = 0, pretend = 0, frame = 8
 8458              		@ frame_needed = 1, uses_anonymous_args = 0
 8459              		@ link register save eliminated.
 8460 0000 80B4     		push	{r7}
 8461 0002 83B0     		sub	sp, sp, #12
 8462 0004 00AF     		add	r7, sp, #0
 8463 0006 7860     		str	r0, [r7, #4]
 8464 0008 00BF     		nop
ARM GAS  C:\Users\user\AppData\Local\Temp\cchxWhRb.s 			page 148


 8465 000a 0C37     		adds	r7, r7, #12
 8466 000c BD46     		mov	sp, r7
 8467              		@ sp needed
 8468 000e 5DF8047B 		ldr	r7, [sp], #4
 8469 0012 7047     		bx	lr
 8471              		.section	.text.HAL_I2C_MemRxCpltCallback,"ax",%progbits
 8472              		.align	1
 8473              		.weak	HAL_I2C_MemRxCpltCallback
 8474              		.syntax unified
 8475              		.thumb
 8476              		.thumb_func
 8478              	HAL_I2C_MemRxCpltCallback:
 8479              		@ args = 0, pretend = 0, frame = 8
 8480              		@ frame_needed = 1, uses_anonymous_args = 0
 8481              		@ link register save eliminated.
 8482 0000 80B4     		push	{r7}
 8483 0002 83B0     		sub	sp, sp, #12
 8484 0004 00AF     		add	r7, sp, #0
 8485 0006 7860     		str	r0, [r7, #4]
 8486 0008 00BF     		nop
 8487 000a 0C37     		adds	r7, r7, #12
 8488 000c BD46     		mov	sp, r7
 8489              		@ sp needed
 8490 000e 5DF8047B 		ldr	r7, [sp], #4
 8491 0012 7047     		bx	lr
 8493              		.section	.text.HAL_I2C_ErrorCallback,"ax",%progbits
 8494              		.align	1
 8495              		.weak	HAL_I2C_ErrorCallback
 8496              		.syntax unified
 8497              		.thumb
 8498              		.thumb_func
 8500              	HAL_I2C_ErrorCallback:
 8501              		@ args = 0, pretend = 0, frame = 8
 8502              		@ frame_needed = 1, uses_anonymous_args = 0
 8503              		@ link register save eliminated.
 8504 0000 80B4     		push	{r7}
 8505 0002 83B0     		sub	sp, sp, #12
 8506 0004 00AF     		add	r7, sp, #0
 8507 0006 7860     		str	r0, [r7, #4]
 8508 0008 00BF     		nop
 8509 000a 0C37     		adds	r7, r7, #12
 8510 000c BD46     		mov	sp, r7
 8511              		@ sp needed
 8512 000e 5DF8047B 		ldr	r7, [sp], #4
 8513 0012 7047     		bx	lr
 8515              		.section	.text.HAL_I2C_AbortCpltCallback,"ax",%progbits
 8516              		.align	1
 8517              		.weak	HAL_I2C_AbortCpltCallback
 8518              		.syntax unified
 8519              		.thumb
 8520              		.thumb_func
 8522              	HAL_I2C_AbortCpltCallback:
 8523              		@ args = 0, pretend = 0, frame = 8
 8524              		@ frame_needed = 1, uses_anonymous_args = 0
 8525              		@ link register save eliminated.
 8526 0000 80B4     		push	{r7}
 8527 0002 83B0     		sub	sp, sp, #12
ARM GAS  C:\Users\user\AppData\Local\Temp\cchxWhRb.s 			page 149


 8528 0004 00AF     		add	r7, sp, #0
 8529 0006 7860     		str	r0, [r7, #4]
 8530 0008 00BF     		nop
 8531 000a 0C37     		adds	r7, r7, #12
 8532 000c BD46     		mov	sp, r7
 8533              		@ sp needed
 8534 000e 5DF8047B 		ldr	r7, [sp], #4
 8535 0012 7047     		bx	lr
 8537              		.section	.text.HAL_I2C_GetState,"ax",%progbits
 8538              		.align	1
 8539              		.global	HAL_I2C_GetState
 8540              		.syntax unified
 8541              		.thumb
 8542              		.thumb_func
 8544              	HAL_I2C_GetState:
 8545              		@ args = 0, pretend = 0, frame = 8
 8546              		@ frame_needed = 1, uses_anonymous_args = 0
 8547              		@ link register save eliminated.
 8548 0000 80B4     		push	{r7}
 8549 0002 83B0     		sub	sp, sp, #12
 8550 0004 00AF     		add	r7, sp, #0
 8551 0006 7860     		str	r0, [r7, #4]
 8552 0008 7B68     		ldr	r3, [r7, #4]
 8553 000a 93F83D30 		ldrb	r3, [r3, #61]
 8554 000e DBB2     		uxtb	r3, r3
 8555 0010 1846     		mov	r0, r3
 8556 0012 0C37     		adds	r7, r7, #12
 8557 0014 BD46     		mov	sp, r7
 8558              		@ sp needed
 8559 0016 5DF8047B 		ldr	r7, [sp], #4
 8560 001a 7047     		bx	lr
 8562              		.section	.text.HAL_I2C_GetMode,"ax",%progbits
 8563              		.align	1
 8564              		.global	HAL_I2C_GetMode
 8565              		.syntax unified
 8566              		.thumb
 8567              		.thumb_func
 8569              	HAL_I2C_GetMode:
 8570              		@ args = 0, pretend = 0, frame = 8
 8571              		@ frame_needed = 1, uses_anonymous_args = 0
 8572              		@ link register save eliminated.
 8573 0000 80B4     		push	{r7}
 8574 0002 83B0     		sub	sp, sp, #12
 8575 0004 00AF     		add	r7, sp, #0
 8576 0006 7860     		str	r0, [r7, #4]
 8577 0008 7B68     		ldr	r3, [r7, #4]
 8578 000a 93F83E30 		ldrb	r3, [r3, #62]
 8579 000e DBB2     		uxtb	r3, r3
 8580 0010 1846     		mov	r0, r3
 8581 0012 0C37     		adds	r7, r7, #12
 8582 0014 BD46     		mov	sp, r7
 8583              		@ sp needed
 8584 0016 5DF8047B 		ldr	r7, [sp], #4
 8585 001a 7047     		bx	lr
 8587              		.section	.text.HAL_I2C_GetError,"ax",%progbits
 8588              		.align	1
 8589              		.global	HAL_I2C_GetError
ARM GAS  C:\Users\user\AppData\Local\Temp\cchxWhRb.s 			page 150


 8590              		.syntax unified
 8591              		.thumb
 8592              		.thumb_func
 8594              	HAL_I2C_GetError:
 8595              		@ args = 0, pretend = 0, frame = 8
 8596              		@ frame_needed = 1, uses_anonymous_args = 0
 8597              		@ link register save eliminated.
 8598 0000 80B4     		push	{r7}
 8599 0002 83B0     		sub	sp, sp, #12
 8600 0004 00AF     		add	r7, sp, #0
 8601 0006 7860     		str	r0, [r7, #4]
 8602 0008 7B68     		ldr	r3, [r7, #4]
 8603 000a 1B6C     		ldr	r3, [r3, #64]
 8604 000c 1846     		mov	r0, r3
 8605 000e 0C37     		adds	r7, r7, #12
 8606 0010 BD46     		mov	sp, r7
 8607              		@ sp needed
 8608 0012 5DF8047B 		ldr	r7, [sp], #4
 8609 0016 7047     		bx	lr
 8611              		.section	.text.I2C_MasterTransmit_TXE,"ax",%progbits
 8612              		.align	1
 8613              		.syntax unified
 8614              		.thumb
 8615              		.thumb_func
 8617              	I2C_MasterTransmit_TXE:
 8618              		@ args = 0, pretend = 0, frame = 16
 8619              		@ frame_needed = 1, uses_anonymous_args = 0
 8620 0000 80B5     		push	{r7, lr}
 8621 0002 84B0     		sub	sp, sp, #16
 8622 0004 00AF     		add	r7, sp, #0
 8623 0006 7860     		str	r0, [r7, #4]
 8624 0008 7B68     		ldr	r3, [r7, #4]
 8625 000a 93F83D30 		ldrb	r3, [r3, #61]
 8626 000e FB73     		strb	r3, [r7, #15]
 8627 0010 7B68     		ldr	r3, [r7, #4]
 8628 0012 93F83E30 		ldrb	r3, [r3, #62]
 8629 0016 BB73     		strb	r3, [r7, #14]
 8630 0018 7B68     		ldr	r3, [r7, #4]
 8631 001a DB6A     		ldr	r3, [r3, #44]
 8632 001c BB60     		str	r3, [r7, #8]
 8633 001e 7B68     		ldr	r3, [r7, #4]
 8634 0020 1B8D     		ldrh	r3, [r3, #40]
 8635 0022 002B     		cmp	r3, #0
 8636 0024 50D1     		bne	.L520
 8637 0026 FB7B     		ldrb	r3, [r7, #15]	@ zero_extendqisi2
 8638 0028 212B     		cmp	r3, #33
 8639 002a 4DD1     		bne	.L520
 8640 002c BB68     		ldr	r3, [r7, #8]
 8641 002e 082B     		cmp	r3, #8
 8642 0030 1DD0     		beq	.L521
 8643 0032 BB68     		ldr	r3, [r7, #8]
 8644 0034 202B     		cmp	r3, #32
 8645 0036 1AD0     		beq	.L521
 8646 0038 BB68     		ldr	r3, [r7, #8]
 8647 003a 13F5803F 		cmn	r3, #65536
 8648 003e 16D0     		beq	.L521
 8649 0040 7B68     		ldr	r3, [r7, #4]
ARM GAS  C:\Users\user\AppData\Local\Temp\cchxWhRb.s 			page 151


 8650 0042 1B68     		ldr	r3, [r3]
 8651 0044 5A68     		ldr	r2, [r3, #4]
 8652 0046 7B68     		ldr	r3, [r7, #4]
 8653 0048 1B68     		ldr	r3, [r3]
 8654 004a 22F4E062 		bic	r2, r2, #1792
 8655 004e 5A60     		str	r2, [r3, #4]
 8656 0050 7B68     		ldr	r3, [r7, #4]
 8657 0052 1122     		movs	r2, #17
 8658 0054 1A63     		str	r2, [r3, #48]
 8659 0056 7B68     		ldr	r3, [r7, #4]
 8660 0058 0022     		movs	r2, #0
 8661 005a 83F83E20 		strb	r2, [r3, #62]
 8662 005e 7B68     		ldr	r3, [r7, #4]
 8663 0060 2022     		movs	r2, #32
 8664 0062 83F83D20 		strb	r2, [r3, #61]
 8665 0066 7868     		ldr	r0, [r7, #4]
 8666 0068 FFF7FEFF 		bl	HAL_I2C_MasterTxCpltCallback
 8667 006c 60E0     		b	.L524
 8668              	.L521:
 8669 006e 7B68     		ldr	r3, [r7, #4]
 8670 0070 1B68     		ldr	r3, [r3]
 8671 0072 5A68     		ldr	r2, [r3, #4]
 8672 0074 7B68     		ldr	r3, [r7, #4]
 8673 0076 1B68     		ldr	r3, [r3]
 8674 0078 22F4E062 		bic	r2, r2, #1792
 8675 007c 5A60     		str	r2, [r3, #4]
 8676 007e 7B68     		ldr	r3, [r7, #4]
 8677 0080 1B68     		ldr	r3, [r3]
 8678 0082 1A68     		ldr	r2, [r3]
 8679 0084 7B68     		ldr	r3, [r7, #4]
 8680 0086 1B68     		ldr	r3, [r3]
 8681 0088 42F40072 		orr	r2, r2, #512
 8682 008c 1A60     		str	r2, [r3]
 8683 008e 7B68     		ldr	r3, [r7, #4]
 8684 0090 0022     		movs	r2, #0
 8685 0092 1A63     		str	r2, [r3, #48]
 8686 0094 7B68     		ldr	r3, [r7, #4]
 8687 0096 2022     		movs	r2, #32
 8688 0098 83F83D20 		strb	r2, [r3, #61]
 8689 009c 7B68     		ldr	r3, [r7, #4]
 8690 009e 93F83E30 		ldrb	r3, [r3, #62]
 8691 00a2 DBB2     		uxtb	r3, r3
 8692 00a4 402B     		cmp	r3, #64
 8693 00a6 07D1     		bne	.L523
 8694 00a8 7B68     		ldr	r3, [r7, #4]
 8695 00aa 0022     		movs	r2, #0
 8696 00ac 83F83E20 		strb	r2, [r3, #62]
 8697 00b0 7868     		ldr	r0, [r7, #4]
 8698 00b2 FFF7FEFF 		bl	HAL_I2C_MemTxCpltCallback
 8699 00b6 3BE0     		b	.L524
 8700              	.L523:
 8701 00b8 7B68     		ldr	r3, [r7, #4]
 8702 00ba 0022     		movs	r2, #0
 8703 00bc 83F83E20 		strb	r2, [r3, #62]
 8704 00c0 7868     		ldr	r0, [r7, #4]
 8705 00c2 FFF7FEFF 		bl	HAL_I2C_MasterTxCpltCallback
 8706 00c6 33E0     		b	.L524
ARM GAS  C:\Users\user\AppData\Local\Temp\cchxWhRb.s 			page 152


 8707              	.L520:
 8708 00c8 FB7B     		ldrb	r3, [r7, #15]	@ zero_extendqisi2
 8709 00ca 212B     		cmp	r3, #33
 8710 00cc 05D0     		beq	.L525
 8711 00ce BB7B     		ldrb	r3, [r7, #14]	@ zero_extendqisi2
 8712 00d0 402B     		cmp	r3, #64
 8713 00d2 2DD1     		bne	.L528
 8714 00d4 FB7B     		ldrb	r3, [r7, #15]	@ zero_extendqisi2
 8715 00d6 222B     		cmp	r3, #34
 8716 00d8 2AD1     		bne	.L528
 8717              	.L525:
 8718 00da 7B68     		ldr	r3, [r7, #4]
 8719 00dc 5B8D     		ldrh	r3, [r3, #42]	@ movhi
 8720 00de 9BB2     		uxth	r3, r3
 8721 00e0 002B     		cmp	r3, #0
 8722 00e2 08D1     		bne	.L526
 8723 00e4 7B68     		ldr	r3, [r7, #4]
 8724 00e6 1B68     		ldr	r3, [r3]
 8725 00e8 5A68     		ldr	r2, [r3, #4]
 8726 00ea 7B68     		ldr	r3, [r7, #4]
 8727 00ec 1B68     		ldr	r3, [r3]
 8728 00ee 22F48062 		bic	r2, r2, #1024
 8729 00f2 5A60     		str	r2, [r3, #4]
 8730 00f4 1CE0     		b	.L528
 8731              	.L526:
 8732 00f6 7B68     		ldr	r3, [r7, #4]
 8733 00f8 93F83E30 		ldrb	r3, [r3, #62]
 8734 00fc DBB2     		uxtb	r3, r3
 8735 00fe 402B     		cmp	r3, #64
 8736 0100 03D1     		bne	.L527
 8737 0102 7868     		ldr	r0, [r7, #4]
 8738 0104 FFF7FEFF 		bl	I2C_MemoryTransmit_TXE_BTF
 8739 0108 12E0     		b	.L528
 8740              	.L527:
 8741 010a 7B68     		ldr	r3, [r7, #4]
 8742 010c 5B6A     		ldr	r3, [r3, #36]
 8743 010e 1A78     		ldrb	r2, [r3]	@ zero_extendqisi2
 8744 0110 7B68     		ldr	r3, [r7, #4]
 8745 0112 1B68     		ldr	r3, [r3]
 8746 0114 1A61     		str	r2, [r3, #16]
 8747 0116 7B68     		ldr	r3, [r7, #4]
 8748 0118 5B6A     		ldr	r3, [r3, #36]
 8749 011a 5A1C     		adds	r2, r3, #1
 8750 011c 7B68     		ldr	r3, [r7, #4]
 8751 011e 5A62     		str	r2, [r3, #36]
 8752 0120 7B68     		ldr	r3, [r7, #4]
 8753 0122 5B8D     		ldrh	r3, [r3, #42]	@ movhi
 8754 0124 9BB2     		uxth	r3, r3
 8755 0126 013B     		subs	r3, r3, #1
 8756 0128 9AB2     		uxth	r2, r3
 8757 012a 7B68     		ldr	r3, [r7, #4]
 8758 012c 5A85     		strh	r2, [r3, #42]	@ movhi
 8759 012e FFE7     		b	.L528
 8760              	.L524:
 8761              	.L528:
 8762 0130 00BF     		nop
 8763 0132 1037     		adds	r7, r7, #16
ARM GAS  C:\Users\user\AppData\Local\Temp\cchxWhRb.s 			page 153


 8764 0134 BD46     		mov	sp, r7
 8765              		@ sp needed
 8766 0136 80BD     		pop	{r7, pc}
 8768              		.section	.text.I2C_MasterTransmit_BTF,"ax",%progbits
 8769              		.align	1
 8770              		.syntax unified
 8771              		.thumb
 8772              		.thumb_func
 8774              	I2C_MasterTransmit_BTF:
 8775              		@ args = 0, pretend = 0, frame = 16
 8776              		@ frame_needed = 1, uses_anonymous_args = 0
 8777 0000 80B5     		push	{r7, lr}
 8778 0002 84B0     		sub	sp, sp, #16
 8779 0004 00AF     		add	r7, sp, #0
 8780 0006 7860     		str	r0, [r7, #4]
 8781 0008 7B68     		ldr	r3, [r7, #4]
 8782 000a DB6A     		ldr	r3, [r3, #44]
 8783 000c FB60     		str	r3, [r7, #12]
 8784 000e 7B68     		ldr	r3, [r7, #4]
 8785 0010 93F83D30 		ldrb	r3, [r3, #61]
 8786 0014 DBB2     		uxtb	r3, r3
 8787 0016 212B     		cmp	r3, #33
 8788 0018 64D1     		bne	.L535
 8789 001a 7B68     		ldr	r3, [r7, #4]
 8790 001c 5B8D     		ldrh	r3, [r3, #42]	@ movhi
 8791 001e 9BB2     		uxth	r3, r3
 8792 0020 002B     		cmp	r3, #0
 8793 0022 12D0     		beq	.L531
 8794 0024 7B68     		ldr	r3, [r7, #4]
 8795 0026 5B6A     		ldr	r3, [r3, #36]
 8796 0028 1A78     		ldrb	r2, [r3]	@ zero_extendqisi2
 8797 002a 7B68     		ldr	r3, [r7, #4]
 8798 002c 1B68     		ldr	r3, [r3]
 8799 002e 1A61     		str	r2, [r3, #16]
 8800 0030 7B68     		ldr	r3, [r7, #4]
 8801 0032 5B6A     		ldr	r3, [r3, #36]
 8802 0034 5A1C     		adds	r2, r3, #1
 8803 0036 7B68     		ldr	r3, [r7, #4]
 8804 0038 5A62     		str	r2, [r3, #36]
 8805 003a 7B68     		ldr	r3, [r7, #4]
 8806 003c 5B8D     		ldrh	r3, [r3, #42]	@ movhi
 8807 003e 9BB2     		uxth	r3, r3
 8808 0040 013B     		subs	r3, r3, #1
 8809 0042 9AB2     		uxth	r2, r3
 8810 0044 7B68     		ldr	r3, [r7, #4]
 8811 0046 5A85     		strh	r2, [r3, #42]	@ movhi
 8812 0048 4CE0     		b	.L535
 8813              	.L531:
 8814 004a FB68     		ldr	r3, [r7, #12]
 8815 004c 082B     		cmp	r3, #8
 8816 004e 1DD0     		beq	.L533
 8817 0050 FB68     		ldr	r3, [r7, #12]
 8818 0052 202B     		cmp	r3, #32
 8819 0054 1AD0     		beq	.L533
 8820 0056 FB68     		ldr	r3, [r7, #12]
 8821 0058 13F5803F 		cmn	r3, #65536
 8822 005c 16D0     		beq	.L533
ARM GAS  C:\Users\user\AppData\Local\Temp\cchxWhRb.s 			page 154


 8823 005e 7B68     		ldr	r3, [r7, #4]
 8824 0060 1B68     		ldr	r3, [r3]
 8825 0062 5A68     		ldr	r2, [r3, #4]
 8826 0064 7B68     		ldr	r3, [r7, #4]
 8827 0066 1B68     		ldr	r3, [r3]
 8828 0068 22F4E062 		bic	r2, r2, #1792
 8829 006c 5A60     		str	r2, [r3, #4]
 8830 006e 7B68     		ldr	r3, [r7, #4]
 8831 0070 1122     		movs	r2, #17
 8832 0072 1A63     		str	r2, [r3, #48]
 8833 0074 7B68     		ldr	r3, [r7, #4]
 8834 0076 0022     		movs	r2, #0
 8835 0078 83F83E20 		strb	r2, [r3, #62]
 8836 007c 7B68     		ldr	r3, [r7, #4]
 8837 007e 2022     		movs	r2, #32
 8838 0080 83F83D20 		strb	r2, [r3, #61]
 8839 0084 7868     		ldr	r0, [r7, #4]
 8840 0086 FFF7FEFF 		bl	HAL_I2C_MasterTxCpltCallback
 8841 008a 2BE0     		b	.L535
 8842              	.L533:
 8843 008c 7B68     		ldr	r3, [r7, #4]
 8844 008e 1B68     		ldr	r3, [r3]
 8845 0090 5A68     		ldr	r2, [r3, #4]
 8846 0092 7B68     		ldr	r3, [r7, #4]
 8847 0094 1B68     		ldr	r3, [r3]
 8848 0096 22F4E062 		bic	r2, r2, #1792
 8849 009a 5A60     		str	r2, [r3, #4]
 8850 009c 7B68     		ldr	r3, [r7, #4]
 8851 009e 1B68     		ldr	r3, [r3]
 8852 00a0 1A68     		ldr	r2, [r3]
 8853 00a2 7B68     		ldr	r3, [r7, #4]
 8854 00a4 1B68     		ldr	r3, [r3]
 8855 00a6 42F40072 		orr	r2, r2, #512
 8856 00aa 1A60     		str	r2, [r3]
 8857 00ac 7B68     		ldr	r3, [r7, #4]
 8858 00ae 0022     		movs	r2, #0
 8859 00b0 1A63     		str	r2, [r3, #48]
 8860 00b2 7B68     		ldr	r3, [r7, #4]
 8861 00b4 2022     		movs	r2, #32
 8862 00b6 83F83D20 		strb	r2, [r3, #61]
 8863 00ba 7B68     		ldr	r3, [r7, #4]
 8864 00bc 93F83E30 		ldrb	r3, [r3, #62]
 8865 00c0 DBB2     		uxtb	r3, r3
 8866 00c2 402B     		cmp	r3, #64
 8867 00c4 07D1     		bne	.L534
 8868 00c6 7B68     		ldr	r3, [r7, #4]
 8869 00c8 0022     		movs	r2, #0
 8870 00ca 83F83E20 		strb	r2, [r3, #62]
 8871 00ce 7868     		ldr	r0, [r7, #4]
 8872 00d0 FFF7FEFF 		bl	HAL_I2C_MemTxCpltCallback
 8873 00d4 06E0     		b	.L535
 8874              	.L534:
 8875 00d6 7B68     		ldr	r3, [r7, #4]
 8876 00d8 0022     		movs	r2, #0
 8877 00da 83F83E20 		strb	r2, [r3, #62]
 8878 00de 7868     		ldr	r0, [r7, #4]
 8879 00e0 FFF7FEFF 		bl	HAL_I2C_MasterTxCpltCallback
ARM GAS  C:\Users\user\AppData\Local\Temp\cchxWhRb.s 			page 155


 8880              	.L535:
 8881 00e4 00BF     		nop
 8882 00e6 1037     		adds	r7, r7, #16
 8883 00e8 BD46     		mov	sp, r7
 8884              		@ sp needed
 8885 00ea 80BD     		pop	{r7, pc}
 8887              		.section	.text.I2C_MemoryTransmit_TXE_BTF,"ax",%progbits
 8888              		.align	1
 8889              		.syntax unified
 8890              		.thumb
 8891              		.thumb_func
 8893              	I2C_MemoryTransmit_TXE_BTF:
 8894              		@ args = 0, pretend = 0, frame = 16
 8895              		@ frame_needed = 1, uses_anonymous_args = 0
 8896 0000 80B5     		push	{r7, lr}
 8897 0002 84B0     		sub	sp, sp, #16
 8898 0004 00AF     		add	r7, sp, #0
 8899 0006 7860     		str	r0, [r7, #4]
 8900 0008 7B68     		ldr	r3, [r7, #4]
 8901 000a 93F83D30 		ldrb	r3, [r3, #61]
 8902 000e FB73     		strb	r3, [r7, #15]
 8903 0010 7B68     		ldr	r3, [r7, #4]
 8904 0012 1B6D     		ldr	r3, [r3, #80]
 8905 0014 002B     		cmp	r3, #0
 8906 0016 1DD1     		bne	.L537
 8907 0018 7B68     		ldr	r3, [r7, #4]
 8908 001a DB6C     		ldr	r3, [r3, #76]
 8909 001c 012B     		cmp	r3, #1
 8910 001e 0BD1     		bne	.L538
 8911 0020 7B68     		ldr	r3, [r7, #4]
 8912 0022 9B6C     		ldr	r3, [r3, #72]
 8913 0024 DAB2     		uxtb	r2, r3
 8914 0026 7B68     		ldr	r3, [r7, #4]
 8915 0028 1B68     		ldr	r3, [r3]
 8916 002a 1A61     		str	r2, [r3, #16]
 8917 002c 7B68     		ldr	r3, [r7, #4]
 8918 002e 1B6D     		ldr	r3, [r3, #80]
 8919 0030 9A1C     		adds	r2, r3, #2
 8920 0032 7B68     		ldr	r3, [r7, #4]
 8921 0034 1A65     		str	r2, [r3, #80]
 8922 0036 73E0     		b	.L544
 8923              	.L538:
 8924 0038 7B68     		ldr	r3, [r7, #4]
 8925 003a 9B6C     		ldr	r3, [r3, #72]
 8926 003c 9BB2     		uxth	r3, r3
 8927 003e 1B12     		asrs	r3, r3, #8
 8928 0040 DAB2     		uxtb	r2, r3
 8929 0042 7B68     		ldr	r3, [r7, #4]
 8930 0044 1B68     		ldr	r3, [r3]
 8931 0046 1A61     		str	r2, [r3, #16]
 8932 0048 7B68     		ldr	r3, [r7, #4]
 8933 004a 1B6D     		ldr	r3, [r3, #80]
 8934 004c 5A1C     		adds	r2, r3, #1
 8935 004e 7B68     		ldr	r3, [r7, #4]
 8936 0050 1A65     		str	r2, [r3, #80]
 8937 0052 65E0     		b	.L544
 8938              	.L537:
ARM GAS  C:\Users\user\AppData\Local\Temp\cchxWhRb.s 			page 156


 8939 0054 7B68     		ldr	r3, [r7, #4]
 8940 0056 1B6D     		ldr	r3, [r3, #80]
 8941 0058 012B     		cmp	r3, #1
 8942 005a 0BD1     		bne	.L540
 8943 005c 7B68     		ldr	r3, [r7, #4]
 8944 005e 9B6C     		ldr	r3, [r3, #72]
 8945 0060 DAB2     		uxtb	r2, r3
 8946 0062 7B68     		ldr	r3, [r7, #4]
 8947 0064 1B68     		ldr	r3, [r3]
 8948 0066 1A61     		str	r2, [r3, #16]
 8949 0068 7B68     		ldr	r3, [r7, #4]
 8950 006a 1B6D     		ldr	r3, [r3, #80]
 8951 006c 5A1C     		adds	r2, r3, #1
 8952 006e 7B68     		ldr	r3, [r7, #4]
 8953 0070 1A65     		str	r2, [r3, #80]
 8954 0072 55E0     		b	.L544
 8955              	.L540:
 8956 0074 7B68     		ldr	r3, [r7, #4]
 8957 0076 1B6D     		ldr	r3, [r3, #80]
 8958 0078 022B     		cmp	r3, #2
 8959 007a 51D1     		bne	.L544
 8960 007c FB7B     		ldrb	r3, [r7, #15]	@ zero_extendqisi2
 8961 007e 222B     		cmp	r3, #34
 8962 0080 0DD1     		bne	.L541
 8963 0082 7B68     		ldr	r3, [r7, #4]
 8964 0084 1B68     		ldr	r3, [r3]
 8965 0086 1A68     		ldr	r2, [r3]
 8966 0088 7B68     		ldr	r3, [r7, #4]
 8967 008a 1B68     		ldr	r3, [r3]
 8968 008c 42F48072 		orr	r2, r2, #256
 8969 0090 1A60     		str	r2, [r3]
 8970 0092 7B68     		ldr	r3, [r7, #4]
 8971 0094 1B6D     		ldr	r3, [r3, #80]
 8972 0096 5A1C     		adds	r2, r3, #1
 8973 0098 7B68     		ldr	r3, [r7, #4]
 8974 009a 1A65     		str	r2, [r3, #80]
 8975 009c 40E0     		b	.L544
 8976              	.L541:
 8977 009e 7B68     		ldr	r3, [r7, #4]
 8978 00a0 5B8D     		ldrh	r3, [r3, #42]	@ movhi
 8979 00a2 9BB2     		uxth	r3, r3
 8980 00a4 002B     		cmp	r3, #0
 8981 00a6 15D0     		beq	.L543
 8982 00a8 FB7B     		ldrb	r3, [r7, #15]	@ zero_extendqisi2
 8983 00aa 212B     		cmp	r3, #33
 8984 00ac 12D1     		bne	.L543
 8985 00ae 7B68     		ldr	r3, [r7, #4]
 8986 00b0 5B6A     		ldr	r3, [r3, #36]
 8987 00b2 1A78     		ldrb	r2, [r3]	@ zero_extendqisi2
 8988 00b4 7B68     		ldr	r3, [r7, #4]
 8989 00b6 1B68     		ldr	r3, [r3]
 8990 00b8 1A61     		str	r2, [r3, #16]
 8991 00ba 7B68     		ldr	r3, [r7, #4]
 8992 00bc 5B6A     		ldr	r3, [r3, #36]
 8993 00be 5A1C     		adds	r2, r3, #1
 8994 00c0 7B68     		ldr	r3, [r7, #4]
 8995 00c2 5A62     		str	r2, [r3, #36]
ARM GAS  C:\Users\user\AppData\Local\Temp\cchxWhRb.s 			page 157


 8996 00c4 7B68     		ldr	r3, [r7, #4]
 8997 00c6 5B8D     		ldrh	r3, [r3, #42]	@ movhi
 8998 00c8 9BB2     		uxth	r3, r3
 8999 00ca 013B     		subs	r3, r3, #1
 9000 00cc 9AB2     		uxth	r2, r3
 9001 00ce 7B68     		ldr	r3, [r7, #4]
 9002 00d0 5A85     		strh	r2, [r3, #42]	@ movhi
 9003 00d2 25E0     		b	.L544
 9004              	.L543:
 9005 00d4 7B68     		ldr	r3, [r7, #4]
 9006 00d6 5B8D     		ldrh	r3, [r3, #42]	@ movhi
 9007 00d8 9BB2     		uxth	r3, r3
 9008 00da 002B     		cmp	r3, #0
 9009 00dc 20D1     		bne	.L544
 9010 00de FB7B     		ldrb	r3, [r7, #15]	@ zero_extendqisi2
 9011 00e0 212B     		cmp	r3, #33
 9012 00e2 1DD1     		bne	.L544
 9013 00e4 7B68     		ldr	r3, [r7, #4]
 9014 00e6 1B68     		ldr	r3, [r3]
 9015 00e8 5A68     		ldr	r2, [r3, #4]
 9016 00ea 7B68     		ldr	r3, [r7, #4]
 9017 00ec 1B68     		ldr	r3, [r3]
 9018 00ee 22F4E062 		bic	r2, r2, #1792
 9019 00f2 5A60     		str	r2, [r3, #4]
 9020 00f4 7B68     		ldr	r3, [r7, #4]
 9021 00f6 1B68     		ldr	r3, [r3]
 9022 00f8 1A68     		ldr	r2, [r3]
 9023 00fa 7B68     		ldr	r3, [r7, #4]
 9024 00fc 1B68     		ldr	r3, [r3]
 9025 00fe 42F40072 		orr	r2, r2, #512
 9026 0102 1A60     		str	r2, [r3]
 9027 0104 7B68     		ldr	r3, [r7, #4]
 9028 0106 0022     		movs	r2, #0
 9029 0108 1A63     		str	r2, [r3, #48]
 9030 010a 7B68     		ldr	r3, [r7, #4]
 9031 010c 2022     		movs	r2, #32
 9032 010e 83F83D20 		strb	r2, [r3, #61]
 9033 0112 7B68     		ldr	r3, [r7, #4]
 9034 0114 0022     		movs	r2, #0
 9035 0116 83F83E20 		strb	r2, [r3, #62]
 9036 011a 7868     		ldr	r0, [r7, #4]
 9037 011c FFF7FEFF 		bl	HAL_I2C_MemTxCpltCallback
 9038              	.L544:
 9039 0120 00BF     		nop
 9040 0122 1037     		adds	r7, r7, #16
 9041 0124 BD46     		mov	sp, r7
 9042              		@ sp needed
 9043 0126 80BD     		pop	{r7, pc}
 9045              		.section	.text.I2C_MasterReceive_RXNE,"ax",%progbits
 9046              		.align	1
 9047              		.syntax unified
 9048              		.thumb
 9049              		.thumb_func
 9051              	I2C_MasterReceive_RXNE:
 9052              		@ args = 0, pretend = 0, frame = 16
 9053              		@ frame_needed = 1, uses_anonymous_args = 0
 9054 0000 80B5     		push	{r7, lr}
ARM GAS  C:\Users\user\AppData\Local\Temp\cchxWhRb.s 			page 158


 9055 0002 84B0     		sub	sp, sp, #16
 9056 0004 00AF     		add	r7, sp, #0
 9057 0006 7860     		str	r0, [r7, #4]
 9058 0008 7B68     		ldr	r3, [r7, #4]
 9059 000a 93F83D30 		ldrb	r3, [r3, #61]
 9060 000e DBB2     		uxtb	r3, r3
 9061 0010 222B     		cmp	r3, #34
 9062 0012 40F0AC80 		bne	.L553
 9063 0016 7B68     		ldr	r3, [r7, #4]
 9064 0018 5B8D     		ldrh	r3, [r3, #42]	@ movhi
 9065 001a 9BB2     		uxth	r3, r3
 9066 001c FB60     		str	r3, [r7, #12]
 9067 001e FB68     		ldr	r3, [r7, #12]
 9068 0020 032B     		cmp	r3, #3
 9069 0022 21D9     		bls	.L547
 9070 0024 7B68     		ldr	r3, [r7, #4]
 9071 0026 1B68     		ldr	r3, [r3]
 9072 0028 1A69     		ldr	r2, [r3, #16]
 9073 002a 7B68     		ldr	r3, [r7, #4]
 9074 002c 5B6A     		ldr	r3, [r3, #36]
 9075 002e D2B2     		uxtb	r2, r2
 9076 0030 1A70     		strb	r2, [r3]
 9077 0032 7B68     		ldr	r3, [r7, #4]
 9078 0034 5B6A     		ldr	r3, [r3, #36]
 9079 0036 5A1C     		adds	r2, r3, #1
 9080 0038 7B68     		ldr	r3, [r7, #4]
 9081 003a 5A62     		str	r2, [r3, #36]
 9082 003c 7B68     		ldr	r3, [r7, #4]
 9083 003e 5B8D     		ldrh	r3, [r3, #42]	@ movhi
 9084 0040 9BB2     		uxth	r3, r3
 9085 0042 013B     		subs	r3, r3, #1
 9086 0044 9AB2     		uxth	r2, r3
 9087 0046 7B68     		ldr	r3, [r7, #4]
 9088 0048 5A85     		strh	r2, [r3, #42]	@ movhi
 9089 004a 7B68     		ldr	r3, [r7, #4]
 9090 004c 5B8D     		ldrh	r3, [r3, #42]	@ movhi
 9091 004e 9BB2     		uxth	r3, r3
 9092 0050 032B     		cmp	r3, #3
 9093 0052 40F08C80 		bne	.L553
 9094 0056 7B68     		ldr	r3, [r7, #4]
 9095 0058 1B68     		ldr	r3, [r3]
 9096 005a 5A68     		ldr	r2, [r3, #4]
 9097 005c 7B68     		ldr	r3, [r7, #4]
 9098 005e 1B68     		ldr	r3, [r3]
 9099 0060 22F48062 		bic	r2, r2, #1024
 9100 0064 5A60     		str	r2, [r3, #4]
 9101 0066 82E0     		b	.L553
 9102              	.L547:
 9103 0068 7B68     		ldr	r3, [r7, #4]
 9104 006a DB6A     		ldr	r3, [r3, #44]
 9105 006c 022B     		cmp	r3, #2
 9106 006e 75D0     		beq	.L548
 9107 0070 FB68     		ldr	r3, [r7, #12]
 9108 0072 012B     		cmp	r3, #1
 9109 0074 02D0     		beq	.L549
 9110 0076 FB68     		ldr	r3, [r7, #12]
 9111 0078 002B     		cmp	r3, #0
ARM GAS  C:\Users\user\AppData\Local\Temp\cchxWhRb.s 			page 159


 9112 007a 6FD1     		bne	.L548
 9113              	.L549:
 9114 007c 7868     		ldr	r0, [r7, #4]
 9115 007e FFF7FEFF 		bl	I2C_WaitOnSTOPRequestThroughIT
 9116 0082 0346     		mov	r3, r0
 9117 0084 002B     		cmp	r3, #0
 9118 0086 42D1     		bne	.L550
 9119 0088 7B68     		ldr	r3, [r7, #4]
 9120 008a 1B68     		ldr	r3, [r3]
 9121 008c 1A68     		ldr	r2, [r3]
 9122 008e 7B68     		ldr	r3, [r7, #4]
 9123 0090 1B68     		ldr	r3, [r3]
 9124 0092 22F48062 		bic	r2, r2, #1024
 9125 0096 1A60     		str	r2, [r3]
 9126 0098 7B68     		ldr	r3, [r7, #4]
 9127 009a 1B68     		ldr	r3, [r3]
 9128 009c 5A68     		ldr	r2, [r3, #4]
 9129 009e 7B68     		ldr	r3, [r7, #4]
 9130 00a0 1B68     		ldr	r3, [r3]
 9131 00a2 22F4E062 		bic	r2, r2, #1792
 9132 00a6 5A60     		str	r2, [r3, #4]
 9133 00a8 7B68     		ldr	r3, [r7, #4]
 9134 00aa 1B68     		ldr	r3, [r3]
 9135 00ac 1A69     		ldr	r2, [r3, #16]
 9136 00ae 7B68     		ldr	r3, [r7, #4]
 9137 00b0 5B6A     		ldr	r3, [r3, #36]
 9138 00b2 D2B2     		uxtb	r2, r2
 9139 00b4 1A70     		strb	r2, [r3]
 9140 00b6 7B68     		ldr	r3, [r7, #4]
 9141 00b8 5B6A     		ldr	r3, [r3, #36]
 9142 00ba 5A1C     		adds	r2, r3, #1
 9143 00bc 7B68     		ldr	r3, [r7, #4]
 9144 00be 5A62     		str	r2, [r3, #36]
 9145 00c0 7B68     		ldr	r3, [r7, #4]
 9146 00c2 5B8D     		ldrh	r3, [r3, #42]	@ movhi
 9147 00c4 9BB2     		uxth	r3, r3
 9148 00c6 013B     		subs	r3, r3, #1
 9149 00c8 9AB2     		uxth	r2, r3
 9150 00ca 7B68     		ldr	r3, [r7, #4]
 9151 00cc 5A85     		strh	r2, [r3, #42]	@ movhi
 9152 00ce 7B68     		ldr	r3, [r7, #4]
 9153 00d0 2022     		movs	r2, #32
 9154 00d2 83F83D20 		strb	r2, [r3, #61]
 9155 00d6 7B68     		ldr	r3, [r7, #4]
 9156 00d8 93F83E30 		ldrb	r3, [r3, #62]
 9157 00dc DBB2     		uxtb	r3, r3
 9158 00de 402B     		cmp	r3, #64
 9159 00e0 0AD1     		bne	.L551
 9160 00e2 7B68     		ldr	r3, [r7, #4]
 9161 00e4 0022     		movs	r2, #0
 9162 00e6 83F83E20 		strb	r2, [r3, #62]
 9163 00ea 7B68     		ldr	r3, [r7, #4]
 9164 00ec 0022     		movs	r2, #0
 9165 00ee 1A63     		str	r2, [r3, #48]
 9166 00f0 7868     		ldr	r0, [r7, #4]
 9167 00f2 FFF7FEFF 		bl	HAL_I2C_MemRxCpltCallback
 9168 00f6 3AE0     		b	.L546
ARM GAS  C:\Users\user\AppData\Local\Temp\cchxWhRb.s 			page 160


 9169              	.L551:
 9170 00f8 7B68     		ldr	r3, [r7, #4]
 9171 00fa 0022     		movs	r2, #0
 9172 00fc 83F83E20 		strb	r2, [r3, #62]
 9173 0100 7B68     		ldr	r3, [r7, #4]
 9174 0102 1222     		movs	r2, #18
 9175 0104 1A63     		str	r2, [r3, #48]
 9176 0106 7868     		ldr	r0, [r7, #4]
 9177 0108 FFF7FEFF 		bl	HAL_I2C_MasterRxCpltCallback
 9178 010c 2FE0     		b	.L546
 9179              	.L550:
 9180 010e 7B68     		ldr	r3, [r7, #4]
 9181 0110 1B68     		ldr	r3, [r3]
 9182 0112 5A68     		ldr	r2, [r3, #4]
 9183 0114 7B68     		ldr	r3, [r7, #4]
 9184 0116 1B68     		ldr	r3, [r3]
 9185 0118 22F4E062 		bic	r2, r2, #1792
 9186 011c 5A60     		str	r2, [r3, #4]
 9187 011e 7B68     		ldr	r3, [r7, #4]
 9188 0120 1B68     		ldr	r3, [r3]
 9189 0122 1A69     		ldr	r2, [r3, #16]
 9190 0124 7B68     		ldr	r3, [r7, #4]
 9191 0126 5B6A     		ldr	r3, [r3, #36]
 9192 0128 D2B2     		uxtb	r2, r2
 9193 012a 1A70     		strb	r2, [r3]
 9194 012c 7B68     		ldr	r3, [r7, #4]
 9195 012e 5B6A     		ldr	r3, [r3, #36]
 9196 0130 5A1C     		adds	r2, r3, #1
 9197 0132 7B68     		ldr	r3, [r7, #4]
 9198 0134 5A62     		str	r2, [r3, #36]
 9199 0136 7B68     		ldr	r3, [r7, #4]
 9200 0138 5B8D     		ldrh	r3, [r3, #42]	@ movhi
 9201 013a 9BB2     		uxth	r3, r3
 9202 013c 013B     		subs	r3, r3, #1
 9203 013e 9AB2     		uxth	r2, r3
 9204 0140 7B68     		ldr	r3, [r7, #4]
 9205 0142 5A85     		strh	r2, [r3, #42]	@ movhi
 9206 0144 7B68     		ldr	r3, [r7, #4]
 9207 0146 2022     		movs	r2, #32
 9208 0148 83F83D20 		strb	r2, [r3, #61]
 9209 014c 7B68     		ldr	r3, [r7, #4]
 9210 014e 0022     		movs	r2, #0
 9211 0150 83F83E20 		strb	r2, [r3, #62]
 9212 0154 7868     		ldr	r0, [r7, #4]
 9213 0156 FFF7FEFF 		bl	HAL_I2C_ErrorCallback
 9214 015a 08E0     		b	.L546
 9215              	.L548:
 9216 015c 7B68     		ldr	r3, [r7, #4]
 9217 015e 1B68     		ldr	r3, [r3]
 9218 0160 5A68     		ldr	r2, [r3, #4]
 9219 0162 7B68     		ldr	r3, [r7, #4]
 9220 0164 1B68     		ldr	r3, [r3]
 9221 0166 22F48062 		bic	r2, r2, #1024
 9222 016a 5A60     		str	r2, [r3, #4]
 9223 016c FFE7     		b	.L553
 9224              	.L546:
 9225              	.L553:
ARM GAS  C:\Users\user\AppData\Local\Temp\cchxWhRb.s 			page 161


 9226 016e 00BF     		nop
 9227 0170 1037     		adds	r7, r7, #16
 9228 0172 BD46     		mov	sp, r7
 9229              		@ sp needed
 9230 0174 80BD     		pop	{r7, pc}
 9232              		.section	.text.I2C_MasterReceive_BTF,"ax",%progbits
 9233              		.align	1
 9234              		.syntax unified
 9235              		.thumb
 9236              		.thumb_func
 9238              	I2C_MasterReceive_BTF:
 9239              		@ args = 0, pretend = 0, frame = 16
 9240              		@ frame_needed = 1, uses_anonymous_args = 0
 9241 0000 80B5     		push	{r7, lr}
 9242 0002 84B0     		sub	sp, sp, #16
 9243 0004 00AF     		add	r7, sp, #0
 9244 0006 7860     		str	r0, [r7, #4]
 9245 0008 7B68     		ldr	r3, [r7, #4]
 9246 000a DB6A     		ldr	r3, [r3, #44]
 9247 000c FB60     		str	r3, [r7, #12]
 9248 000e 7B68     		ldr	r3, [r7, #4]
 9249 0010 5B8D     		ldrh	r3, [r3, #42]	@ movhi
 9250 0012 9BB2     		uxth	r3, r3
 9251 0014 042B     		cmp	r3, #4
 9252 0016 1BD1     		bne	.L555
 9253 0018 7B68     		ldr	r3, [r7, #4]
 9254 001a 1B68     		ldr	r3, [r3]
 9255 001c 5A68     		ldr	r2, [r3, #4]
 9256 001e 7B68     		ldr	r3, [r7, #4]
 9257 0020 1B68     		ldr	r3, [r3]
 9258 0022 22F48062 		bic	r2, r2, #1024
 9259 0026 5A60     		str	r2, [r3, #4]
 9260 0028 7B68     		ldr	r3, [r7, #4]
 9261 002a 1B68     		ldr	r3, [r3]
 9262 002c 1A69     		ldr	r2, [r3, #16]
 9263 002e 7B68     		ldr	r3, [r7, #4]
 9264 0030 5B6A     		ldr	r3, [r3, #36]
 9265 0032 D2B2     		uxtb	r2, r2
 9266 0034 1A70     		strb	r2, [r3]
 9267 0036 7B68     		ldr	r3, [r7, #4]
 9268 0038 5B6A     		ldr	r3, [r3, #36]
 9269 003a 5A1C     		adds	r2, r3, #1
 9270 003c 7B68     		ldr	r3, [r7, #4]
 9271 003e 5A62     		str	r2, [r3, #36]
 9272 0040 7B68     		ldr	r3, [r7, #4]
 9273 0042 5B8D     		ldrh	r3, [r3, #42]	@ movhi
 9274 0044 9BB2     		uxth	r3, r3
 9275 0046 013B     		subs	r3, r3, #1
 9276 0048 9AB2     		uxth	r2, r3
 9277 004a 7B68     		ldr	r3, [r7, #4]
 9278 004c 5A85     		strh	r2, [r3, #42]	@ movhi
 9279 004e BDE0     		b	.L566
 9280              	.L555:
 9281 0050 7B68     		ldr	r3, [r7, #4]
 9282 0052 5B8D     		ldrh	r3, [r3, #42]	@ movhi
 9283 0054 9BB2     		uxth	r3, r3
 9284 0056 032B     		cmp	r3, #3
ARM GAS  C:\Users\user\AppData\Local\Temp\cchxWhRb.s 			page 162


 9285 0058 29D1     		bne	.L557
 9286 005a 7B68     		ldr	r3, [r7, #4]
 9287 005c 1B68     		ldr	r3, [r3]
 9288 005e 5A68     		ldr	r2, [r3, #4]
 9289 0060 7B68     		ldr	r3, [r7, #4]
 9290 0062 1B68     		ldr	r3, [r3]
 9291 0064 22F48062 		bic	r2, r2, #1024
 9292 0068 5A60     		str	r2, [r3, #4]
 9293 006a FB68     		ldr	r3, [r7, #12]
 9294 006c 042B     		cmp	r3, #4
 9295 006e 0AD0     		beq	.L558
 9296 0070 FB68     		ldr	r3, [r7, #12]
 9297 0072 022B     		cmp	r3, #2
 9298 0074 07D0     		beq	.L558
 9299 0076 7B68     		ldr	r3, [r7, #4]
 9300 0078 1B68     		ldr	r3, [r3]
 9301 007a 1A68     		ldr	r2, [r3]
 9302 007c 7B68     		ldr	r3, [r7, #4]
 9303 007e 1B68     		ldr	r3, [r3]
 9304 0080 22F48062 		bic	r2, r2, #1024
 9305 0084 1A60     		str	r2, [r3]
 9306              	.L558:
 9307 0086 7B68     		ldr	r3, [r7, #4]
 9308 0088 1B68     		ldr	r3, [r3]
 9309 008a 1A69     		ldr	r2, [r3, #16]
 9310 008c 7B68     		ldr	r3, [r7, #4]
 9311 008e 5B6A     		ldr	r3, [r3, #36]
 9312 0090 D2B2     		uxtb	r2, r2
 9313 0092 1A70     		strb	r2, [r3]
 9314 0094 7B68     		ldr	r3, [r7, #4]
 9315 0096 5B6A     		ldr	r3, [r3, #36]
 9316 0098 5A1C     		adds	r2, r3, #1
 9317 009a 7B68     		ldr	r3, [r7, #4]
 9318 009c 5A62     		str	r2, [r3, #36]
 9319 009e 7B68     		ldr	r3, [r7, #4]
 9320 00a0 5B8D     		ldrh	r3, [r3, #42]	@ movhi
 9321 00a2 9BB2     		uxth	r3, r3
 9322 00a4 013B     		subs	r3, r3, #1
 9323 00a6 9AB2     		uxth	r2, r3
 9324 00a8 7B68     		ldr	r3, [r7, #4]
 9325 00aa 5A85     		strh	r2, [r3, #42]	@ movhi
 9326 00ac 8EE0     		b	.L566
 9327              	.L557:
 9328 00ae 7B68     		ldr	r3, [r7, #4]
 9329 00b0 5B8D     		ldrh	r3, [r3, #42]	@ movhi
 9330 00b2 9BB2     		uxth	r3, r3
 9331 00b4 022B     		cmp	r3, #2
 9332 00b6 76D1     		bne	.L559
 9333 00b8 FB68     		ldr	r3, [r7, #12]
 9334 00ba 012B     		cmp	r3, #1
 9335 00bc 02D0     		beq	.L560
 9336 00be FB68     		ldr	r3, [r7, #12]
 9337 00c0 102B     		cmp	r3, #16
 9338 00c2 08D1     		bne	.L561
 9339              	.L560:
 9340 00c4 7B68     		ldr	r3, [r7, #4]
 9341 00c6 1B68     		ldr	r3, [r3]
ARM GAS  C:\Users\user\AppData\Local\Temp\cchxWhRb.s 			page 163


 9342 00c8 1A68     		ldr	r2, [r3]
 9343 00ca 7B68     		ldr	r3, [r7, #4]
 9344 00cc 1B68     		ldr	r3, [r3]
 9345 00ce 22F48062 		bic	r2, r2, #1024
 9346 00d2 1A60     		str	r2, [r3]
 9347 00d4 19E0     		b	.L562
 9348              	.L561:
 9349 00d6 FB68     		ldr	r3, [r7, #12]
 9350 00d8 042B     		cmp	r3, #4
 9351 00da 02D0     		beq	.L563
 9352 00dc FB68     		ldr	r3, [r7, #12]
 9353 00de 022B     		cmp	r3, #2
 9354 00e0 08D1     		bne	.L564
 9355              	.L563:
 9356 00e2 7B68     		ldr	r3, [r7, #4]
 9357 00e4 1B68     		ldr	r3, [r3]
 9358 00e6 1A68     		ldr	r2, [r3]
 9359 00e8 7B68     		ldr	r3, [r7, #4]
 9360 00ea 1B68     		ldr	r3, [r3]
 9361 00ec 42F48062 		orr	r2, r2, #1024
 9362 00f0 1A60     		str	r2, [r3]
 9363 00f2 0AE0     		b	.L562
 9364              	.L564:
 9365 00f4 FB68     		ldr	r3, [r7, #12]
 9366 00f6 102B     		cmp	r3, #16
 9367 00f8 07D0     		beq	.L562
 9368 00fa 7B68     		ldr	r3, [r7, #4]
 9369 00fc 1B68     		ldr	r3, [r3]
 9370 00fe 1A68     		ldr	r2, [r3]
 9371 0100 7B68     		ldr	r3, [r7, #4]
 9372 0102 1B68     		ldr	r3, [r3]
 9373 0104 42F40072 		orr	r2, r2, #512
 9374 0108 1A60     		str	r2, [r3]
 9375              	.L562:
 9376 010a 7B68     		ldr	r3, [r7, #4]
 9377 010c 1B68     		ldr	r3, [r3]
 9378 010e 1A69     		ldr	r2, [r3, #16]
 9379 0110 7B68     		ldr	r3, [r7, #4]
 9380 0112 5B6A     		ldr	r3, [r3, #36]
 9381 0114 D2B2     		uxtb	r2, r2
 9382 0116 1A70     		strb	r2, [r3]
 9383 0118 7B68     		ldr	r3, [r7, #4]
 9384 011a 5B6A     		ldr	r3, [r3, #36]
 9385 011c 5A1C     		adds	r2, r3, #1
 9386 011e 7B68     		ldr	r3, [r7, #4]
 9387 0120 5A62     		str	r2, [r3, #36]
 9388 0122 7B68     		ldr	r3, [r7, #4]
 9389 0124 5B8D     		ldrh	r3, [r3, #42]	@ movhi
 9390 0126 9BB2     		uxth	r3, r3
 9391 0128 013B     		subs	r3, r3, #1
 9392 012a 9AB2     		uxth	r2, r3
 9393 012c 7B68     		ldr	r3, [r7, #4]
 9394 012e 5A85     		strh	r2, [r3, #42]	@ movhi
 9395 0130 7B68     		ldr	r3, [r7, #4]
 9396 0132 1B68     		ldr	r3, [r3]
 9397 0134 1A69     		ldr	r2, [r3, #16]
 9398 0136 7B68     		ldr	r3, [r7, #4]
ARM GAS  C:\Users\user\AppData\Local\Temp\cchxWhRb.s 			page 164


 9399 0138 5B6A     		ldr	r3, [r3, #36]
 9400 013a D2B2     		uxtb	r2, r2
 9401 013c 1A70     		strb	r2, [r3]
 9402 013e 7B68     		ldr	r3, [r7, #4]
 9403 0140 5B6A     		ldr	r3, [r3, #36]
 9404 0142 5A1C     		adds	r2, r3, #1
 9405 0144 7B68     		ldr	r3, [r7, #4]
 9406 0146 5A62     		str	r2, [r3, #36]
 9407 0148 7B68     		ldr	r3, [r7, #4]
 9408 014a 5B8D     		ldrh	r3, [r3, #42]	@ movhi
 9409 014c 9BB2     		uxth	r3, r3
 9410 014e 013B     		subs	r3, r3, #1
 9411 0150 9AB2     		uxth	r2, r3
 9412 0152 7B68     		ldr	r3, [r7, #4]
 9413 0154 5A85     		strh	r2, [r3, #42]	@ movhi
 9414 0156 7B68     		ldr	r3, [r7, #4]
 9415 0158 1B68     		ldr	r3, [r3]
 9416 015a 5A68     		ldr	r2, [r3, #4]
 9417 015c 7B68     		ldr	r3, [r7, #4]
 9418 015e 1B68     		ldr	r3, [r3]
 9419 0160 22F44072 		bic	r2, r2, #768
 9420 0164 5A60     		str	r2, [r3, #4]
 9421 0166 7B68     		ldr	r3, [r7, #4]
 9422 0168 2022     		movs	r2, #32
 9423 016a 83F83D20 		strb	r2, [r3, #61]
 9424 016e 7B68     		ldr	r3, [r7, #4]
 9425 0170 93F83E30 		ldrb	r3, [r3, #62]
 9426 0174 DBB2     		uxtb	r3, r3
 9427 0176 402B     		cmp	r3, #64
 9428 0178 0AD1     		bne	.L565
 9429 017a 7B68     		ldr	r3, [r7, #4]
 9430 017c 0022     		movs	r2, #0
 9431 017e 83F83E20 		strb	r2, [r3, #62]
 9432 0182 7B68     		ldr	r3, [r7, #4]
 9433 0184 0022     		movs	r2, #0
 9434 0186 1A63     		str	r2, [r3, #48]
 9435 0188 7868     		ldr	r0, [r7, #4]
 9436 018a FFF7FEFF 		bl	HAL_I2C_MemRxCpltCallback
 9437 018e 1DE0     		b	.L566
 9438              	.L565:
 9439 0190 7B68     		ldr	r3, [r7, #4]
 9440 0192 0022     		movs	r2, #0
 9441 0194 83F83E20 		strb	r2, [r3, #62]
 9442 0198 7B68     		ldr	r3, [r7, #4]
 9443 019a 1222     		movs	r2, #18
 9444 019c 1A63     		str	r2, [r3, #48]
 9445 019e 7868     		ldr	r0, [r7, #4]
 9446 01a0 FFF7FEFF 		bl	HAL_I2C_MasterRxCpltCallback
 9447 01a4 12E0     		b	.L566
 9448              	.L559:
 9449 01a6 7B68     		ldr	r3, [r7, #4]
 9450 01a8 1B68     		ldr	r3, [r3]
 9451 01aa 1A69     		ldr	r2, [r3, #16]
 9452 01ac 7B68     		ldr	r3, [r7, #4]
 9453 01ae 5B6A     		ldr	r3, [r3, #36]
 9454 01b0 D2B2     		uxtb	r2, r2
 9455 01b2 1A70     		strb	r2, [r3]
ARM GAS  C:\Users\user\AppData\Local\Temp\cchxWhRb.s 			page 165


 9456 01b4 7B68     		ldr	r3, [r7, #4]
 9457 01b6 5B6A     		ldr	r3, [r3, #36]
 9458 01b8 5A1C     		adds	r2, r3, #1
 9459 01ba 7B68     		ldr	r3, [r7, #4]
 9460 01bc 5A62     		str	r2, [r3, #36]
 9461 01be 7B68     		ldr	r3, [r7, #4]
 9462 01c0 5B8D     		ldrh	r3, [r3, #42]	@ movhi
 9463 01c2 9BB2     		uxth	r3, r3
 9464 01c4 013B     		subs	r3, r3, #1
 9465 01c6 9AB2     		uxth	r2, r3
 9466 01c8 7B68     		ldr	r3, [r7, #4]
 9467 01ca 5A85     		strh	r2, [r3, #42]	@ movhi
 9468              	.L566:
 9469 01cc 00BF     		nop
 9470 01ce 1037     		adds	r7, r7, #16
 9471 01d0 BD46     		mov	sp, r7
 9472              		@ sp needed
 9473 01d2 80BD     		pop	{r7, pc}
 9475              		.section	.text.I2C_Master_SB,"ax",%progbits
 9476              		.align	1
 9477              		.syntax unified
 9478              		.thumb
 9479              		.thumb_func
 9481              	I2C_Master_SB:
 9482              		@ args = 0, pretend = 0, frame = 8
 9483              		@ frame_needed = 1, uses_anonymous_args = 0
 9484              		@ link register save eliminated.
 9485 0000 80B4     		push	{r7}
 9486 0002 83B0     		sub	sp, sp, #12
 9487 0004 00AF     		add	r7, sp, #0
 9488 0006 7860     		str	r0, [r7, #4]
 9489 0008 7B68     		ldr	r3, [r7, #4]
 9490 000a 93F83E30 		ldrb	r3, [r3, #62]
 9491 000e DBB2     		uxtb	r3, r3
 9492 0010 402B     		cmp	r3, #64
 9493 0012 17D1     		bne	.L568
 9494 0014 7B68     		ldr	r3, [r7, #4]
 9495 0016 1B6D     		ldr	r3, [r3, #80]
 9496 0018 002B     		cmp	r3, #0
 9497 001a 09D1     		bne	.L569
 9498 001c 7B68     		ldr	r3, [r7, #4]
 9499 001e 5B6C     		ldr	r3, [r3, #68]
 9500 0020 DBB2     		uxtb	r3, r3
 9501 0022 1A46     		mov	r2, r3
 9502 0024 7B68     		ldr	r3, [r7, #4]
 9503 0026 1B68     		ldr	r3, [r3]
 9504 0028 02F0FE02 		and	r2, r2, #254
 9505 002c 1A61     		str	r2, [r3, #16]
 9506 002e 67E0     		b	.L577
 9507              	.L569:
 9508 0030 7B68     		ldr	r3, [r7, #4]
 9509 0032 5B6C     		ldr	r3, [r3, #68]
 9510 0034 DBB2     		uxtb	r3, r3
 9511 0036 43F00103 		orr	r3, r3, #1
 9512 003a DAB2     		uxtb	r2, r3
 9513 003c 7B68     		ldr	r3, [r7, #4]
 9514 003e 1B68     		ldr	r3, [r3]
ARM GAS  C:\Users\user\AppData\Local\Temp\cchxWhRb.s 			page 166


 9515 0040 1A61     		str	r2, [r3, #16]
 9516 0042 5DE0     		b	.L577
 9517              	.L568:
 9518 0044 7B68     		ldr	r3, [r7, #4]
 9519 0046 1B69     		ldr	r3, [r3, #16]
 9520 0048 B3F5804F 		cmp	r3, #16384
 9521 004c 33D1     		bne	.L571
 9522 004e 7B68     		ldr	r3, [r7, #4]
 9523 0050 93F83D30 		ldrb	r3, [r3, #61]
 9524 0054 DBB2     		uxtb	r3, r3
 9525 0056 212B     		cmp	r3, #33
 9526 0058 09D1     		bne	.L572
 9527 005a 7B68     		ldr	r3, [r7, #4]
 9528 005c 5B6C     		ldr	r3, [r3, #68]
 9529 005e DBB2     		uxtb	r3, r3
 9530 0060 1A46     		mov	r2, r3
 9531 0062 7B68     		ldr	r3, [r7, #4]
 9532 0064 1B68     		ldr	r3, [r3]
 9533 0066 02F0FE02 		and	r2, r2, #254
 9534 006a 1A61     		str	r2, [r3, #16]
 9535 006c 08E0     		b	.L573
 9536              	.L572:
 9537 006e 7B68     		ldr	r3, [r7, #4]
 9538 0070 5B6C     		ldr	r3, [r3, #68]
 9539 0072 DBB2     		uxtb	r3, r3
 9540 0074 43F00103 		orr	r3, r3, #1
 9541 0078 DAB2     		uxtb	r2, r3
 9542 007a 7B68     		ldr	r3, [r7, #4]
 9543 007c 1B68     		ldr	r3, [r3]
 9544 007e 1A61     		str	r2, [r3, #16]
 9545              	.L573:
 9546 0080 7B68     		ldr	r3, [r7, #4]
 9547 0082 5B6B     		ldr	r3, [r3, #52]
 9548 0084 002B     		cmp	r3, #0
 9549 0086 04D0     		beq	.L574
 9550 0088 7B68     		ldr	r3, [r7, #4]
 9551 008a 5B6B     		ldr	r3, [r3, #52]
 9552 008c DB6B     		ldr	r3, [r3, #60]
 9553 008e 002B     		cmp	r3, #0
 9554 0090 08D1     		bne	.L575
 9555              	.L574:
 9556 0092 7B68     		ldr	r3, [r7, #4]
 9557 0094 9B6B     		ldr	r3, [r3, #56]
 9558 0096 002B     		cmp	r3, #0
 9559 0098 32D0     		beq	.L577
 9560 009a 7B68     		ldr	r3, [r7, #4]
 9561 009c 9B6B     		ldr	r3, [r3, #56]
 9562 009e DB6B     		ldr	r3, [r3, #60]
 9563 00a0 002B     		cmp	r3, #0
 9564 00a2 2DD0     		beq	.L577
 9565              	.L575:
 9566 00a4 7B68     		ldr	r3, [r7, #4]
 9567 00a6 1B68     		ldr	r3, [r3]
 9568 00a8 5A68     		ldr	r2, [r3, #4]
 9569 00aa 7B68     		ldr	r3, [r7, #4]
 9570 00ac 1B68     		ldr	r3, [r3]
 9571 00ae 42F40062 		orr	r2, r2, #2048
ARM GAS  C:\Users\user\AppData\Local\Temp\cchxWhRb.s 			page 167


 9572 00b2 5A60     		str	r2, [r3, #4]
 9573 00b4 24E0     		b	.L577
 9574              	.L571:
 9575 00b6 7B68     		ldr	r3, [r7, #4]
 9576 00b8 1B6D     		ldr	r3, [r3, #80]
 9577 00ba 002B     		cmp	r3, #0
 9578 00bc 0ED1     		bne	.L576
 9579 00be 7B68     		ldr	r3, [r7, #4]
 9580 00c0 5B6C     		ldr	r3, [r3, #68]
 9581 00c2 9BB2     		uxth	r3, r3
 9582 00c4 DB11     		asrs	r3, r3, #7
 9583 00c6 DBB2     		uxtb	r3, r3
 9584 00c8 03F00603 		and	r3, r3, #6
 9585 00cc DBB2     		uxtb	r3, r3
 9586 00ce 63F00F03 		orn	r3, r3, #15
 9587 00d2 DAB2     		uxtb	r2, r3
 9588 00d4 7B68     		ldr	r3, [r7, #4]
 9589 00d6 1B68     		ldr	r3, [r3]
 9590 00d8 1A61     		str	r2, [r3, #16]
 9591 00da 11E0     		b	.L577
 9592              	.L576:
 9593 00dc 7B68     		ldr	r3, [r7, #4]
 9594 00de 1B6D     		ldr	r3, [r3, #80]
 9595 00e0 012B     		cmp	r3, #1
 9596 00e2 0DD1     		bne	.L577
 9597 00e4 7B68     		ldr	r3, [r7, #4]
 9598 00e6 5B6C     		ldr	r3, [r3, #68]
 9599 00e8 9BB2     		uxth	r3, r3
 9600 00ea DB11     		asrs	r3, r3, #7
 9601 00ec DBB2     		uxtb	r3, r3
 9602 00ee 03F00603 		and	r3, r3, #6
 9603 00f2 DBB2     		uxtb	r3, r3
 9604 00f4 63F00E03 		orn	r3, r3, #14
 9605 00f8 DAB2     		uxtb	r2, r3
 9606 00fa 7B68     		ldr	r3, [r7, #4]
 9607 00fc 1B68     		ldr	r3, [r3]
 9608 00fe 1A61     		str	r2, [r3, #16]
 9609              	.L577:
 9610 0100 00BF     		nop
 9611 0102 0C37     		adds	r7, r7, #12
 9612 0104 BD46     		mov	sp, r7
 9613              		@ sp needed
 9614 0106 5DF8047B 		ldr	r7, [sp], #4
 9615 010a 7047     		bx	lr
 9617              		.section	.text.I2C_Master_ADD10,"ax",%progbits
 9618              		.align	1
 9619              		.syntax unified
 9620              		.thumb
 9621              		.thumb_func
 9623              	I2C_Master_ADD10:
 9624              		@ args = 0, pretend = 0, frame = 8
 9625              		@ frame_needed = 1, uses_anonymous_args = 0
 9626              		@ link register save eliminated.
 9627 0000 80B4     		push	{r7}
 9628 0002 83B0     		sub	sp, sp, #12
 9629 0004 00AF     		add	r7, sp, #0
 9630 0006 7860     		str	r0, [r7, #4]
ARM GAS  C:\Users\user\AppData\Local\Temp\cchxWhRb.s 			page 168


 9631 0008 7B68     		ldr	r3, [r7, #4]
 9632 000a 5B6C     		ldr	r3, [r3, #68]
 9633 000c DAB2     		uxtb	r2, r3
 9634 000e 7B68     		ldr	r3, [r7, #4]
 9635 0010 1B68     		ldr	r3, [r3]
 9636 0012 1A61     		str	r2, [r3, #16]
 9637 0014 7B68     		ldr	r3, [r7, #4]
 9638 0016 5B6B     		ldr	r3, [r3, #52]
 9639 0018 002B     		cmp	r3, #0
 9640 001a 04D0     		beq	.L579
 9641 001c 7B68     		ldr	r3, [r7, #4]
 9642 001e 5B6B     		ldr	r3, [r3, #52]
 9643 0020 DB6B     		ldr	r3, [r3, #60]
 9644 0022 002B     		cmp	r3, #0
 9645 0024 08D1     		bne	.L580
 9646              	.L579:
 9647 0026 7B68     		ldr	r3, [r7, #4]
 9648 0028 9B6B     		ldr	r3, [r3, #56]
 9649 002a 002B     		cmp	r3, #0
 9650 002c 0CD0     		beq	.L582
 9651 002e 7B68     		ldr	r3, [r7, #4]
 9652 0030 9B6B     		ldr	r3, [r3, #56]
 9653 0032 DB6B     		ldr	r3, [r3, #60]
 9654 0034 002B     		cmp	r3, #0
 9655 0036 07D0     		beq	.L582
 9656              	.L580:
 9657 0038 7B68     		ldr	r3, [r7, #4]
 9658 003a 1B68     		ldr	r3, [r3]
 9659 003c 5A68     		ldr	r2, [r3, #4]
 9660 003e 7B68     		ldr	r3, [r7, #4]
 9661 0040 1B68     		ldr	r3, [r3]
 9662 0042 42F40062 		orr	r2, r2, #2048
 9663 0046 5A60     		str	r2, [r3, #4]
 9664              	.L582:
 9665 0048 00BF     		nop
 9666 004a 0C37     		adds	r7, r7, #12
 9667 004c BD46     		mov	sp, r7
 9668              		@ sp needed
 9669 004e 5DF8047B 		ldr	r7, [sp], #4
 9670 0052 7047     		bx	lr
 9672              		.section	.text.I2C_Master_ADDR,"ax",%progbits
 9673              		.align	1
 9674              		.syntax unified
 9675              		.thumb
 9676              		.thumb_func
 9678              	I2C_Master_ADDR:
 9679              		@ args = 0, pretend = 0, frame = 64
 9680              		@ frame_needed = 1, uses_anonymous_args = 0
 9681              		@ link register save eliminated.
 9682 0000 80B4     		push	{r7}
 9683 0002 91B0     		sub	sp, sp, #68
 9684 0004 00AF     		add	r7, sp, #0
 9685 0006 7860     		str	r0, [r7, #4]
 9686 0008 7B68     		ldr	r3, [r7, #4]
 9687 000a 93F83E30 		ldrb	r3, [r3, #62]
 9688 000e 87F83F30 		strb	r3, [r7, #63]
 9689 0012 7B68     		ldr	r3, [r7, #4]
ARM GAS  C:\Users\user\AppData\Local\Temp\cchxWhRb.s 			page 169


 9690 0014 DB6A     		ldr	r3, [r3, #44]
 9691 0016 BB63     		str	r3, [r7, #56]
 9692 0018 7B68     		ldr	r3, [r7, #4]
 9693 001a 1B6B     		ldr	r3, [r3, #48]
 9694 001c 7B63     		str	r3, [r7, #52]
 9695 001e 7B68     		ldr	r3, [r7, #4]
 9696 0020 93F83D30 		ldrb	r3, [r3, #61]
 9697 0024 DBB2     		uxtb	r3, r3
 9698 0026 222B     		cmp	r3, #34
 9699 0028 40F06981 		bne	.L584
 9700 002c 7B68     		ldr	r3, [r7, #4]
 9701 002e 1B6D     		ldr	r3, [r3, #80]
 9702 0030 002B     		cmp	r3, #0
 9703 0032 0FD1     		bne	.L585
 9704 0034 97F83F30 		ldrb	r3, [r7, #63]	@ zero_extendqisi2
 9705 0038 402B     		cmp	r3, #64
 9706 003a 0BD1     		bne	.L585
 9707 003c 0023     		movs	r3, #0
 9708 003e 3B63     		str	r3, [r7, #48]
 9709 0040 7B68     		ldr	r3, [r7, #4]
 9710 0042 1B68     		ldr	r3, [r3]
 9711 0044 5B69     		ldr	r3, [r3, #20]
 9712 0046 3B63     		str	r3, [r7, #48]
 9713 0048 7B68     		ldr	r3, [r7, #4]
 9714 004a 1B68     		ldr	r3, [r3]
 9715 004c 9B69     		ldr	r3, [r3, #24]
 9716 004e 3B63     		str	r3, [r7, #48]
 9717 0050 3B6B     		ldr	r3, [r7, #48]
 9718 0052 60E1     		b	.L605
 9719              	.L585:
 9720 0054 7B68     		ldr	r3, [r7, #4]
 9721 0056 1B6D     		ldr	r3, [r3, #80]
 9722 0058 002B     		cmp	r3, #0
 9723 005a 1DD1     		bne	.L587
 9724 005c 7B68     		ldr	r3, [r7, #4]
 9725 005e 1B69     		ldr	r3, [r3, #16]
 9726 0060 B3F5404F 		cmp	r3, #49152
 9727 0064 18D1     		bne	.L587
 9728 0066 0023     		movs	r3, #0
 9729 0068 FB62     		str	r3, [r7, #44]
 9730 006a 7B68     		ldr	r3, [r7, #4]
 9731 006c 1B68     		ldr	r3, [r3]
 9732 006e 5B69     		ldr	r3, [r3, #20]
 9733 0070 FB62     		str	r3, [r7, #44]
 9734 0072 7B68     		ldr	r3, [r7, #4]
 9735 0074 1B68     		ldr	r3, [r3]
 9736 0076 9B69     		ldr	r3, [r3, #24]
 9737 0078 FB62     		str	r3, [r7, #44]
 9738 007a FB6A     		ldr	r3, [r7, #44]
 9739 007c 7B68     		ldr	r3, [r7, #4]
 9740 007e 1B68     		ldr	r3, [r3]
 9741 0080 1A68     		ldr	r2, [r3]
 9742 0082 7B68     		ldr	r3, [r7, #4]
 9743 0084 1B68     		ldr	r3, [r3]
 9744 0086 42F48072 		orr	r2, r2, #256
 9745 008a 1A60     		str	r2, [r3]
 9746 008c 7B68     		ldr	r3, [r7, #4]
ARM GAS  C:\Users\user\AppData\Local\Temp\cchxWhRb.s 			page 170


 9747 008e 1B6D     		ldr	r3, [r3, #80]
 9748 0090 5A1C     		adds	r2, r3, #1
 9749 0092 7B68     		ldr	r3, [r7, #4]
 9750 0094 1A65     		str	r2, [r3, #80]
 9751 0096 3EE1     		b	.L605
 9752              	.L587:
 9753 0098 7B68     		ldr	r3, [r7, #4]
 9754 009a 5B8D     		ldrh	r3, [r3, #42]	@ movhi
 9755 009c 9BB2     		uxth	r3, r3
 9756 009e 002B     		cmp	r3, #0
 9757 00a0 13D1     		bne	.L588
 9758 00a2 0023     		movs	r3, #0
 9759 00a4 BB62     		str	r3, [r7, #40]
 9760 00a6 7B68     		ldr	r3, [r7, #4]
 9761 00a8 1B68     		ldr	r3, [r3]
 9762 00aa 5B69     		ldr	r3, [r3, #20]
 9763 00ac BB62     		str	r3, [r7, #40]
 9764 00ae 7B68     		ldr	r3, [r7, #4]
 9765 00b0 1B68     		ldr	r3, [r3]
 9766 00b2 9B69     		ldr	r3, [r3, #24]
 9767 00b4 BB62     		str	r3, [r7, #40]
 9768 00b6 BB6A     		ldr	r3, [r7, #40]
 9769 00b8 7B68     		ldr	r3, [r7, #4]
 9770 00ba 1B68     		ldr	r3, [r3]
 9771 00bc 1A68     		ldr	r2, [r3]
 9772 00be 7B68     		ldr	r3, [r7, #4]
 9773 00c0 1B68     		ldr	r3, [r3]
 9774 00c2 42F40072 		orr	r2, r2, #512
 9775 00c6 1A60     		str	r2, [r3]
 9776 00c8 15E1     		b	.L589
 9777              	.L588:
 9778 00ca 7B68     		ldr	r3, [r7, #4]
 9779 00cc 5B8D     		ldrh	r3, [r3, #42]	@ movhi
 9780 00ce 9BB2     		uxth	r3, r3
 9781 00d0 012B     		cmp	r3, #1
 9782 00d2 40F08A80 		bne	.L590
 9783 00d6 BB6B     		ldr	r3, [r7, #56]
 9784 00d8 13F5803F 		cmn	r3, #65536
 9785 00dc 37D1     		bne	.L591
 9786 00de 7B68     		ldr	r3, [r7, #4]
 9787 00e0 1B68     		ldr	r3, [r3]
 9788 00e2 1A68     		ldr	r2, [r3]
 9789 00e4 7B68     		ldr	r3, [r7, #4]
 9790 00e6 1B68     		ldr	r3, [r3]
 9791 00e8 22F48062 		bic	r2, r2, #1024
 9792 00ec 1A60     		str	r2, [r3]
 9793 00ee 7B68     		ldr	r3, [r7, #4]
 9794 00f0 1B68     		ldr	r3, [r3]
 9795 00f2 5B68     		ldr	r3, [r3, #4]
 9796 00f4 03F40063 		and	r3, r3, #2048
 9797 00f8 B3F5006F 		cmp	r3, #2048
 9798 00fc 13D1     		bne	.L592
 9799 00fe 7B68     		ldr	r3, [r7, #4]
 9800 0100 1B68     		ldr	r3, [r3]
 9801 0102 1A68     		ldr	r2, [r3]
 9802 0104 7B68     		ldr	r3, [r7, #4]
 9803 0106 1B68     		ldr	r3, [r3]
ARM GAS  C:\Users\user\AppData\Local\Temp\cchxWhRb.s 			page 171


 9804 0108 22F48062 		bic	r2, r2, #1024
 9805 010c 1A60     		str	r2, [r3]
 9806 010e 0023     		movs	r3, #0
 9807 0110 7B62     		str	r3, [r7, #36]
 9808 0112 7B68     		ldr	r3, [r7, #4]
 9809 0114 1B68     		ldr	r3, [r3]
 9810 0116 5B69     		ldr	r3, [r3, #20]
 9811 0118 7B62     		str	r3, [r7, #36]
 9812 011a 7B68     		ldr	r3, [r7, #4]
 9813 011c 1B68     		ldr	r3, [r3]
 9814 011e 9B69     		ldr	r3, [r3, #24]
 9815 0120 7B62     		str	r3, [r7, #36]
 9816 0122 7B6A     		ldr	r3, [r7, #36]
 9817 0124 E7E0     		b	.L589
 9818              	.L592:
 9819 0126 0023     		movs	r3, #0
 9820 0128 3B62     		str	r3, [r7, #32]
 9821 012a 7B68     		ldr	r3, [r7, #4]
 9822 012c 1B68     		ldr	r3, [r3]
 9823 012e 5B69     		ldr	r3, [r3, #20]
 9824 0130 3B62     		str	r3, [r7, #32]
 9825 0132 7B68     		ldr	r3, [r7, #4]
 9826 0134 1B68     		ldr	r3, [r3]
 9827 0136 9B69     		ldr	r3, [r3, #24]
 9828 0138 3B62     		str	r3, [r7, #32]
 9829 013a 3B6A     		ldr	r3, [r7, #32]
 9830 013c 7B68     		ldr	r3, [r7, #4]
 9831 013e 1B68     		ldr	r3, [r3]
 9832 0140 1A68     		ldr	r2, [r3]
 9833 0142 7B68     		ldr	r3, [r7, #4]
 9834 0144 1B68     		ldr	r3, [r3]
 9835 0146 42F40072 		orr	r2, r2, #512
 9836 014a 1A60     		str	r2, [r3]
 9837 014c D3E0     		b	.L589
 9838              	.L591:
 9839 014e BB6B     		ldr	r3, [r7, #56]
 9840 0150 082B     		cmp	r3, #8
 9841 0152 2ED0     		beq	.L594
 9842 0154 BB6B     		ldr	r3, [r7, #56]
 9843 0156 202B     		cmp	r3, #32
 9844 0158 2BD0     		beq	.L594
 9845 015a 7B6B     		ldr	r3, [r7, #52]
 9846 015c 122B     		cmp	r3, #18
 9847 015e 02D1     		bne	.L595
 9848 0160 BB6B     		ldr	r3, [r7, #56]
 9849 0162 012B     		cmp	r3, #1
 9850 0164 25D1     		bne	.L594
 9851              	.L595:
 9852 0166 BB6B     		ldr	r3, [r7, #56]
 9853 0168 042B     		cmp	r3, #4
 9854 016a 0ED0     		beq	.L596
 9855 016c BB6B     		ldr	r3, [r7, #56]
 9856 016e 022B     		cmp	r3, #2
 9857 0170 0BD0     		beq	.L596
 9858 0172 BB6B     		ldr	r3, [r7, #56]
 9859 0174 102B     		cmp	r3, #16
 9860 0176 08D0     		beq	.L596
ARM GAS  C:\Users\user\AppData\Local\Temp\cchxWhRb.s 			page 172


 9861 0178 7B68     		ldr	r3, [r7, #4]
 9862 017a 1B68     		ldr	r3, [r3]
 9863 017c 1A68     		ldr	r2, [r3]
 9864 017e 7B68     		ldr	r3, [r7, #4]
 9865 0180 1B68     		ldr	r3, [r3]
 9866 0182 22F48062 		bic	r2, r2, #1024
 9867 0186 1A60     		str	r2, [r3]
 9868 0188 07E0     		b	.L597
 9869              	.L596:
 9870 018a 7B68     		ldr	r3, [r7, #4]
 9871 018c 1B68     		ldr	r3, [r3]
 9872 018e 1A68     		ldr	r2, [r3]
 9873 0190 7B68     		ldr	r3, [r7, #4]
 9874 0192 1B68     		ldr	r3, [r3]
 9875 0194 42F48062 		orr	r2, r2, #1024
 9876 0198 1A60     		str	r2, [r3]
 9877              	.L597:
 9878 019a 0023     		movs	r3, #0
 9879 019c FB61     		str	r3, [r7, #28]
 9880 019e 7B68     		ldr	r3, [r7, #4]
 9881 01a0 1B68     		ldr	r3, [r3]
 9882 01a2 5B69     		ldr	r3, [r3, #20]
 9883 01a4 FB61     		str	r3, [r7, #28]
 9884 01a6 7B68     		ldr	r3, [r7, #4]
 9885 01a8 1B68     		ldr	r3, [r3]
 9886 01aa 9B69     		ldr	r3, [r3, #24]
 9887 01ac FB61     		str	r3, [r7, #28]
 9888 01ae FB69     		ldr	r3, [r7, #28]
 9889 01b0 A1E0     		b	.L589
 9890              	.L594:
 9891 01b2 7B68     		ldr	r3, [r7, #4]
 9892 01b4 1B68     		ldr	r3, [r3]
 9893 01b6 1A68     		ldr	r2, [r3]
 9894 01b8 7B68     		ldr	r3, [r7, #4]
 9895 01ba 1B68     		ldr	r3, [r3]
 9896 01bc 22F48062 		bic	r2, r2, #1024
 9897 01c0 1A60     		str	r2, [r3]
 9898 01c2 0023     		movs	r3, #0
 9899 01c4 BB61     		str	r3, [r7, #24]
 9900 01c6 7B68     		ldr	r3, [r7, #4]
 9901 01c8 1B68     		ldr	r3, [r3]
 9902 01ca 5B69     		ldr	r3, [r3, #20]
 9903 01cc BB61     		str	r3, [r7, #24]
 9904 01ce 7B68     		ldr	r3, [r7, #4]
 9905 01d0 1B68     		ldr	r3, [r3]
 9906 01d2 9B69     		ldr	r3, [r3, #24]
 9907 01d4 BB61     		str	r3, [r7, #24]
 9908 01d6 BB69     		ldr	r3, [r7, #24]
 9909 01d8 7B68     		ldr	r3, [r7, #4]
 9910 01da 1B68     		ldr	r3, [r3]
 9911 01dc 1A68     		ldr	r2, [r3]
 9912 01de 7B68     		ldr	r3, [r7, #4]
 9913 01e0 1B68     		ldr	r3, [r3]
 9914 01e2 42F40072 		orr	r2, r2, #512
 9915 01e6 1A60     		str	r2, [r3]
 9916 01e8 85E0     		b	.L589
 9917              	.L590:
ARM GAS  C:\Users\user\AppData\Local\Temp\cchxWhRb.s 			page 173


 9918 01ea 7B68     		ldr	r3, [r7, #4]
 9919 01ec 5B8D     		ldrh	r3, [r3, #42]	@ movhi
 9920 01ee 9BB2     		uxth	r3, r3
 9921 01f0 022B     		cmp	r3, #2
 9922 01f2 4DD1     		bne	.L598
 9923 01f4 BB6B     		ldr	r3, [r7, #56]
 9924 01f6 042B     		cmp	r3, #4
 9925 01f8 16D0     		beq	.L599
 9926 01fa BB6B     		ldr	r3, [r7, #56]
 9927 01fc 022B     		cmp	r3, #2
 9928 01fe 13D0     		beq	.L599
 9929 0200 BB6B     		ldr	r3, [r7, #56]
 9930 0202 102B     		cmp	r3, #16
 9931 0204 10D0     		beq	.L599
 9932 0206 7B68     		ldr	r3, [r7, #4]
 9933 0208 1B68     		ldr	r3, [r3]
 9934 020a 1A68     		ldr	r2, [r3]
 9935 020c 7B68     		ldr	r3, [r7, #4]
 9936 020e 1B68     		ldr	r3, [r3]
 9937 0210 22F48062 		bic	r2, r2, #1024
 9938 0214 1A60     		str	r2, [r3]
 9939 0216 7B68     		ldr	r3, [r7, #4]
 9940 0218 1B68     		ldr	r3, [r3]
 9941 021a 1A68     		ldr	r2, [r3]
 9942 021c 7B68     		ldr	r3, [r7, #4]
 9943 021e 1B68     		ldr	r3, [r3]
 9944 0220 42F40062 		orr	r2, r2, #2048
 9945 0224 1A60     		str	r2, [r3]
 9946 0226 07E0     		b	.L600
 9947              	.L599:
 9948 0228 7B68     		ldr	r3, [r7, #4]
 9949 022a 1B68     		ldr	r3, [r3]
 9950 022c 1A68     		ldr	r2, [r3]
 9951 022e 7B68     		ldr	r3, [r7, #4]
 9952 0230 1B68     		ldr	r3, [r3]
 9953 0232 42F48062 		orr	r2, r2, #1024
 9954 0236 1A60     		str	r2, [r3]
 9955              	.L600:
 9956 0238 7B68     		ldr	r3, [r7, #4]
 9957 023a 1B68     		ldr	r3, [r3]
 9958 023c 5B68     		ldr	r3, [r3, #4]
 9959 023e 03F40063 		and	r3, r3, #2048
 9960 0242 B3F5006F 		cmp	r3, #2048
 9961 0246 17D1     		bne	.L601
 9962 0248 BB6B     		ldr	r3, [r7, #56]
 9963 024a 13F5803F 		cmn	r3, #65536
 9964 024e 0BD0     		beq	.L602
 9965 0250 BB6B     		ldr	r3, [r7, #56]
 9966 0252 012B     		cmp	r3, #1
 9967 0254 08D0     		beq	.L602
 9968 0256 BB6B     		ldr	r3, [r7, #56]
 9969 0258 082B     		cmp	r3, #8
 9970 025a 05D0     		beq	.L602
 9971 025c BB6B     		ldr	r3, [r7, #56]
 9972 025e 102B     		cmp	r3, #16
 9973 0260 02D0     		beq	.L602
 9974 0262 BB6B     		ldr	r3, [r7, #56]
ARM GAS  C:\Users\user\AppData\Local\Temp\cchxWhRb.s 			page 174


 9975 0264 202B     		cmp	r3, #32
 9976 0266 07D1     		bne	.L601
 9977              	.L602:
 9978 0268 7B68     		ldr	r3, [r7, #4]
 9979 026a 1B68     		ldr	r3, [r3]
 9980 026c 5A68     		ldr	r2, [r3, #4]
 9981 026e 7B68     		ldr	r3, [r7, #4]
 9982 0270 1B68     		ldr	r3, [r3]
 9983 0272 42F48052 		orr	r2, r2, #4096
 9984 0276 5A60     		str	r2, [r3, #4]
 9985              	.L601:
 9986 0278 0023     		movs	r3, #0
 9987 027a 7B61     		str	r3, [r7, #20]
 9988 027c 7B68     		ldr	r3, [r7, #4]
 9989 027e 1B68     		ldr	r3, [r3]
 9990 0280 5B69     		ldr	r3, [r3, #20]
 9991 0282 7B61     		str	r3, [r7, #20]
 9992 0284 7B68     		ldr	r3, [r7, #4]
 9993 0286 1B68     		ldr	r3, [r3]
 9994 0288 9B69     		ldr	r3, [r3, #24]
 9995 028a 7B61     		str	r3, [r7, #20]
 9996 028c 7B69     		ldr	r3, [r7, #20]
 9997 028e 32E0     		b	.L589
 9998              	.L598:
 9999 0290 7B68     		ldr	r3, [r7, #4]
 10000 0292 1B68     		ldr	r3, [r3]
 10001 0294 1A68     		ldr	r2, [r3]
 10002 0296 7B68     		ldr	r3, [r7, #4]
 10003 0298 1B68     		ldr	r3, [r3]
 10004 029a 42F48062 		orr	r2, r2, #1024
 10005 029e 1A60     		str	r2, [r3]
 10006 02a0 7B68     		ldr	r3, [r7, #4]
 10007 02a2 1B68     		ldr	r3, [r3]
 10008 02a4 5B68     		ldr	r3, [r3, #4]
 10009 02a6 03F40063 		and	r3, r3, #2048
 10010 02aa B3F5006F 		cmp	r3, #2048
 10011 02ae 17D1     		bne	.L603
 10012 02b0 BB6B     		ldr	r3, [r7, #56]
 10013 02b2 13F5803F 		cmn	r3, #65536
 10014 02b6 0BD0     		beq	.L604
 10015 02b8 BB6B     		ldr	r3, [r7, #56]
 10016 02ba 012B     		cmp	r3, #1
 10017 02bc 08D0     		beq	.L604
 10018 02be BB6B     		ldr	r3, [r7, #56]
 10019 02c0 082B     		cmp	r3, #8
 10020 02c2 05D0     		beq	.L604
 10021 02c4 BB6B     		ldr	r3, [r7, #56]
 10022 02c6 102B     		cmp	r3, #16
 10023 02c8 02D0     		beq	.L604
 10024 02ca BB6B     		ldr	r3, [r7, #56]
 10025 02cc 202B     		cmp	r3, #32
 10026 02ce 07D1     		bne	.L603
 10027              	.L604:
 10028 02d0 7B68     		ldr	r3, [r7, #4]
 10029 02d2 1B68     		ldr	r3, [r3]
 10030 02d4 5A68     		ldr	r2, [r3, #4]
 10031 02d6 7B68     		ldr	r3, [r7, #4]
ARM GAS  C:\Users\user\AppData\Local\Temp\cchxWhRb.s 			page 175


 10032 02d8 1B68     		ldr	r3, [r3]
 10033 02da 42F48052 		orr	r2, r2, #4096
 10034 02de 5A60     		str	r2, [r3, #4]
 10035              	.L603:
 10036 02e0 0023     		movs	r3, #0
 10037 02e2 3B61     		str	r3, [r7, #16]
 10038 02e4 7B68     		ldr	r3, [r7, #4]
 10039 02e6 1B68     		ldr	r3, [r3]
 10040 02e8 5B69     		ldr	r3, [r3, #20]
 10041 02ea 3B61     		str	r3, [r7, #16]
 10042 02ec 7B68     		ldr	r3, [r7, #4]
 10043 02ee 1B68     		ldr	r3, [r3]
 10044 02f0 9B69     		ldr	r3, [r3, #24]
 10045 02f2 3B61     		str	r3, [r7, #16]
 10046 02f4 3B69     		ldr	r3, [r7, #16]
 10047              	.L589:
 10048 02f6 7B68     		ldr	r3, [r7, #4]
 10049 02f8 0022     		movs	r2, #0
 10050 02fa 1A65     		str	r2, [r3, #80]
 10051 02fc 0BE0     		b	.L606
 10052              	.L584:
 10053 02fe 0023     		movs	r3, #0
 10054 0300 FB60     		str	r3, [r7, #12]
 10055 0302 7B68     		ldr	r3, [r7, #4]
 10056 0304 1B68     		ldr	r3, [r3]
 10057 0306 5B69     		ldr	r3, [r3, #20]
 10058 0308 FB60     		str	r3, [r7, #12]
 10059 030a 7B68     		ldr	r3, [r7, #4]
 10060 030c 1B68     		ldr	r3, [r3]
 10061 030e 9B69     		ldr	r3, [r3, #24]
 10062 0310 FB60     		str	r3, [r7, #12]
 10063 0312 FB68     		ldr	r3, [r7, #12]
 10064 0314 FFE7     		b	.L606
 10065              	.L605:
 10066              	.L606:
 10067 0316 00BF     		nop
 10068 0318 4437     		adds	r7, r7, #68
 10069 031a BD46     		mov	sp, r7
 10070              		@ sp needed
 10071 031c 5DF8047B 		ldr	r7, [sp], #4
 10072 0320 7047     		bx	lr
 10074              		.section	.text.I2C_SlaveTransmit_TXE,"ax",%progbits
 10075              		.align	1
 10076              		.syntax unified
 10077              		.thumb
 10078              		.thumb_func
 10080              	I2C_SlaveTransmit_TXE:
 10081              		@ args = 0, pretend = 0, frame = 16
 10082              		@ frame_needed = 1, uses_anonymous_args = 0
 10083 0000 80B5     		push	{r7, lr}
 10084 0002 84B0     		sub	sp, sp, #16
 10085 0004 00AF     		add	r7, sp, #0
 10086 0006 7860     		str	r0, [r7, #4]
 10087 0008 7B68     		ldr	r3, [r7, #4]
 10088 000a 93F83D30 		ldrb	r3, [r3, #61]
 10089 000e FB73     		strb	r3, [r7, #15]
 10090 0010 7B68     		ldr	r3, [r7, #4]
ARM GAS  C:\Users\user\AppData\Local\Temp\cchxWhRb.s 			page 176


 10091 0012 5B8D     		ldrh	r3, [r3, #42]	@ movhi
 10092 0014 9BB2     		uxth	r3, r3
 10093 0016 002B     		cmp	r3, #0
 10094 0018 2BD0     		beq	.L609
 10095 001a 7B68     		ldr	r3, [r7, #4]
 10096 001c 5B6A     		ldr	r3, [r3, #36]
 10097 001e 1A78     		ldrb	r2, [r3]	@ zero_extendqisi2
 10098 0020 7B68     		ldr	r3, [r7, #4]
 10099 0022 1B68     		ldr	r3, [r3]
 10100 0024 1A61     		str	r2, [r3, #16]
 10101 0026 7B68     		ldr	r3, [r7, #4]
 10102 0028 5B6A     		ldr	r3, [r3, #36]
 10103 002a 5A1C     		adds	r2, r3, #1
 10104 002c 7B68     		ldr	r3, [r7, #4]
 10105 002e 5A62     		str	r2, [r3, #36]
 10106 0030 7B68     		ldr	r3, [r7, #4]
 10107 0032 5B8D     		ldrh	r3, [r3, #42]	@ movhi
 10108 0034 9BB2     		uxth	r3, r3
 10109 0036 013B     		subs	r3, r3, #1
 10110 0038 9AB2     		uxth	r2, r3
 10111 003a 7B68     		ldr	r3, [r7, #4]
 10112 003c 5A85     		strh	r2, [r3, #42]	@ movhi
 10113 003e 7B68     		ldr	r3, [r7, #4]
 10114 0040 5B8D     		ldrh	r3, [r3, #42]	@ movhi
 10115 0042 9BB2     		uxth	r3, r3
 10116 0044 002B     		cmp	r3, #0
 10117 0046 14D1     		bne	.L609
 10118 0048 FB7B     		ldrb	r3, [r7, #15]	@ zero_extendqisi2
 10119 004a 292B     		cmp	r3, #41
 10120 004c 11D1     		bne	.L609
 10121 004e 7B68     		ldr	r3, [r7, #4]
 10122 0050 1B68     		ldr	r3, [r3]
 10123 0052 5A68     		ldr	r2, [r3, #4]
 10124 0054 7B68     		ldr	r3, [r7, #4]
 10125 0056 1B68     		ldr	r3, [r3]
 10126 0058 22F48062 		bic	r2, r2, #1024
 10127 005c 5A60     		str	r2, [r3, #4]
 10128 005e 7B68     		ldr	r3, [r7, #4]
 10129 0060 2122     		movs	r2, #33
 10130 0062 1A63     		str	r2, [r3, #48]
 10131 0064 7B68     		ldr	r3, [r7, #4]
 10132 0066 2822     		movs	r2, #40
 10133 0068 83F83D20 		strb	r2, [r3, #61]
 10134 006c 7868     		ldr	r0, [r7, #4]
 10135 006e FFF7FEFF 		bl	HAL_I2C_SlaveTxCpltCallback
 10136              	.L609:
 10137 0072 00BF     		nop
 10138 0074 1037     		adds	r7, r7, #16
 10139 0076 BD46     		mov	sp, r7
 10140              		@ sp needed
 10141 0078 80BD     		pop	{r7, pc}
 10143              		.section	.text.I2C_SlaveTransmit_BTF,"ax",%progbits
 10144              		.align	1
 10145              		.syntax unified
 10146              		.thumb
 10147              		.thumb_func
 10149              	I2C_SlaveTransmit_BTF:
ARM GAS  C:\Users\user\AppData\Local\Temp\cchxWhRb.s 			page 177


 10150              		@ args = 0, pretend = 0, frame = 8
 10151              		@ frame_needed = 1, uses_anonymous_args = 0
 10152              		@ link register save eliminated.
 10153 0000 80B4     		push	{r7}
 10154 0002 83B0     		sub	sp, sp, #12
 10155 0004 00AF     		add	r7, sp, #0
 10156 0006 7860     		str	r0, [r7, #4]
 10157 0008 7B68     		ldr	r3, [r7, #4]
 10158 000a 5B8D     		ldrh	r3, [r3, #42]	@ movhi
 10159 000c 9BB2     		uxth	r3, r3
 10160 000e 002B     		cmp	r3, #0
 10161 0010 11D0     		beq	.L612
 10162 0012 7B68     		ldr	r3, [r7, #4]
 10163 0014 5B6A     		ldr	r3, [r3, #36]
 10164 0016 1A78     		ldrb	r2, [r3]	@ zero_extendqisi2
 10165 0018 7B68     		ldr	r3, [r7, #4]
 10166 001a 1B68     		ldr	r3, [r3]
 10167 001c 1A61     		str	r2, [r3, #16]
 10168 001e 7B68     		ldr	r3, [r7, #4]
 10169 0020 5B6A     		ldr	r3, [r3, #36]
 10170 0022 5A1C     		adds	r2, r3, #1
 10171 0024 7B68     		ldr	r3, [r7, #4]
 10172 0026 5A62     		str	r2, [r3, #36]
 10173 0028 7B68     		ldr	r3, [r7, #4]
 10174 002a 5B8D     		ldrh	r3, [r3, #42]	@ movhi
 10175 002c 9BB2     		uxth	r3, r3
 10176 002e 013B     		subs	r3, r3, #1
 10177 0030 9AB2     		uxth	r2, r3
 10178 0032 7B68     		ldr	r3, [r7, #4]
 10179 0034 5A85     		strh	r2, [r3, #42]	@ movhi
 10180              	.L612:
 10181 0036 00BF     		nop
 10182 0038 0C37     		adds	r7, r7, #12
 10183 003a BD46     		mov	sp, r7
 10184              		@ sp needed
 10185 003c 5DF8047B 		ldr	r7, [sp], #4
 10186 0040 7047     		bx	lr
 10188              		.section	.text.I2C_SlaveReceive_RXNE,"ax",%progbits
 10189              		.align	1
 10190              		.syntax unified
 10191              		.thumb
 10192              		.thumb_func
 10194              	I2C_SlaveReceive_RXNE:
 10195              		@ args = 0, pretend = 0, frame = 16
 10196              		@ frame_needed = 1, uses_anonymous_args = 0
 10197 0000 80B5     		push	{r7, lr}
 10198 0002 84B0     		sub	sp, sp, #16
 10199 0004 00AF     		add	r7, sp, #0
 10200 0006 7860     		str	r0, [r7, #4]
 10201 0008 7B68     		ldr	r3, [r7, #4]
 10202 000a 93F83D30 		ldrb	r3, [r3, #61]
 10203 000e FB73     		strb	r3, [r7, #15]
 10204 0010 7B68     		ldr	r3, [r7, #4]
 10205 0012 5B8D     		ldrh	r3, [r3, #42]	@ movhi
 10206 0014 9BB2     		uxth	r3, r3
 10207 0016 002B     		cmp	r3, #0
 10208 0018 2CD0     		beq	.L615
ARM GAS  C:\Users\user\AppData\Local\Temp\cchxWhRb.s 			page 178


 10209 001a 7B68     		ldr	r3, [r7, #4]
 10210 001c 1B68     		ldr	r3, [r3]
 10211 001e 1A69     		ldr	r2, [r3, #16]
 10212 0020 7B68     		ldr	r3, [r7, #4]
 10213 0022 5B6A     		ldr	r3, [r3, #36]
 10214 0024 D2B2     		uxtb	r2, r2
 10215 0026 1A70     		strb	r2, [r3]
 10216 0028 7B68     		ldr	r3, [r7, #4]
 10217 002a 5B6A     		ldr	r3, [r3, #36]
 10218 002c 5A1C     		adds	r2, r3, #1
 10219 002e 7B68     		ldr	r3, [r7, #4]
 10220 0030 5A62     		str	r2, [r3, #36]
 10221 0032 7B68     		ldr	r3, [r7, #4]
 10222 0034 5B8D     		ldrh	r3, [r3, #42]	@ movhi
 10223 0036 9BB2     		uxth	r3, r3
 10224 0038 013B     		subs	r3, r3, #1
 10225 003a 9AB2     		uxth	r2, r3
 10226 003c 7B68     		ldr	r3, [r7, #4]
 10227 003e 5A85     		strh	r2, [r3, #42]	@ movhi
 10228 0040 7B68     		ldr	r3, [r7, #4]
 10229 0042 5B8D     		ldrh	r3, [r3, #42]	@ movhi
 10230 0044 9BB2     		uxth	r3, r3
 10231 0046 002B     		cmp	r3, #0
 10232 0048 14D1     		bne	.L615
 10233 004a FB7B     		ldrb	r3, [r7, #15]	@ zero_extendqisi2
 10234 004c 2A2B     		cmp	r3, #42
 10235 004e 11D1     		bne	.L615
 10236 0050 7B68     		ldr	r3, [r7, #4]
 10237 0052 1B68     		ldr	r3, [r3]
 10238 0054 5A68     		ldr	r2, [r3, #4]
 10239 0056 7B68     		ldr	r3, [r7, #4]
 10240 0058 1B68     		ldr	r3, [r3]
 10241 005a 22F48062 		bic	r2, r2, #1024
 10242 005e 5A60     		str	r2, [r3, #4]
 10243 0060 7B68     		ldr	r3, [r7, #4]
 10244 0062 2222     		movs	r2, #34
 10245 0064 1A63     		str	r2, [r3, #48]
 10246 0066 7B68     		ldr	r3, [r7, #4]
 10247 0068 2822     		movs	r2, #40
 10248 006a 83F83D20 		strb	r2, [r3, #61]
 10249 006e 7868     		ldr	r0, [r7, #4]
 10250 0070 FFF7FEFF 		bl	HAL_I2C_SlaveRxCpltCallback
 10251              	.L615:
 10252 0074 00BF     		nop
 10253 0076 1037     		adds	r7, r7, #16
 10254 0078 BD46     		mov	sp, r7
 10255              		@ sp needed
 10256 007a 80BD     		pop	{r7, pc}
 10258              		.section	.text.I2C_SlaveReceive_BTF,"ax",%progbits
 10259              		.align	1
 10260              		.syntax unified
 10261              		.thumb
 10262              		.thumb_func
 10264              	I2C_SlaveReceive_BTF:
 10265              		@ args = 0, pretend = 0, frame = 8
 10266              		@ frame_needed = 1, uses_anonymous_args = 0
 10267              		@ link register save eliminated.
ARM GAS  C:\Users\user\AppData\Local\Temp\cchxWhRb.s 			page 179


 10268 0000 80B4     		push	{r7}
 10269 0002 83B0     		sub	sp, sp, #12
 10270 0004 00AF     		add	r7, sp, #0
 10271 0006 7860     		str	r0, [r7, #4]
 10272 0008 7B68     		ldr	r3, [r7, #4]
 10273 000a 5B8D     		ldrh	r3, [r3, #42]	@ movhi
 10274 000c 9BB2     		uxth	r3, r3
 10275 000e 002B     		cmp	r3, #0
 10276 0010 12D0     		beq	.L618
 10277 0012 7B68     		ldr	r3, [r7, #4]
 10278 0014 1B68     		ldr	r3, [r3]
 10279 0016 1A69     		ldr	r2, [r3, #16]
 10280 0018 7B68     		ldr	r3, [r7, #4]
 10281 001a 5B6A     		ldr	r3, [r3, #36]
 10282 001c D2B2     		uxtb	r2, r2
 10283 001e 1A70     		strb	r2, [r3]
 10284 0020 7B68     		ldr	r3, [r7, #4]
 10285 0022 5B6A     		ldr	r3, [r3, #36]
 10286 0024 5A1C     		adds	r2, r3, #1
 10287 0026 7B68     		ldr	r3, [r7, #4]
 10288 0028 5A62     		str	r2, [r3, #36]
 10289 002a 7B68     		ldr	r3, [r7, #4]
 10290 002c 5B8D     		ldrh	r3, [r3, #42]	@ movhi
 10291 002e 9BB2     		uxth	r3, r3
 10292 0030 013B     		subs	r3, r3, #1
 10293 0032 9AB2     		uxth	r2, r3
 10294 0034 7B68     		ldr	r3, [r7, #4]
 10295 0036 5A85     		strh	r2, [r3, #42]	@ movhi
 10296              	.L618:
 10297 0038 00BF     		nop
 10298 003a 0C37     		adds	r7, r7, #12
 10299 003c BD46     		mov	sp, r7
 10300              		@ sp needed
 10301 003e 5DF8047B 		ldr	r7, [sp], #4
 10302 0042 7047     		bx	lr
 10304              		.section	.text.I2C_Slave_ADDR,"ax",%progbits
 10305              		.align	1
 10306              		.syntax unified
 10307              		.thumb
 10308              		.thumb_func
 10310              	I2C_Slave_ADDR:
 10311              		@ args = 0, pretend = 0, frame = 16
 10312              		@ frame_needed = 1, uses_anonymous_args = 0
 10313 0000 80B5     		push	{r7, lr}
 10314 0002 84B0     		sub	sp, sp, #16
 10315 0004 00AF     		add	r7, sp, #0
 10316 0006 7860     		str	r0, [r7, #4]
 10317 0008 3960     		str	r1, [r7]
 10318 000a 0023     		movs	r3, #0
 10319 000c FB73     		strb	r3, [r7, #15]
 10320 000e 7B68     		ldr	r3, [r7, #4]
 10321 0010 93F83D30 		ldrb	r3, [r3, #61]
 10322 0014 DBB2     		uxtb	r3, r3
 10323 0016 03F02803 		and	r3, r3, #40
 10324 001a 282B     		cmp	r3, #40
 10325 001c 25D1     		bne	.L620
 10326 001e 7B68     		ldr	r3, [r7, #4]
ARM GAS  C:\Users\user\AppData\Local\Temp\cchxWhRb.s 			page 180


 10327 0020 1B68     		ldr	r3, [r3]
 10328 0022 5A68     		ldr	r2, [r3, #4]
 10329 0024 7B68     		ldr	r3, [r7, #4]
 10330 0026 1B68     		ldr	r3, [r3]
 10331 0028 22F48062 		bic	r2, r2, #1024
 10332 002c 5A60     		str	r2, [r3, #4]
 10333 002e 3B68     		ldr	r3, [r7]
 10334 0030 03F00403 		and	r3, r3, #4
 10335 0034 002B     		cmp	r3, #0
 10336 0036 01D1     		bne	.L621
 10337 0038 0123     		movs	r3, #1
 10338 003a FB73     		strb	r3, [r7, #15]
 10339              	.L621:
 10340 003c 3B68     		ldr	r3, [r7]
 10341 003e 03F08003 		and	r3, r3, #128
 10342 0042 002B     		cmp	r3, #0
 10343 0044 03D1     		bne	.L622
 10344 0046 7B68     		ldr	r3, [r7, #4]
 10345 0048 DB68     		ldr	r3, [r3, #12]
 10346 004a BB81     		strh	r3, [r7, #12]	@ movhi
 10347 004c 02E0     		b	.L623
 10348              	.L622:
 10349 004e 7B68     		ldr	r3, [r7, #4]
 10350 0050 9B69     		ldr	r3, [r3, #24]
 10351 0052 BB81     		strh	r3, [r7, #12]	@ movhi
 10352              	.L623:
 10353 0054 7B68     		ldr	r3, [r7, #4]
 10354 0056 0022     		movs	r2, #0
 10355 0058 83F83C20 		strb	r2, [r3, #60]
 10356 005c BA89     		ldrh	r2, [r7, #12]
 10357 005e FB7B     		ldrb	r3, [r7, #15]	@ zero_extendqisi2
 10358 0060 1946     		mov	r1, r3
 10359 0062 7868     		ldr	r0, [r7, #4]
 10360 0064 FFF7FEFF 		bl	HAL_I2C_AddrCallback
 10361 0068 0EE0     		b	.L625
 10362              	.L620:
 10363 006a 0023     		movs	r3, #0
 10364 006c BB60     		str	r3, [r7, #8]
 10365 006e 7B68     		ldr	r3, [r7, #4]
 10366 0070 1B68     		ldr	r3, [r3]
 10367 0072 5B69     		ldr	r3, [r3, #20]
 10368 0074 BB60     		str	r3, [r7, #8]
 10369 0076 7B68     		ldr	r3, [r7, #4]
 10370 0078 1B68     		ldr	r3, [r3]
 10371 007a 9B69     		ldr	r3, [r3, #24]
 10372 007c BB60     		str	r3, [r7, #8]
 10373 007e BB68     		ldr	r3, [r7, #8]
 10374 0080 7B68     		ldr	r3, [r7, #4]
 10375 0082 0022     		movs	r2, #0
 10376 0084 83F83C20 		strb	r2, [r3, #60]
 10377              	.L625:
 10378 0088 00BF     		nop
 10379 008a 1037     		adds	r7, r7, #16
 10380 008c BD46     		mov	sp, r7
 10381              		@ sp needed
 10382 008e 80BD     		pop	{r7, pc}
 10384              		.section	.text.I2C_Slave_STOPF,"ax",%progbits
ARM GAS  C:\Users\user\AppData\Local\Temp\cchxWhRb.s 			page 181


 10385              		.align	1
 10386              		.syntax unified
 10387              		.thumb
 10388              		.thumb_func
 10390              	I2C_Slave_STOPF:
 10391              		@ args = 0, pretend = 0, frame = 16
 10392              		@ frame_needed = 1, uses_anonymous_args = 0
 10393 0000 80B5     		push	{r7, lr}
 10394 0002 84B0     		sub	sp, sp, #16
 10395 0004 00AF     		add	r7, sp, #0
 10396 0006 7860     		str	r0, [r7, #4]
 10397 0008 7B68     		ldr	r3, [r7, #4]
 10398 000a 93F83D30 		ldrb	r3, [r3, #61]
 10399 000e FB73     		strb	r3, [r7, #15]
 10400 0010 7B68     		ldr	r3, [r7, #4]
 10401 0012 1B68     		ldr	r3, [r3]
 10402 0014 5A68     		ldr	r2, [r3, #4]
 10403 0016 7B68     		ldr	r3, [r7, #4]
 10404 0018 1B68     		ldr	r3, [r3]
 10405 001a 22F4E062 		bic	r2, r2, #1792
 10406 001e 5A60     		str	r2, [r3, #4]
 10407 0020 0023     		movs	r3, #0
 10408 0022 BB60     		str	r3, [r7, #8]
 10409 0024 7B68     		ldr	r3, [r7, #4]
 10410 0026 1B68     		ldr	r3, [r3]
 10411 0028 5B69     		ldr	r3, [r3, #20]
 10412 002a BB60     		str	r3, [r7, #8]
 10413 002c 7B68     		ldr	r3, [r7, #4]
 10414 002e 1B68     		ldr	r3, [r3]
 10415 0030 1A68     		ldr	r2, [r3]
 10416 0032 7B68     		ldr	r3, [r7, #4]
 10417 0034 1B68     		ldr	r3, [r3]
 10418 0036 42F00102 		orr	r2, r2, #1
 10419 003a 1A60     		str	r2, [r3]
 10420 003c BB68     		ldr	r3, [r7, #8]
 10421 003e 7B68     		ldr	r3, [r7, #4]
 10422 0040 1B68     		ldr	r3, [r3]
 10423 0042 1A68     		ldr	r2, [r3]
 10424 0044 7B68     		ldr	r3, [r7, #4]
 10425 0046 1B68     		ldr	r3, [r3]
 10426 0048 22F48062 		bic	r2, r2, #1024
 10427 004c 1A60     		str	r2, [r3]
 10428 004e 7B68     		ldr	r3, [r7, #4]
 10429 0050 1B68     		ldr	r3, [r3]
 10430 0052 5B68     		ldr	r3, [r3, #4]
 10431 0054 03F40063 		and	r3, r3, #2048
 10432 0058 B3F5006F 		cmp	r3, #2048
 10433 005c 72D1     		bne	.L627
 10434 005e FB7B     		ldrb	r3, [r7, #15]	@ zero_extendqisi2
 10435 0060 222B     		cmp	r3, #34
 10436 0062 02D0     		beq	.L628
 10437 0064 FB7B     		ldrb	r3, [r7, #15]	@ zero_extendqisi2
 10438 0066 2A2B     		cmp	r3, #42
 10439 0068 35D1     		bne	.L629
 10440              	.L628:
 10441 006a 7B68     		ldr	r3, [r7, #4]
 10442 006c 9B6B     		ldr	r3, [r3, #56]
ARM GAS  C:\Users\user\AppData\Local\Temp\cchxWhRb.s 			page 182


 10443 006e 1B68     		ldr	r3, [r3]
 10444 0070 5B68     		ldr	r3, [r3, #4]
 10445 0072 9AB2     		uxth	r2, r3
 10446 0074 7B68     		ldr	r3, [r7, #4]
 10447 0076 5A85     		strh	r2, [r3, #42]	@ movhi
 10448 0078 7B68     		ldr	r3, [r7, #4]
 10449 007a 5B8D     		ldrh	r3, [r3, #42]	@ movhi
 10450 007c 9BB2     		uxth	r3, r3
 10451 007e 002B     		cmp	r3, #0
 10452 0080 05D0     		beq	.L630
 10453 0082 7B68     		ldr	r3, [r7, #4]
 10454 0084 1B6C     		ldr	r3, [r3, #64]
 10455 0086 43F00402 		orr	r2, r3, #4
 10456 008a 7B68     		ldr	r3, [r7, #4]
 10457 008c 1A64     		str	r2, [r3, #64]
 10458              	.L630:
 10459 008e 7B68     		ldr	r3, [r7, #4]
 10460 0090 1B68     		ldr	r3, [r3]
 10461 0092 5A68     		ldr	r2, [r3, #4]
 10462 0094 7B68     		ldr	r3, [r7, #4]
 10463 0096 1B68     		ldr	r3, [r3]
 10464 0098 22F40062 		bic	r2, r2, #2048
 10465 009c 5A60     		str	r2, [r3, #4]
 10466 009e 7B68     		ldr	r3, [r7, #4]
 10467 00a0 9B6B     		ldr	r3, [r3, #56]
 10468 00a2 1846     		mov	r0, r3
 10469 00a4 FFF7FEFF 		bl	HAL_DMA_GetState
 10470 00a8 0346     		mov	r3, r0
 10471 00aa 012B     		cmp	r3, #1
 10472 00ac 49D0     		beq	.L641
 10473 00ae 7B68     		ldr	r3, [r7, #4]
 10474 00b0 9B6B     		ldr	r3, [r3, #56]
 10475 00b2 694A     		ldr	r2, .L643
 10476 00b4 1A65     		str	r2, [r3, #80]
 10477 00b6 7B68     		ldr	r3, [r7, #4]
 10478 00b8 9B6B     		ldr	r3, [r3, #56]
 10479 00ba 1846     		mov	r0, r3
 10480 00bc FFF7FEFF 		bl	HAL_DMA_Abort_IT
 10481 00c0 0346     		mov	r3, r0
 10482 00c2 002B     		cmp	r3, #0
 10483 00c4 3DD0     		beq	.L641
 10484 00c6 7B68     		ldr	r3, [r7, #4]
 10485 00c8 9B6B     		ldr	r3, [r3, #56]
 10486 00ca 1B6D     		ldr	r3, [r3, #80]
 10487 00cc 7A68     		ldr	r2, [r7, #4]
 10488 00ce 926B     		ldr	r2, [r2, #56]
 10489 00d0 1046     		mov	r0, r2
 10490 00d2 9847     		blx	r3
 10491 00d4 35E0     		b	.L641
 10492              	.L629:
 10493 00d6 7B68     		ldr	r3, [r7, #4]
 10494 00d8 5B6B     		ldr	r3, [r3, #52]
 10495 00da 1B68     		ldr	r3, [r3]
 10496 00dc 5B68     		ldr	r3, [r3, #4]
 10497 00de 9AB2     		uxth	r2, r3
 10498 00e0 7B68     		ldr	r3, [r7, #4]
 10499 00e2 5A85     		strh	r2, [r3, #42]	@ movhi
ARM GAS  C:\Users\user\AppData\Local\Temp\cchxWhRb.s 			page 183


 10500 00e4 7B68     		ldr	r3, [r7, #4]
 10501 00e6 5B8D     		ldrh	r3, [r3, #42]	@ movhi
 10502 00e8 9BB2     		uxth	r3, r3
 10503 00ea 002B     		cmp	r3, #0
 10504 00ec 05D0     		beq	.L632
 10505 00ee 7B68     		ldr	r3, [r7, #4]
 10506 00f0 1B6C     		ldr	r3, [r3, #64]
 10507 00f2 43F00402 		orr	r2, r3, #4
 10508 00f6 7B68     		ldr	r3, [r7, #4]
 10509 00f8 1A64     		str	r2, [r3, #64]
 10510              	.L632:
 10511 00fa 7B68     		ldr	r3, [r7, #4]
 10512 00fc 1B68     		ldr	r3, [r3]
 10513 00fe 5A68     		ldr	r2, [r3, #4]
 10514 0100 7B68     		ldr	r3, [r7, #4]
 10515 0102 1B68     		ldr	r3, [r3]
 10516 0104 22F40062 		bic	r2, r2, #2048
 10517 0108 5A60     		str	r2, [r3, #4]
 10518 010a 7B68     		ldr	r3, [r7, #4]
 10519 010c 5B6B     		ldr	r3, [r3, #52]
 10520 010e 1846     		mov	r0, r3
 10521 0110 FFF7FEFF 		bl	HAL_DMA_GetState
 10522 0114 0346     		mov	r3, r0
 10523 0116 012B     		cmp	r3, #1
 10524 0118 14D0     		beq	.L627
 10525 011a 7B68     		ldr	r3, [r7, #4]
 10526 011c 5B6B     		ldr	r3, [r3, #52]
 10527 011e 4E4A     		ldr	r2, .L643
 10528 0120 1A65     		str	r2, [r3, #80]
 10529 0122 7B68     		ldr	r3, [r7, #4]
 10530 0124 5B6B     		ldr	r3, [r3, #52]
 10531 0126 1846     		mov	r0, r3
 10532 0128 FFF7FEFF 		bl	HAL_DMA_Abort_IT
 10533 012c 0346     		mov	r3, r0
 10534 012e 002B     		cmp	r3, #0
 10535 0130 08D0     		beq	.L627
 10536 0132 7B68     		ldr	r3, [r7, #4]
 10537 0134 5B6B     		ldr	r3, [r3, #52]
 10538 0136 1B6D     		ldr	r3, [r3, #80]
 10539 0138 7A68     		ldr	r2, [r7, #4]
 10540 013a 526B     		ldr	r2, [r2, #52]
 10541 013c 1046     		mov	r0, r2
 10542 013e 9847     		blx	r3
 10543 0140 00E0     		b	.L627
 10544              	.L641:
 10545 0142 00BF     		nop
 10546              	.L627:
 10547 0144 7B68     		ldr	r3, [r7, #4]
 10548 0146 5B8D     		ldrh	r3, [r3, #42]	@ movhi
 10549 0148 9BB2     		uxth	r3, r3
 10550 014a 002B     		cmp	r3, #0
 10551 014c 3ED0     		beq	.L633
 10552 014e 7B68     		ldr	r3, [r7, #4]
 10553 0150 1B68     		ldr	r3, [r3]
 10554 0152 5B69     		ldr	r3, [r3, #20]
 10555 0154 03F00403 		and	r3, r3, #4
 10556 0158 042B     		cmp	r3, #4
ARM GAS  C:\Users\user\AppData\Local\Temp\cchxWhRb.s 			page 184


 10557 015a 12D1     		bne	.L634
 10558 015c 7B68     		ldr	r3, [r7, #4]
 10559 015e 1B68     		ldr	r3, [r3]
 10560 0160 1A69     		ldr	r2, [r3, #16]
 10561 0162 7B68     		ldr	r3, [r7, #4]
 10562 0164 5B6A     		ldr	r3, [r3, #36]
 10563 0166 D2B2     		uxtb	r2, r2
 10564 0168 1A70     		strb	r2, [r3]
 10565 016a 7B68     		ldr	r3, [r7, #4]
 10566 016c 5B6A     		ldr	r3, [r3, #36]
 10567 016e 5A1C     		adds	r2, r3, #1
 10568 0170 7B68     		ldr	r3, [r7, #4]
 10569 0172 5A62     		str	r2, [r3, #36]
 10570 0174 7B68     		ldr	r3, [r7, #4]
 10571 0176 5B8D     		ldrh	r3, [r3, #42]	@ movhi
 10572 0178 9BB2     		uxth	r3, r3
 10573 017a 013B     		subs	r3, r3, #1
 10574 017c 9AB2     		uxth	r2, r3
 10575 017e 7B68     		ldr	r3, [r7, #4]
 10576 0180 5A85     		strh	r2, [r3, #42]	@ movhi
 10577              	.L634:
 10578 0182 7B68     		ldr	r3, [r7, #4]
 10579 0184 1B68     		ldr	r3, [r3]
 10580 0186 5B69     		ldr	r3, [r3, #20]
 10581 0188 03F04003 		and	r3, r3, #64
 10582 018c 402B     		cmp	r3, #64
 10583 018e 12D1     		bne	.L635
 10584 0190 7B68     		ldr	r3, [r7, #4]
 10585 0192 1B68     		ldr	r3, [r3]
 10586 0194 1A69     		ldr	r2, [r3, #16]
 10587 0196 7B68     		ldr	r3, [r7, #4]
 10588 0198 5B6A     		ldr	r3, [r3, #36]
 10589 019a D2B2     		uxtb	r2, r2
 10590 019c 1A70     		strb	r2, [r3]
 10591 019e 7B68     		ldr	r3, [r7, #4]
 10592 01a0 5B6A     		ldr	r3, [r3, #36]
 10593 01a2 5A1C     		adds	r2, r3, #1
 10594 01a4 7B68     		ldr	r3, [r7, #4]
 10595 01a6 5A62     		str	r2, [r3, #36]
 10596 01a8 7B68     		ldr	r3, [r7, #4]
 10597 01aa 5B8D     		ldrh	r3, [r3, #42]	@ movhi
 10598 01ac 9BB2     		uxth	r3, r3
 10599 01ae 013B     		subs	r3, r3, #1
 10600 01b0 9AB2     		uxth	r2, r3
 10601 01b2 7B68     		ldr	r3, [r7, #4]
 10602 01b4 5A85     		strh	r2, [r3, #42]	@ movhi
 10603              	.L635:
 10604 01b6 7B68     		ldr	r3, [r7, #4]
 10605 01b8 5B8D     		ldrh	r3, [r3, #42]	@ movhi
 10606 01ba 9BB2     		uxth	r3, r3
 10607 01bc 002B     		cmp	r3, #0
 10608 01be 05D0     		beq	.L633
 10609 01c0 7B68     		ldr	r3, [r7, #4]
 10610 01c2 1B6C     		ldr	r3, [r3, #64]
 10611 01c4 43F00402 		orr	r2, r3, #4
 10612 01c8 7B68     		ldr	r3, [r7, #4]
 10613 01ca 1A64     		str	r2, [r3, #64]
ARM GAS  C:\Users\user\AppData\Local\Temp\cchxWhRb.s 			page 185


 10614              	.L633:
 10615 01cc 7B68     		ldr	r3, [r7, #4]
 10616 01ce 1B6C     		ldr	r3, [r3, #64]
 10617 01d0 002B     		cmp	r3, #0
 10618 01d2 03D0     		beq	.L636
 10619 01d4 7868     		ldr	r0, [r7, #4]
 10620 01d6 FFF7FEFF 		bl	I2C_ITError
 10621 01da 39E0     		b	.L642
 10622              	.L636:
 10623 01dc FB7B     		ldrb	r3, [r7, #15]	@ zero_extendqisi2
 10624 01de 2A2B     		cmp	r3, #42
 10625 01e0 09D1     		bne	.L638
 10626 01e2 7B68     		ldr	r3, [r7, #4]
 10627 01e4 0022     		movs	r2, #0
 10628 01e6 1A63     		str	r2, [r3, #48]
 10629 01e8 7B68     		ldr	r3, [r7, #4]
 10630 01ea 2822     		movs	r2, #40
 10631 01ec 83F83D20 		strb	r2, [r3, #61]
 10632 01f0 7868     		ldr	r0, [r7, #4]
 10633 01f2 FFF7FEFF 		bl	HAL_I2C_SlaveRxCpltCallback
 10634              	.L638:
 10635 01f6 7B68     		ldr	r3, [r7, #4]
 10636 01f8 93F83D30 		ldrb	r3, [r3, #61]
 10637 01fc DBB2     		uxtb	r3, r3
 10638 01fe 282B     		cmp	r3, #40
 10639 0200 11D1     		bne	.L639
 10640 0202 7B68     		ldr	r3, [r7, #4]
 10641 0204 154A     		ldr	r2, .L643+4
 10642 0206 DA62     		str	r2, [r3, #44]
 10643 0208 7B68     		ldr	r3, [r7, #4]
 10644 020a 0022     		movs	r2, #0
 10645 020c 1A63     		str	r2, [r3, #48]
 10646 020e 7B68     		ldr	r3, [r7, #4]
 10647 0210 2022     		movs	r2, #32
 10648 0212 83F83D20 		strb	r2, [r3, #61]
 10649 0216 7B68     		ldr	r3, [r7, #4]
 10650 0218 0022     		movs	r2, #0
 10651 021a 83F83E20 		strb	r2, [r3, #62]
 10652 021e 7868     		ldr	r0, [r7, #4]
 10653 0220 FFF7FEFF 		bl	HAL_I2C_ListenCpltCallback
 10654 0224 14E0     		b	.L642
 10655              	.L639:
 10656 0226 7B68     		ldr	r3, [r7, #4]
 10657 0228 1B6B     		ldr	r3, [r3, #48]
 10658 022a 222B     		cmp	r3, #34
 10659 022c 02D0     		beq	.L640
 10660 022e FB7B     		ldrb	r3, [r7, #15]	@ zero_extendqisi2
 10661 0230 222B     		cmp	r3, #34
 10662 0232 0DD1     		bne	.L642
 10663              	.L640:
 10664 0234 7B68     		ldr	r3, [r7, #4]
 10665 0236 0022     		movs	r2, #0
 10666 0238 1A63     		str	r2, [r3, #48]
 10667 023a 7B68     		ldr	r3, [r7, #4]
 10668 023c 2022     		movs	r2, #32
 10669 023e 83F83D20 		strb	r2, [r3, #61]
 10670 0242 7B68     		ldr	r3, [r7, #4]
ARM GAS  C:\Users\user\AppData\Local\Temp\cchxWhRb.s 			page 186


 10671 0244 0022     		movs	r2, #0
 10672 0246 83F83E20 		strb	r2, [r3, #62]
 10673 024a 7868     		ldr	r0, [r7, #4]
 10674 024c FFF7FEFF 		bl	HAL_I2C_SlaveRxCpltCallback
 10675              	.L642:
 10676 0250 00BF     		nop
 10677 0252 1037     		adds	r7, r7, #16
 10678 0254 BD46     		mov	sp, r7
 10679              		@ sp needed
 10680 0256 80BD     		pop	{r7, pc}
 10681              	.L644:
 10682              		.align	2
 10683              	.L643:
 10684 0258 00000000 		.word	I2C_DMAAbort
 10685 025c 0000FFFF 		.word	-65536
 10687              		.section	.text.I2C_Slave_AF,"ax",%progbits
 10688              		.align	1
 10689              		.syntax unified
 10690              		.thumb
 10691              		.thumb_func
 10693              	I2C_Slave_AF:
 10694              		@ args = 0, pretend = 0, frame = 16
 10695              		@ frame_needed = 1, uses_anonymous_args = 0
 10696 0000 80B5     		push	{r7, lr}
 10697 0002 84B0     		sub	sp, sp, #16
 10698 0004 00AF     		add	r7, sp, #0
 10699 0006 7860     		str	r0, [r7, #4]
 10700 0008 7B68     		ldr	r3, [r7, #4]
 10701 000a 93F83D30 		ldrb	r3, [r3, #61]
 10702 000e FB73     		strb	r3, [r7, #15]
 10703 0010 7B68     		ldr	r3, [r7, #4]
 10704 0012 DB6A     		ldr	r3, [r3, #44]
 10705 0014 BB60     		str	r3, [r7, #8]
 10706 0016 BB68     		ldr	r3, [r7, #8]
 10707 0018 082B     		cmp	r3, #8
 10708 001a 02D0     		beq	.L646
 10709 001c BB68     		ldr	r3, [r7, #8]
 10710 001e 202B     		cmp	r3, #32
 10711 0020 29D1     		bne	.L647
 10712              	.L646:
 10713 0022 FB7B     		ldrb	r3, [r7, #15]	@ zero_extendqisi2
 10714 0024 282B     		cmp	r3, #40
 10715 0026 26D1     		bne	.L647
 10716 0028 7B68     		ldr	r3, [r7, #4]
 10717 002a 2C4A     		ldr	r2, .L651
 10718 002c DA62     		str	r2, [r3, #44]
 10719 002e 7B68     		ldr	r3, [r7, #4]
 10720 0030 1B68     		ldr	r3, [r3]
 10721 0032 5A68     		ldr	r2, [r3, #4]
 10722 0034 7B68     		ldr	r3, [r7, #4]
 10723 0036 1B68     		ldr	r3, [r3]
 10724 0038 22F4E062 		bic	r2, r2, #1792
 10725 003c 5A60     		str	r2, [r3, #4]
 10726 003e 7B68     		ldr	r3, [r7, #4]
 10727 0040 1B68     		ldr	r3, [r3]
 10728 0042 6FF48062 		mvn	r2, #1024
 10729 0046 5A61     		str	r2, [r3, #20]
ARM GAS  C:\Users\user\AppData\Local\Temp\cchxWhRb.s 			page 187


 10730 0048 7B68     		ldr	r3, [r7, #4]
 10731 004a 1B68     		ldr	r3, [r3]
 10732 004c 1A68     		ldr	r2, [r3]
 10733 004e 7B68     		ldr	r3, [r7, #4]
 10734 0050 1B68     		ldr	r3, [r3]
 10735 0052 22F48062 		bic	r2, r2, #1024
 10736 0056 1A60     		str	r2, [r3]
 10737 0058 7B68     		ldr	r3, [r7, #4]
 10738 005a 0022     		movs	r2, #0
 10739 005c 1A63     		str	r2, [r3, #48]
 10740 005e 7B68     		ldr	r3, [r7, #4]
 10741 0060 2022     		movs	r2, #32
 10742 0062 83F83D20 		strb	r2, [r3, #61]
 10743 0066 7B68     		ldr	r3, [r7, #4]
 10744 0068 0022     		movs	r2, #0
 10745 006a 83F83E20 		strb	r2, [r3, #62]
 10746 006e 7868     		ldr	r0, [r7, #4]
 10747 0070 FFF7FEFF 		bl	HAL_I2C_ListenCpltCallback
 10748 0074 2EE0     		b	.L650
 10749              	.L647:
 10750 0076 FB7B     		ldrb	r3, [r7, #15]	@ zero_extendqisi2
 10751 0078 212B     		cmp	r3, #33
 10752 007a 26D1     		bne	.L649
 10753 007c 7B68     		ldr	r3, [r7, #4]
 10754 007e 174A     		ldr	r2, .L651
 10755 0080 DA62     		str	r2, [r3, #44]
 10756 0082 7B68     		ldr	r3, [r7, #4]
 10757 0084 2122     		movs	r2, #33
 10758 0086 1A63     		str	r2, [r3, #48]
 10759 0088 7B68     		ldr	r3, [r7, #4]
 10760 008a 2022     		movs	r2, #32
 10761 008c 83F83D20 		strb	r2, [r3, #61]
 10762 0090 7B68     		ldr	r3, [r7, #4]
 10763 0092 0022     		movs	r2, #0
 10764 0094 83F83E20 		strb	r2, [r3, #62]
 10765 0098 7B68     		ldr	r3, [r7, #4]
 10766 009a 1B68     		ldr	r3, [r3]
 10767 009c 5A68     		ldr	r2, [r3, #4]
 10768 009e 7B68     		ldr	r3, [r7, #4]
 10769 00a0 1B68     		ldr	r3, [r3]
 10770 00a2 22F4E062 		bic	r2, r2, #1792
 10771 00a6 5A60     		str	r2, [r3, #4]
 10772 00a8 7B68     		ldr	r3, [r7, #4]
 10773 00aa 1B68     		ldr	r3, [r3]
 10774 00ac 6FF48062 		mvn	r2, #1024
 10775 00b0 5A61     		str	r2, [r3, #20]
 10776 00b2 7B68     		ldr	r3, [r7, #4]
 10777 00b4 1B68     		ldr	r3, [r3]
 10778 00b6 1A68     		ldr	r2, [r3]
 10779 00b8 7B68     		ldr	r3, [r7, #4]
 10780 00ba 1B68     		ldr	r3, [r3]
 10781 00bc 22F48062 		bic	r2, r2, #1024
 10782 00c0 1A60     		str	r2, [r3]
 10783 00c2 7868     		ldr	r0, [r7, #4]
 10784 00c4 FFF7FEFF 		bl	HAL_I2C_SlaveTxCpltCallback
 10785 00c8 04E0     		b	.L650
 10786              	.L649:
ARM GAS  C:\Users\user\AppData\Local\Temp\cchxWhRb.s 			page 188


 10787 00ca 7B68     		ldr	r3, [r7, #4]
 10788 00cc 1B68     		ldr	r3, [r3]
 10789 00ce 6FF48062 		mvn	r2, #1024
 10790 00d2 5A61     		str	r2, [r3, #20]
 10791              	.L650:
 10792 00d4 00BF     		nop
 10793 00d6 1037     		adds	r7, r7, #16
 10794 00d8 BD46     		mov	sp, r7
 10795              		@ sp needed
 10796 00da 80BD     		pop	{r7, pc}
 10797              	.L652:
 10798              		.align	2
 10799              	.L651:
 10800 00dc 0000FFFF 		.word	-65536
 10802              		.section	.text.I2C_ITError,"ax",%progbits
 10803              		.align	1
 10804              		.syntax unified
 10805              		.thumb
 10806              		.thumb_func
 10808              	I2C_ITError:
 10809              		@ args = 0, pretend = 0, frame = 16
 10810              		@ frame_needed = 1, uses_anonymous_args = 0
 10811 0000 80B5     		push	{r7, lr}
 10812 0002 84B0     		sub	sp, sp, #16
 10813 0004 00AF     		add	r7, sp, #0
 10814 0006 7860     		str	r0, [r7, #4]
 10815 0008 7B68     		ldr	r3, [r7, #4]
 10816 000a 93F83D30 		ldrb	r3, [r3, #61]
 10817 000e FB73     		strb	r3, [r7, #15]
 10818 0010 7B68     		ldr	r3, [r7, #4]
 10819 0012 93F83E30 		ldrb	r3, [r3, #62]
 10820 0016 BB73     		strb	r3, [r7, #14]
 10821 0018 BB7B     		ldrb	r3, [r7, #14]	@ zero_extendqisi2
 10822 001a 102B     		cmp	r3, #16
 10823 001c 02D0     		beq	.L654
 10824 001e BB7B     		ldrb	r3, [r7, #14]	@ zero_extendqisi2
 10825 0020 402B     		cmp	r3, #64
 10826 0022 0AD1     		bne	.L655
 10827              	.L654:
 10828 0024 FB7B     		ldrb	r3, [r7, #15]	@ zero_extendqisi2
 10829 0026 222B     		cmp	r3, #34
 10830 0028 07D1     		bne	.L655
 10831 002a 7B68     		ldr	r3, [r7, #4]
 10832 002c 1B68     		ldr	r3, [r3]
 10833 002e 1A68     		ldr	r2, [r3]
 10834 0030 7B68     		ldr	r3, [r7, #4]
 10835 0032 1B68     		ldr	r3, [r3]
 10836 0034 22F40062 		bic	r2, r2, #2048
 10837 0038 1A60     		str	r2, [r3]
 10838              	.L655:
 10839 003a FB7B     		ldrb	r3, [r7, #15]	@ zero_extendqisi2
 10840 003c 03F02803 		and	r3, r3, #40
 10841 0040 282B     		cmp	r3, #40
 10842 0042 07D1     		bne	.L656
 10843 0044 7B68     		ldr	r3, [r7, #4]
 10844 0046 0022     		movs	r2, #0
 10845 0048 1A63     		str	r2, [r3, #48]
ARM GAS  C:\Users\user\AppData\Local\Temp\cchxWhRb.s 			page 189


 10846 004a 7B68     		ldr	r3, [r7, #4]
 10847 004c 2822     		movs	r2, #40
 10848 004e 83F83D20 		strb	r2, [r3, #61]
 10849 0052 15E0     		b	.L657
 10850              	.L656:
 10851 0054 7B68     		ldr	r3, [r7, #4]
 10852 0056 1B68     		ldr	r3, [r3]
 10853 0058 5B68     		ldr	r3, [r3, #4]
 10854 005a 03F40063 		and	r3, r3, #2048
 10855 005e B3F5006F 		cmp	r3, #2048
 10856 0062 0AD0     		beq	.L658
 10857 0064 FB7B     		ldrb	r3, [r7, #15]	@ zero_extendqisi2
 10858 0066 602B     		cmp	r3, #96
 10859 0068 07D0     		beq	.L658
 10860 006a 7B68     		ldr	r3, [r7, #4]
 10861 006c 2022     		movs	r2, #32
 10862 006e 83F83D20 		strb	r2, [r3, #61]
 10863 0072 7B68     		ldr	r3, [r7, #4]
 10864 0074 0022     		movs	r2, #0
 10865 0076 83F83E20 		strb	r2, [r3, #62]
 10866              	.L658:
 10867 007a 7B68     		ldr	r3, [r7, #4]
 10868 007c 0022     		movs	r2, #0
 10869 007e 1A63     		str	r2, [r3, #48]
 10870              	.L657:
 10871 0080 7B68     		ldr	r3, [r7, #4]
 10872 0082 1B68     		ldr	r3, [r3]
 10873 0084 5B68     		ldr	r3, [r3, #4]
 10874 0086 03F40063 		and	r3, r3, #2048
 10875 008a B3F5006F 		cmp	r3, #2048
 10876 008e 62D1     		bne	.L659
 10877 0090 7B68     		ldr	r3, [r7, #4]
 10878 0092 1B68     		ldr	r3, [r3]
 10879 0094 5A68     		ldr	r2, [r3, #4]
 10880 0096 7B68     		ldr	r3, [r7, #4]
 10881 0098 1B68     		ldr	r3, [r3]
 10882 009a 22F40062 		bic	r2, r2, #2048
 10883 009e 5A60     		str	r2, [r3, #4]
 10884 00a0 7B68     		ldr	r3, [r7, #4]
 10885 00a2 5B6B     		ldr	r3, [r3, #52]
 10886 00a4 93F83530 		ldrb	r3, [r3, #53]
 10887 00a8 DBB2     		uxtb	r3, r3
 10888 00aa 012B     		cmp	r3, #1
 10889 00ac 20D0     		beq	.L660
 10890 00ae 7B68     		ldr	r3, [r7, #4]
 10891 00b0 5B6B     		ldr	r3, [r3, #52]
 10892 00b2 6A4A     		ldr	r2, .L670
 10893 00b4 1A65     		str	r2, [r3, #80]
 10894 00b6 7B68     		ldr	r3, [r7, #4]
 10895 00b8 5B6B     		ldr	r3, [r3, #52]
 10896 00ba 1846     		mov	r0, r3
 10897 00bc FFF7FEFF 		bl	HAL_DMA_Abort_IT
 10898 00c0 0346     		mov	r3, r0
 10899 00c2 002B     		cmp	r3, #0
 10900 00c4 00F08980 		beq	.L661
 10901 00c8 7B68     		ldr	r3, [r7, #4]
 10902 00ca 1B68     		ldr	r3, [r3]
ARM GAS  C:\Users\user\AppData\Local\Temp\cchxWhRb.s 			page 190


 10903 00cc 1A68     		ldr	r2, [r3]
 10904 00ce 7B68     		ldr	r3, [r7, #4]
 10905 00d0 1B68     		ldr	r3, [r3]
 10906 00d2 22F00102 		bic	r2, r2, #1
 10907 00d6 1A60     		str	r2, [r3]
 10908 00d8 7B68     		ldr	r3, [r7, #4]
 10909 00da 2022     		movs	r2, #32
 10910 00dc 83F83D20 		strb	r2, [r3, #61]
 10911 00e0 7B68     		ldr	r3, [r7, #4]
 10912 00e2 5B6B     		ldr	r3, [r3, #52]
 10913 00e4 1B6D     		ldr	r3, [r3, #80]
 10914 00e6 7A68     		ldr	r2, [r7, #4]
 10915 00e8 526B     		ldr	r2, [r2, #52]
 10916 00ea 1046     		mov	r0, r2
 10917 00ec 9847     		blx	r3
 10918 00ee 74E0     		b	.L661
 10919              	.L660:
 10920 00f0 7B68     		ldr	r3, [r7, #4]
 10921 00f2 9B6B     		ldr	r3, [r3, #56]
 10922 00f4 594A     		ldr	r2, .L670
 10923 00f6 1A65     		str	r2, [r3, #80]
 10924 00f8 7B68     		ldr	r3, [r7, #4]
 10925 00fa 9B6B     		ldr	r3, [r3, #56]
 10926 00fc 1846     		mov	r0, r3
 10927 00fe FFF7FEFF 		bl	HAL_DMA_Abort_IT
 10928 0102 0346     		mov	r3, r0
 10929 0104 002B     		cmp	r3, #0
 10930 0106 68D0     		beq	.L661
 10931 0108 7B68     		ldr	r3, [r7, #4]
 10932 010a 1B68     		ldr	r3, [r3]
 10933 010c 5B69     		ldr	r3, [r3, #20]
 10934 010e 03F04003 		and	r3, r3, #64
 10935 0112 402B     		cmp	r3, #64
 10936 0114 0BD1     		bne	.L662
 10937 0116 7B68     		ldr	r3, [r7, #4]
 10938 0118 1B68     		ldr	r3, [r3]
 10939 011a 1A69     		ldr	r2, [r3, #16]
 10940 011c 7B68     		ldr	r3, [r7, #4]
 10941 011e 5B6A     		ldr	r3, [r3, #36]
 10942 0120 D2B2     		uxtb	r2, r2
 10943 0122 1A70     		strb	r2, [r3]
 10944 0124 7B68     		ldr	r3, [r7, #4]
 10945 0126 5B6A     		ldr	r3, [r3, #36]
 10946 0128 5A1C     		adds	r2, r3, #1
 10947 012a 7B68     		ldr	r3, [r7, #4]
 10948 012c 5A62     		str	r2, [r3, #36]
 10949              	.L662:
 10950 012e 7B68     		ldr	r3, [r7, #4]
 10951 0130 1B68     		ldr	r3, [r3]
 10952 0132 1A68     		ldr	r2, [r3]
 10953 0134 7B68     		ldr	r3, [r7, #4]
 10954 0136 1B68     		ldr	r3, [r3]
 10955 0138 22F00102 		bic	r2, r2, #1
 10956 013c 1A60     		str	r2, [r3]
 10957 013e 7B68     		ldr	r3, [r7, #4]
 10958 0140 2022     		movs	r2, #32
 10959 0142 83F83D20 		strb	r2, [r3, #61]
ARM GAS  C:\Users\user\AppData\Local\Temp\cchxWhRb.s 			page 191


 10960 0146 7B68     		ldr	r3, [r7, #4]
 10961 0148 9B6B     		ldr	r3, [r3, #56]
 10962 014a 1B6D     		ldr	r3, [r3, #80]
 10963 014c 7A68     		ldr	r2, [r7, #4]
 10964 014e 926B     		ldr	r2, [r2, #56]
 10965 0150 1046     		mov	r0, r2
 10966 0152 9847     		blx	r3
 10967 0154 41E0     		b	.L661
 10968              	.L659:
 10969 0156 7B68     		ldr	r3, [r7, #4]
 10970 0158 93F83D30 		ldrb	r3, [r3, #61]
 10971 015c DBB2     		uxtb	r3, r3
 10972 015e 602B     		cmp	r3, #96
 10973 0160 25D1     		bne	.L663
 10974 0162 7B68     		ldr	r3, [r7, #4]
 10975 0164 2022     		movs	r2, #32
 10976 0166 83F83D20 		strb	r2, [r3, #61]
 10977 016a 7B68     		ldr	r3, [r7, #4]
 10978 016c 0022     		movs	r2, #0
 10979 016e 1A64     		str	r2, [r3, #64]
 10980 0170 7B68     		ldr	r3, [r7, #4]
 10981 0172 1B68     		ldr	r3, [r3]
 10982 0174 5B69     		ldr	r3, [r3, #20]
 10983 0176 03F04003 		and	r3, r3, #64
 10984 017a 402B     		cmp	r3, #64
 10985 017c 0BD1     		bne	.L664
 10986 017e 7B68     		ldr	r3, [r7, #4]
 10987 0180 1B68     		ldr	r3, [r3]
 10988 0182 1A69     		ldr	r2, [r3, #16]
 10989 0184 7B68     		ldr	r3, [r7, #4]
 10990 0186 5B6A     		ldr	r3, [r3, #36]
 10991 0188 D2B2     		uxtb	r2, r2
 10992 018a 1A70     		strb	r2, [r3]
 10993 018c 7B68     		ldr	r3, [r7, #4]
 10994 018e 5B6A     		ldr	r3, [r3, #36]
 10995 0190 5A1C     		adds	r2, r3, #1
 10996 0192 7B68     		ldr	r3, [r7, #4]
 10997 0194 5A62     		str	r2, [r3, #36]
 10998              	.L664:
 10999 0196 7B68     		ldr	r3, [r7, #4]
 11000 0198 1B68     		ldr	r3, [r3]
 11001 019a 1A68     		ldr	r2, [r3]
 11002 019c 7B68     		ldr	r3, [r7, #4]
 11003 019e 1B68     		ldr	r3, [r3]
 11004 01a0 22F00102 		bic	r2, r2, #1
 11005 01a4 1A60     		str	r2, [r3]
 11006 01a6 7868     		ldr	r0, [r7, #4]
 11007 01a8 FFF7FEFF 		bl	HAL_I2C_AbortCpltCallback
 11008 01ac 15E0     		b	.L661
 11009              	.L663:
 11010 01ae 7B68     		ldr	r3, [r7, #4]
 11011 01b0 1B68     		ldr	r3, [r3]
 11012 01b2 5B69     		ldr	r3, [r3, #20]
 11013 01b4 03F04003 		and	r3, r3, #64
 11014 01b8 402B     		cmp	r3, #64
 11015 01ba 0BD1     		bne	.L665
 11016 01bc 7B68     		ldr	r3, [r7, #4]
ARM GAS  C:\Users\user\AppData\Local\Temp\cchxWhRb.s 			page 192


 11017 01be 1B68     		ldr	r3, [r3]
 11018 01c0 1A69     		ldr	r2, [r3, #16]
 11019 01c2 7B68     		ldr	r3, [r7, #4]
 11020 01c4 5B6A     		ldr	r3, [r3, #36]
 11021 01c6 D2B2     		uxtb	r2, r2
 11022 01c8 1A70     		strb	r2, [r3]
 11023 01ca 7B68     		ldr	r3, [r7, #4]
 11024 01cc 5B6A     		ldr	r3, [r3, #36]
 11025 01ce 5A1C     		adds	r2, r3, #1
 11026 01d0 7B68     		ldr	r3, [r7, #4]
 11027 01d2 5A62     		str	r2, [r3, #36]
 11028              	.L665:
 11029 01d4 7868     		ldr	r0, [r7, #4]
 11030 01d6 FFF7FEFF 		bl	HAL_I2C_ErrorCallback
 11031              	.L661:
 11032 01da 7B68     		ldr	r3, [r7, #4]
 11033 01dc 1B6C     		ldr	r3, [r3, #64]
 11034 01de BB60     		str	r3, [r7, #8]
 11035 01e0 BB68     		ldr	r3, [r7, #8]
 11036 01e2 03F00103 		and	r3, r3, #1
 11037 01e6 002B     		cmp	r3, #0
 11038 01e8 0ED1     		bne	.L666
 11039 01ea BB68     		ldr	r3, [r7, #8]
 11040 01ec 03F00203 		and	r3, r3, #2
 11041 01f0 002B     		cmp	r3, #0
 11042 01f2 09D1     		bne	.L666
 11043 01f4 BB68     		ldr	r3, [r7, #8]
 11044 01f6 03F00403 		and	r3, r3, #4
 11045 01fa 002B     		cmp	r3, #0
 11046 01fc 04D1     		bne	.L666
 11047 01fe BB68     		ldr	r3, [r7, #8]
 11048 0200 03F00803 		and	r3, r3, #8
 11049 0204 002B     		cmp	r3, #0
 11050 0206 07D0     		beq	.L667
 11051              	.L666:
 11052 0208 7B68     		ldr	r3, [r7, #4]
 11053 020a 1B68     		ldr	r3, [r3]
 11054 020c 5A68     		ldr	r2, [r3, #4]
 11055 020e 7B68     		ldr	r3, [r7, #4]
 11056 0210 1B68     		ldr	r3, [r3]
 11057 0212 22F4E062 		bic	r2, r2, #1792
 11058 0216 5A60     		str	r2, [r3, #4]
 11059              	.L667:
 11060 0218 7B68     		ldr	r3, [r7, #4]
 11061 021a 93F83D30 		ldrb	r3, [r3, #61]
 11062 021e FB73     		strb	r3, [r7, #15]
 11063 0220 7B68     		ldr	r3, [r7, #4]
 11064 0222 1B6C     		ldr	r3, [r3, #64]
 11065 0224 03F00403 		and	r3, r3, #4
 11066 0228 042B     		cmp	r3, #4
 11067 022a 13D1     		bne	.L669
 11068 022c FB7B     		ldrb	r3, [r7, #15]	@ zero_extendqisi2
 11069 022e 282B     		cmp	r3, #40
 11070 0230 10D1     		bne	.L669
 11071 0232 7B68     		ldr	r3, [r7, #4]
 11072 0234 0A4A     		ldr	r2, .L670+4
 11073 0236 DA62     		str	r2, [r3, #44]
ARM GAS  C:\Users\user\AppData\Local\Temp\cchxWhRb.s 			page 193


 11074 0238 7B68     		ldr	r3, [r7, #4]
 11075 023a 0022     		movs	r2, #0
 11076 023c 1A63     		str	r2, [r3, #48]
 11077 023e 7B68     		ldr	r3, [r7, #4]
 11078 0240 2022     		movs	r2, #32
 11079 0242 83F83D20 		strb	r2, [r3, #61]
 11080 0246 7B68     		ldr	r3, [r7, #4]
 11081 0248 0022     		movs	r2, #0
 11082 024a 83F83E20 		strb	r2, [r3, #62]
 11083 024e 7868     		ldr	r0, [r7, #4]
 11084 0250 FFF7FEFF 		bl	HAL_I2C_ListenCpltCallback
 11085              	.L669:
 11086 0254 00BF     		nop
 11087 0256 1037     		adds	r7, r7, #16
 11088 0258 BD46     		mov	sp, r7
 11089              		@ sp needed
 11090 025a 80BD     		pop	{r7, pc}
 11091              	.L671:
 11092              		.align	2
 11093              	.L670:
 11094 025c 00000000 		.word	I2C_DMAAbort
 11095 0260 0000FFFF 		.word	-65536
 11097              		.section	.text.I2C_MasterRequestWrite,"ax",%progbits
 11098              		.align	1
 11099              		.syntax unified
 11100              		.thumb
 11101              		.thumb_func
 11103              	I2C_MasterRequestWrite:
 11104              		@ args = 0, pretend = 0, frame = 24
 11105              		@ frame_needed = 1, uses_anonymous_args = 0
 11106 0000 80B5     		push	{r7, lr}
 11107 0002 88B0     		sub	sp, sp, #32
 11108 0004 02AF     		add	r7, sp, #8
 11109 0006 F860     		str	r0, [r7, #12]
 11110 0008 7A60     		str	r2, [r7, #4]
 11111 000a 3B60     		str	r3, [r7]
 11112 000c 0B46     		mov	r3, r1	@ movhi
 11113 000e 7B81     		strh	r3, [r7, #10]	@ movhi
 11114 0010 FB68     		ldr	r3, [r7, #12]
 11115 0012 DB6A     		ldr	r3, [r3, #44]
 11116 0014 7B61     		str	r3, [r7, #20]
 11117 0016 7B69     		ldr	r3, [r7, #20]
 11118 0018 082B     		cmp	r3, #8
 11119 001a 06D0     		beq	.L673
 11120 001c 7B69     		ldr	r3, [r7, #20]
 11121 001e 012B     		cmp	r3, #1
 11122 0020 03D0     		beq	.L673
 11123 0022 7B69     		ldr	r3, [r7, #20]
 11124 0024 13F5803F 		cmn	r3, #65536
 11125 0028 08D1     		bne	.L674
 11126              	.L673:
 11127 002a FB68     		ldr	r3, [r7, #12]
 11128 002c 1B68     		ldr	r3, [r3]
 11129 002e 1A68     		ldr	r2, [r3]
 11130 0030 FB68     		ldr	r3, [r7, #12]
 11131 0032 1B68     		ldr	r3, [r3]
 11132 0034 42F48072 		orr	r2, r2, #256
ARM GAS  C:\Users\user\AppData\Local\Temp\cchxWhRb.s 			page 194


 11133 0038 1A60     		str	r2, [r3]
 11134 003a 0BE0     		b	.L675
 11135              	.L674:
 11136 003c FB68     		ldr	r3, [r7, #12]
 11137 003e 1B6B     		ldr	r3, [r3, #48]
 11138 0040 122B     		cmp	r3, #18
 11139 0042 07D1     		bne	.L675
 11140 0044 FB68     		ldr	r3, [r7, #12]
 11141 0046 1B68     		ldr	r3, [r3]
 11142 0048 1A68     		ldr	r2, [r3]
 11143 004a FB68     		ldr	r3, [r7, #12]
 11144 004c 1B68     		ldr	r3, [r3]
 11145 004e 42F48072 		orr	r2, r2, #256
 11146 0052 1A60     		str	r2, [r3]
 11147              	.L675:
 11148 0054 3B68     		ldr	r3, [r7]
 11149 0056 0093     		str	r3, [sp]
 11150 0058 7B68     		ldr	r3, [r7, #4]
 11151 005a 0022     		movs	r2, #0
 11152 005c 4FF00111 		mov	r1, #65537
 11153 0060 F868     		ldr	r0, [r7, #12]
 11154 0062 FFF7FEFF 		bl	I2C_WaitOnFlagUntilTimeout
 11155 0066 0346     		mov	r3, r0
 11156 0068 002B     		cmp	r3, #0
 11157 006a 0DD0     		beq	.L676
 11158 006c FB68     		ldr	r3, [r7, #12]
 11159 006e 1B68     		ldr	r3, [r3]
 11160 0070 1B68     		ldr	r3, [r3]
 11161 0072 03F48073 		and	r3, r3, #256
 11162 0076 B3F5807F 		cmp	r3, #256
 11163 007a 03D1     		bne	.L677
 11164 007c FB68     		ldr	r3, [r7, #12]
 11165 007e 4FF40072 		mov	r2, #512
 11166 0082 1A64     		str	r2, [r3, #64]
 11167              	.L677:
 11168 0084 0323     		movs	r3, #3
 11169 0086 35E0     		b	.L678
 11170              	.L676:
 11171 0088 FB68     		ldr	r3, [r7, #12]
 11172 008a 1B69     		ldr	r3, [r3, #16]
 11173 008c B3F5804F 		cmp	r3, #16384
 11174 0090 08D1     		bne	.L679
 11175 0092 7B89     		ldrh	r3, [r7, #10]	@ movhi
 11176 0094 DBB2     		uxtb	r3, r3
 11177 0096 1A46     		mov	r2, r3
 11178 0098 FB68     		ldr	r3, [r7, #12]
 11179 009a 1B68     		ldr	r3, [r3]
 11180 009c 02F0FE02 		and	r2, r2, #254
 11181 00a0 1A61     		str	r2, [r3, #16]
 11182 00a2 1BE0     		b	.L680
 11183              	.L679:
 11184 00a4 7B89     		ldrh	r3, [r7, #10]
 11185 00a6 DB11     		asrs	r3, r3, #7
 11186 00a8 DBB2     		uxtb	r3, r3
 11187 00aa 03F00603 		and	r3, r3, #6
 11188 00ae DBB2     		uxtb	r3, r3
 11189 00b0 63F00F03 		orn	r3, r3, #15
ARM GAS  C:\Users\user\AppData\Local\Temp\cchxWhRb.s 			page 195


 11190 00b4 DAB2     		uxtb	r2, r3
 11191 00b6 FB68     		ldr	r3, [r7, #12]
 11192 00b8 1B68     		ldr	r3, [r3]
 11193 00ba 1A61     		str	r2, [r3, #16]
 11194 00bc 3B68     		ldr	r3, [r7]
 11195 00be 7A68     		ldr	r2, [r7, #4]
 11196 00c0 0E49     		ldr	r1, .L683
 11197 00c2 F868     		ldr	r0, [r7, #12]
 11198 00c4 FFF7FEFF 		bl	I2C_WaitOnMasterAddressFlagUntilTimeout
 11199 00c8 0346     		mov	r3, r0
 11200 00ca 002B     		cmp	r3, #0
 11201 00cc 01D0     		beq	.L681
 11202 00ce 0123     		movs	r3, #1
 11203 00d0 10E0     		b	.L678
 11204              	.L681:
 11205 00d2 7B89     		ldrh	r3, [r7, #10]	@ movhi
 11206 00d4 DAB2     		uxtb	r2, r3
 11207 00d6 FB68     		ldr	r3, [r7, #12]
 11208 00d8 1B68     		ldr	r3, [r3]
 11209 00da 1A61     		str	r2, [r3, #16]
 11210              	.L680:
 11211 00dc 3B68     		ldr	r3, [r7]
 11212 00de 7A68     		ldr	r2, [r7, #4]
 11213 00e0 0749     		ldr	r1, .L683+4
 11214 00e2 F868     		ldr	r0, [r7, #12]
 11215 00e4 FFF7FEFF 		bl	I2C_WaitOnMasterAddressFlagUntilTimeout
 11216 00e8 0346     		mov	r3, r0
 11217 00ea 002B     		cmp	r3, #0
 11218 00ec 01D0     		beq	.L682
 11219 00ee 0123     		movs	r3, #1
 11220 00f0 00E0     		b	.L678
 11221              	.L682:
 11222 00f2 0023     		movs	r3, #0
 11223              	.L678:
 11224 00f4 1846     		mov	r0, r3
 11225 00f6 1837     		adds	r7, r7, #24
 11226 00f8 BD46     		mov	sp, r7
 11227              		@ sp needed
 11228 00fa 80BD     		pop	{r7, pc}
 11229              	.L684:
 11230              		.align	2
 11231              	.L683:
 11232 00fc 08000100 		.word	65544
 11233 0100 02000100 		.word	65538
 11235              		.section	.text.I2C_MasterRequestRead,"ax",%progbits
 11236              		.align	1
 11237              		.syntax unified
 11238              		.thumb
 11239              		.thumb_func
 11241              	I2C_MasterRequestRead:
 11242              		@ args = 0, pretend = 0, frame = 24
 11243              		@ frame_needed = 1, uses_anonymous_args = 0
 11244 0000 80B5     		push	{r7, lr}
 11245 0002 88B0     		sub	sp, sp, #32
 11246 0004 02AF     		add	r7, sp, #8
 11247 0006 F860     		str	r0, [r7, #12]
 11248 0008 7A60     		str	r2, [r7, #4]
ARM GAS  C:\Users\user\AppData\Local\Temp\cchxWhRb.s 			page 196


 11249 000a 3B60     		str	r3, [r7]
 11250 000c 0B46     		mov	r3, r1	@ movhi
 11251 000e 7B81     		strh	r3, [r7, #10]	@ movhi
 11252 0010 FB68     		ldr	r3, [r7, #12]
 11253 0012 DB6A     		ldr	r3, [r3, #44]
 11254 0014 7B61     		str	r3, [r7, #20]
 11255 0016 FB68     		ldr	r3, [r7, #12]
 11256 0018 1B68     		ldr	r3, [r3]
 11257 001a 1A68     		ldr	r2, [r3]
 11258 001c FB68     		ldr	r3, [r7, #12]
 11259 001e 1B68     		ldr	r3, [r3]
 11260 0020 42F48062 		orr	r2, r2, #1024
 11261 0024 1A60     		str	r2, [r3]
 11262 0026 7B69     		ldr	r3, [r7, #20]
 11263 0028 082B     		cmp	r3, #8
 11264 002a 06D0     		beq	.L686
 11265 002c 7B69     		ldr	r3, [r7, #20]
 11266 002e 012B     		cmp	r3, #1
 11267 0030 03D0     		beq	.L686
 11268 0032 7B69     		ldr	r3, [r7, #20]
 11269 0034 13F5803F 		cmn	r3, #65536
 11270 0038 08D1     		bne	.L687
 11271              	.L686:
 11272 003a FB68     		ldr	r3, [r7, #12]
 11273 003c 1B68     		ldr	r3, [r3]
 11274 003e 1A68     		ldr	r2, [r3]
 11275 0040 FB68     		ldr	r3, [r7, #12]
 11276 0042 1B68     		ldr	r3, [r3]
 11277 0044 42F48072 		orr	r2, r2, #256
 11278 0048 1A60     		str	r2, [r3]
 11279 004a 0BE0     		b	.L688
 11280              	.L687:
 11281 004c FB68     		ldr	r3, [r7, #12]
 11282 004e 1B6B     		ldr	r3, [r3, #48]
 11283 0050 112B     		cmp	r3, #17
 11284 0052 07D1     		bne	.L688
 11285 0054 FB68     		ldr	r3, [r7, #12]
 11286 0056 1B68     		ldr	r3, [r3]
 11287 0058 1A68     		ldr	r2, [r3]
 11288 005a FB68     		ldr	r3, [r7, #12]
 11289 005c 1B68     		ldr	r3, [r3]
 11290 005e 42F48072 		orr	r2, r2, #256
 11291 0062 1A60     		str	r2, [r3]
 11292              	.L688:
 11293 0064 3B68     		ldr	r3, [r7]
 11294 0066 0093     		str	r3, [sp]
 11295 0068 7B68     		ldr	r3, [r7, #4]
 11296 006a 0022     		movs	r2, #0
 11297 006c 4FF00111 		mov	r1, #65537
 11298 0070 F868     		ldr	r0, [r7, #12]
 11299 0072 FFF7FEFF 		bl	I2C_WaitOnFlagUntilTimeout
 11300 0076 0346     		mov	r3, r0
 11301 0078 002B     		cmp	r3, #0
 11302 007a 0DD0     		beq	.L689
 11303 007c FB68     		ldr	r3, [r7, #12]
 11304 007e 1B68     		ldr	r3, [r3]
 11305 0080 1B68     		ldr	r3, [r3]
ARM GAS  C:\Users\user\AppData\Local\Temp\cchxWhRb.s 			page 197


 11306 0082 03F48073 		and	r3, r3, #256
 11307 0086 B3F5807F 		cmp	r3, #256
 11308 008a 03D1     		bne	.L690
 11309 008c FB68     		ldr	r3, [r7, #12]
 11310 008e 4FF40072 		mov	r2, #512
 11311 0092 1A64     		str	r2, [r3, #64]
 11312              	.L690:
 11313 0094 0323     		movs	r3, #3
 11314 0096 79E0     		b	.L691
 11315              	.L689:
 11316 0098 FB68     		ldr	r3, [r7, #12]
 11317 009a 1B69     		ldr	r3, [r3, #16]
 11318 009c B3F5804F 		cmp	r3, #16384
 11319 00a0 08D1     		bne	.L692
 11320 00a2 7B89     		ldrh	r3, [r7, #10]	@ movhi
 11321 00a4 DBB2     		uxtb	r3, r3
 11322 00a6 43F00103 		orr	r3, r3, #1
 11323 00aa DAB2     		uxtb	r2, r3
 11324 00ac FB68     		ldr	r3, [r7, #12]
 11325 00ae 1B68     		ldr	r3, [r3]
 11326 00b0 1A61     		str	r2, [r3, #16]
 11327 00b2 5FE0     		b	.L693
 11328              	.L692:
 11329 00b4 7B89     		ldrh	r3, [r7, #10]
 11330 00b6 DB11     		asrs	r3, r3, #7
 11331 00b8 DBB2     		uxtb	r3, r3
 11332 00ba 03F00603 		and	r3, r3, #6
 11333 00be DBB2     		uxtb	r3, r3
 11334 00c0 63F00F03 		orn	r3, r3, #15
 11335 00c4 DAB2     		uxtb	r2, r3
 11336 00c6 FB68     		ldr	r3, [r7, #12]
 11337 00c8 1B68     		ldr	r3, [r3]
 11338 00ca 1A61     		str	r2, [r3, #16]
 11339 00cc 3B68     		ldr	r3, [r7]
 11340 00ce 7A68     		ldr	r2, [r7, #4]
 11341 00d0 3049     		ldr	r1, .L699
 11342 00d2 F868     		ldr	r0, [r7, #12]
 11343 00d4 FFF7FEFF 		bl	I2C_WaitOnMasterAddressFlagUntilTimeout
 11344 00d8 0346     		mov	r3, r0
 11345 00da 002B     		cmp	r3, #0
 11346 00dc 01D0     		beq	.L694
 11347 00de 0123     		movs	r3, #1
 11348 00e0 54E0     		b	.L691
 11349              	.L694:
 11350 00e2 7B89     		ldrh	r3, [r7, #10]	@ movhi
 11351 00e4 DAB2     		uxtb	r2, r3
 11352 00e6 FB68     		ldr	r3, [r7, #12]
 11353 00e8 1B68     		ldr	r3, [r3]
 11354 00ea 1A61     		str	r2, [r3, #16]
 11355 00ec 3B68     		ldr	r3, [r7]
 11356 00ee 7A68     		ldr	r2, [r7, #4]
 11357 00f0 2949     		ldr	r1, .L699+4
 11358 00f2 F868     		ldr	r0, [r7, #12]
 11359 00f4 FFF7FEFF 		bl	I2C_WaitOnMasterAddressFlagUntilTimeout
 11360 00f8 0346     		mov	r3, r0
 11361 00fa 002B     		cmp	r3, #0
 11362 00fc 01D0     		beq	.L695
ARM GAS  C:\Users\user\AppData\Local\Temp\cchxWhRb.s 			page 198


 11363 00fe 0123     		movs	r3, #1
 11364 0100 44E0     		b	.L691
 11365              	.L695:
 11366 0102 0023     		movs	r3, #0
 11367 0104 3B61     		str	r3, [r7, #16]
 11368 0106 FB68     		ldr	r3, [r7, #12]
 11369 0108 1B68     		ldr	r3, [r3]
 11370 010a 5B69     		ldr	r3, [r3, #20]
 11371 010c 3B61     		str	r3, [r7, #16]
 11372 010e FB68     		ldr	r3, [r7, #12]
 11373 0110 1B68     		ldr	r3, [r3]
 11374 0112 9B69     		ldr	r3, [r3, #24]
 11375 0114 3B61     		str	r3, [r7, #16]
 11376 0116 3B69     		ldr	r3, [r7, #16]
 11377 0118 FB68     		ldr	r3, [r7, #12]
 11378 011a 1B68     		ldr	r3, [r3]
 11379 011c 1A68     		ldr	r2, [r3]
 11380 011e FB68     		ldr	r3, [r7, #12]
 11381 0120 1B68     		ldr	r3, [r3]
 11382 0122 42F48072 		orr	r2, r2, #256
 11383 0126 1A60     		str	r2, [r3]
 11384 0128 3B68     		ldr	r3, [r7]
 11385 012a 0093     		str	r3, [sp]
 11386 012c 7B68     		ldr	r3, [r7, #4]
 11387 012e 0022     		movs	r2, #0
 11388 0130 4FF00111 		mov	r1, #65537
 11389 0134 F868     		ldr	r0, [r7, #12]
 11390 0136 FFF7FEFF 		bl	I2C_WaitOnFlagUntilTimeout
 11391 013a 0346     		mov	r3, r0
 11392 013c 002B     		cmp	r3, #0
 11393 013e 0DD0     		beq	.L696
 11394 0140 FB68     		ldr	r3, [r7, #12]
 11395 0142 1B68     		ldr	r3, [r3]
 11396 0144 1B68     		ldr	r3, [r3]
 11397 0146 03F48073 		and	r3, r3, #256
 11398 014a B3F5807F 		cmp	r3, #256
 11399 014e 03D1     		bne	.L697
 11400 0150 FB68     		ldr	r3, [r7, #12]
 11401 0152 4FF40072 		mov	r2, #512
 11402 0156 1A64     		str	r2, [r3, #64]
 11403              	.L697:
 11404 0158 0323     		movs	r3, #3
 11405 015a 17E0     		b	.L691
 11406              	.L696:
 11407 015c 7B89     		ldrh	r3, [r7, #10]
 11408 015e DB11     		asrs	r3, r3, #7
 11409 0160 DBB2     		uxtb	r3, r3
 11410 0162 03F00603 		and	r3, r3, #6
 11411 0166 DBB2     		uxtb	r3, r3
 11412 0168 63F00E03 		orn	r3, r3, #14
 11413 016c DAB2     		uxtb	r2, r3
 11414 016e FB68     		ldr	r3, [r7, #12]
 11415 0170 1B68     		ldr	r3, [r3]
 11416 0172 1A61     		str	r2, [r3, #16]
 11417              	.L693:
 11418 0174 3B68     		ldr	r3, [r7]
 11419 0176 7A68     		ldr	r2, [r7, #4]
ARM GAS  C:\Users\user\AppData\Local\Temp\cchxWhRb.s 			page 199


 11420 0178 0749     		ldr	r1, .L699+4
 11421 017a F868     		ldr	r0, [r7, #12]
 11422 017c FFF7FEFF 		bl	I2C_WaitOnMasterAddressFlagUntilTimeout
 11423 0180 0346     		mov	r3, r0
 11424 0182 002B     		cmp	r3, #0
 11425 0184 01D0     		beq	.L698
 11426 0186 0123     		movs	r3, #1
 11427 0188 00E0     		b	.L691
 11428              	.L698:
 11429 018a 0023     		movs	r3, #0
 11430              	.L691:
 11431 018c 1846     		mov	r0, r3
 11432 018e 1837     		adds	r7, r7, #24
 11433 0190 BD46     		mov	sp, r7
 11434              		@ sp needed
 11435 0192 80BD     		pop	{r7, pc}
 11436              	.L700:
 11437              		.align	2
 11438              	.L699:
 11439 0194 08000100 		.word	65544
 11440 0198 02000100 		.word	65538
 11442              		.section	.text.I2C_RequestMemoryWrite,"ax",%progbits
 11443              		.align	1
 11444              		.syntax unified
 11445              		.thumb
 11446              		.thumb_func
 11448              	I2C_RequestMemoryWrite:
 11449              		@ args = 8, pretend = 0, frame = 24
 11450              		@ frame_needed = 1, uses_anonymous_args = 0
 11451 0000 80B5     		push	{r7, lr}
 11452 0002 88B0     		sub	sp, sp, #32
 11453 0004 02AF     		add	r7, sp, #8
 11454 0006 F860     		str	r0, [r7, #12]
 11455 0008 0846     		mov	r0, r1
 11456 000a 1146     		mov	r1, r2
 11457 000c 1A46     		mov	r2, r3
 11458 000e 0346     		mov	r3, r0	@ movhi
 11459 0010 7B81     		strh	r3, [r7, #10]	@ movhi
 11460 0012 0B46     		mov	r3, r1	@ movhi
 11461 0014 3B81     		strh	r3, [r7, #8]	@ movhi
 11462 0016 1346     		mov	r3, r2	@ movhi
 11463 0018 FB80     		strh	r3, [r7, #6]	@ movhi
 11464 001a FB68     		ldr	r3, [r7, #12]
 11465 001c 1B68     		ldr	r3, [r3]
 11466 001e 1A68     		ldr	r2, [r3]
 11467 0020 FB68     		ldr	r3, [r7, #12]
 11468 0022 1B68     		ldr	r3, [r3]
 11469 0024 42F48072 		orr	r2, r2, #256
 11470 0028 1A60     		str	r2, [r3]
 11471 002a 7B6A     		ldr	r3, [r7, #36]
 11472 002c 0093     		str	r3, [sp]
 11473 002e 3B6A     		ldr	r3, [r7, #32]
 11474 0030 0022     		movs	r2, #0
 11475 0032 4FF00111 		mov	r1, #65537
 11476 0036 F868     		ldr	r0, [r7, #12]
 11477 0038 FFF7FEFF 		bl	I2C_WaitOnFlagUntilTimeout
 11478 003c 0346     		mov	r3, r0
ARM GAS  C:\Users\user\AppData\Local\Temp\cchxWhRb.s 			page 200


 11479 003e 002B     		cmp	r3, #0
 11480 0040 0DD0     		beq	.L702
 11481 0042 FB68     		ldr	r3, [r7, #12]
 11482 0044 1B68     		ldr	r3, [r3]
 11483 0046 1B68     		ldr	r3, [r3]
 11484 0048 03F48073 		and	r3, r3, #256
 11485 004c B3F5807F 		cmp	r3, #256
 11486 0050 03D1     		bne	.L703
 11487 0052 FB68     		ldr	r3, [r7, #12]
 11488 0054 4FF40072 		mov	r2, #512
 11489 0058 1A64     		str	r2, [r3, #64]
 11490              	.L703:
 11491 005a 0323     		movs	r3, #3
 11492 005c 5FE0     		b	.L704
 11493              	.L702:
 11494 005e 7B89     		ldrh	r3, [r7, #10]	@ movhi
 11495 0060 DBB2     		uxtb	r3, r3
 11496 0062 1A46     		mov	r2, r3
 11497 0064 FB68     		ldr	r3, [r7, #12]
 11498 0066 1B68     		ldr	r3, [r3]
 11499 0068 02F0FE02 		and	r2, r2, #254
 11500 006c 1A61     		str	r2, [r3, #16]
 11501 006e 7B6A     		ldr	r3, [r7, #36]
 11502 0070 3A6A     		ldr	r2, [r7, #32]
 11503 0072 2D49     		ldr	r1, .L712
 11504 0074 F868     		ldr	r0, [r7, #12]
 11505 0076 FFF7FEFF 		bl	I2C_WaitOnMasterAddressFlagUntilTimeout
 11506 007a 0346     		mov	r3, r0
 11507 007c 002B     		cmp	r3, #0
 11508 007e 01D0     		beq	.L705
 11509 0080 0123     		movs	r3, #1
 11510 0082 4CE0     		b	.L704
 11511              	.L705:
 11512 0084 0023     		movs	r3, #0
 11513 0086 7B61     		str	r3, [r7, #20]
 11514 0088 FB68     		ldr	r3, [r7, #12]
 11515 008a 1B68     		ldr	r3, [r3]
 11516 008c 5B69     		ldr	r3, [r3, #20]
 11517 008e 7B61     		str	r3, [r7, #20]
 11518 0090 FB68     		ldr	r3, [r7, #12]
 11519 0092 1B68     		ldr	r3, [r3]
 11520 0094 9B69     		ldr	r3, [r3, #24]
 11521 0096 7B61     		str	r3, [r7, #20]
 11522 0098 7B69     		ldr	r3, [r7, #20]
 11523 009a 7A6A     		ldr	r2, [r7, #36]
 11524 009c 396A     		ldr	r1, [r7, #32]
 11525 009e F868     		ldr	r0, [r7, #12]
 11526 00a0 FFF7FEFF 		bl	I2C_WaitOnTXEFlagUntilTimeout
 11527 00a4 0346     		mov	r3, r0
 11528 00a6 002B     		cmp	r3, #0
 11529 00a8 0DD0     		beq	.L706
 11530 00aa FB68     		ldr	r3, [r7, #12]
 11531 00ac 1B6C     		ldr	r3, [r3, #64]
 11532 00ae 042B     		cmp	r3, #4
 11533 00b0 07D1     		bne	.L707
 11534 00b2 FB68     		ldr	r3, [r7, #12]
 11535 00b4 1B68     		ldr	r3, [r3]
ARM GAS  C:\Users\user\AppData\Local\Temp\cchxWhRb.s 			page 201


 11536 00b6 1A68     		ldr	r2, [r3]
 11537 00b8 FB68     		ldr	r3, [r7, #12]
 11538 00ba 1B68     		ldr	r3, [r3]
 11539 00bc 42F40072 		orr	r2, r2, #512
 11540 00c0 1A60     		str	r2, [r3]
 11541              	.L707:
 11542 00c2 0123     		movs	r3, #1
 11543 00c4 2BE0     		b	.L704
 11544              	.L706:
 11545 00c6 FB88     		ldrh	r3, [r7, #6]
 11546 00c8 012B     		cmp	r3, #1
 11547 00ca 05D1     		bne	.L708
 11548 00cc 3B89     		ldrh	r3, [r7, #8]	@ movhi
 11549 00ce DAB2     		uxtb	r2, r3
 11550 00d0 FB68     		ldr	r3, [r7, #12]
 11551 00d2 1B68     		ldr	r3, [r3]
 11552 00d4 1A61     		str	r2, [r3, #16]
 11553 00d6 21E0     		b	.L709
 11554              	.L708:
 11555 00d8 3B89     		ldrh	r3, [r7, #8]
 11556 00da 1B0A     		lsrs	r3, r3, #8
 11557 00dc 9BB2     		uxth	r3, r3
 11558 00de DAB2     		uxtb	r2, r3
 11559 00e0 FB68     		ldr	r3, [r7, #12]
 11560 00e2 1B68     		ldr	r3, [r3]
 11561 00e4 1A61     		str	r2, [r3, #16]
 11562 00e6 7A6A     		ldr	r2, [r7, #36]
 11563 00e8 396A     		ldr	r1, [r7, #32]
 11564 00ea F868     		ldr	r0, [r7, #12]
 11565 00ec FFF7FEFF 		bl	I2C_WaitOnTXEFlagUntilTimeout
 11566 00f0 0346     		mov	r3, r0
 11567 00f2 002B     		cmp	r3, #0
 11568 00f4 0DD0     		beq	.L710
 11569 00f6 FB68     		ldr	r3, [r7, #12]
 11570 00f8 1B6C     		ldr	r3, [r3, #64]
 11571 00fa 042B     		cmp	r3, #4
 11572 00fc 07D1     		bne	.L711
 11573 00fe FB68     		ldr	r3, [r7, #12]
 11574 0100 1B68     		ldr	r3, [r3]
 11575 0102 1A68     		ldr	r2, [r3]
 11576 0104 FB68     		ldr	r3, [r7, #12]
 11577 0106 1B68     		ldr	r3, [r3]
 11578 0108 42F40072 		orr	r2, r2, #512
 11579 010c 1A60     		str	r2, [r3]
 11580              	.L711:
 11581 010e 0123     		movs	r3, #1
 11582 0110 05E0     		b	.L704
 11583              	.L710:
 11584 0112 3B89     		ldrh	r3, [r7, #8]	@ movhi
 11585 0114 DAB2     		uxtb	r2, r3
 11586 0116 FB68     		ldr	r3, [r7, #12]
 11587 0118 1B68     		ldr	r3, [r3]
 11588 011a 1A61     		str	r2, [r3, #16]
 11589              	.L709:
 11590 011c 0023     		movs	r3, #0
 11591              	.L704:
 11592 011e 1846     		mov	r0, r3
ARM GAS  C:\Users\user\AppData\Local\Temp\cchxWhRb.s 			page 202


 11593 0120 1837     		adds	r7, r7, #24
 11594 0122 BD46     		mov	sp, r7
 11595              		@ sp needed
 11596 0124 80BD     		pop	{r7, pc}
 11597              	.L713:
 11598 0126 00BF     		.align	2
 11599              	.L712:
 11600 0128 02000100 		.word	65538
 11602              		.section	.text.I2C_RequestMemoryRead,"ax",%progbits
 11603              		.align	1
 11604              		.syntax unified
 11605              		.thumb
 11606              		.thumb_func
 11608              	I2C_RequestMemoryRead:
 11609              		@ args = 8, pretend = 0, frame = 24
 11610              		@ frame_needed = 1, uses_anonymous_args = 0
 11611 0000 80B5     		push	{r7, lr}
 11612 0002 88B0     		sub	sp, sp, #32
 11613 0004 02AF     		add	r7, sp, #8
 11614 0006 F860     		str	r0, [r7, #12]
 11615 0008 0846     		mov	r0, r1
 11616 000a 1146     		mov	r1, r2
 11617 000c 1A46     		mov	r2, r3
 11618 000e 0346     		mov	r3, r0	@ movhi
 11619 0010 7B81     		strh	r3, [r7, #10]	@ movhi
 11620 0012 0B46     		mov	r3, r1	@ movhi
 11621 0014 3B81     		strh	r3, [r7, #8]	@ movhi
 11622 0016 1346     		mov	r3, r2	@ movhi
 11623 0018 FB80     		strh	r3, [r7, #6]	@ movhi
 11624 001a FB68     		ldr	r3, [r7, #12]
 11625 001c 1B68     		ldr	r3, [r3]
 11626 001e 1A68     		ldr	r2, [r3]
 11627 0020 FB68     		ldr	r3, [r7, #12]
 11628 0022 1B68     		ldr	r3, [r3]
 11629 0024 42F48062 		orr	r2, r2, #1024
 11630 0028 1A60     		str	r2, [r3]
 11631 002a FB68     		ldr	r3, [r7, #12]
 11632 002c 1B68     		ldr	r3, [r3]
 11633 002e 1A68     		ldr	r2, [r3]
 11634 0030 FB68     		ldr	r3, [r7, #12]
 11635 0032 1B68     		ldr	r3, [r3]
 11636 0034 42F48072 		orr	r2, r2, #256
 11637 0038 1A60     		str	r2, [r3]
 11638 003a 7B6A     		ldr	r3, [r7, #36]
 11639 003c 0093     		str	r3, [sp]
 11640 003e 3B6A     		ldr	r3, [r7, #32]
 11641 0040 0022     		movs	r2, #0
 11642 0042 4FF00111 		mov	r1, #65537
 11643 0046 F868     		ldr	r0, [r7, #12]
 11644 0048 FFF7FEFF 		bl	I2C_WaitOnFlagUntilTimeout
 11645 004c 0346     		mov	r3, r0
 11646 004e 002B     		cmp	r3, #0
 11647 0050 0DD0     		beq	.L715
 11648 0052 FB68     		ldr	r3, [r7, #12]
 11649 0054 1B68     		ldr	r3, [r3]
 11650 0056 1B68     		ldr	r3, [r3]
 11651 0058 03F48073 		and	r3, r3, #256
ARM GAS  C:\Users\user\AppData\Local\Temp\cchxWhRb.s 			page 203


 11652 005c B3F5807F 		cmp	r3, #256
 11653 0060 03D1     		bne	.L716
 11654 0062 FB68     		ldr	r3, [r7, #12]
 11655 0064 4FF40072 		mov	r2, #512
 11656 0068 1A64     		str	r2, [r3, #64]
 11657              	.L716:
 11658 006a 0323     		movs	r3, #3
 11659 006c AAE0     		b	.L717
 11660              	.L715:
 11661 006e 7B89     		ldrh	r3, [r7, #10]	@ movhi
 11662 0070 DBB2     		uxtb	r3, r3
 11663 0072 1A46     		mov	r2, r3
 11664 0074 FB68     		ldr	r3, [r7, #12]
 11665 0076 1B68     		ldr	r3, [r3]
 11666 0078 02F0FE02 		and	r2, r2, #254
 11667 007c 1A61     		str	r2, [r3, #16]
 11668 007e 7B6A     		ldr	r3, [r7, #36]
 11669 0080 3A6A     		ldr	r2, [r7, #32]
 11670 0082 5249     		ldr	r1, .L730
 11671 0084 F868     		ldr	r0, [r7, #12]
 11672 0086 FFF7FEFF 		bl	I2C_WaitOnMasterAddressFlagUntilTimeout
 11673 008a 0346     		mov	r3, r0
 11674 008c 002B     		cmp	r3, #0
 11675 008e 01D0     		beq	.L718
 11676 0090 0123     		movs	r3, #1
 11677 0092 97E0     		b	.L717
 11678              	.L718:
 11679 0094 0023     		movs	r3, #0
 11680 0096 7B61     		str	r3, [r7, #20]
 11681 0098 FB68     		ldr	r3, [r7, #12]
 11682 009a 1B68     		ldr	r3, [r3]
 11683 009c 5B69     		ldr	r3, [r3, #20]
 11684 009e 7B61     		str	r3, [r7, #20]
 11685 00a0 FB68     		ldr	r3, [r7, #12]
 11686 00a2 1B68     		ldr	r3, [r3]
 11687 00a4 9B69     		ldr	r3, [r3, #24]
 11688 00a6 7B61     		str	r3, [r7, #20]
 11689 00a8 7B69     		ldr	r3, [r7, #20]
 11690 00aa 7A6A     		ldr	r2, [r7, #36]
 11691 00ac 396A     		ldr	r1, [r7, #32]
 11692 00ae F868     		ldr	r0, [r7, #12]
 11693 00b0 FFF7FEFF 		bl	I2C_WaitOnTXEFlagUntilTimeout
 11694 00b4 0346     		mov	r3, r0
 11695 00b6 002B     		cmp	r3, #0
 11696 00b8 0DD0     		beq	.L719
 11697 00ba FB68     		ldr	r3, [r7, #12]
 11698 00bc 1B6C     		ldr	r3, [r3, #64]
 11699 00be 042B     		cmp	r3, #4
 11700 00c0 07D1     		bne	.L720
 11701 00c2 FB68     		ldr	r3, [r7, #12]
 11702 00c4 1B68     		ldr	r3, [r3]
 11703 00c6 1A68     		ldr	r2, [r3]
 11704 00c8 FB68     		ldr	r3, [r7, #12]
 11705 00ca 1B68     		ldr	r3, [r3]
 11706 00cc 42F40072 		orr	r2, r2, #512
 11707 00d0 1A60     		str	r2, [r3]
 11708              	.L720:
ARM GAS  C:\Users\user\AppData\Local\Temp\cchxWhRb.s 			page 204


 11709 00d2 0123     		movs	r3, #1
 11710 00d4 76E0     		b	.L717
 11711              	.L719:
 11712 00d6 FB88     		ldrh	r3, [r7, #6]
 11713 00d8 012B     		cmp	r3, #1
 11714 00da 05D1     		bne	.L721
 11715 00dc 3B89     		ldrh	r3, [r7, #8]	@ movhi
 11716 00de DAB2     		uxtb	r2, r3
 11717 00e0 FB68     		ldr	r3, [r7, #12]
 11718 00e2 1B68     		ldr	r3, [r3]
 11719 00e4 1A61     		str	r2, [r3, #16]
 11720 00e6 21E0     		b	.L722
 11721              	.L721:
 11722 00e8 3B89     		ldrh	r3, [r7, #8]
 11723 00ea 1B0A     		lsrs	r3, r3, #8
 11724 00ec 9BB2     		uxth	r3, r3
 11725 00ee DAB2     		uxtb	r2, r3
 11726 00f0 FB68     		ldr	r3, [r7, #12]
 11727 00f2 1B68     		ldr	r3, [r3]
 11728 00f4 1A61     		str	r2, [r3, #16]
 11729 00f6 7A6A     		ldr	r2, [r7, #36]
 11730 00f8 396A     		ldr	r1, [r7, #32]
 11731 00fa F868     		ldr	r0, [r7, #12]
 11732 00fc FFF7FEFF 		bl	I2C_WaitOnTXEFlagUntilTimeout
 11733 0100 0346     		mov	r3, r0
 11734 0102 002B     		cmp	r3, #0
 11735 0104 0DD0     		beq	.L723
 11736 0106 FB68     		ldr	r3, [r7, #12]
 11737 0108 1B6C     		ldr	r3, [r3, #64]
 11738 010a 042B     		cmp	r3, #4
 11739 010c 07D1     		bne	.L724
 11740 010e FB68     		ldr	r3, [r7, #12]
 11741 0110 1B68     		ldr	r3, [r3]
 11742 0112 1A68     		ldr	r2, [r3]
 11743 0114 FB68     		ldr	r3, [r7, #12]
 11744 0116 1B68     		ldr	r3, [r3]
 11745 0118 42F40072 		orr	r2, r2, #512
 11746 011c 1A60     		str	r2, [r3]
 11747              	.L724:
 11748 011e 0123     		movs	r3, #1
 11749 0120 50E0     		b	.L717
 11750              	.L723:
 11751 0122 3B89     		ldrh	r3, [r7, #8]	@ movhi
 11752 0124 DAB2     		uxtb	r2, r3
 11753 0126 FB68     		ldr	r3, [r7, #12]
 11754 0128 1B68     		ldr	r3, [r3]
 11755 012a 1A61     		str	r2, [r3, #16]
 11756              	.L722:
 11757 012c 7A6A     		ldr	r2, [r7, #36]
 11758 012e 396A     		ldr	r1, [r7, #32]
 11759 0130 F868     		ldr	r0, [r7, #12]
 11760 0132 FFF7FEFF 		bl	I2C_WaitOnTXEFlagUntilTimeout
 11761 0136 0346     		mov	r3, r0
 11762 0138 002B     		cmp	r3, #0
 11763 013a 0DD0     		beq	.L725
 11764 013c FB68     		ldr	r3, [r7, #12]
 11765 013e 1B6C     		ldr	r3, [r3, #64]
ARM GAS  C:\Users\user\AppData\Local\Temp\cchxWhRb.s 			page 205


 11766 0140 042B     		cmp	r3, #4
 11767 0142 07D1     		bne	.L726
 11768 0144 FB68     		ldr	r3, [r7, #12]
 11769 0146 1B68     		ldr	r3, [r3]
 11770 0148 1A68     		ldr	r2, [r3]
 11771 014a FB68     		ldr	r3, [r7, #12]
 11772 014c 1B68     		ldr	r3, [r3]
 11773 014e 42F40072 		orr	r2, r2, #512
 11774 0152 1A60     		str	r2, [r3]
 11775              	.L726:
 11776 0154 0123     		movs	r3, #1
 11777 0156 35E0     		b	.L717
 11778              	.L725:
 11779 0158 FB68     		ldr	r3, [r7, #12]
 11780 015a 1B68     		ldr	r3, [r3]
 11781 015c 1A68     		ldr	r2, [r3]
 11782 015e FB68     		ldr	r3, [r7, #12]
 11783 0160 1B68     		ldr	r3, [r3]
 11784 0162 42F48072 		orr	r2, r2, #256
 11785 0166 1A60     		str	r2, [r3]
 11786 0168 7B6A     		ldr	r3, [r7, #36]
 11787 016a 0093     		str	r3, [sp]
 11788 016c 3B6A     		ldr	r3, [r7, #32]
 11789 016e 0022     		movs	r2, #0
 11790 0170 4FF00111 		mov	r1, #65537
 11791 0174 F868     		ldr	r0, [r7, #12]
 11792 0176 FFF7FEFF 		bl	I2C_WaitOnFlagUntilTimeout
 11793 017a 0346     		mov	r3, r0
 11794 017c 002B     		cmp	r3, #0
 11795 017e 0DD0     		beq	.L727
 11796 0180 FB68     		ldr	r3, [r7, #12]
 11797 0182 1B68     		ldr	r3, [r3]
 11798 0184 1B68     		ldr	r3, [r3]
 11799 0186 03F48073 		and	r3, r3, #256
 11800 018a B3F5807F 		cmp	r3, #256
 11801 018e 03D1     		bne	.L728
 11802 0190 FB68     		ldr	r3, [r7, #12]
 11803 0192 4FF40072 		mov	r2, #512
 11804 0196 1A64     		str	r2, [r3, #64]
 11805              	.L728:
 11806 0198 0323     		movs	r3, #3
 11807 019a 13E0     		b	.L717
 11808              	.L727:
 11809 019c 7B89     		ldrh	r3, [r7, #10]	@ movhi
 11810 019e DBB2     		uxtb	r3, r3
 11811 01a0 43F00103 		orr	r3, r3, #1
 11812 01a4 DAB2     		uxtb	r2, r3
 11813 01a6 FB68     		ldr	r3, [r7, #12]
 11814 01a8 1B68     		ldr	r3, [r3]
 11815 01aa 1A61     		str	r2, [r3, #16]
 11816 01ac 7B6A     		ldr	r3, [r7, #36]
 11817 01ae 3A6A     		ldr	r2, [r7, #32]
 11818 01b0 0649     		ldr	r1, .L730
 11819 01b2 F868     		ldr	r0, [r7, #12]
 11820 01b4 FFF7FEFF 		bl	I2C_WaitOnMasterAddressFlagUntilTimeout
 11821 01b8 0346     		mov	r3, r0
 11822 01ba 002B     		cmp	r3, #0
ARM GAS  C:\Users\user\AppData\Local\Temp\cchxWhRb.s 			page 206


 11823 01bc 01D0     		beq	.L729
 11824 01be 0123     		movs	r3, #1
 11825 01c0 00E0     		b	.L717
 11826              	.L729:
 11827 01c2 0023     		movs	r3, #0
 11828              	.L717:
 11829 01c4 1846     		mov	r0, r3
 11830 01c6 1837     		adds	r7, r7, #24
 11831 01c8 BD46     		mov	sp, r7
 11832              		@ sp needed
 11833 01ca 80BD     		pop	{r7, pc}
 11834              	.L731:
 11835              		.align	2
 11836              	.L730:
 11837 01cc 02000100 		.word	65538
 11839              		.section	.text.I2C_DMAXferCplt,"ax",%progbits
 11840              		.align	1
 11841              		.syntax unified
 11842              		.thumb
 11843              		.thumb_func
 11845              	I2C_DMAXferCplt:
 11846              		@ args = 0, pretend = 0, frame = 24
 11847              		@ frame_needed = 1, uses_anonymous_args = 0
 11848 0000 80B5     		push	{r7, lr}
 11849 0002 86B0     		sub	sp, sp, #24
 11850 0004 00AF     		add	r7, sp, #0
 11851 0006 7860     		str	r0, [r7, #4]
 11852 0008 7B68     		ldr	r3, [r7, #4]
 11853 000a 9B6B     		ldr	r3, [r3, #56]
 11854 000c 7B61     		str	r3, [r7, #20]
 11855 000e 7B69     		ldr	r3, [r7, #20]
 11856 0010 93F83D30 		ldrb	r3, [r3, #61]
 11857 0014 FB74     		strb	r3, [r7, #19]
 11858 0016 7B69     		ldr	r3, [r7, #20]
 11859 0018 93F83E30 		ldrb	r3, [r3, #62]
 11860 001c BB74     		strb	r3, [r7, #18]
 11861 001e 7B69     		ldr	r3, [r7, #20]
 11862 0020 DB6A     		ldr	r3, [r3, #44]
 11863 0022 FB60     		str	r3, [r7, #12]
 11864 0024 7B69     		ldr	r3, [r7, #20]
 11865 0026 1B68     		ldr	r3, [r3]
 11866 0028 5A68     		ldr	r2, [r3, #4]
 11867 002a 7B69     		ldr	r3, [r7, #20]
 11868 002c 1B68     		ldr	r3, [r3]
 11869 002e 22F44072 		bic	r2, r2, #768
 11870 0032 5A60     		str	r2, [r3, #4]
 11871 0034 7B69     		ldr	r3, [r7, #20]
 11872 0036 5B6B     		ldr	r3, [r3, #52]
 11873 0038 002B     		cmp	r3, #0
 11874 003a 03D0     		beq	.L733
 11875 003c 7B69     		ldr	r3, [r7, #20]
 11876 003e 5B6B     		ldr	r3, [r3, #52]
 11877 0040 0022     		movs	r2, #0
 11878 0042 DA63     		str	r2, [r3, #60]
 11879              	.L733:
 11880 0044 7B69     		ldr	r3, [r7, #20]
 11881 0046 9B6B     		ldr	r3, [r3, #56]
ARM GAS  C:\Users\user\AppData\Local\Temp\cchxWhRb.s 			page 207


 11882 0048 002B     		cmp	r3, #0
 11883 004a 03D0     		beq	.L734
 11884 004c 7B69     		ldr	r3, [r7, #20]
 11885 004e 9B6B     		ldr	r3, [r3, #56]
 11886 0050 0022     		movs	r2, #0
 11887 0052 DA63     		str	r2, [r3, #60]
 11888              	.L734:
 11889 0054 FB7C     		ldrb	r3, [r7, #19]	@ zero_extendqisi2
 11890 0056 03F02103 		and	r3, r3, #33
 11891 005a 212B     		cmp	r3, #33
 11892 005c 07D0     		beq	.L735
 11893 005e FB7C     		ldrb	r3, [r7, #19]	@ zero_extendqisi2
 11894 0060 03F02203 		and	r3, r3, #34
 11895 0064 222B     		cmp	r3, #34
 11896 0066 31D1     		bne	.L736
 11897 0068 BB7C     		ldrb	r3, [r7, #18]	@ zero_extendqisi2
 11898 006a 202B     		cmp	r3, #32
 11899 006c 2ED1     		bne	.L736
 11900              	.L735:
 11901 006e 7B69     		ldr	r3, [r7, #20]
 11902 0070 1B68     		ldr	r3, [r3]
 11903 0072 5A68     		ldr	r2, [r3, #4]
 11904 0074 7B69     		ldr	r3, [r7, #20]
 11905 0076 1B68     		ldr	r3, [r3]
 11906 0078 22F40062 		bic	r2, r2, #2048
 11907 007c 5A60     		str	r2, [r3, #4]
 11908 007e 7B69     		ldr	r3, [r7, #20]
 11909 0080 0022     		movs	r2, #0
 11910 0082 5A85     		strh	r2, [r3, #42]	@ movhi
 11911 0084 FB7C     		ldrb	r3, [r7, #19]	@ zero_extendqisi2
 11912 0086 292B     		cmp	r3, #41
 11913 0088 0AD1     		bne	.L737
 11914 008a 7B69     		ldr	r3, [r7, #20]
 11915 008c 2122     		movs	r2, #33
 11916 008e 1A63     		str	r2, [r3, #48]
 11917 0090 7B69     		ldr	r3, [r7, #20]
 11918 0092 2822     		movs	r2, #40
 11919 0094 83F83D20 		strb	r2, [r3, #61]
 11920 0098 7869     		ldr	r0, [r7, #20]
 11921 009a FFF7FEFF 		bl	HAL_I2C_SlaveTxCpltCallback
 11922 009e 0CE0     		b	.L738
 11923              	.L737:
 11924 00a0 FB7C     		ldrb	r3, [r7, #19]	@ zero_extendqisi2
 11925 00a2 2A2B     		cmp	r3, #42
 11926 00a4 09D1     		bne	.L738
 11927 00a6 7B69     		ldr	r3, [r7, #20]
 11928 00a8 2222     		movs	r2, #34
 11929 00aa 1A63     		str	r2, [r3, #48]
 11930 00ac 7B69     		ldr	r3, [r7, #20]
 11931 00ae 2822     		movs	r2, #40
 11932 00b0 83F83D20 		strb	r2, [r3, #61]
 11933 00b4 7869     		ldr	r0, [r7, #20]
 11934 00b6 FFF7FEFF 		bl	HAL_I2C_SlaveRxCpltCallback
 11935              	.L738:
 11936 00ba 7B69     		ldr	r3, [r7, #20]
 11937 00bc 1B68     		ldr	r3, [r3]
 11938 00be 5A68     		ldr	r2, [r3, #4]
ARM GAS  C:\Users\user\AppData\Local\Temp\cchxWhRb.s 			page 208


 11939 00c0 7B69     		ldr	r3, [r7, #20]
 11940 00c2 1B68     		ldr	r3, [r3]
 11941 00c4 42F44072 		orr	r2, r2, #768
 11942 00c8 5A60     		str	r2, [r3, #4]
 11943 00ca 6AE0     		b	.L745
 11944              	.L736:
 11945 00cc 7B69     		ldr	r3, [r7, #20]
 11946 00ce 93F83E30 		ldrb	r3, [r3, #62]
 11947 00d2 DBB2     		uxtb	r3, r3
 11948 00d4 002B     		cmp	r3, #0
 11949 00d6 64D0     		beq	.L745
 11950 00d8 7B69     		ldr	r3, [r7, #20]
 11951 00da 5B8D     		ldrh	r3, [r3, #42]	@ movhi
 11952 00dc 9BB2     		uxth	r3, r3
 11953 00de 012B     		cmp	r3, #1
 11954 00e0 07D1     		bne	.L740
 11955 00e2 7B69     		ldr	r3, [r7, #20]
 11956 00e4 1B68     		ldr	r3, [r3]
 11957 00e6 1A68     		ldr	r2, [r3]
 11958 00e8 7B69     		ldr	r3, [r7, #20]
 11959 00ea 1B68     		ldr	r3, [r3]
 11960 00ec 22F48062 		bic	r2, r2, #1024
 11961 00f0 1A60     		str	r2, [r3]
 11962              	.L740:
 11963 00f2 7B69     		ldr	r3, [r7, #20]
 11964 00f4 1B68     		ldr	r3, [r3]
 11965 00f6 5A68     		ldr	r2, [r3, #4]
 11966 00f8 7B69     		ldr	r3, [r7, #20]
 11967 00fa 1B68     		ldr	r3, [r3]
 11968 00fc 22F44072 		bic	r2, r2, #768
 11969 0100 5A60     		str	r2, [r3, #4]
 11970 0102 FB68     		ldr	r3, [r7, #12]
 11971 0104 13F5803F 		cmn	r3, #65536
 11972 0108 09D0     		beq	.L741
 11973 010a FB68     		ldr	r3, [r7, #12]
 11974 010c 082B     		cmp	r3, #8
 11975 010e 06D0     		beq	.L741
 11976 0110 FB68     		ldr	r3, [r7, #12]
 11977 0112 B3F12A4F 		cmp	r3, #-1442840576
 11978 0116 02D0     		beq	.L741
 11979 0118 FB68     		ldr	r3, [r7, #12]
 11980 011a 202B     		cmp	r3, #32
 11981 011c 07D1     		bne	.L742
 11982              	.L741:
 11983 011e 7B69     		ldr	r3, [r7, #20]
 11984 0120 1B68     		ldr	r3, [r3]
 11985 0122 1A68     		ldr	r2, [r3]
 11986 0124 7B69     		ldr	r3, [r7, #20]
 11987 0126 1B68     		ldr	r3, [r3]
 11988 0128 42F40072 		orr	r2, r2, #512
 11989 012c 1A60     		str	r2, [r3]
 11990              	.L742:
 11991 012e 7B69     		ldr	r3, [r7, #20]
 11992 0130 1B68     		ldr	r3, [r3]
 11993 0132 5A68     		ldr	r2, [r3, #4]
 11994 0134 7B69     		ldr	r3, [r7, #20]
 11995 0136 1B68     		ldr	r3, [r3]
ARM GAS  C:\Users\user\AppData\Local\Temp\cchxWhRb.s 			page 209


 11996 0138 22F48052 		bic	r2, r2, #4096
 11997 013c 5A60     		str	r2, [r3, #4]
 11998 013e 7B69     		ldr	r3, [r7, #20]
 11999 0140 1B68     		ldr	r3, [r3]
 12000 0142 5A68     		ldr	r2, [r3, #4]
 12001 0144 7B69     		ldr	r3, [r7, #20]
 12002 0146 1B68     		ldr	r3, [r3]
 12003 0148 22F40062 		bic	r2, r2, #2048
 12004 014c 5A60     		str	r2, [r3, #4]
 12005 014e 7B69     		ldr	r3, [r7, #20]
 12006 0150 0022     		movs	r2, #0
 12007 0152 5A85     		strh	r2, [r3, #42]	@ movhi
 12008 0154 7B69     		ldr	r3, [r7, #20]
 12009 0156 1B6C     		ldr	r3, [r3, #64]
 12010 0158 002B     		cmp	r3, #0
 12011 015a 03D0     		beq	.L743
 12012 015c 7869     		ldr	r0, [r7, #20]
 12013 015e FFF7FEFF 		bl	HAL_I2C_ErrorCallback
 12014 0162 1EE0     		b	.L745
 12015              	.L743:
 12016 0164 7B69     		ldr	r3, [r7, #20]
 12017 0166 2022     		movs	r2, #32
 12018 0168 83F83D20 		strb	r2, [r3, #61]
 12019 016c 7B69     		ldr	r3, [r7, #20]
 12020 016e 93F83E30 		ldrb	r3, [r3, #62]
 12021 0172 DBB2     		uxtb	r3, r3
 12022 0174 402B     		cmp	r3, #64
 12023 0176 0AD1     		bne	.L744
 12024 0178 7B69     		ldr	r3, [r7, #20]
 12025 017a 0022     		movs	r2, #0
 12026 017c 83F83E20 		strb	r2, [r3, #62]
 12027 0180 7B69     		ldr	r3, [r7, #20]
 12028 0182 0022     		movs	r2, #0
 12029 0184 1A63     		str	r2, [r3, #48]
 12030 0186 7869     		ldr	r0, [r7, #20]
 12031 0188 FFF7FEFF 		bl	HAL_I2C_MemRxCpltCallback
 12032 018c 09E0     		b	.L745
 12033              	.L744:
 12034 018e 7B69     		ldr	r3, [r7, #20]
 12035 0190 0022     		movs	r2, #0
 12036 0192 83F83E20 		strb	r2, [r3, #62]
 12037 0196 7B69     		ldr	r3, [r7, #20]
 12038 0198 1222     		movs	r2, #18
 12039 019a 1A63     		str	r2, [r3, #48]
 12040 019c 7869     		ldr	r0, [r7, #20]
 12041 019e FFF7FEFF 		bl	HAL_I2C_MasterRxCpltCallback
 12042              	.L745:
 12043 01a2 00BF     		nop
 12044 01a4 1837     		adds	r7, r7, #24
 12045 01a6 BD46     		mov	sp, r7
 12046              		@ sp needed
 12047 01a8 80BD     		pop	{r7, pc}
 12049              		.section	.text.I2C_DMAError,"ax",%progbits
 12050              		.align	1
 12051              		.syntax unified
 12052              		.thumb
 12053              		.thumb_func
ARM GAS  C:\Users\user\AppData\Local\Temp\cchxWhRb.s 			page 210


 12055              	I2C_DMAError:
 12056              		@ args = 0, pretend = 0, frame = 16
 12057              		@ frame_needed = 1, uses_anonymous_args = 0
 12058 0000 80B5     		push	{r7, lr}
 12059 0002 84B0     		sub	sp, sp, #16
 12060 0004 00AF     		add	r7, sp, #0
 12061 0006 7860     		str	r0, [r7, #4]
 12062 0008 7B68     		ldr	r3, [r7, #4]
 12063 000a 9B6B     		ldr	r3, [r3, #56]
 12064 000c FB60     		str	r3, [r7, #12]
 12065 000e FB68     		ldr	r3, [r7, #12]
 12066 0010 5B6B     		ldr	r3, [r3, #52]
 12067 0012 002B     		cmp	r3, #0
 12068 0014 03D0     		beq	.L747
 12069 0016 FB68     		ldr	r3, [r7, #12]
 12070 0018 5B6B     		ldr	r3, [r3, #52]
 12071 001a 0022     		movs	r2, #0
 12072 001c DA63     		str	r2, [r3, #60]
 12073              	.L747:
 12074 001e FB68     		ldr	r3, [r7, #12]
 12075 0020 9B6B     		ldr	r3, [r3, #56]
 12076 0022 002B     		cmp	r3, #0
 12077 0024 03D0     		beq	.L748
 12078 0026 FB68     		ldr	r3, [r7, #12]
 12079 0028 9B6B     		ldr	r3, [r3, #56]
 12080 002a 0022     		movs	r2, #0
 12081 002c DA63     		str	r2, [r3, #60]
 12082              	.L748:
 12083 002e 7868     		ldr	r0, [r7, #4]
 12084 0030 FFF7FEFF 		bl	HAL_DMA_GetError
 12085 0034 0346     		mov	r3, r0
 12086 0036 022B     		cmp	r3, #2
 12087 0038 1BD0     		beq	.L750
 12088 003a FB68     		ldr	r3, [r7, #12]
 12089 003c 1B68     		ldr	r3, [r3]
 12090 003e 1A68     		ldr	r2, [r3]
 12091 0040 FB68     		ldr	r3, [r7, #12]
 12092 0042 1B68     		ldr	r3, [r3]
 12093 0044 22F48062 		bic	r2, r2, #1024
 12094 0048 1A60     		str	r2, [r3]
 12095 004a FB68     		ldr	r3, [r7, #12]
 12096 004c 0022     		movs	r2, #0
 12097 004e 5A85     		strh	r2, [r3, #42]	@ movhi
 12098 0050 FB68     		ldr	r3, [r7, #12]
 12099 0052 2022     		movs	r2, #32
 12100 0054 83F83D20 		strb	r2, [r3, #61]
 12101 0058 FB68     		ldr	r3, [r7, #12]
 12102 005a 0022     		movs	r2, #0
 12103 005c 83F83E20 		strb	r2, [r3, #62]
 12104 0060 FB68     		ldr	r3, [r7, #12]
 12105 0062 1B6C     		ldr	r3, [r3, #64]
 12106 0064 43F01002 		orr	r2, r3, #16
 12107 0068 FB68     		ldr	r3, [r7, #12]
 12108 006a 1A64     		str	r2, [r3, #64]
 12109 006c F868     		ldr	r0, [r7, #12]
 12110 006e FFF7FEFF 		bl	HAL_I2C_ErrorCallback
 12111              	.L750:
ARM GAS  C:\Users\user\AppData\Local\Temp\cchxWhRb.s 			page 211


 12112 0072 00BF     		nop
 12113 0074 1037     		adds	r7, r7, #16
 12114 0076 BD46     		mov	sp, r7
 12115              		@ sp needed
 12116 0078 80BD     		pop	{r7, pc}
 12118              		.section	.text.I2C_DMAAbort,"ax",%progbits
 12119              		.align	1
 12120              		.syntax unified
 12121              		.thumb
 12122              		.thumb_func
 12124              	I2C_DMAAbort:
 12125              		@ args = 0, pretend = 0, frame = 24
 12126              		@ frame_needed = 1, uses_anonymous_args = 0
 12127 0000 80B5     		push	{r7, lr}
 12128 0002 86B0     		sub	sp, sp, #24
 12129 0004 00AF     		add	r7, sp, #0
 12130 0006 7860     		str	r0, [r7, #4]
 12131 0008 0023     		movs	r3, #0
 12132 000a FB60     		str	r3, [r7, #12]
 12133 000c 7B68     		ldr	r3, [r7, #4]
 12134 000e 9B6B     		ldr	r3, [r3, #56]
 12135 0010 7B61     		str	r3, [r7, #20]
 12136 0012 7B69     		ldr	r3, [r7, #20]
 12137 0014 93F83D30 		ldrb	r3, [r3, #61]
 12138 0018 FB74     		strb	r3, [r7, #19]
 12139 001a 4B4B     		ldr	r3, .L764
 12140 001c 1B68     		ldr	r3, [r3]
 12141 001e DB08     		lsrs	r3, r3, #3
 12142 0020 4A4A     		ldr	r2, .L764+4
 12143 0022 A2FB0323 		umull	r2, r3, r2, r3
 12144 0026 1A0A     		lsrs	r2, r3, #8
 12145 0028 1346     		mov	r3, r2
 12146 002a 9B00     		lsls	r3, r3, #2
 12147 002c 1344     		add	r3, r3, r2
 12148 002e DA00     		lsls	r2, r3, #3
 12149 0030 D31A     		subs	r3, r2, r3
 12150 0032 FB60     		str	r3, [r7, #12]
 12151              	.L754:
 12152 0034 FB68     		ldr	r3, [r7, #12]
 12153 0036 002B     		cmp	r3, #0
 12154 0038 06D1     		bne	.L752
 12155 003a 7B69     		ldr	r3, [r7, #20]
 12156 003c 1B6C     		ldr	r3, [r3, #64]
 12157 003e 43F02002 		orr	r2, r3, #32
 12158 0042 7B69     		ldr	r3, [r7, #20]
 12159 0044 1A64     		str	r2, [r3, #64]
 12160 0046 0AE0     		b	.L753
 12161              	.L752:
 12162 0048 FB68     		ldr	r3, [r7, #12]
 12163 004a 013B     		subs	r3, r3, #1
 12164 004c FB60     		str	r3, [r7, #12]
 12165 004e 7B69     		ldr	r3, [r7, #20]
 12166 0050 1B68     		ldr	r3, [r3]
 12167 0052 1B68     		ldr	r3, [r3]
 12168 0054 03F40073 		and	r3, r3, #512
 12169 0058 B3F5007F 		cmp	r3, #512
 12170 005c EAD0     		beq	.L754
ARM GAS  C:\Users\user\AppData\Local\Temp\cchxWhRb.s 			page 212


 12171              	.L753:
 12172 005e 7B69     		ldr	r3, [r7, #20]
 12173 0060 5B6B     		ldr	r3, [r3, #52]
 12174 0062 002B     		cmp	r3, #0
 12175 0064 03D0     		beq	.L755
 12176 0066 7B69     		ldr	r3, [r7, #20]
 12177 0068 5B6B     		ldr	r3, [r3, #52]
 12178 006a 0022     		movs	r2, #0
 12179 006c DA63     		str	r2, [r3, #60]
 12180              	.L755:
 12181 006e 7B69     		ldr	r3, [r7, #20]
 12182 0070 9B6B     		ldr	r3, [r3, #56]
 12183 0072 002B     		cmp	r3, #0
 12184 0074 03D0     		beq	.L756
 12185 0076 7B69     		ldr	r3, [r7, #20]
 12186 0078 9B6B     		ldr	r3, [r3, #56]
 12187 007a 0022     		movs	r2, #0
 12188 007c DA63     		str	r2, [r3, #60]
 12189              	.L756:
 12190 007e 7B69     		ldr	r3, [r7, #20]
 12191 0080 1B68     		ldr	r3, [r3]
 12192 0082 1A68     		ldr	r2, [r3]
 12193 0084 7B69     		ldr	r3, [r7, #20]
 12194 0086 1B68     		ldr	r3, [r3]
 12195 0088 22F48062 		bic	r2, r2, #1024
 12196 008c 1A60     		str	r2, [r3]
 12197 008e 7B69     		ldr	r3, [r7, #20]
 12198 0090 0022     		movs	r2, #0
 12199 0092 5A85     		strh	r2, [r3, #42]	@ movhi
 12200 0094 7B69     		ldr	r3, [r7, #20]
 12201 0096 5B6B     		ldr	r3, [r3, #52]
 12202 0098 002B     		cmp	r3, #0
 12203 009a 03D0     		beq	.L757
 12204 009c 7B69     		ldr	r3, [r7, #20]
 12205 009e 5B6B     		ldr	r3, [r3, #52]
 12206 00a0 0022     		movs	r2, #0
 12207 00a2 1A65     		str	r2, [r3, #80]
 12208              	.L757:
 12209 00a4 7B69     		ldr	r3, [r7, #20]
 12210 00a6 9B6B     		ldr	r3, [r3, #56]
 12211 00a8 002B     		cmp	r3, #0
 12212 00aa 03D0     		beq	.L758
 12213 00ac 7B69     		ldr	r3, [r7, #20]
 12214 00ae 9B6B     		ldr	r3, [r3, #56]
 12215 00b0 0022     		movs	r2, #0
 12216 00b2 1A65     		str	r2, [r3, #80]
 12217              	.L758:
 12218 00b4 7B69     		ldr	r3, [r7, #20]
 12219 00b6 1B68     		ldr	r3, [r3]
 12220 00b8 1A68     		ldr	r2, [r3]
 12221 00ba 7B69     		ldr	r3, [r7, #20]
 12222 00bc 1B68     		ldr	r3, [r3]
 12223 00be 22F00102 		bic	r2, r2, #1
 12224 00c2 1A60     		str	r2, [r3]
 12225 00c4 7B69     		ldr	r3, [r7, #20]
 12226 00c6 93F83D30 		ldrb	r3, [r3, #61]
 12227 00ca DBB2     		uxtb	r3, r3
ARM GAS  C:\Users\user\AppData\Local\Temp\cchxWhRb.s 			page 213


 12228 00cc 602B     		cmp	r3, #96
 12229 00ce 0ED1     		bne	.L759
 12230 00d0 7B69     		ldr	r3, [r7, #20]
 12231 00d2 2022     		movs	r2, #32
 12232 00d4 83F83D20 		strb	r2, [r3, #61]
 12233 00d8 7B69     		ldr	r3, [r7, #20]
 12234 00da 0022     		movs	r2, #0
 12235 00dc 83F83E20 		strb	r2, [r3, #62]
 12236 00e0 7B69     		ldr	r3, [r7, #20]
 12237 00e2 0022     		movs	r2, #0
 12238 00e4 1A64     		str	r2, [r3, #64]
 12239 00e6 7869     		ldr	r0, [r7, #20]
 12240 00e8 FFF7FEFF 		bl	HAL_I2C_AbortCpltCallback
 12241 00ec 27E0     		b	.L763
 12242              	.L759:
 12243 00ee FB7C     		ldrb	r3, [r7, #19]	@ zero_extendqisi2
 12244 00f0 03F02803 		and	r3, r3, #40
 12245 00f4 282B     		cmp	r3, #40
 12246 00f6 17D1     		bne	.L761
 12247 00f8 7B69     		ldr	r3, [r7, #20]
 12248 00fa 1B68     		ldr	r3, [r3]
 12249 00fc 1A68     		ldr	r2, [r3]
 12250 00fe 7B69     		ldr	r3, [r7, #20]
 12251 0100 1B68     		ldr	r3, [r3]
 12252 0102 42F00102 		orr	r2, r2, #1
 12253 0106 1A60     		str	r2, [r3]
 12254 0108 7B69     		ldr	r3, [r7, #20]
 12255 010a 1B68     		ldr	r3, [r3]
 12256 010c 1A68     		ldr	r2, [r3]
 12257 010e 7B69     		ldr	r3, [r7, #20]
 12258 0110 1B68     		ldr	r3, [r3]
 12259 0112 42F48062 		orr	r2, r2, #1024
 12260 0116 1A60     		str	r2, [r3]
 12261 0118 7B69     		ldr	r3, [r7, #20]
 12262 011a 0022     		movs	r2, #0
 12263 011c 1A63     		str	r2, [r3, #48]
 12264 011e 7B69     		ldr	r3, [r7, #20]
 12265 0120 2822     		movs	r2, #40
 12266 0122 83F83D20 		strb	r2, [r3, #61]
 12267 0126 07E0     		b	.L762
 12268              	.L761:
 12269 0128 7B69     		ldr	r3, [r7, #20]
 12270 012a 2022     		movs	r2, #32
 12271 012c 83F83D20 		strb	r2, [r3, #61]
 12272 0130 7B69     		ldr	r3, [r7, #20]
 12273 0132 0022     		movs	r2, #0
 12274 0134 83F83E20 		strb	r2, [r3, #62]
 12275              	.L762:
 12276 0138 7869     		ldr	r0, [r7, #20]
 12277 013a FFF7FEFF 		bl	HAL_I2C_ErrorCallback
 12278              	.L763:
 12279 013e 00BF     		nop
 12280 0140 1837     		adds	r7, r7, #24
 12281 0142 BD46     		mov	sp, r7
 12282              		@ sp needed
 12283 0144 80BD     		pop	{r7, pc}
 12284              	.L765:
ARM GAS  C:\Users\user\AppData\Local\Temp\cchxWhRb.s 			page 214


 12285 0146 00BF     		.align	2
 12286              	.L764:
 12287 0148 00000000 		.word	SystemCoreClock
 12288 014c 89B5F814 		.word	351843721
 12290              		.section	.text.I2C_WaitOnFlagUntilTimeout,"ax",%progbits
 12291              		.align	1
 12292              		.syntax unified
 12293              		.thumb
 12294              		.thumb_func
 12296              	I2C_WaitOnFlagUntilTimeout:
 12297              		@ args = 4, pretend = 0, frame = 16
 12298              		@ frame_needed = 1, uses_anonymous_args = 0
 12299 0000 80B5     		push	{r7, lr}
 12300 0002 84B0     		sub	sp, sp, #16
 12301 0004 00AF     		add	r7, sp, #0
 12302 0006 F860     		str	r0, [r7, #12]
 12303 0008 B960     		str	r1, [r7, #8]
 12304 000a 3B60     		str	r3, [r7]
 12305 000c 1346     		mov	r3, r2
 12306 000e FB71     		strb	r3, [r7, #7]
 12307 0010 25E0     		b	.L768
 12308              	.L773:
 12309 0012 3B68     		ldr	r3, [r7]
 12310 0014 B3F1FF3F 		cmp	r3, #-1
 12311 0018 21D0     		beq	.L768
 12312 001a FFF7FEFF 		bl	HAL_GetTick
 12313 001e 0246     		mov	r2, r0
 12314 0020 BB69     		ldr	r3, [r7, #24]
 12315 0022 D31A     		subs	r3, r2, r3
 12316 0024 3A68     		ldr	r2, [r7]
 12317 0026 9A42     		cmp	r2, r3
 12318 0028 02D3     		bcc	.L769
 12319 002a 3B68     		ldr	r3, [r7]
 12320 002c 002B     		cmp	r3, #0
 12321 002e 16D1     		bne	.L768
 12322              	.L769:
 12323 0030 FB68     		ldr	r3, [r7, #12]
 12324 0032 0022     		movs	r2, #0
 12325 0034 1A63     		str	r2, [r3, #48]
 12326 0036 FB68     		ldr	r3, [r7, #12]
 12327 0038 2022     		movs	r2, #32
 12328 003a 83F83D20 		strb	r2, [r3, #61]
 12329 003e FB68     		ldr	r3, [r7, #12]
 12330 0040 0022     		movs	r2, #0
 12331 0042 83F83E20 		strb	r2, [r3, #62]
 12332 0046 FB68     		ldr	r3, [r7, #12]
 12333 0048 1B6C     		ldr	r3, [r3, #64]
 12334 004a 43F02002 		orr	r2, r3, #32
 12335 004e FB68     		ldr	r3, [r7, #12]
 12336 0050 1A64     		str	r2, [r3, #64]
 12337 0052 FB68     		ldr	r3, [r7, #12]
 12338 0054 0022     		movs	r2, #0
 12339 0056 83F83C20 		strb	r2, [r3, #60]
 12340 005a 0123     		movs	r3, #1
 12341 005c 23E0     		b	.L770
 12342              	.L768:
 12343 005e BB68     		ldr	r3, [r7, #8]
ARM GAS  C:\Users\user\AppData\Local\Temp\cchxWhRb.s 			page 215


 12344 0060 1B0C     		lsrs	r3, r3, #16
 12345 0062 DBB2     		uxtb	r3, r3
 12346 0064 012B     		cmp	r3, #1
 12347 0066 0DD1     		bne	.L771
 12348 0068 FB68     		ldr	r3, [r7, #12]
 12349 006a 1B68     		ldr	r3, [r3]
 12350 006c 5B69     		ldr	r3, [r3, #20]
 12351 006e DA43     		mvns	r2, r3
 12352 0070 BB68     		ldr	r3, [r7, #8]
 12353 0072 1340     		ands	r3, r3, r2
 12354 0074 9BB2     		uxth	r3, r3
 12355 0076 002B     		cmp	r3, #0
 12356 0078 0CBF     		ite	eq
 12357 007a 0123     		moveq	r3, #1
 12358 007c 0023     		movne	r3, #0
 12359 007e DBB2     		uxtb	r3, r3
 12360 0080 1A46     		mov	r2, r3
 12361 0082 0CE0     		b	.L772
 12362              	.L771:
 12363 0084 FB68     		ldr	r3, [r7, #12]
 12364 0086 1B68     		ldr	r3, [r3]
 12365 0088 9B69     		ldr	r3, [r3, #24]
 12366 008a DA43     		mvns	r2, r3
 12367 008c BB68     		ldr	r3, [r7, #8]
 12368 008e 1340     		ands	r3, r3, r2
 12369 0090 9BB2     		uxth	r3, r3
 12370 0092 002B     		cmp	r3, #0
 12371 0094 0CBF     		ite	eq
 12372 0096 0123     		moveq	r3, #1
 12373 0098 0023     		movne	r3, #0
 12374 009a DBB2     		uxtb	r3, r3
 12375 009c 1A46     		mov	r2, r3
 12376              	.L772:
 12377 009e FB79     		ldrb	r3, [r7, #7]	@ zero_extendqisi2
 12378 00a0 9A42     		cmp	r2, r3
 12379 00a2 B6D0     		beq	.L773
 12380 00a4 0023     		movs	r3, #0
 12381              	.L770:
 12382 00a6 1846     		mov	r0, r3
 12383 00a8 1037     		adds	r7, r7, #16
 12384 00aa BD46     		mov	sp, r7
 12385              		@ sp needed
 12386 00ac 80BD     		pop	{r7, pc}
 12388              		.section	.text.I2C_WaitOnMasterAddressFlagUntilTimeout,"ax",%progbits
 12389              		.align	1
 12390              		.syntax unified
 12391              		.thumb
 12392              		.thumb_func
 12394              	I2C_WaitOnMasterAddressFlagUntilTimeout:
 12395              		@ args = 0, pretend = 0, frame = 16
 12396              		@ frame_needed = 1, uses_anonymous_args = 0
 12397 0000 80B5     		push	{r7, lr}
 12398 0002 84B0     		sub	sp, sp, #16
 12399 0004 00AF     		add	r7, sp, #0
 12400 0006 F860     		str	r0, [r7, #12]
 12401 0008 B960     		str	r1, [r7, #8]
 12402 000a 7A60     		str	r2, [r7, #4]
ARM GAS  C:\Users\user\AppData\Local\Temp\cchxWhRb.s 			page 216


 12403 000c 3B60     		str	r3, [r7]
 12404 000e 51E0     		b	.L778
 12405              	.L782:
 12406 0010 FB68     		ldr	r3, [r7, #12]
 12407 0012 1B68     		ldr	r3, [r3]
 12408 0014 5B69     		ldr	r3, [r3, #20]
 12409 0016 03F48063 		and	r3, r3, #1024
 12410 001a B3F5806F 		cmp	r3, #1024
 12411 001e 23D1     		bne	.L776
 12412 0020 FB68     		ldr	r3, [r7, #12]
 12413 0022 1B68     		ldr	r3, [r3]
 12414 0024 1A68     		ldr	r2, [r3]
 12415 0026 FB68     		ldr	r3, [r7, #12]
 12416 0028 1B68     		ldr	r3, [r3]
 12417 002a 42F40072 		orr	r2, r2, #512
 12418 002e 1A60     		str	r2, [r3]
 12419 0030 FB68     		ldr	r3, [r7, #12]
 12420 0032 1B68     		ldr	r3, [r3]
 12421 0034 6FF48062 		mvn	r2, #1024
 12422 0038 5A61     		str	r2, [r3, #20]
 12423 003a FB68     		ldr	r3, [r7, #12]
 12424 003c 0022     		movs	r2, #0
 12425 003e 1A63     		str	r2, [r3, #48]
 12426 0040 FB68     		ldr	r3, [r7, #12]
 12427 0042 2022     		movs	r2, #32
 12428 0044 83F83D20 		strb	r2, [r3, #61]
 12429 0048 FB68     		ldr	r3, [r7, #12]
 12430 004a 0022     		movs	r2, #0
 12431 004c 83F83E20 		strb	r2, [r3, #62]
 12432 0050 FB68     		ldr	r3, [r7, #12]
 12433 0052 1B6C     		ldr	r3, [r3, #64]
 12434 0054 43F00402 		orr	r2, r3, #4
 12435 0058 FB68     		ldr	r3, [r7, #12]
 12436 005a 1A64     		str	r2, [r3, #64]
 12437 005c FB68     		ldr	r3, [r7, #12]
 12438 005e 0022     		movs	r2, #0
 12439 0060 83F83C20 		strb	r2, [r3, #60]
 12440 0064 0123     		movs	r3, #1
 12441 0066 46E0     		b	.L777
 12442              	.L776:
 12443 0068 7B68     		ldr	r3, [r7, #4]
 12444 006a B3F1FF3F 		cmp	r3, #-1
 12445 006e 21D0     		beq	.L778
 12446 0070 FFF7FEFF 		bl	HAL_GetTick
 12447 0074 0246     		mov	r2, r0
 12448 0076 3B68     		ldr	r3, [r7]
 12449 0078 D31A     		subs	r3, r2, r3
 12450 007a 7A68     		ldr	r2, [r7, #4]
 12451 007c 9A42     		cmp	r2, r3
 12452 007e 02D3     		bcc	.L779
 12453 0080 7B68     		ldr	r3, [r7, #4]
 12454 0082 002B     		cmp	r3, #0
 12455 0084 16D1     		bne	.L778
 12456              	.L779:
 12457 0086 FB68     		ldr	r3, [r7, #12]
 12458 0088 0022     		movs	r2, #0
 12459 008a 1A63     		str	r2, [r3, #48]
ARM GAS  C:\Users\user\AppData\Local\Temp\cchxWhRb.s 			page 217


 12460 008c FB68     		ldr	r3, [r7, #12]
 12461 008e 2022     		movs	r2, #32
 12462 0090 83F83D20 		strb	r2, [r3, #61]
 12463 0094 FB68     		ldr	r3, [r7, #12]
 12464 0096 0022     		movs	r2, #0
 12465 0098 83F83E20 		strb	r2, [r3, #62]
 12466 009c FB68     		ldr	r3, [r7, #12]
 12467 009e 1B6C     		ldr	r3, [r3, #64]
 12468 00a0 43F02002 		orr	r2, r3, #32
 12469 00a4 FB68     		ldr	r3, [r7, #12]
 12470 00a6 1A64     		str	r2, [r3, #64]
 12471 00a8 FB68     		ldr	r3, [r7, #12]
 12472 00aa 0022     		movs	r2, #0
 12473 00ac 83F83C20 		strb	r2, [r3, #60]
 12474 00b0 0123     		movs	r3, #1
 12475 00b2 20E0     		b	.L777
 12476              	.L778:
 12477 00b4 BB68     		ldr	r3, [r7, #8]
 12478 00b6 1B0C     		lsrs	r3, r3, #16
 12479 00b8 DBB2     		uxtb	r3, r3
 12480 00ba 012B     		cmp	r3, #1
 12481 00bc 0CD1     		bne	.L780
 12482 00be FB68     		ldr	r3, [r7, #12]
 12483 00c0 1B68     		ldr	r3, [r3]
 12484 00c2 5B69     		ldr	r3, [r3, #20]
 12485 00c4 DA43     		mvns	r2, r3
 12486 00c6 BB68     		ldr	r3, [r7, #8]
 12487 00c8 1340     		ands	r3, r3, r2
 12488 00ca 9BB2     		uxth	r3, r3
 12489 00cc 002B     		cmp	r3, #0
 12490 00ce 14BF     		ite	ne
 12491 00d0 0123     		movne	r3, #1
 12492 00d2 0023     		moveq	r3, #0
 12493 00d4 DBB2     		uxtb	r3, r3
 12494 00d6 0BE0     		b	.L781
 12495              	.L780:
 12496 00d8 FB68     		ldr	r3, [r7, #12]
 12497 00da 1B68     		ldr	r3, [r3]
 12498 00dc 9B69     		ldr	r3, [r3, #24]
 12499 00de DA43     		mvns	r2, r3
 12500 00e0 BB68     		ldr	r3, [r7, #8]
 12501 00e2 1340     		ands	r3, r3, r2
 12502 00e4 9BB2     		uxth	r3, r3
 12503 00e6 002B     		cmp	r3, #0
 12504 00e8 14BF     		ite	ne
 12505 00ea 0123     		movne	r3, #1
 12506 00ec 0023     		moveq	r3, #0
 12507 00ee DBB2     		uxtb	r3, r3
 12508              	.L781:
 12509 00f0 002B     		cmp	r3, #0
 12510 00f2 8DD1     		bne	.L782
 12511 00f4 0023     		movs	r3, #0
 12512              	.L777:
 12513 00f6 1846     		mov	r0, r3
 12514 00f8 1037     		adds	r7, r7, #16
 12515 00fa BD46     		mov	sp, r7
 12516              		@ sp needed
ARM GAS  C:\Users\user\AppData\Local\Temp\cchxWhRb.s 			page 218


 12517 00fc 80BD     		pop	{r7, pc}
 12519              		.section	.text.I2C_WaitOnTXEFlagUntilTimeout,"ax",%progbits
 12520              		.align	1
 12521              		.syntax unified
 12522              		.thumb
 12523              		.thumb_func
 12525              	I2C_WaitOnTXEFlagUntilTimeout:
 12526              		@ args = 0, pretend = 0, frame = 16
 12527              		@ frame_needed = 1, uses_anonymous_args = 0
 12528 0000 80B5     		push	{r7, lr}
 12529 0002 84B0     		sub	sp, sp, #16
 12530 0004 00AF     		add	r7, sp, #0
 12531 0006 F860     		str	r0, [r7, #12]
 12532 0008 B960     		str	r1, [r7, #8]
 12533 000a 7A60     		str	r2, [r7, #4]
 12534 000c 2DE0     		b	.L787
 12535              	.L789:
 12536 000e F868     		ldr	r0, [r7, #12]
 12537 0010 FFF7FEFF 		bl	I2C_IsAcknowledgeFailed
 12538 0014 0346     		mov	r3, r0
 12539 0016 002B     		cmp	r3, #0
 12540 0018 01D0     		beq	.L785
 12541 001a 0123     		movs	r3, #1
 12542 001c 2DE0     		b	.L786
 12543              	.L785:
 12544 001e BB68     		ldr	r3, [r7, #8]
 12545 0020 B3F1FF3F 		cmp	r3, #-1
 12546 0024 21D0     		beq	.L787
 12547 0026 FFF7FEFF 		bl	HAL_GetTick
 12548 002a 0246     		mov	r2, r0
 12549 002c 7B68     		ldr	r3, [r7, #4]
 12550 002e D31A     		subs	r3, r2, r3
 12551 0030 BA68     		ldr	r2, [r7, #8]
 12552 0032 9A42     		cmp	r2, r3
 12553 0034 02D3     		bcc	.L788
 12554 0036 BB68     		ldr	r3, [r7, #8]
 12555 0038 002B     		cmp	r3, #0
 12556 003a 16D1     		bne	.L787
 12557              	.L788:
 12558 003c FB68     		ldr	r3, [r7, #12]
 12559 003e 0022     		movs	r2, #0
 12560 0040 1A63     		str	r2, [r3, #48]
 12561 0042 FB68     		ldr	r3, [r7, #12]
 12562 0044 2022     		movs	r2, #32
 12563 0046 83F83D20 		strb	r2, [r3, #61]
 12564 004a FB68     		ldr	r3, [r7, #12]
 12565 004c 0022     		movs	r2, #0
 12566 004e 83F83E20 		strb	r2, [r3, #62]
 12567 0052 FB68     		ldr	r3, [r7, #12]
 12568 0054 1B6C     		ldr	r3, [r3, #64]
 12569 0056 43F02002 		orr	r2, r3, #32
 12570 005a FB68     		ldr	r3, [r7, #12]
 12571 005c 1A64     		str	r2, [r3, #64]
 12572 005e FB68     		ldr	r3, [r7, #12]
 12573 0060 0022     		movs	r2, #0
 12574 0062 83F83C20 		strb	r2, [r3, #60]
 12575 0066 0123     		movs	r3, #1
ARM GAS  C:\Users\user\AppData\Local\Temp\cchxWhRb.s 			page 219


 12576 0068 07E0     		b	.L786
 12577              	.L787:
 12578 006a FB68     		ldr	r3, [r7, #12]
 12579 006c 1B68     		ldr	r3, [r3]
 12580 006e 5B69     		ldr	r3, [r3, #20]
 12581 0070 03F08003 		and	r3, r3, #128
 12582 0074 802B     		cmp	r3, #128
 12583 0076 CAD1     		bne	.L789
 12584 0078 0023     		movs	r3, #0
 12585              	.L786:
 12586 007a 1846     		mov	r0, r3
 12587 007c 1037     		adds	r7, r7, #16
 12588 007e BD46     		mov	sp, r7
 12589              		@ sp needed
 12590 0080 80BD     		pop	{r7, pc}
 12592              		.section	.text.I2C_WaitOnBTFFlagUntilTimeout,"ax",%progbits
 12593              		.align	1
 12594              		.syntax unified
 12595              		.thumb
 12596              		.thumb_func
 12598              	I2C_WaitOnBTFFlagUntilTimeout:
 12599              		@ args = 0, pretend = 0, frame = 16
 12600              		@ frame_needed = 1, uses_anonymous_args = 0
 12601 0000 80B5     		push	{r7, lr}
 12602 0002 84B0     		sub	sp, sp, #16
 12603 0004 00AF     		add	r7, sp, #0
 12604 0006 F860     		str	r0, [r7, #12]
 12605 0008 B960     		str	r1, [r7, #8]
 12606 000a 7A60     		str	r2, [r7, #4]
 12607 000c 2DE0     		b	.L794
 12608              	.L796:
 12609 000e F868     		ldr	r0, [r7, #12]
 12610 0010 FFF7FEFF 		bl	I2C_IsAcknowledgeFailed
 12611 0014 0346     		mov	r3, r0
 12612 0016 002B     		cmp	r3, #0
 12613 0018 01D0     		beq	.L792
 12614 001a 0123     		movs	r3, #1
 12615 001c 2DE0     		b	.L793
 12616              	.L792:
 12617 001e BB68     		ldr	r3, [r7, #8]
 12618 0020 B3F1FF3F 		cmp	r3, #-1
 12619 0024 21D0     		beq	.L794
 12620 0026 FFF7FEFF 		bl	HAL_GetTick
 12621 002a 0246     		mov	r2, r0
 12622 002c 7B68     		ldr	r3, [r7, #4]
 12623 002e D31A     		subs	r3, r2, r3
 12624 0030 BA68     		ldr	r2, [r7, #8]
 12625 0032 9A42     		cmp	r2, r3
 12626 0034 02D3     		bcc	.L795
 12627 0036 BB68     		ldr	r3, [r7, #8]
 12628 0038 002B     		cmp	r3, #0
 12629 003a 16D1     		bne	.L794
 12630              	.L795:
 12631 003c FB68     		ldr	r3, [r7, #12]
 12632 003e 0022     		movs	r2, #0
 12633 0040 1A63     		str	r2, [r3, #48]
 12634 0042 FB68     		ldr	r3, [r7, #12]
ARM GAS  C:\Users\user\AppData\Local\Temp\cchxWhRb.s 			page 220


 12635 0044 2022     		movs	r2, #32
 12636 0046 83F83D20 		strb	r2, [r3, #61]
 12637 004a FB68     		ldr	r3, [r7, #12]
 12638 004c 0022     		movs	r2, #0
 12639 004e 83F83E20 		strb	r2, [r3, #62]
 12640 0052 FB68     		ldr	r3, [r7, #12]
 12641 0054 1B6C     		ldr	r3, [r3, #64]
 12642 0056 43F02002 		orr	r2, r3, #32
 12643 005a FB68     		ldr	r3, [r7, #12]
 12644 005c 1A64     		str	r2, [r3, #64]
 12645 005e FB68     		ldr	r3, [r7, #12]
 12646 0060 0022     		movs	r2, #0
 12647 0062 83F83C20 		strb	r2, [r3, #60]
 12648 0066 0123     		movs	r3, #1
 12649 0068 07E0     		b	.L793
 12650              	.L794:
 12651 006a FB68     		ldr	r3, [r7, #12]
 12652 006c 1B68     		ldr	r3, [r3]
 12653 006e 5B69     		ldr	r3, [r3, #20]
 12654 0070 03F00403 		and	r3, r3, #4
 12655 0074 042B     		cmp	r3, #4
 12656 0076 CAD1     		bne	.L796
 12657 0078 0023     		movs	r3, #0
 12658              	.L793:
 12659 007a 1846     		mov	r0, r3
 12660 007c 1037     		adds	r7, r7, #16
 12661 007e BD46     		mov	sp, r7
 12662              		@ sp needed
 12663 0080 80BD     		pop	{r7, pc}
 12665              		.section	.text.I2C_WaitOnSTOPFlagUntilTimeout,"ax",%progbits
 12666              		.align	1
 12667              		.syntax unified
 12668              		.thumb
 12669              		.thumb_func
 12671              	I2C_WaitOnSTOPFlagUntilTimeout:
 12672              		@ args = 0, pretend = 0, frame = 16
 12673              		@ frame_needed = 1, uses_anonymous_args = 0
 12674 0000 80B5     		push	{r7, lr}
 12675 0002 84B0     		sub	sp, sp, #16
 12676 0004 00AF     		add	r7, sp, #0
 12677 0006 F860     		str	r0, [r7, #12]
 12678 0008 B960     		str	r1, [r7, #8]
 12679 000a 7A60     		str	r2, [r7, #4]
 12680 000c 29E0     		b	.L798
 12681              	.L802:
 12682 000e F868     		ldr	r0, [r7, #12]
 12683 0010 FFF7FEFF 		bl	I2C_IsAcknowledgeFailed
 12684 0014 0346     		mov	r3, r0
 12685 0016 002B     		cmp	r3, #0
 12686 0018 01D0     		beq	.L799
 12687 001a 0123     		movs	r3, #1
 12688 001c 29E0     		b	.L800
 12689              	.L799:
 12690 001e FFF7FEFF 		bl	HAL_GetTick
 12691 0022 0246     		mov	r2, r0
 12692 0024 7B68     		ldr	r3, [r7, #4]
 12693 0026 D31A     		subs	r3, r2, r3
ARM GAS  C:\Users\user\AppData\Local\Temp\cchxWhRb.s 			page 221


 12694 0028 BA68     		ldr	r2, [r7, #8]
 12695 002a 9A42     		cmp	r2, r3
 12696 002c 02D3     		bcc	.L801
 12697 002e BB68     		ldr	r3, [r7, #8]
 12698 0030 002B     		cmp	r3, #0
 12699 0032 16D1     		bne	.L798
 12700              	.L801:
 12701 0034 FB68     		ldr	r3, [r7, #12]
 12702 0036 0022     		movs	r2, #0
 12703 0038 1A63     		str	r2, [r3, #48]
 12704 003a FB68     		ldr	r3, [r7, #12]
 12705 003c 2022     		movs	r2, #32
 12706 003e 83F83D20 		strb	r2, [r3, #61]
 12707 0042 FB68     		ldr	r3, [r7, #12]
 12708 0044 0022     		movs	r2, #0
 12709 0046 83F83E20 		strb	r2, [r3, #62]
 12710 004a FB68     		ldr	r3, [r7, #12]
 12711 004c 1B6C     		ldr	r3, [r3, #64]
 12712 004e 43F02002 		orr	r2, r3, #32
 12713 0052 FB68     		ldr	r3, [r7, #12]
 12714 0054 1A64     		str	r2, [r3, #64]
 12715 0056 FB68     		ldr	r3, [r7, #12]
 12716 0058 0022     		movs	r2, #0
 12717 005a 83F83C20 		strb	r2, [r3, #60]
 12718 005e 0123     		movs	r3, #1
 12719 0060 07E0     		b	.L800
 12720              	.L798:
 12721 0062 FB68     		ldr	r3, [r7, #12]
 12722 0064 1B68     		ldr	r3, [r3]
 12723 0066 5B69     		ldr	r3, [r3, #20]
 12724 0068 03F01003 		and	r3, r3, #16
 12725 006c 102B     		cmp	r3, #16
 12726 006e CED1     		bne	.L802
 12727 0070 0023     		movs	r3, #0
 12728              	.L800:
 12729 0072 1846     		mov	r0, r3
 12730 0074 1037     		adds	r7, r7, #16
 12731 0076 BD46     		mov	sp, r7
 12732              		@ sp needed
 12733 0078 80BD     		pop	{r7, pc}
 12735              		.section	.text.I2C_WaitOnSTOPRequestThroughIT,"ax",%progbits
 12736              		.align	1
 12737              		.syntax unified
 12738              		.thumb
 12739              		.thumb_func
 12741              	I2C_WaitOnSTOPRequestThroughIT:
 12742              		@ args = 0, pretend = 0, frame = 16
 12743              		@ frame_needed = 1, uses_anonymous_args = 0
 12744              		@ link register save eliminated.
 12745 0000 80B4     		push	{r7}
 12746 0002 85B0     		sub	sp, sp, #20
 12747 0004 00AF     		add	r7, sp, #0
 12748 0006 7860     		str	r0, [r7, #4]
 12749 0008 0023     		movs	r3, #0
 12750 000a FB60     		str	r3, [r7, #12]
 12751 000c 134B     		ldr	r3, .L807
 12752 000e 1B68     		ldr	r3, [r3]
ARM GAS  C:\Users\user\AppData\Local\Temp\cchxWhRb.s 			page 222


 12753 0010 DB08     		lsrs	r3, r3, #3
 12754 0012 134A     		ldr	r2, .L807+4
 12755 0014 A2FB0323 		umull	r2, r3, r2, r3
 12756 0018 1A0A     		lsrs	r2, r3, #8
 12757 001a 1346     		mov	r3, r2
 12758 001c 9B00     		lsls	r3, r3, #2
 12759 001e 1344     		add	r3, r3, r2
 12760 0020 FB60     		str	r3, [r7, #12]
 12761              	.L806:
 12762 0022 FB68     		ldr	r3, [r7, #12]
 12763 0024 013B     		subs	r3, r3, #1
 12764 0026 FB60     		str	r3, [r7, #12]
 12765 0028 FB68     		ldr	r3, [r7, #12]
 12766 002a 002B     		cmp	r3, #0
 12767 002c 07D1     		bne	.L804
 12768 002e 7B68     		ldr	r3, [r7, #4]
 12769 0030 1B6C     		ldr	r3, [r3, #64]
 12770 0032 43F02002 		orr	r2, r3, #32
 12771 0036 7B68     		ldr	r3, [r7, #4]
 12772 0038 1A64     		str	r2, [r3, #64]
 12773 003a 0123     		movs	r3, #1
 12774 003c 08E0     		b	.L805
 12775              	.L804:
 12776 003e 7B68     		ldr	r3, [r7, #4]
 12777 0040 1B68     		ldr	r3, [r3]
 12778 0042 1B68     		ldr	r3, [r3]
 12779 0044 03F40073 		and	r3, r3, #512
 12780 0048 B3F5007F 		cmp	r3, #512
 12781 004c E9D0     		beq	.L806
 12782 004e 0023     		movs	r3, #0
 12783              	.L805:
 12784 0050 1846     		mov	r0, r3
 12785 0052 1437     		adds	r7, r7, #20
 12786 0054 BD46     		mov	sp, r7
 12787              		@ sp needed
 12788 0056 5DF8047B 		ldr	r7, [sp], #4
 12789 005a 7047     		bx	lr
 12790              	.L808:
 12791              		.align	2
 12792              	.L807:
 12793 005c 00000000 		.word	SystemCoreClock
 12794 0060 89B5F814 		.word	351843721
 12796              		.section	.text.I2C_WaitOnRXNEFlagUntilTimeout,"ax",%progbits
 12797              		.align	1
 12798              		.syntax unified
 12799              		.thumb
 12800              		.thumb_func
 12802              	I2C_WaitOnRXNEFlagUntilTimeout:
 12803              		@ args = 0, pretend = 0, frame = 16
 12804              		@ frame_needed = 1, uses_anonymous_args = 0
 12805 0000 80B5     		push	{r7, lr}
 12806 0002 84B0     		sub	sp, sp, #16
 12807 0004 00AF     		add	r7, sp, #0
 12808 0006 F860     		str	r0, [r7, #12]
 12809 0008 B960     		str	r1, [r7, #8]
 12810 000a 7A60     		str	r2, [r7, #4]
 12811 000c 42E0     		b	.L810
ARM GAS  C:\Users\user\AppData\Local\Temp\cchxWhRb.s 			page 223


 12812              	.L814:
 12813 000e FB68     		ldr	r3, [r7, #12]
 12814 0010 1B68     		ldr	r3, [r3]
 12815 0012 5B69     		ldr	r3, [r3, #20]
 12816 0014 03F01003 		and	r3, r3, #16
 12817 0018 102B     		cmp	r3, #16
 12818 001a 19D1     		bne	.L811
 12819 001c FB68     		ldr	r3, [r7, #12]
 12820 001e 1B68     		ldr	r3, [r3]
 12821 0020 6FF01002 		mvn	r2, #16
 12822 0024 5A61     		str	r2, [r3, #20]
 12823 0026 FB68     		ldr	r3, [r7, #12]
 12824 0028 0022     		movs	r2, #0
 12825 002a 1A63     		str	r2, [r3, #48]
 12826 002c FB68     		ldr	r3, [r7, #12]
 12827 002e 2022     		movs	r2, #32
 12828 0030 83F83D20 		strb	r2, [r3, #61]
 12829 0034 FB68     		ldr	r3, [r7, #12]
 12830 0036 0022     		movs	r2, #0
 12831 0038 83F83E20 		strb	r2, [r3, #62]
 12832 003c FB68     		ldr	r3, [r7, #12]
 12833 003e 1A6C     		ldr	r2, [r3, #64]
 12834 0040 FB68     		ldr	r3, [r7, #12]
 12835 0042 1A64     		str	r2, [r3, #64]
 12836 0044 FB68     		ldr	r3, [r7, #12]
 12837 0046 0022     		movs	r2, #0
 12838 0048 83F83C20 		strb	r2, [r3, #60]
 12839 004c 0123     		movs	r3, #1
 12840 004e 29E0     		b	.L812
 12841              	.L811:
 12842 0050 FFF7FEFF 		bl	HAL_GetTick
 12843 0054 0246     		mov	r2, r0
 12844 0056 7B68     		ldr	r3, [r7, #4]
 12845 0058 D31A     		subs	r3, r2, r3
 12846 005a BA68     		ldr	r2, [r7, #8]
 12847 005c 9A42     		cmp	r2, r3
 12848 005e 02D3     		bcc	.L813
 12849 0060 BB68     		ldr	r3, [r7, #8]
 12850 0062 002B     		cmp	r3, #0
 12851 0064 16D1     		bne	.L810
 12852              	.L813:
 12853 0066 FB68     		ldr	r3, [r7, #12]
 12854 0068 0022     		movs	r2, #0
 12855 006a 1A63     		str	r2, [r3, #48]
 12856 006c FB68     		ldr	r3, [r7, #12]
 12857 006e 2022     		movs	r2, #32
 12858 0070 83F83D20 		strb	r2, [r3, #61]
 12859 0074 FB68     		ldr	r3, [r7, #12]
 12860 0076 0022     		movs	r2, #0
 12861 0078 83F83E20 		strb	r2, [r3, #62]
 12862 007c FB68     		ldr	r3, [r7, #12]
 12863 007e 1B6C     		ldr	r3, [r3, #64]
 12864 0080 43F02002 		orr	r2, r3, #32
 12865 0084 FB68     		ldr	r3, [r7, #12]
 12866 0086 1A64     		str	r2, [r3, #64]
 12867 0088 FB68     		ldr	r3, [r7, #12]
 12868 008a 0022     		movs	r2, #0
ARM GAS  C:\Users\user\AppData\Local\Temp\cchxWhRb.s 			page 224


 12869 008c 83F83C20 		strb	r2, [r3, #60]
 12870 0090 0123     		movs	r3, #1
 12871 0092 07E0     		b	.L812
 12872              	.L810:
 12873 0094 FB68     		ldr	r3, [r7, #12]
 12874 0096 1B68     		ldr	r3, [r3]
 12875 0098 5B69     		ldr	r3, [r3, #20]
 12876 009a 03F04003 		and	r3, r3, #64
 12877 009e 402B     		cmp	r3, #64
 12878 00a0 B5D1     		bne	.L814
 12879 00a2 0023     		movs	r3, #0
 12880              	.L812:
 12881 00a4 1846     		mov	r0, r3
 12882 00a6 1037     		adds	r7, r7, #16
 12883 00a8 BD46     		mov	sp, r7
 12884              		@ sp needed
 12885 00aa 80BD     		pop	{r7, pc}
 12887              		.section	.text.I2C_IsAcknowledgeFailed,"ax",%progbits
 12888              		.align	1
 12889              		.syntax unified
 12890              		.thumb
 12891              		.thumb_func
 12893              	I2C_IsAcknowledgeFailed:
 12894              		@ args = 0, pretend = 0, frame = 8
 12895              		@ frame_needed = 1, uses_anonymous_args = 0
 12896              		@ link register save eliminated.
 12897 0000 80B4     		push	{r7}
 12898 0002 83B0     		sub	sp, sp, #12
 12899 0004 00AF     		add	r7, sp, #0
 12900 0006 7860     		str	r0, [r7, #4]
 12901 0008 7B68     		ldr	r3, [r7, #4]
 12902 000a 1B68     		ldr	r3, [r3]
 12903 000c 5B69     		ldr	r3, [r3, #20]
 12904 000e 03F48063 		and	r3, r3, #1024
 12905 0012 B3F5806F 		cmp	r3, #1024
 12906 0016 1BD1     		bne	.L816
 12907 0018 7B68     		ldr	r3, [r7, #4]
 12908 001a 1B68     		ldr	r3, [r3]
 12909 001c 6FF48062 		mvn	r2, #1024
 12910 0020 5A61     		str	r2, [r3, #20]
 12911 0022 7B68     		ldr	r3, [r7, #4]
 12912 0024 0022     		movs	r2, #0
 12913 0026 1A63     		str	r2, [r3, #48]
 12914 0028 7B68     		ldr	r3, [r7, #4]
 12915 002a 2022     		movs	r2, #32
 12916 002c 83F83D20 		strb	r2, [r3, #61]
 12917 0030 7B68     		ldr	r3, [r7, #4]
 12918 0032 0022     		movs	r2, #0
 12919 0034 83F83E20 		strb	r2, [r3, #62]
 12920 0038 7B68     		ldr	r3, [r7, #4]
 12921 003a 1B6C     		ldr	r3, [r3, #64]
 12922 003c 43F00402 		orr	r2, r3, #4
 12923 0040 7B68     		ldr	r3, [r7, #4]
 12924 0042 1A64     		str	r2, [r3, #64]
 12925 0044 7B68     		ldr	r3, [r7, #4]
 12926 0046 0022     		movs	r2, #0
 12927 0048 83F83C20 		strb	r2, [r3, #60]
ARM GAS  C:\Users\user\AppData\Local\Temp\cchxWhRb.s 			page 225


 12928 004c 0123     		movs	r3, #1
 12929 004e 00E0     		b	.L817
 12930              	.L816:
 12931 0050 0023     		movs	r3, #0
 12932              	.L817:
 12933 0052 1846     		mov	r0, r3
 12934 0054 0C37     		adds	r7, r7, #12
 12935 0056 BD46     		mov	sp, r7
 12936              		@ sp needed
 12937 0058 5DF8047B 		ldr	r7, [sp], #4
 12938 005c 7047     		bx	lr
 12940              		.section	.text.I2C_ConvertOtherXferOptions,"ax",%progbits
 12941              		.align	1
 12942              		.syntax unified
 12943              		.thumb
 12944              		.thumb_func
 12946              	I2C_ConvertOtherXferOptions:
 12947              		@ args = 0, pretend = 0, frame = 8
 12948              		@ frame_needed = 1, uses_anonymous_args = 0
 12949              		@ link register save eliminated.
 12950 0000 80B4     		push	{r7}
 12951 0002 83B0     		sub	sp, sp, #12
 12952 0004 00AF     		add	r7, sp, #0
 12953 0006 7860     		str	r0, [r7, #4]
 12954 0008 7B68     		ldr	r3, [r7, #4]
 12955 000a DB6A     		ldr	r3, [r3, #44]
 12956 000c B3F52A0F 		cmp	r3, #11141120
 12957 0010 03D1     		bne	.L819
 12958 0012 7B68     		ldr	r3, [r7, #4]
 12959 0014 0122     		movs	r2, #1
 12960 0016 DA62     		str	r2, [r3, #44]
 12961 0018 07E0     		b	.L821
 12962              	.L819:
 12963 001a 7B68     		ldr	r3, [r7, #4]
 12964 001c DB6A     		ldr	r3, [r3, #44]
 12965 001e B3F12A4F 		cmp	r3, #-1442840576
 12966 0022 02D1     		bne	.L821
 12967 0024 7B68     		ldr	r3, [r7, #4]
 12968 0026 0822     		movs	r2, #8
 12969 0028 DA62     		str	r2, [r3, #44]
 12970              	.L821:
 12971 002a 00BF     		nop
 12972 002c 0C37     		adds	r7, r7, #12
 12973 002e BD46     		mov	sp, r7
 12974              		@ sp needed
 12975 0030 5DF8047B 		ldr	r7, [sp], #4
 12976 0034 7047     		bx	lr
 12978              		.ident	"GCC: (GNU Tools for STM32 12.3.rel1.20240306-1730) 12.3.1 20230626"
ARM GAS  C:\Users\user\AppData\Local\Temp\cchxWhRb.s 			page 226


DEFINED SYMBOLS
                            *ABS*:00000000 stm32f4xx_hal_i2c.c
C:\Users\user\AppData\Local\Temp\cchxWhRb.s:18     .text.HAL_I2C_Init:00000000 $t
C:\Users\user\AppData\Local\Temp\cchxWhRb.s:24     .text.HAL_I2C_Init:00000000 HAL_I2C_Init
C:\Users\user\AppData\Local\Temp\cchxWhRb.s:390    .text.HAL_I2C_MspInit:00000000 HAL_I2C_MspInit
C:\Users\user\AppData\Local\Temp\cchxWhRb.s:322    .text.HAL_I2C_Init:00000274 $d
C:\Users\user\AppData\Local\Temp\cchxWhRb.s:329    .text.HAL_I2C_DeInit:00000000 $t
C:\Users\user\AppData\Local\Temp\cchxWhRb.s:335    .text.HAL_I2C_DeInit:00000000 HAL_I2C_DeInit
C:\Users\user\AppData\Local\Temp\cchxWhRb.s:412    .text.HAL_I2C_MspDeInit:00000000 HAL_I2C_MspDeInit
C:\Users\user\AppData\Local\Temp\cchxWhRb.s:384    .text.HAL_I2C_MspInit:00000000 $t
C:\Users\user\AppData\Local\Temp\cchxWhRb.s:406    .text.HAL_I2C_MspDeInit:00000000 $t
C:\Users\user\AppData\Local\Temp\cchxWhRb.s:428    .text.HAL_I2C_Master_Transmit:00000000 $t
C:\Users\user\AppData\Local\Temp\cchxWhRb.s:434    .text.HAL_I2C_Master_Transmit:00000000 HAL_I2C_Master_Transmit
C:\Users\user\AppData\Local\Temp\cchxWhRb.s:12296  .text.I2C_WaitOnFlagUntilTimeout:00000000 I2C_WaitOnFlagUntilTimeout
C:\Users\user\AppData\Local\Temp\cchxWhRb.s:11103  .text.I2C_MasterRequestWrite:00000000 I2C_MasterRequestWrite
C:\Users\user\AppData\Local\Temp\cchxWhRb.s:12525  .text.I2C_WaitOnTXEFlagUntilTimeout:00000000 I2C_WaitOnTXEFlagUntilTimeout
C:\Users\user\AppData\Local\Temp\cchxWhRb.s:12598  .text.I2C_WaitOnBTFFlagUntilTimeout:00000000 I2C_WaitOnBTFFlagUntilTimeout
C:\Users\user\AppData\Local\Temp\cchxWhRb.s:681    .text.HAL_I2C_Master_Transmit:000001f4 $d
C:\Users\user\AppData\Local\Temp\cchxWhRb.s:685    .text.HAL_I2C_Master_Receive:00000000 $t
C:\Users\user\AppData\Local\Temp\cchxWhRb.s:691    .text.HAL_I2C_Master_Receive:00000000 HAL_I2C_Master_Receive
C:\Users\user\AppData\Local\Temp\cchxWhRb.s:11241  .text.I2C_MasterRequestRead:00000000 I2C_MasterRequestRead
C:\Users\user\AppData\Local\Temp\cchxWhRb.s:12802  .text.I2C_WaitOnRXNEFlagUntilTimeout:00000000 I2C_WaitOnRXNEFlagUntilTimeout
C:\Users\user\AppData\Local\Temp\cchxWhRb.s:959    .text.HAL_I2C_Master_Receive:00000224 $d
C:\Users\user\AppData\Local\Temp\cchxWhRb.s:963    .text.HAL_I2C_Master_Receive:00000230 $t
C:\Users\user\AppData\Local\Temp\cchxWhRb.s:1232   .text.HAL_I2C_Master_Receive:00000448 $d
C:\Users\user\AppData\Local\Temp\cchxWhRb.s:1235   .text.HAL_I2C_Slave_Transmit:00000000 $t
C:\Users\user\AppData\Local\Temp\cchxWhRb.s:1241   .text.HAL_I2C_Slave_Transmit:00000000 HAL_I2C_Slave_Transmit
C:\Users\user\AppData\Local\Temp\cchxWhRb.s:1510   .text.HAL_I2C_Slave_Transmit:00000224 $d
C:\Users\user\AppData\Local\Temp\cchxWhRb.s:1514   .text.HAL_I2C_Slave_Receive:00000000 $t
C:\Users\user\AppData\Local\Temp\cchxWhRb.s:1520   .text.HAL_I2C_Slave_Receive:00000000 HAL_I2C_Slave_Receive
C:\Users\user\AppData\Local\Temp\cchxWhRb.s:12671  .text.I2C_WaitOnSTOPFlagUntilTimeout:00000000 I2C_WaitOnSTOPFlagUntilTimeout
C:\Users\user\AppData\Local\Temp\cchxWhRb.s:1777   .text.HAL_I2C_Slave_Receive:0000020c $d
C:\Users\user\AppData\Local\Temp\cchxWhRb.s:1781   .text.HAL_I2C_Master_Transmit_IT:00000000 $t
C:\Users\user\AppData\Local\Temp\cchxWhRb.s:1787   .text.HAL_I2C_Master_Transmit_IT:00000000 HAL_I2C_Master_Transmit_IT
C:\Users\user\AppData\Local\Temp\cchxWhRb.s:1941   .text.HAL_I2C_Master_Transmit_IT:00000140 $d
C:\Users\user\AppData\Local\Temp\cchxWhRb.s:1946   .text.HAL_I2C_Master_Receive_IT:00000000 $t
C:\Users\user\AppData\Local\Temp\cchxWhRb.s:1952   .text.HAL_I2C_Master_Receive_IT:00000000 HAL_I2C_Master_Receive_IT
C:\Users\user\AppData\Local\Temp\cchxWhRb.s:2113   .text.HAL_I2C_Master_Receive_IT:00000150 $d
C:\Users\user\AppData\Local\Temp\cchxWhRb.s:2118   .text.HAL_I2C_Slave_Transmit_IT:00000000 $t
C:\Users\user\AppData\Local\Temp\cchxWhRb.s:2124   .text.HAL_I2C_Slave_Transmit_IT:00000000 HAL_I2C_Slave_Transmit_IT
C:\Users\user\AppData\Local\Temp\cchxWhRb.s:2235   .text.HAL_I2C_Slave_Transmit_IT:000000dc $d
C:\Users\user\AppData\Local\Temp\cchxWhRb.s:2238   .text.HAL_I2C_Slave_Receive_IT:00000000 $t
C:\Users\user\AppData\Local\Temp\cchxWhRb.s:2244   .text.HAL_I2C_Slave_Receive_IT:00000000 HAL_I2C_Slave_Receive_IT
C:\Users\user\AppData\Local\Temp\cchxWhRb.s:2355   .text.HAL_I2C_Slave_Receive_IT:000000dc $d
C:\Users\user\AppData\Local\Temp\cchxWhRb.s:2358   .text.HAL_I2C_Master_Transmit_DMA:00000000 $t
C:\Users\user\AppData\Local\Temp\cchxWhRb.s:2364   .text.HAL_I2C_Master_Transmit_DMA:00000000 HAL_I2C_Master_Transmit_DMA
C:\Users\user\AppData\Local\Temp\cchxWhRb.s:2642   .text.HAL_I2C_Master_Transmit_DMA:0000024c $d
C:\Users\user\AppData\Local\Temp\cchxWhRb.s:11845  .text.I2C_DMAXferCplt:00000000 I2C_DMAXferCplt
C:\Users\user\AppData\Local\Temp\cchxWhRb.s:12055  .text.I2C_DMAError:00000000 I2C_DMAError
C:\Users\user\AppData\Local\Temp\cchxWhRb.s:2649   .text.HAL_I2C_Master_Receive_DMA:00000000 $t
C:\Users\user\AppData\Local\Temp\cchxWhRb.s:2655   .text.HAL_I2C_Master_Receive_DMA:00000000 HAL_I2C_Master_Receive_DMA
C:\Users\user\AppData\Local\Temp\cchxWhRb.s:2933   .text.HAL_I2C_Master_Receive_DMA:0000024c $d
C:\Users\user\AppData\Local\Temp\cchxWhRb.s:2940   .text.HAL_I2C_Slave_Transmit_DMA:00000000 $t
C:\Users\user\AppData\Local\Temp\cchxWhRb.s:2946   .text.HAL_I2C_Slave_Transmit_DMA:00000000 HAL_I2C_Slave_Transmit_DMA
C:\Users\user\AppData\Local\Temp\cchxWhRb.s:3143   .text.HAL_I2C_Slave_Transmit_DMA:00000198 $d
C:\Users\user\AppData\Local\Temp\cchxWhRb.s:3148   .text.HAL_I2C_Slave_Receive_DMA:00000000 $t
C:\Users\user\AppData\Local\Temp\cchxWhRb.s:3154   .text.HAL_I2C_Slave_Receive_DMA:00000000 HAL_I2C_Slave_Receive_DMA
ARM GAS  C:\Users\user\AppData\Local\Temp\cchxWhRb.s 			page 227


C:\Users\user\AppData\Local\Temp\cchxWhRb.s:3351   .text.HAL_I2C_Slave_Receive_DMA:00000198 $d
C:\Users\user\AppData\Local\Temp\cchxWhRb.s:3356   .text.HAL_I2C_Mem_Write:00000000 $t
C:\Users\user\AppData\Local\Temp\cchxWhRb.s:3362   .text.HAL_I2C_Mem_Write:00000000 HAL_I2C_Mem_Write
C:\Users\user\AppData\Local\Temp\cchxWhRb.s:11448  .text.I2C_RequestMemoryWrite:00000000 I2C_RequestMemoryWrite
C:\Users\user\AppData\Local\Temp\cchxWhRb.s:3604   .text.HAL_I2C_Mem_Write:000001ec $d
C:\Users\user\AppData\Local\Temp\cchxWhRb.s:3608   .text.HAL_I2C_Mem_Read:00000000 $t
C:\Users\user\AppData\Local\Temp\cchxWhRb.s:3614   .text.HAL_I2C_Mem_Read:00000000 HAL_I2C_Mem_Read
C:\Users\user\AppData\Local\Temp\cchxWhRb.s:11608  .text.I2C_RequestMemoryRead:00000000 I2C_RequestMemoryRead
C:\Users\user\AppData\Local\Temp\cchxWhRb.s:3883   .text.HAL_I2C_Mem_Read:00000224 $d
C:\Users\user\AppData\Local\Temp\cchxWhRb.s:3887   .text.HAL_I2C_Mem_Read:00000230 $t
C:\Users\user\AppData\Local\Temp\cchxWhRb.s:4156   .text.HAL_I2C_Mem_Read:00000448 $d
C:\Users\user\AppData\Local\Temp\cchxWhRb.s:4159   .text.HAL_I2C_Mem_Write_IT:00000000 $t
C:\Users\user\AppData\Local\Temp\cchxWhRb.s:4165   .text.HAL_I2C_Mem_Write_IT:00000000 HAL_I2C_Mem_Write_IT
C:\Users\user\AppData\Local\Temp\cchxWhRb.s:4331   .text.HAL_I2C_Mem_Write_IT:00000158 $d
C:\Users\user\AppData\Local\Temp\cchxWhRb.s:4336   .text.HAL_I2C_Mem_Read_IT:00000000 $t
C:\Users\user\AppData\Local\Temp\cchxWhRb.s:4342   .text.HAL_I2C_Mem_Read_IT:00000000 HAL_I2C_Mem_Read_IT
C:\Users\user\AppData\Local\Temp\cchxWhRb.s:4520   .text.HAL_I2C_Mem_Read_IT:00000170 $d
C:\Users\user\AppData\Local\Temp\cchxWhRb.s:4525   .text.HAL_I2C_Mem_Write_DMA:00000000 $t
C:\Users\user\AppData\Local\Temp\cchxWhRb.s:4531   .text.HAL_I2C_Mem_Write_DMA:00000000 HAL_I2C_Mem_Write_DMA
C:\Users\user\AppData\Local\Temp\cchxWhRb.s:4848   .text.HAL_I2C_Mem_Write_DMA:000002a8 $d
C:\Users\user\AppData\Local\Temp\cchxWhRb.s:4854   .text.HAL_I2C_Mem_Write_DMA:000002bc $t
C:\Users\user\AppData\Local\Temp\cchxWhRb.s:4863   .text.HAL_I2C_Mem_Read_DMA:00000000 $t
C:\Users\user\AppData\Local\Temp\cchxWhRb.s:4869   .text.HAL_I2C_Mem_Read_DMA:00000000 HAL_I2C_Mem_Read_DMA
C:\Users\user\AppData\Local\Temp\cchxWhRb.s:5172   .text.HAL_I2C_Mem_Read_DMA:00000288 $d
C:\Users\user\AppData\Local\Temp\cchxWhRb.s:5178   .text.HAL_I2C_Mem_Read_DMA:0000029c $t
C:\Users\user\AppData\Local\Temp\cchxWhRb.s:5248   .text.HAL_I2C_IsDeviceReady:00000000 $t
C:\Users\user\AppData\Local\Temp\cchxWhRb.s:5254   .text.HAL_I2C_IsDeviceReady:00000000 HAL_I2C_IsDeviceReady
C:\Users\user\AppData\Local\Temp\cchxWhRb.s:5536   .text.HAL_I2C_IsDeviceReady:00000254 $d
C:\Users\user\AppData\Local\Temp\cchxWhRb.s:5540   .text.HAL_I2C_Master_Seq_Transmit_IT:00000000 $t
C:\Users\user\AppData\Local\Temp\cchxWhRb.s:5546   .text.HAL_I2C_Master_Seq_Transmit_IT:00000000 HAL_I2C_Master_Seq_Transmit_IT
C:\Users\user\AppData\Local\Temp\cchxWhRb.s:5738   .text.HAL_I2C_Master_Seq_Transmit_IT:00000184 $d
C:\Users\user\AppData\Local\Temp\cchxWhRb.s:5742   .text.HAL_I2C_Master_Seq_Transmit_DMA:00000000 $t
C:\Users\user\AppData\Local\Temp\cchxWhRb.s:5748   .text.HAL_I2C_Master_Seq_Transmit_DMA:00000000 HAL_I2C_Master_Seq_Transmit_DMA
C:\Users\user\AppData\Local\Temp\cchxWhRb.s:6078   .text.HAL_I2C_Master_Seq_Transmit_DMA:000002ac $d
C:\Users\user\AppData\Local\Temp\cchxWhRb.s:6083   .text.HAL_I2C_Master_Seq_Transmit_DMA:000002bc $t
C:\Users\user\AppData\Local\Temp\cchxWhRb.s:6092   .text.HAL_I2C_Master_Seq_Receive_IT:00000000 $t
C:\Users\user\AppData\Local\Temp\cchxWhRb.s:6098   .text.HAL_I2C_Master_Seq_Receive_IT:00000000 HAL_I2C_Master_Seq_Receive_IT
C:\Users\user\AppData\Local\Temp\cchxWhRb.s:6344   .text.HAL_I2C_Master_Seq_Receive_IT:000001f4 $d
C:\Users\user\AppData\Local\Temp\cchxWhRb.s:6348   .text.HAL_I2C_Master_Seq_Receive_DMA:00000000 $t
C:\Users\user\AppData\Local\Temp\cchxWhRb.s:6354   .text.HAL_I2C_Master_Seq_Receive_DMA:00000000 HAL_I2C_Master_Seq_Receive_DMA
C:\Users\user\AppData\Local\Temp\cchxWhRb.s:6667   .text.HAL_I2C_Master_Seq_Receive_DMA:0000028c $d
C:\Users\user\AppData\Local\Temp\cchxWhRb.s:6672   .text.HAL_I2C_Master_Seq_Receive_DMA:0000029c $t
C:\Users\user\AppData\Local\Temp\cchxWhRb.s:6780   .text.HAL_I2C_Slave_Seq_Transmit_IT:00000000 $t
C:\Users\user\AppData\Local\Temp\cchxWhRb.s:6786   .text.HAL_I2C_Slave_Seq_Transmit_IT:00000000 HAL_I2C_Slave_Seq_Transmit_IT
C:\Users\user\AppData\Local\Temp\cchxWhRb.s:6902   .text.HAL_I2C_Slave_Seq_Transmit_DMA:00000000 $t
C:\Users\user\AppData\Local\Temp\cchxWhRb.s:6908   .text.HAL_I2C_Slave_Seq_Transmit_DMA:00000000 HAL_I2C_Slave_Seq_Transmit_DMA
C:\Users\user\AppData\Local\Temp\cchxWhRb.s:7200   .text.HAL_I2C_Slave_Seq_Transmit_DMA:00000268 $d
C:\Users\user\AppData\Local\Temp\cchxWhRb.s:12124  .text.I2C_DMAAbort:00000000 I2C_DMAAbort
C:\Users\user\AppData\Local\Temp\cchxWhRb.s:7205   .text.HAL_I2C_Slave_Seq_Receive_IT:00000000 $t
C:\Users\user\AppData\Local\Temp\cchxWhRb.s:7211   .text.HAL_I2C_Slave_Seq_Receive_IT:00000000 HAL_I2C_Slave_Seq_Receive_IT
C:\Users\user\AppData\Local\Temp\cchxWhRb.s:7327   .text.HAL_I2C_Slave_Seq_Receive_DMA:00000000 $t
C:\Users\user\AppData\Local\Temp\cchxWhRb.s:7333   .text.HAL_I2C_Slave_Seq_Receive_DMA:00000000 HAL_I2C_Slave_Seq_Receive_DMA
C:\Users\user\AppData\Local\Temp\cchxWhRb.s:7625   .text.HAL_I2C_Slave_Seq_Receive_DMA:00000268 $d
C:\Users\user\AppData\Local\Temp\cchxWhRb.s:7630   .text.HAL_I2C_EnableListen_IT:00000000 $t
C:\Users\user\AppData\Local\Temp\cchxWhRb.s:7636   .text.HAL_I2C_EnableListen_IT:00000000 HAL_I2C_EnableListen_IT
C:\Users\user\AppData\Local\Temp\cchxWhRb.s:7693   .text.HAL_I2C_DisableListen_IT:00000000 $t
C:\Users\user\AppData\Local\Temp\cchxWhRb.s:7699   .text.HAL_I2C_DisableListen_IT:00000000 HAL_I2C_DisableListen_IT
ARM GAS  C:\Users\user\AppData\Local\Temp\cchxWhRb.s 			page 228


C:\Users\user\AppData\Local\Temp\cchxWhRb.s:7758   .text.HAL_I2C_Master_Abort_IT:00000000 $t
C:\Users\user\AppData\Local\Temp\cchxWhRb.s:7764   .text.HAL_I2C_Master_Abort_IT:00000000 HAL_I2C_Master_Abort_IT
C:\Users\user\AppData\Local\Temp\cchxWhRb.s:10808  .text.I2C_ITError:00000000 I2C_ITError
C:\Users\user\AppData\Local\Temp\cchxWhRb.s:7842   .text.HAL_I2C_EV_IRQHandler:00000000 $t
C:\Users\user\AppData\Local\Temp\cchxWhRb.s:7848   .text.HAL_I2C_EV_IRQHandler:00000000 HAL_I2C_EV_IRQHandler
C:\Users\user\AppData\Local\Temp\cchxWhRb.s:12946  .text.I2C_ConvertOtherXferOptions:00000000 I2C_ConvertOtherXferOptions
C:\Users\user\AppData\Local\Temp\cchxWhRb.s:9481   .text.I2C_Master_SB:00000000 I2C_Master_SB
C:\Users\user\AppData\Local\Temp\cchxWhRb.s:9623   .text.I2C_Master_ADD10:00000000 I2C_Master_ADD10
C:\Users\user\AppData\Local\Temp\cchxWhRb.s:9678   .text.I2C_Master_ADDR:00000000 I2C_Master_ADDR
C:\Users\user\AppData\Local\Temp\cchxWhRb.s:8617   .text.I2C_MasterTransmit_TXE:00000000 I2C_MasterTransmit_TXE
C:\Users\user\AppData\Local\Temp\cchxWhRb.s:8774   .text.I2C_MasterTransmit_BTF:00000000 I2C_MasterTransmit_BTF
C:\Users\user\AppData\Local\Temp\cchxWhRb.s:8893   .text.I2C_MemoryTransmit_TXE_BTF:00000000 I2C_MemoryTransmit_TXE_BTF
C:\Users\user\AppData\Local\Temp\cchxWhRb.s:9051   .text.I2C_MasterReceive_RXNE:00000000 I2C_MasterReceive_RXNE
C:\Users\user\AppData\Local\Temp\cchxWhRb.s:9238   .text.I2C_MasterReceive_BTF:00000000 I2C_MasterReceive_BTF
C:\Users\user\AppData\Local\Temp\cchxWhRb.s:10310  .text.I2C_Slave_ADDR:00000000 I2C_Slave_ADDR
C:\Users\user\AppData\Local\Temp\cchxWhRb.s:10390  .text.I2C_Slave_STOPF:00000000 I2C_Slave_STOPF
C:\Users\user\AppData\Local\Temp\cchxWhRb.s:10080  .text.I2C_SlaveTransmit_TXE:00000000 I2C_SlaveTransmit_TXE
C:\Users\user\AppData\Local\Temp\cchxWhRb.s:10149  .text.I2C_SlaveTransmit_BTF:00000000 I2C_SlaveTransmit_BTF
C:\Users\user\AppData\Local\Temp\cchxWhRb.s:10194  .text.I2C_SlaveReceive_RXNE:00000000 I2C_SlaveReceive_RXNE
C:\Users\user\AppData\Local\Temp\cchxWhRb.s:10264  .text.I2C_SlaveReceive_BTF:00000000 I2C_SlaveReceive_BTF
C:\Users\user\AppData\Local\Temp\cchxWhRb.s:8156   .text.HAL_I2C_ER_IRQHandler:00000000 $t
C:\Users\user\AppData\Local\Temp\cchxWhRb.s:8162   .text.HAL_I2C_ER_IRQHandler:00000000 HAL_I2C_ER_IRQHandler
C:\Users\user\AppData\Local\Temp\cchxWhRb.s:10693  .text.I2C_Slave_AF:00000000 I2C_Slave_AF
C:\Users\user\AppData\Local\Temp\cchxWhRb.s:8314   .text.HAL_I2C_MasterTxCpltCallback:00000000 $t
C:\Users\user\AppData\Local\Temp\cchxWhRb.s:8320   .text.HAL_I2C_MasterTxCpltCallback:00000000 HAL_I2C_MasterTxCpltCallback
C:\Users\user\AppData\Local\Temp\cchxWhRb.s:8336   .text.HAL_I2C_MasterRxCpltCallback:00000000 $t
C:\Users\user\AppData\Local\Temp\cchxWhRb.s:8342   .text.HAL_I2C_MasterRxCpltCallback:00000000 HAL_I2C_MasterRxCpltCallback
C:\Users\user\AppData\Local\Temp\cchxWhRb.s:8358   .text.HAL_I2C_SlaveTxCpltCallback:00000000 $t
C:\Users\user\AppData\Local\Temp\cchxWhRb.s:8364   .text.HAL_I2C_SlaveTxCpltCallback:00000000 HAL_I2C_SlaveTxCpltCallback
C:\Users\user\AppData\Local\Temp\cchxWhRb.s:8380   .text.HAL_I2C_SlaveRxCpltCallback:00000000 $t
C:\Users\user\AppData\Local\Temp\cchxWhRb.s:8386   .text.HAL_I2C_SlaveRxCpltCallback:00000000 HAL_I2C_SlaveRxCpltCallback
C:\Users\user\AppData\Local\Temp\cchxWhRb.s:8402   .text.HAL_I2C_AddrCallback:00000000 $t
C:\Users\user\AppData\Local\Temp\cchxWhRb.s:8408   .text.HAL_I2C_AddrCallback:00000000 HAL_I2C_AddrCallback
C:\Users\user\AppData\Local\Temp\cchxWhRb.s:8428   .text.HAL_I2C_ListenCpltCallback:00000000 $t
C:\Users\user\AppData\Local\Temp\cchxWhRb.s:8434   .text.HAL_I2C_ListenCpltCallback:00000000 HAL_I2C_ListenCpltCallback
C:\Users\user\AppData\Local\Temp\cchxWhRb.s:8450   .text.HAL_I2C_MemTxCpltCallback:00000000 $t
C:\Users\user\AppData\Local\Temp\cchxWhRb.s:8456   .text.HAL_I2C_MemTxCpltCallback:00000000 HAL_I2C_MemTxCpltCallback
C:\Users\user\AppData\Local\Temp\cchxWhRb.s:8472   .text.HAL_I2C_MemRxCpltCallback:00000000 $t
C:\Users\user\AppData\Local\Temp\cchxWhRb.s:8478   .text.HAL_I2C_MemRxCpltCallback:00000000 HAL_I2C_MemRxCpltCallback
C:\Users\user\AppData\Local\Temp\cchxWhRb.s:8494   .text.HAL_I2C_ErrorCallback:00000000 $t
C:\Users\user\AppData\Local\Temp\cchxWhRb.s:8500   .text.HAL_I2C_ErrorCallback:00000000 HAL_I2C_ErrorCallback
C:\Users\user\AppData\Local\Temp\cchxWhRb.s:8516   .text.HAL_I2C_AbortCpltCallback:00000000 $t
C:\Users\user\AppData\Local\Temp\cchxWhRb.s:8522   .text.HAL_I2C_AbortCpltCallback:00000000 HAL_I2C_AbortCpltCallback
C:\Users\user\AppData\Local\Temp\cchxWhRb.s:8538   .text.HAL_I2C_GetState:00000000 $t
C:\Users\user\AppData\Local\Temp\cchxWhRb.s:8544   .text.HAL_I2C_GetState:00000000 HAL_I2C_GetState
C:\Users\user\AppData\Local\Temp\cchxWhRb.s:8563   .text.HAL_I2C_GetMode:00000000 $t
C:\Users\user\AppData\Local\Temp\cchxWhRb.s:8569   .text.HAL_I2C_GetMode:00000000 HAL_I2C_GetMode
C:\Users\user\AppData\Local\Temp\cchxWhRb.s:8588   .text.HAL_I2C_GetError:00000000 $t
C:\Users\user\AppData\Local\Temp\cchxWhRb.s:8594   .text.HAL_I2C_GetError:00000000 HAL_I2C_GetError
C:\Users\user\AppData\Local\Temp\cchxWhRb.s:8612   .text.I2C_MasterTransmit_TXE:00000000 $t
C:\Users\user\AppData\Local\Temp\cchxWhRb.s:8769   .text.I2C_MasterTransmit_BTF:00000000 $t
C:\Users\user\AppData\Local\Temp\cchxWhRb.s:8888   .text.I2C_MemoryTransmit_TXE_BTF:00000000 $t
C:\Users\user\AppData\Local\Temp\cchxWhRb.s:9046   .text.I2C_MasterReceive_RXNE:00000000 $t
C:\Users\user\AppData\Local\Temp\cchxWhRb.s:12741  .text.I2C_WaitOnSTOPRequestThroughIT:00000000 I2C_WaitOnSTOPRequestThroughIT
C:\Users\user\AppData\Local\Temp\cchxWhRb.s:9233   .text.I2C_MasterReceive_BTF:00000000 $t
C:\Users\user\AppData\Local\Temp\cchxWhRb.s:9476   .text.I2C_Master_SB:00000000 $t
C:\Users\user\AppData\Local\Temp\cchxWhRb.s:9618   .text.I2C_Master_ADD10:00000000 $t
ARM GAS  C:\Users\user\AppData\Local\Temp\cchxWhRb.s 			page 229


C:\Users\user\AppData\Local\Temp\cchxWhRb.s:9673   .text.I2C_Master_ADDR:00000000 $t
C:\Users\user\AppData\Local\Temp\cchxWhRb.s:10075  .text.I2C_SlaveTransmit_TXE:00000000 $t
C:\Users\user\AppData\Local\Temp\cchxWhRb.s:10144  .text.I2C_SlaveTransmit_BTF:00000000 $t
C:\Users\user\AppData\Local\Temp\cchxWhRb.s:10189  .text.I2C_SlaveReceive_RXNE:00000000 $t
C:\Users\user\AppData\Local\Temp\cchxWhRb.s:10259  .text.I2C_SlaveReceive_BTF:00000000 $t
C:\Users\user\AppData\Local\Temp\cchxWhRb.s:10305  .text.I2C_Slave_ADDR:00000000 $t
C:\Users\user\AppData\Local\Temp\cchxWhRb.s:10385  .text.I2C_Slave_STOPF:00000000 $t
C:\Users\user\AppData\Local\Temp\cchxWhRb.s:10684  .text.I2C_Slave_STOPF:00000258 $d
C:\Users\user\AppData\Local\Temp\cchxWhRb.s:10688  .text.I2C_Slave_AF:00000000 $t
C:\Users\user\AppData\Local\Temp\cchxWhRb.s:10800  .text.I2C_Slave_AF:000000dc $d
C:\Users\user\AppData\Local\Temp\cchxWhRb.s:10803  .text.I2C_ITError:00000000 $t
C:\Users\user\AppData\Local\Temp\cchxWhRb.s:11094  .text.I2C_ITError:0000025c $d
C:\Users\user\AppData\Local\Temp\cchxWhRb.s:11098  .text.I2C_MasterRequestWrite:00000000 $t
C:\Users\user\AppData\Local\Temp\cchxWhRb.s:12394  .text.I2C_WaitOnMasterAddressFlagUntilTimeout:00000000 I2C_WaitOnMasterAddressFlagUntilTimeout
C:\Users\user\AppData\Local\Temp\cchxWhRb.s:11232  .text.I2C_MasterRequestWrite:000000fc $d
C:\Users\user\AppData\Local\Temp\cchxWhRb.s:11236  .text.I2C_MasterRequestRead:00000000 $t
C:\Users\user\AppData\Local\Temp\cchxWhRb.s:11439  .text.I2C_MasterRequestRead:00000194 $d
C:\Users\user\AppData\Local\Temp\cchxWhRb.s:11443  .text.I2C_RequestMemoryWrite:00000000 $t
C:\Users\user\AppData\Local\Temp\cchxWhRb.s:11600  .text.I2C_RequestMemoryWrite:00000128 $d
C:\Users\user\AppData\Local\Temp\cchxWhRb.s:11603  .text.I2C_RequestMemoryRead:00000000 $t
C:\Users\user\AppData\Local\Temp\cchxWhRb.s:11837  .text.I2C_RequestMemoryRead:000001cc $d
C:\Users\user\AppData\Local\Temp\cchxWhRb.s:11840  .text.I2C_DMAXferCplt:00000000 $t
C:\Users\user\AppData\Local\Temp\cchxWhRb.s:12050  .text.I2C_DMAError:00000000 $t
C:\Users\user\AppData\Local\Temp\cchxWhRb.s:12119  .text.I2C_DMAAbort:00000000 $t
C:\Users\user\AppData\Local\Temp\cchxWhRb.s:12287  .text.I2C_DMAAbort:00000148 $d
C:\Users\user\AppData\Local\Temp\cchxWhRb.s:12291  .text.I2C_WaitOnFlagUntilTimeout:00000000 $t
C:\Users\user\AppData\Local\Temp\cchxWhRb.s:12389  .text.I2C_WaitOnMasterAddressFlagUntilTimeout:00000000 $t
C:\Users\user\AppData\Local\Temp\cchxWhRb.s:12520  .text.I2C_WaitOnTXEFlagUntilTimeout:00000000 $t
C:\Users\user\AppData\Local\Temp\cchxWhRb.s:12893  .text.I2C_IsAcknowledgeFailed:00000000 I2C_IsAcknowledgeFailed
C:\Users\user\AppData\Local\Temp\cchxWhRb.s:12593  .text.I2C_WaitOnBTFFlagUntilTimeout:00000000 $t
C:\Users\user\AppData\Local\Temp\cchxWhRb.s:12666  .text.I2C_WaitOnSTOPFlagUntilTimeout:00000000 $t
C:\Users\user\AppData\Local\Temp\cchxWhRb.s:12736  .text.I2C_WaitOnSTOPRequestThroughIT:00000000 $t
C:\Users\user\AppData\Local\Temp\cchxWhRb.s:12793  .text.I2C_WaitOnSTOPRequestThroughIT:0000005c $d
C:\Users\user\AppData\Local\Temp\cchxWhRb.s:12797  .text.I2C_WaitOnRXNEFlagUntilTimeout:00000000 $t
C:\Users\user\AppData\Local\Temp\cchxWhRb.s:12888  .text.I2C_IsAcknowledgeFailed:00000000 $t
C:\Users\user\AppData\Local\Temp\cchxWhRb.s:12941  .text.I2C_ConvertOtherXferOptions:00000000 $t

UNDEFINED SYMBOLS
HAL_RCC_GetPCLK1Freq
HAL_GetTick
SystemCoreClock
HAL_DMA_Start_IT
HAL_DMA_Abort_IT
HAL_DMA_GetState
HAL_DMA_GetError
