ARM GAS  C:\Users\user\AppData\Local\Temp\cc01GxlO.s 			page 1


   1              		.cpu cortex-m4
   2              		.arch armv7e-m
   3              		.fpu fpv4-sp-d16
   4              		.eabi_attribute 27, 1
   5              		.eabi_attribute 28, 1
   6              		.eabi_attribute 20, 1
   7              		.eabi_attribute 21, 1
   8              		.eabi_attribute 23, 3
   9              		.eabi_attribute 24, 1
  10              		.eabi_attribute 25, 1
  11              		.eabi_attribute 26, 1
  12              		.eabi_attribute 30, 6
  13              		.eabi_attribute 34, 1
  14              		.eabi_attribute 18, 4
  15              		.file	"stm32f4xx_hal_rtc_ex.c"
  16              		.text
  17              		.section	.text.HAL_RTCEx_SetTimeStamp,"ax",%progbits
  18              		.align	1
  19              		.global	HAL_RTCEx_SetTimeStamp
  20              		.syntax unified
  21              		.thumb
  22              		.thumb_func
  24              	HAL_RTCEx_SetTimeStamp:
  25              		@ args = 0, pretend = 0, frame = 24
  26              		@ frame_needed = 1, uses_anonymous_args = 0
  27              		@ link register save eliminated.
  28 0000 80B4     		push	{r7}
  29 0002 87B0     		sub	sp, sp, #28
  30 0004 00AF     		add	r7, sp, #0
  31 0006 F860     		str	r0, [r7, #12]
  32 0008 B960     		str	r1, [r7, #8]
  33 000a 7A60     		str	r2, [r7, #4]
  34 000c 0023     		movs	r3, #0
  35 000e 7B61     		str	r3, [r7, #20]
  36 0010 FB68     		ldr	r3, [r7, #12]
  37 0012 1B7F     		ldrb	r3, [r3, #28]	@ zero_extendqisi2
  38 0014 012B     		cmp	r3, #1
  39 0016 01D1     		bne	.L2
  40 0018 0223     		movs	r3, #2
  41 001a 52E0     		b	.L3
  42              	.L2:
  43 001c FB68     		ldr	r3, [r7, #12]
  44 001e 0122     		movs	r2, #1
  45 0020 1A77     		strb	r2, [r3, #28]
  46 0022 FB68     		ldr	r3, [r7, #12]
  47 0024 0222     		movs	r2, #2
  48 0026 5A77     		strb	r2, [r3, #29]
  49 0028 FB68     		ldr	r3, [r7, #12]
  50 002a 1B68     		ldr	r3, [r3]
  51 002c 1A6C     		ldr	r2, [r3, #64]
  52 002e FB68     		ldr	r3, [r7, #12]
  53 0030 1B68     		ldr	r3, [r3]
  54 0032 22F40032 		bic	r2, r2, #131072
  55 0036 1A64     		str	r2, [r3, #64]
  56 0038 FB68     		ldr	r3, [r7, #12]
  57 003a 1B68     		ldr	r3, [r3]
  58 003c 196C     		ldr	r1, [r3, #64]
ARM GAS  C:\Users\user\AppData\Local\Temp\cc01GxlO.s 			page 2


  59 003e FB68     		ldr	r3, [r7, #12]
  60 0040 1B68     		ldr	r3, [r3]
  61 0042 7A68     		ldr	r2, [r7, #4]
  62 0044 0A43     		orrs	r2, r2, r1
  63 0046 1A64     		str	r2, [r3, #64]
  64 0048 FB68     		ldr	r3, [r7, #12]
  65 004a 1B68     		ldr	r3, [r3]
  66 004c 9B68     		ldr	r3, [r3, #8]
  67 004e 23F40063 		bic	r3, r3, #2048
  68 0052 23F00803 		bic	r3, r3, #8
  69 0056 7B61     		str	r3, [r7, #20]
  70 0058 7A69     		ldr	r2, [r7, #20]
  71 005a BB68     		ldr	r3, [r7, #8]
  72 005c 1343     		orrs	r3, r3, r2
  73 005e 7B61     		str	r3, [r7, #20]
  74 0060 FB68     		ldr	r3, [r7, #12]
  75 0062 1B68     		ldr	r3, [r3]
  76 0064 CA22     		movs	r2, #202
  77 0066 5A62     		str	r2, [r3, #36]
  78 0068 FB68     		ldr	r3, [r7, #12]
  79 006a 1B68     		ldr	r3, [r3]
  80 006c 5322     		movs	r2, #83
  81 006e 5A62     		str	r2, [r3, #36]
  82 0070 FB68     		ldr	r3, [r7, #12]
  83 0072 1B68     		ldr	r3, [r3]
  84 0074 7A69     		ldr	r2, [r7, #20]
  85 0076 9A60     		str	r2, [r3, #8]
  86 0078 FB68     		ldr	r3, [r7, #12]
  87 007a 1B68     		ldr	r3, [r3]
  88 007c DB68     		ldr	r3, [r3, #12]
  89 007e DAB2     		uxtb	r2, r3
  90 0080 FB68     		ldr	r3, [r7, #12]
  91 0082 1B68     		ldr	r3, [r3]
  92 0084 62F40862 		orn	r2, r2, #2176
  93 0088 DA60     		str	r2, [r3, #12]
  94 008a FB68     		ldr	r3, [r7, #12]
  95 008c 1B68     		ldr	r3, [r3]
  96 008e DB68     		ldr	r3, [r3, #12]
  97 0090 DAB2     		uxtb	r2, r3
  98 0092 FB68     		ldr	r3, [r7, #12]
  99 0094 1B68     		ldr	r3, [r3]
 100 0096 62F48452 		orn	r2, r2, #4224
 101 009a DA60     		str	r2, [r3, #12]
 102 009c FB68     		ldr	r3, [r7, #12]
 103 009e 1B68     		ldr	r3, [r3]
 104 00a0 9A68     		ldr	r2, [r3, #8]
 105 00a2 FB68     		ldr	r3, [r7, #12]
 106 00a4 1B68     		ldr	r3, [r3]
 107 00a6 42F40062 		orr	r2, r2, #2048
 108 00aa 9A60     		str	r2, [r3, #8]
 109 00ac FB68     		ldr	r3, [r7, #12]
 110 00ae 1B68     		ldr	r3, [r3]
 111 00b0 FF22     		movs	r2, #255
 112 00b2 5A62     		str	r2, [r3, #36]
 113 00b4 FB68     		ldr	r3, [r7, #12]
 114 00b6 0122     		movs	r2, #1
 115 00b8 5A77     		strb	r2, [r3, #29]
ARM GAS  C:\Users\user\AppData\Local\Temp\cc01GxlO.s 			page 3


 116 00ba FB68     		ldr	r3, [r7, #12]
 117 00bc 0022     		movs	r2, #0
 118 00be 1A77     		strb	r2, [r3, #28]
 119 00c0 0023     		movs	r3, #0
 120              	.L3:
 121 00c2 1846     		mov	r0, r3
 122 00c4 1C37     		adds	r7, r7, #28
 123 00c6 BD46     		mov	sp, r7
 124              		@ sp needed
 125 00c8 5DF8047B 		ldr	r7, [sp], #4
 126 00cc 7047     		bx	lr
 128              		.section	.text.HAL_RTCEx_SetTimeStamp_IT,"ax",%progbits
 129              		.align	1
 130              		.global	HAL_RTCEx_SetTimeStamp_IT
 131              		.syntax unified
 132              		.thumb
 133              		.thumb_func
 135              	HAL_RTCEx_SetTimeStamp_IT:
 136              		@ args = 0, pretend = 0, frame = 24
 137              		@ frame_needed = 1, uses_anonymous_args = 0
 138              		@ link register save eliminated.
 139 0000 80B4     		push	{r7}
 140 0002 87B0     		sub	sp, sp, #28
 141 0004 00AF     		add	r7, sp, #0
 142 0006 F860     		str	r0, [r7, #12]
 143 0008 B960     		str	r1, [r7, #8]
 144 000a 7A60     		str	r2, [r7, #4]
 145 000c 0023     		movs	r3, #0
 146 000e 7B61     		str	r3, [r7, #20]
 147 0010 FB68     		ldr	r3, [r7, #12]
 148 0012 1B7F     		ldrb	r3, [r3, #28]	@ zero_extendqisi2
 149 0014 012B     		cmp	r3, #1
 150 0016 01D1     		bne	.L5
 151 0018 0223     		movs	r3, #2
 152 001a 66E0     		b	.L6
 153              	.L5:
 154 001c FB68     		ldr	r3, [r7, #12]
 155 001e 0122     		movs	r2, #1
 156 0020 1A77     		strb	r2, [r3, #28]
 157 0022 FB68     		ldr	r3, [r7, #12]
 158 0024 0222     		movs	r2, #2
 159 0026 5A77     		strb	r2, [r3, #29]
 160 0028 FB68     		ldr	r3, [r7, #12]
 161 002a 1B68     		ldr	r3, [r3]
 162 002c 1A6C     		ldr	r2, [r3, #64]
 163 002e FB68     		ldr	r3, [r7, #12]
 164 0030 1B68     		ldr	r3, [r3]
 165 0032 22F40032 		bic	r2, r2, #131072
 166 0036 1A64     		str	r2, [r3, #64]
 167 0038 FB68     		ldr	r3, [r7, #12]
 168 003a 1B68     		ldr	r3, [r3]
 169 003c 196C     		ldr	r1, [r3, #64]
 170 003e FB68     		ldr	r3, [r7, #12]
 171 0040 1B68     		ldr	r3, [r3]
 172 0042 7A68     		ldr	r2, [r7, #4]
 173 0044 0A43     		orrs	r2, r2, r1
 174 0046 1A64     		str	r2, [r3, #64]
ARM GAS  C:\Users\user\AppData\Local\Temp\cc01GxlO.s 			page 4


 175 0048 FB68     		ldr	r3, [r7, #12]
 176 004a 1B68     		ldr	r3, [r3]
 177 004c 9B68     		ldr	r3, [r3, #8]
 178 004e 23F40063 		bic	r3, r3, #2048
 179 0052 23F00803 		bic	r3, r3, #8
 180 0056 7B61     		str	r3, [r7, #20]
 181 0058 7A69     		ldr	r2, [r7, #20]
 182 005a BB68     		ldr	r3, [r7, #8]
 183 005c 1343     		orrs	r3, r3, r2
 184 005e 7B61     		str	r3, [r7, #20]
 185 0060 FB68     		ldr	r3, [r7, #12]
 186 0062 1B68     		ldr	r3, [r3]
 187 0064 CA22     		movs	r2, #202
 188 0066 5A62     		str	r2, [r3, #36]
 189 0068 FB68     		ldr	r3, [r7, #12]
 190 006a 1B68     		ldr	r3, [r3]
 191 006c 5322     		movs	r2, #83
 192 006e 5A62     		str	r2, [r3, #36]
 193 0070 FB68     		ldr	r3, [r7, #12]
 194 0072 1B68     		ldr	r3, [r3]
 195 0074 7A69     		ldr	r2, [r7, #20]
 196 0076 9A60     		str	r2, [r3, #8]
 197 0078 FB68     		ldr	r3, [r7, #12]
 198 007a 1B68     		ldr	r3, [r3]
 199 007c DB68     		ldr	r3, [r3, #12]
 200 007e DAB2     		uxtb	r2, r3
 201 0080 FB68     		ldr	r3, [r7, #12]
 202 0082 1B68     		ldr	r3, [r3]
 203 0084 62F40862 		orn	r2, r2, #2176
 204 0088 DA60     		str	r2, [r3, #12]
 205 008a FB68     		ldr	r3, [r7, #12]
 206 008c 1B68     		ldr	r3, [r3]
 207 008e DB68     		ldr	r3, [r3, #12]
 208 0090 DAB2     		uxtb	r2, r3
 209 0092 FB68     		ldr	r3, [r7, #12]
 210 0094 1B68     		ldr	r3, [r3]
 211 0096 62F48452 		orn	r2, r2, #4224
 212 009a DA60     		str	r2, [r3, #12]
 213 009c FB68     		ldr	r3, [r7, #12]
 214 009e 1B68     		ldr	r3, [r3]
 215 00a0 9A68     		ldr	r2, [r3, #8]
 216 00a2 FB68     		ldr	r3, [r7, #12]
 217 00a4 1B68     		ldr	r3, [r3]
 218 00a6 42F40062 		orr	r2, r2, #2048
 219 00aa 9A60     		str	r2, [r3, #8]
 220 00ac FB68     		ldr	r3, [r7, #12]
 221 00ae 1B68     		ldr	r3, [r3]
 222 00b0 9A68     		ldr	r2, [r3, #8]
 223 00b2 FB68     		ldr	r3, [r7, #12]
 224 00b4 1B68     		ldr	r3, [r3]
 225 00b6 42F40042 		orr	r2, r2, #32768
 226 00ba 9A60     		str	r2, [r3, #8]
 227 00bc FB68     		ldr	r3, [r7, #12]
 228 00be 1B68     		ldr	r3, [r3]
 229 00c0 FF22     		movs	r2, #255
 230 00c2 5A62     		str	r2, [r3, #36]
 231 00c4 0C4B     		ldr	r3, .L7
ARM GAS  C:\Users\user\AppData\Local\Temp\cc01GxlO.s 			page 5


 232 00c6 1B68     		ldr	r3, [r3]
 233 00c8 0B4A     		ldr	r2, .L7
 234 00ca 43F40013 		orr	r3, r3, #2097152
 235 00ce 1360     		str	r3, [r2]
 236 00d0 094B     		ldr	r3, .L7
 237 00d2 9B68     		ldr	r3, [r3, #8]
 238 00d4 084A     		ldr	r2, .L7
 239 00d6 43F40013 		orr	r3, r3, #2097152
 240 00da 9360     		str	r3, [r2, #8]
 241 00dc FB68     		ldr	r3, [r7, #12]
 242 00de 0122     		movs	r2, #1
 243 00e0 5A77     		strb	r2, [r3, #29]
 244 00e2 FB68     		ldr	r3, [r7, #12]
 245 00e4 0022     		movs	r2, #0
 246 00e6 1A77     		strb	r2, [r3, #28]
 247 00e8 0023     		movs	r3, #0
 248              	.L6:
 249 00ea 1846     		mov	r0, r3
 250 00ec 1C37     		adds	r7, r7, #28
 251 00ee BD46     		mov	sp, r7
 252              		@ sp needed
 253 00f0 5DF8047B 		ldr	r7, [sp], #4
 254 00f4 7047     		bx	lr
 255              	.L8:
 256 00f6 00BF     		.align	2
 257              	.L7:
 258 00f8 003C0140 		.word	1073822720
 260              		.section	.text.HAL_RTCEx_DeactivateTimeStamp,"ax",%progbits
 261              		.align	1
 262              		.global	HAL_RTCEx_DeactivateTimeStamp
 263              		.syntax unified
 264              		.thumb
 265              		.thumb_func
 267              	HAL_RTCEx_DeactivateTimeStamp:
 268              		@ args = 0, pretend = 0, frame = 16
 269              		@ frame_needed = 1, uses_anonymous_args = 0
 270              		@ link register save eliminated.
 271 0000 80B4     		push	{r7}
 272 0002 85B0     		sub	sp, sp, #20
 273 0004 00AF     		add	r7, sp, #0
 274 0006 7860     		str	r0, [r7, #4]
 275 0008 0023     		movs	r3, #0
 276 000a FB60     		str	r3, [r7, #12]
 277 000c 7B68     		ldr	r3, [r7, #4]
 278 000e 1B7F     		ldrb	r3, [r3, #28]	@ zero_extendqisi2
 279 0010 012B     		cmp	r3, #1
 280 0012 01D1     		bne	.L10
 281 0014 0223     		movs	r3, #2
 282 0016 2CE0     		b	.L11
 283              	.L10:
 284 0018 7B68     		ldr	r3, [r7, #4]
 285 001a 0122     		movs	r2, #1
 286 001c 1A77     		strb	r2, [r3, #28]
 287 001e 7B68     		ldr	r3, [r7, #4]
 288 0020 0222     		movs	r2, #2
 289 0022 5A77     		strb	r2, [r3, #29]
 290 0024 7B68     		ldr	r3, [r7, #4]
ARM GAS  C:\Users\user\AppData\Local\Temp\cc01GxlO.s 			page 6


 291 0026 1B68     		ldr	r3, [r3]
 292 0028 CA22     		movs	r2, #202
 293 002a 5A62     		str	r2, [r3, #36]
 294 002c 7B68     		ldr	r3, [r7, #4]
 295 002e 1B68     		ldr	r3, [r3]
 296 0030 5322     		movs	r2, #83
 297 0032 5A62     		str	r2, [r3, #36]
 298 0034 7B68     		ldr	r3, [r7, #4]
 299 0036 1B68     		ldr	r3, [r3]
 300 0038 9A68     		ldr	r2, [r3, #8]
 301 003a 7B68     		ldr	r3, [r7, #4]
 302 003c 1B68     		ldr	r3, [r3]
 303 003e 22F40042 		bic	r2, r2, #32768
 304 0042 9A60     		str	r2, [r3, #8]
 305 0044 7B68     		ldr	r3, [r7, #4]
 306 0046 1B68     		ldr	r3, [r3]
 307 0048 9B68     		ldr	r3, [r3, #8]
 308 004a 23F40063 		bic	r3, r3, #2048
 309 004e 23F00803 		bic	r3, r3, #8
 310 0052 FB60     		str	r3, [r7, #12]
 311 0054 7B68     		ldr	r3, [r7, #4]
 312 0056 1B68     		ldr	r3, [r3]
 313 0058 FA68     		ldr	r2, [r7, #12]
 314 005a 9A60     		str	r2, [r3, #8]
 315 005c 7B68     		ldr	r3, [r7, #4]
 316 005e 1B68     		ldr	r3, [r3]
 317 0060 FF22     		movs	r2, #255
 318 0062 5A62     		str	r2, [r3, #36]
 319 0064 7B68     		ldr	r3, [r7, #4]
 320 0066 0122     		movs	r2, #1
 321 0068 5A77     		strb	r2, [r3, #29]
 322 006a 7B68     		ldr	r3, [r7, #4]
 323 006c 0022     		movs	r2, #0
 324 006e 1A77     		strb	r2, [r3, #28]
 325 0070 0023     		movs	r3, #0
 326              	.L11:
 327 0072 1846     		mov	r0, r3
 328 0074 1437     		adds	r7, r7, #20
 329 0076 BD46     		mov	sp, r7
 330              		@ sp needed
 331 0078 5DF8047B 		ldr	r7, [sp], #4
 332 007c 7047     		bx	lr
 334              		.section	.text.HAL_RTCEx_GetTimeStamp,"ax",%progbits
 335              		.align	1
 336              		.global	HAL_RTCEx_GetTimeStamp
 337              		.syntax unified
 338              		.thumb
 339              		.thumb_func
 341              	HAL_RTCEx_GetTimeStamp:
 342              		@ args = 0, pretend = 0, frame = 24
 343              		@ frame_needed = 1, uses_anonymous_args = 0
 344 0000 80B5     		push	{r7, lr}
 345 0002 86B0     		sub	sp, sp, #24
 346 0004 00AF     		add	r7, sp, #0
 347 0006 F860     		str	r0, [r7, #12]
 348 0008 B960     		str	r1, [r7, #8]
 349 000a 7A60     		str	r2, [r7, #4]
ARM GAS  C:\Users\user\AppData\Local\Temp\cc01GxlO.s 			page 7


 350 000c 3B60     		str	r3, [r7]
 351 000e 0023     		movs	r3, #0
 352 0010 7B61     		str	r3, [r7, #20]
 353 0012 0023     		movs	r3, #0
 354 0014 3B61     		str	r3, [r7, #16]
 355 0016 FB68     		ldr	r3, [r7, #12]
 356 0018 1B68     		ldr	r3, [r3]
 357 001a 1B6B     		ldr	r3, [r3, #48]
 358 001c 03F07F33 		and	r3, r3, #2139062143
 359 0020 23F0FE43 		bic	r3, r3, #2130706432
 360 0024 7B61     		str	r3, [r7, #20]
 361 0026 FB68     		ldr	r3, [r7, #12]
 362 0028 1B68     		ldr	r3, [r3]
 363 002a 5B6B     		ldr	r3, [r3, #52]
 364 002c 23F07F43 		bic	r3, r3, #-16777216
 365 0030 23F0C003 		bic	r3, r3, #192
 366 0034 3B61     		str	r3, [r7, #16]
 367 0036 7B69     		ldr	r3, [r7, #20]
 368 0038 1B0C     		lsrs	r3, r3, #16
 369 003a DBB2     		uxtb	r3, r3
 370 003c 03F03F03 		and	r3, r3, #63
 371 0040 DAB2     		uxtb	r2, r3
 372 0042 BB68     		ldr	r3, [r7, #8]
 373 0044 1A70     		strb	r2, [r3]
 374 0046 7B69     		ldr	r3, [r7, #20]
 375 0048 1B0A     		lsrs	r3, r3, #8
 376 004a DBB2     		uxtb	r3, r3
 377 004c 03F07F03 		and	r3, r3, #127
 378 0050 DAB2     		uxtb	r2, r3
 379 0052 BB68     		ldr	r3, [r7, #8]
 380 0054 5A70     		strb	r2, [r3, #1]
 381 0056 7B69     		ldr	r3, [r7, #20]
 382 0058 DBB2     		uxtb	r3, r3
 383 005a 03F07F03 		and	r3, r3, #127
 384 005e DAB2     		uxtb	r2, r3
 385 0060 BB68     		ldr	r3, [r7, #8]
 386 0062 9A70     		strb	r2, [r3, #2]
 387 0064 7B69     		ldr	r3, [r7, #20]
 388 0066 9B0D     		lsrs	r3, r3, #22
 389 0068 DBB2     		uxtb	r3, r3
 390 006a 03F00103 		and	r3, r3, #1
 391 006e DAB2     		uxtb	r2, r3
 392 0070 BB68     		ldr	r3, [r7, #8]
 393 0072 DA70     		strb	r2, [r3, #3]
 394 0074 FB68     		ldr	r3, [r7, #12]
 395 0076 1B68     		ldr	r3, [r3]
 396 0078 9A6B     		ldr	r2, [r3, #56]
 397 007a BB68     		ldr	r3, [r7, #8]
 398 007c 5A60     		str	r2, [r3, #4]
 399 007e 7B68     		ldr	r3, [r7, #4]
 400 0080 0022     		movs	r2, #0
 401 0082 DA70     		strb	r2, [r3, #3]
 402 0084 3B69     		ldr	r3, [r7, #16]
 403 0086 1B0A     		lsrs	r3, r3, #8
 404 0088 DBB2     		uxtb	r3, r3
 405 008a 03F01F03 		and	r3, r3, #31
 406 008e DAB2     		uxtb	r2, r3
ARM GAS  C:\Users\user\AppData\Local\Temp\cc01GxlO.s 			page 8


 407 0090 7B68     		ldr	r3, [r7, #4]
 408 0092 5A70     		strb	r2, [r3, #1]
 409 0094 3B69     		ldr	r3, [r7, #16]
 410 0096 DBB2     		uxtb	r3, r3
 411 0098 03F03F03 		and	r3, r3, #63
 412 009c DAB2     		uxtb	r2, r3
 413 009e 7B68     		ldr	r3, [r7, #4]
 414 00a0 9A70     		strb	r2, [r3, #2]
 415 00a2 3B69     		ldr	r3, [r7, #16]
 416 00a4 5B0B     		lsrs	r3, r3, #13
 417 00a6 DBB2     		uxtb	r3, r3
 418 00a8 03F00703 		and	r3, r3, #7
 419 00ac DAB2     		uxtb	r2, r3
 420 00ae 7B68     		ldr	r3, [r7, #4]
 421 00b0 1A70     		strb	r2, [r3]
 422 00b2 3B68     		ldr	r3, [r7]
 423 00b4 002B     		cmp	r3, #0
 424 00b6 35D1     		bne	.L13
 425 00b8 BB68     		ldr	r3, [r7, #8]
 426 00ba 1B78     		ldrb	r3, [r3]	@ zero_extendqisi2
 427 00bc 1846     		mov	r0, r3
 428 00be FFF7FEFF 		bl	RTC_Bcd2ToByte
 429 00c2 0346     		mov	r3, r0
 430 00c4 1A46     		mov	r2, r3
 431 00c6 BB68     		ldr	r3, [r7, #8]
 432 00c8 1A70     		strb	r2, [r3]
 433 00ca BB68     		ldr	r3, [r7, #8]
 434 00cc 5B78     		ldrb	r3, [r3, #1]	@ zero_extendqisi2
 435 00ce 1846     		mov	r0, r3
 436 00d0 FFF7FEFF 		bl	RTC_Bcd2ToByte
 437 00d4 0346     		mov	r3, r0
 438 00d6 1A46     		mov	r2, r3
 439 00d8 BB68     		ldr	r3, [r7, #8]
 440 00da 5A70     		strb	r2, [r3, #1]
 441 00dc BB68     		ldr	r3, [r7, #8]
 442 00de 9B78     		ldrb	r3, [r3, #2]	@ zero_extendqisi2
 443 00e0 1846     		mov	r0, r3
 444 00e2 FFF7FEFF 		bl	RTC_Bcd2ToByte
 445 00e6 0346     		mov	r3, r0
 446 00e8 1A46     		mov	r2, r3
 447 00ea BB68     		ldr	r3, [r7, #8]
 448 00ec 9A70     		strb	r2, [r3, #2]
 449 00ee 7B68     		ldr	r3, [r7, #4]
 450 00f0 5B78     		ldrb	r3, [r3, #1]	@ zero_extendqisi2
 451 00f2 1846     		mov	r0, r3
 452 00f4 FFF7FEFF 		bl	RTC_Bcd2ToByte
 453 00f8 0346     		mov	r3, r0
 454 00fa 1A46     		mov	r2, r3
 455 00fc 7B68     		ldr	r3, [r7, #4]
 456 00fe 5A70     		strb	r2, [r3, #1]
 457 0100 7B68     		ldr	r3, [r7, #4]
 458 0102 9B78     		ldrb	r3, [r3, #2]	@ zero_extendqisi2
 459 0104 1846     		mov	r0, r3
 460 0106 FFF7FEFF 		bl	RTC_Bcd2ToByte
 461 010a 0346     		mov	r3, r0
 462 010c 1A46     		mov	r2, r3
 463 010e 7B68     		ldr	r3, [r7, #4]
ARM GAS  C:\Users\user\AppData\Local\Temp\cc01GxlO.s 			page 9


 464 0110 9A70     		strb	r2, [r3, #2]
 465 0112 7B68     		ldr	r3, [r7, #4]
 466 0114 1B78     		ldrb	r3, [r3]	@ zero_extendqisi2
 467 0116 1846     		mov	r0, r3
 468 0118 FFF7FEFF 		bl	RTC_Bcd2ToByte
 469 011c 0346     		mov	r3, r0
 470 011e 1A46     		mov	r2, r3
 471 0120 7B68     		ldr	r3, [r7, #4]
 472 0122 1A70     		strb	r2, [r3]
 473              	.L13:
 474 0124 FB68     		ldr	r3, [r7, #12]
 475 0126 1B68     		ldr	r3, [r3]
 476 0128 DB68     		ldr	r3, [r3, #12]
 477 012a DAB2     		uxtb	r2, r3
 478 012c FB68     		ldr	r3, [r7, #12]
 479 012e 1B68     		ldr	r3, [r3]
 480 0130 62F40862 		orn	r2, r2, #2176
 481 0134 DA60     		str	r2, [r3, #12]
 482 0136 0023     		movs	r3, #0
 483 0138 1846     		mov	r0, r3
 484 013a 1837     		adds	r7, r7, #24
 485 013c BD46     		mov	sp, r7
 486              		@ sp needed
 487 013e 80BD     		pop	{r7, pc}
 489              		.section	.text.HAL_RTCEx_SetTamper,"ax",%progbits
 490              		.align	1
 491              		.global	HAL_RTCEx_SetTamper
 492              		.syntax unified
 493              		.thumb
 494              		.thumb_func
 496              	HAL_RTCEx_SetTamper:
 497              		@ args = 0, pretend = 0, frame = 16
 498              		@ frame_needed = 1, uses_anonymous_args = 0
 499              		@ link register save eliminated.
 500 0000 80B4     		push	{r7}
 501 0002 85B0     		sub	sp, sp, #20
 502 0004 00AF     		add	r7, sp, #0
 503 0006 7860     		str	r0, [r7, #4]
 504 0008 3960     		str	r1, [r7]
 505 000a 0023     		movs	r3, #0
 506 000c FB60     		str	r3, [r7, #12]
 507 000e 7B68     		ldr	r3, [r7, #4]
 508 0010 1B7F     		ldrb	r3, [r3, #28]	@ zero_extendqisi2
 509 0012 012B     		cmp	r3, #1
 510 0014 01D1     		bne	.L16
 511 0016 0223     		movs	r3, #2
 512 0018 49E0     		b	.L17
 513              	.L16:
 514 001a 7B68     		ldr	r3, [r7, #4]
 515 001c 0122     		movs	r2, #1
 516 001e 1A77     		strb	r2, [r3, #28]
 517 0020 7B68     		ldr	r3, [r7, #4]
 518 0022 0222     		movs	r2, #2
 519 0024 5A77     		strb	r2, [r3, #29]
 520 0026 7B68     		ldr	r3, [r7, #4]
 521 0028 1B68     		ldr	r3, [r3]
 522 002a 1B6C     		ldr	r3, [r3, #64]
ARM GAS  C:\Users\user\AppData\Local\Temp\cc01GxlO.s 			page 10


 523 002c FB60     		str	r3, [r7, #12]
 524 002e 3B68     		ldr	r3, [r7]
 525 0030 1B68     		ldr	r3, [r3]
 526 0032 FA68     		ldr	r2, [r7, #12]
 527 0034 1343     		orrs	r3, r3, r2
 528 0036 FB60     		str	r3, [r7, #12]
 529 0038 3B68     		ldr	r3, [r7]
 530 003a 9B68     		ldr	r3, [r3, #8]
 531 003c 022B     		cmp	r3, #2
 532 003e 06D1     		bne	.L18
 533 0040 3B68     		ldr	r3, [r7]
 534 0042 1B68     		ldr	r3, [r3]
 535 0044 5B00     		lsls	r3, r3, #1
 536 0046 FA68     		ldr	r2, [r7, #12]
 537 0048 1343     		orrs	r3, r3, r2
 538 004a FB60     		str	r3, [r7, #12]
 539 004c 06E0     		b	.L19
 540              	.L18:
 541 004e 3B68     		ldr	r3, [r7]
 542 0050 1B68     		ldr	r3, [r3]
 543 0052 5B00     		lsls	r3, r3, #1
 544 0054 DB43     		mvns	r3, r3
 545 0056 FA68     		ldr	r2, [r7, #12]
 546 0058 1340     		ands	r3, r3, r2
 547 005a FB60     		str	r3, [r7, #12]
 548              	.L19:
 549 005c FB68     		ldr	r3, [r7, #12]
 550 005e 23F4FF33 		bic	r3, r3, #130560
 551 0062 23F4C073 		bic	r3, r3, #384
 552 0066 FB60     		str	r3, [r7, #12]
 553 0068 3B68     		ldr	r3, [r7]
 554 006a DA68     		ldr	r2, [r3, #12]
 555 006c 3B68     		ldr	r3, [r7]
 556 006e 1B69     		ldr	r3, [r3, #16]
 557 0070 1A43     		orrs	r2, r2, r3
 558 0072 3B68     		ldr	r3, [r7]
 559 0074 5B69     		ldr	r3, [r3, #20]
 560 0076 1A43     		orrs	r2, r2, r3
 561 0078 3B68     		ldr	r3, [r7]
 562 007a 9B69     		ldr	r3, [r3, #24]
 563 007c 1A43     		orrs	r2, r2, r3
 564 007e 3B68     		ldr	r3, [r7]
 565 0080 5B68     		ldr	r3, [r3, #4]
 566 0082 1A43     		orrs	r2, r2, r3
 567 0084 3B68     		ldr	r3, [r7]
 568 0086 DB69     		ldr	r3, [r3, #28]
 569 0088 1343     		orrs	r3, r3, r2
 570 008a FA68     		ldr	r2, [r7, #12]
 571 008c 1343     		orrs	r3, r3, r2
 572 008e FB60     		str	r3, [r7, #12]
 573 0090 FB68     		ldr	r3, [r7, #12]
 574 0092 23F00403 		bic	r3, r3, #4
 575 0096 FB60     		str	r3, [r7, #12]
 576 0098 7B68     		ldr	r3, [r7, #4]
 577 009a 1B68     		ldr	r3, [r3]
 578 009c FA68     		ldr	r2, [r7, #12]
 579 009e 1A64     		str	r2, [r3, #64]
ARM GAS  C:\Users\user\AppData\Local\Temp\cc01GxlO.s 			page 11


 580 00a0 7B68     		ldr	r3, [r7, #4]
 581 00a2 0122     		movs	r2, #1
 582 00a4 5A77     		strb	r2, [r3, #29]
 583 00a6 7B68     		ldr	r3, [r7, #4]
 584 00a8 0022     		movs	r2, #0
 585 00aa 1A77     		strb	r2, [r3, #28]
 586 00ac 0023     		movs	r3, #0
 587              	.L17:
 588 00ae 1846     		mov	r0, r3
 589 00b0 1437     		adds	r7, r7, #20
 590 00b2 BD46     		mov	sp, r7
 591              		@ sp needed
 592 00b4 5DF8047B 		ldr	r7, [sp], #4
 593 00b8 7047     		bx	lr
 595              		.section	.text.HAL_RTCEx_SetTamper_IT,"ax",%progbits
 596              		.align	1
 597              		.global	HAL_RTCEx_SetTamper_IT
 598              		.syntax unified
 599              		.thumb
 600              		.thumb_func
 602              	HAL_RTCEx_SetTamper_IT:
 603              		@ args = 0, pretend = 0, frame = 16
 604              		@ frame_needed = 1, uses_anonymous_args = 0
 605              		@ link register save eliminated.
 606 0000 80B4     		push	{r7}
 607 0002 85B0     		sub	sp, sp, #20
 608 0004 00AF     		add	r7, sp, #0
 609 0006 7860     		str	r0, [r7, #4]
 610 0008 3960     		str	r1, [r7]
 611 000a 0023     		movs	r3, #0
 612 000c FB60     		str	r3, [r7, #12]
 613 000e 7B68     		ldr	r3, [r7, #4]
 614 0010 1B7F     		ldrb	r3, [r3, #28]	@ zero_extendqisi2
 615 0012 012B     		cmp	r3, #1
 616 0014 01D1     		bne	.L21
 617 0016 0223     		movs	r3, #2
 618 0018 55E0     		b	.L22
 619              	.L21:
 620 001a 7B68     		ldr	r3, [r7, #4]
 621 001c 0122     		movs	r2, #1
 622 001e 1A77     		strb	r2, [r3, #28]
 623 0020 7B68     		ldr	r3, [r7, #4]
 624 0022 0222     		movs	r2, #2
 625 0024 5A77     		strb	r2, [r3, #29]
 626 0026 7B68     		ldr	r3, [r7, #4]
 627 0028 1B68     		ldr	r3, [r3]
 628 002a 1B6C     		ldr	r3, [r3, #64]
 629 002c FB60     		str	r3, [r7, #12]
 630 002e 3B68     		ldr	r3, [r7]
 631 0030 1B68     		ldr	r3, [r3]
 632 0032 FA68     		ldr	r2, [r7, #12]
 633 0034 1343     		orrs	r3, r3, r2
 634 0036 FB60     		str	r3, [r7, #12]
 635 0038 3B68     		ldr	r3, [r7]
 636 003a 9B68     		ldr	r3, [r3, #8]
 637 003c 022B     		cmp	r3, #2
 638 003e 06D1     		bne	.L23
ARM GAS  C:\Users\user\AppData\Local\Temp\cc01GxlO.s 			page 12


 639 0040 3B68     		ldr	r3, [r7]
 640 0042 1B68     		ldr	r3, [r3]
 641 0044 5B00     		lsls	r3, r3, #1
 642 0046 FA68     		ldr	r2, [r7, #12]
 643 0048 1343     		orrs	r3, r3, r2
 644 004a FB60     		str	r3, [r7, #12]
 645 004c 06E0     		b	.L24
 646              	.L23:
 647 004e 3B68     		ldr	r3, [r7]
 648 0050 1B68     		ldr	r3, [r3]
 649 0052 5B00     		lsls	r3, r3, #1
 650 0054 DB43     		mvns	r3, r3
 651 0056 FA68     		ldr	r2, [r7, #12]
 652 0058 1340     		ands	r3, r3, r2
 653 005a FB60     		str	r3, [r7, #12]
 654              	.L24:
 655 005c FB68     		ldr	r3, [r7, #12]
 656 005e 23F4FF33 		bic	r3, r3, #130560
 657 0062 23F4C073 		bic	r3, r3, #384
 658 0066 FB60     		str	r3, [r7, #12]
 659 0068 3B68     		ldr	r3, [r7]
 660 006a DA68     		ldr	r2, [r3, #12]
 661 006c 3B68     		ldr	r3, [r7]
 662 006e 1B69     		ldr	r3, [r3, #16]
 663 0070 1A43     		orrs	r2, r2, r3
 664 0072 3B68     		ldr	r3, [r7]
 665 0074 5B69     		ldr	r3, [r3, #20]
 666 0076 1A43     		orrs	r2, r2, r3
 667 0078 3B68     		ldr	r3, [r7]
 668 007a 9B69     		ldr	r3, [r3, #24]
 669 007c 1A43     		orrs	r2, r2, r3
 670 007e 3B68     		ldr	r3, [r7]
 671 0080 5B68     		ldr	r3, [r3, #4]
 672 0082 1A43     		orrs	r2, r2, r3
 673 0084 3B68     		ldr	r3, [r7]
 674 0086 DB69     		ldr	r3, [r3, #28]
 675 0088 1343     		orrs	r3, r3, r2
 676 008a FA68     		ldr	r2, [r7, #12]
 677 008c 1343     		orrs	r3, r3, r2
 678 008e FB60     		str	r3, [r7, #12]
 679 0090 FB68     		ldr	r3, [r7, #12]
 680 0092 43F00403 		orr	r3, r3, #4
 681 0096 FB60     		str	r3, [r7, #12]
 682 0098 7B68     		ldr	r3, [r7, #4]
 683 009a 1B68     		ldr	r3, [r3]
 684 009c FA68     		ldr	r2, [r7, #12]
 685 009e 1A64     		str	r2, [r3, #64]
 686 00a0 0C4B     		ldr	r3, .L25
 687 00a2 1B68     		ldr	r3, [r3]
 688 00a4 0B4A     		ldr	r2, .L25
 689 00a6 43F40013 		orr	r3, r3, #2097152
 690 00aa 1360     		str	r3, [r2]
 691 00ac 094B     		ldr	r3, .L25
 692 00ae 9B68     		ldr	r3, [r3, #8]
 693 00b0 084A     		ldr	r2, .L25
 694 00b2 43F40013 		orr	r3, r3, #2097152
 695 00b6 9360     		str	r3, [r2, #8]
ARM GAS  C:\Users\user\AppData\Local\Temp\cc01GxlO.s 			page 13


 696 00b8 7B68     		ldr	r3, [r7, #4]
 697 00ba 0122     		movs	r2, #1
 698 00bc 5A77     		strb	r2, [r3, #29]
 699 00be 7B68     		ldr	r3, [r7, #4]
 700 00c0 0022     		movs	r2, #0
 701 00c2 1A77     		strb	r2, [r3, #28]
 702 00c4 0023     		movs	r3, #0
 703              	.L22:
 704 00c6 1846     		mov	r0, r3
 705 00c8 1437     		adds	r7, r7, #20
 706 00ca BD46     		mov	sp, r7
 707              		@ sp needed
 708 00cc 5DF8047B 		ldr	r7, [sp], #4
 709 00d0 7047     		bx	lr
 710              	.L26:
 711 00d2 00BF     		.align	2
 712              	.L25:
 713 00d4 003C0140 		.word	1073822720
 715              		.section	.text.HAL_RTCEx_DeactivateTamper,"ax",%progbits
 716              		.align	1
 717              		.global	HAL_RTCEx_DeactivateTamper
 718              		.syntax unified
 719              		.thumb
 720              		.thumb_func
 722              	HAL_RTCEx_DeactivateTamper:
 723              		@ args = 0, pretend = 0, frame = 8
 724              		@ frame_needed = 1, uses_anonymous_args = 0
 725              		@ link register save eliminated.
 726 0000 80B4     		push	{r7}
 727 0002 83B0     		sub	sp, sp, #12
 728 0004 00AF     		add	r7, sp, #0
 729 0006 7860     		str	r0, [r7, #4]
 730 0008 3960     		str	r1, [r7]
 731 000a 7B68     		ldr	r3, [r7, #4]
 732 000c 1B7F     		ldrb	r3, [r3, #28]	@ zero_extendqisi2
 733 000e 012B     		cmp	r3, #1
 734 0010 01D1     		bne	.L28
 735 0012 0223     		movs	r3, #2
 736 0014 15E0     		b	.L29
 737              	.L28:
 738 0016 7B68     		ldr	r3, [r7, #4]
 739 0018 0122     		movs	r2, #1
 740 001a 1A77     		strb	r2, [r3, #28]
 741 001c 7B68     		ldr	r3, [r7, #4]
 742 001e 0222     		movs	r2, #2
 743 0020 5A77     		strb	r2, [r3, #29]
 744 0022 7B68     		ldr	r3, [r7, #4]
 745 0024 1B68     		ldr	r3, [r3]
 746 0026 196C     		ldr	r1, [r3, #64]
 747 0028 3B68     		ldr	r3, [r7]
 748 002a DA43     		mvns	r2, r3
 749 002c 7B68     		ldr	r3, [r7, #4]
 750 002e 1B68     		ldr	r3, [r3]
 751 0030 0A40     		ands	r2, r2, r1
 752 0032 1A64     		str	r2, [r3, #64]
 753 0034 7B68     		ldr	r3, [r7, #4]
 754 0036 0122     		movs	r2, #1
ARM GAS  C:\Users\user\AppData\Local\Temp\cc01GxlO.s 			page 14


 755 0038 5A77     		strb	r2, [r3, #29]
 756 003a 7B68     		ldr	r3, [r7, #4]
 757 003c 0022     		movs	r2, #0
 758 003e 1A77     		strb	r2, [r3, #28]
 759 0040 0023     		movs	r3, #0
 760              	.L29:
 761 0042 1846     		mov	r0, r3
 762 0044 0C37     		adds	r7, r7, #12
 763 0046 BD46     		mov	sp, r7
 764              		@ sp needed
 765 0048 5DF8047B 		ldr	r7, [sp], #4
 766 004c 7047     		bx	lr
 768              		.section	.text.HAL_RTCEx_TamperTimeStampIRQHandler,"ax",%progbits
 769              		.align	1
 770              		.global	HAL_RTCEx_TamperTimeStampIRQHandler
 771              		.syntax unified
 772              		.thumb
 773              		.thumb_func
 775              	HAL_RTCEx_TamperTimeStampIRQHandler:
 776              		@ args = 0, pretend = 0, frame = 8
 777              		@ frame_needed = 1, uses_anonymous_args = 0
 778 0000 80B5     		push	{r7, lr}
 779 0002 82B0     		sub	sp, sp, #8
 780 0004 00AF     		add	r7, sp, #0
 781 0006 7860     		str	r0, [r7, #4]
 782 0008 7B68     		ldr	r3, [r7, #4]
 783 000a 1B68     		ldr	r3, [r3]
 784 000c 9B68     		ldr	r3, [r3, #8]
 785 000e 03F40043 		and	r3, r3, #32768
 786 0012 002B     		cmp	r3, #0
 787 0014 12D0     		beq	.L31
 788 0016 7B68     		ldr	r3, [r7, #4]
 789 0018 1B68     		ldr	r3, [r3]
 790 001a DB68     		ldr	r3, [r3, #12]
 791 001c 03F40063 		and	r3, r3, #2048
 792 0020 002B     		cmp	r3, #0
 793 0022 0BD0     		beq	.L31
 794 0024 7868     		ldr	r0, [r7, #4]
 795 0026 FFF7FEFF 		bl	HAL_RTCEx_TimeStampEventCallback
 796 002a 7B68     		ldr	r3, [r7, #4]
 797 002c 1B68     		ldr	r3, [r3]
 798 002e DB68     		ldr	r3, [r3, #12]
 799 0030 DAB2     		uxtb	r2, r3
 800 0032 7B68     		ldr	r3, [r7, #4]
 801 0034 1B68     		ldr	r3, [r3]
 802 0036 62F40862 		orn	r2, r2, #2176
 803 003a DA60     		str	r2, [r3, #12]
 804              	.L31:
 805 003c 7B68     		ldr	r3, [r7, #4]
 806 003e 1B68     		ldr	r3, [r3]
 807 0040 1B6C     		ldr	r3, [r3, #64]
 808 0042 03F00403 		and	r3, r3, #4
 809 0046 002B     		cmp	r3, #0
 810 0048 12D0     		beq	.L32
 811 004a 7B68     		ldr	r3, [r7, #4]
 812 004c 1B68     		ldr	r3, [r3]
 813 004e DB68     		ldr	r3, [r3, #12]
ARM GAS  C:\Users\user\AppData\Local\Temp\cc01GxlO.s 			page 15


 814 0050 03F40053 		and	r3, r3, #8192
 815 0054 002B     		cmp	r3, #0
 816 0056 0BD0     		beq	.L32
 817 0058 7868     		ldr	r0, [r7, #4]
 818 005a FFF7FEFF 		bl	HAL_RTCEx_Tamper1EventCallback
 819 005e 7B68     		ldr	r3, [r7, #4]
 820 0060 1B68     		ldr	r3, [r3]
 821 0062 DB68     		ldr	r3, [r3, #12]
 822 0064 DAB2     		uxtb	r2, r3
 823 0066 7B68     		ldr	r3, [r7, #4]
 824 0068 1B68     		ldr	r3, [r3]
 825 006a 62F40252 		orn	r2, r2, #8320
 826 006e DA60     		str	r2, [r3, #12]
 827              	.L32:
 828 0070 7B68     		ldr	r3, [r7, #4]
 829 0072 1B68     		ldr	r3, [r3]
 830 0074 1B6C     		ldr	r3, [r3, #64]
 831 0076 03F00403 		and	r3, r3, #4
 832 007a 002B     		cmp	r3, #0
 833 007c 12D0     		beq	.L33
 834 007e 7B68     		ldr	r3, [r7, #4]
 835 0080 1B68     		ldr	r3, [r3]
 836 0082 DB68     		ldr	r3, [r3, #12]
 837 0084 03F48043 		and	r3, r3, #16384
 838 0088 002B     		cmp	r3, #0
 839 008a 0BD0     		beq	.L33
 840 008c 7868     		ldr	r0, [r7, #4]
 841 008e FFF7FEFF 		bl	HAL_RTCEx_Tamper2EventCallback
 842 0092 7B68     		ldr	r3, [r7, #4]
 843 0094 1B68     		ldr	r3, [r3]
 844 0096 DB68     		ldr	r3, [r3, #12]
 845 0098 DAB2     		uxtb	r2, r3
 846 009a 7B68     		ldr	r3, [r7, #4]
 847 009c 1B68     		ldr	r3, [r3]
 848 009e 62F48142 		orn	r2, r2, #16512
 849 00a2 DA60     		str	r2, [r3, #12]
 850              	.L33:
 851 00a4 054B     		ldr	r3, .L34
 852 00a6 4FF40012 		mov	r2, #2097152
 853 00aa 5A61     		str	r2, [r3, #20]
 854 00ac 7B68     		ldr	r3, [r7, #4]
 855 00ae 0122     		movs	r2, #1
 856 00b0 5A77     		strb	r2, [r3, #29]
 857 00b2 00BF     		nop
 858 00b4 0837     		adds	r7, r7, #8
 859 00b6 BD46     		mov	sp, r7
 860              		@ sp needed
 861 00b8 80BD     		pop	{r7, pc}
 862              	.L35:
 863 00ba 00BF     		.align	2
 864              	.L34:
 865 00bc 003C0140 		.word	1073822720
 867              		.section	.text.HAL_RTCEx_TimeStampEventCallback,"ax",%progbits
 868              		.align	1
 869              		.weak	HAL_RTCEx_TimeStampEventCallback
 870              		.syntax unified
 871              		.thumb
ARM GAS  C:\Users\user\AppData\Local\Temp\cc01GxlO.s 			page 16


 872              		.thumb_func
 874              	HAL_RTCEx_TimeStampEventCallback:
 875              		@ args = 0, pretend = 0, frame = 8
 876              		@ frame_needed = 1, uses_anonymous_args = 0
 877              		@ link register save eliminated.
 878 0000 80B4     		push	{r7}
 879 0002 83B0     		sub	sp, sp, #12
 880 0004 00AF     		add	r7, sp, #0
 881 0006 7860     		str	r0, [r7, #4]
 882 0008 00BF     		nop
 883 000a 0C37     		adds	r7, r7, #12
 884 000c BD46     		mov	sp, r7
 885              		@ sp needed
 886 000e 5DF8047B 		ldr	r7, [sp], #4
 887 0012 7047     		bx	lr
 889              		.section	.text.HAL_RTCEx_Tamper1EventCallback,"ax",%progbits
 890              		.align	1
 891              		.weak	HAL_RTCEx_Tamper1EventCallback
 892              		.syntax unified
 893              		.thumb
 894              		.thumb_func
 896              	HAL_RTCEx_Tamper1EventCallback:
 897              		@ args = 0, pretend = 0, frame = 8
 898              		@ frame_needed = 1, uses_anonymous_args = 0
 899              		@ link register save eliminated.
 900 0000 80B4     		push	{r7}
 901 0002 83B0     		sub	sp, sp, #12
 902 0004 00AF     		add	r7, sp, #0
 903 0006 7860     		str	r0, [r7, #4]
 904 0008 00BF     		nop
 905 000a 0C37     		adds	r7, r7, #12
 906 000c BD46     		mov	sp, r7
 907              		@ sp needed
 908 000e 5DF8047B 		ldr	r7, [sp], #4
 909 0012 7047     		bx	lr
 911              		.section	.text.HAL_RTCEx_Tamper2EventCallback,"ax",%progbits
 912              		.align	1
 913              		.weak	HAL_RTCEx_Tamper2EventCallback
 914              		.syntax unified
 915              		.thumb
 916              		.thumb_func
 918              	HAL_RTCEx_Tamper2EventCallback:
 919              		@ args = 0, pretend = 0, frame = 8
 920              		@ frame_needed = 1, uses_anonymous_args = 0
 921              		@ link register save eliminated.
 922 0000 80B4     		push	{r7}
 923 0002 83B0     		sub	sp, sp, #12
 924 0004 00AF     		add	r7, sp, #0
 925 0006 7860     		str	r0, [r7, #4]
 926 0008 00BF     		nop
 927 000a 0C37     		adds	r7, r7, #12
 928 000c BD46     		mov	sp, r7
 929              		@ sp needed
 930 000e 5DF8047B 		ldr	r7, [sp], #4
 931 0012 7047     		bx	lr
 933              		.section	.text.HAL_RTCEx_PollForTimeStampEvent,"ax",%progbits
 934              		.align	1
ARM GAS  C:\Users\user\AppData\Local\Temp\cc01GxlO.s 			page 17


 935              		.global	HAL_RTCEx_PollForTimeStampEvent
 936              		.syntax unified
 937              		.thumb
 938              		.thumb_func
 940              	HAL_RTCEx_PollForTimeStampEvent:
 941              		@ args = 0, pretend = 0, frame = 16
 942              		@ frame_needed = 1, uses_anonymous_args = 0
 943 0000 80B5     		push	{r7, lr}
 944 0002 84B0     		sub	sp, sp, #16
 945 0004 00AF     		add	r7, sp, #0
 946 0006 7860     		str	r0, [r7, #4]
 947 0008 3960     		str	r1, [r7]
 948 000a 0023     		movs	r3, #0
 949 000c FB60     		str	r3, [r7, #12]
 950 000e FFF7FEFF 		bl	HAL_GetTick
 951 0012 F860     		str	r0, [r7, #12]
 952 0014 28E0     		b	.L40
 953              	.L44:
 954 0016 3B68     		ldr	r3, [r7]
 955 0018 B3F1FF3F 		cmp	r3, #-1
 956 001c 0FD0     		beq	.L41
 957 001e 3B68     		ldr	r3, [r7]
 958 0020 002B     		cmp	r3, #0
 959 0022 07D0     		beq	.L42
 960 0024 FFF7FEFF 		bl	HAL_GetTick
 961 0028 0246     		mov	r2, r0
 962 002a FB68     		ldr	r3, [r7, #12]
 963 002c D31A     		subs	r3, r2, r3
 964 002e 3A68     		ldr	r2, [r7]
 965 0030 9A42     		cmp	r2, r3
 966 0032 04D2     		bcs	.L41
 967              	.L42:
 968 0034 7B68     		ldr	r3, [r7, #4]
 969 0036 0322     		movs	r2, #3
 970 0038 5A77     		strb	r2, [r3, #29]
 971 003a 0323     		movs	r3, #3
 972 003c 1FE0     		b	.L43
 973              	.L41:
 974 003e 7B68     		ldr	r3, [r7, #4]
 975 0040 1B68     		ldr	r3, [r3]
 976 0042 DB68     		ldr	r3, [r3, #12]
 977 0044 03F48053 		and	r3, r3, #4096
 978 0048 002B     		cmp	r3, #0
 979 004a 0DD0     		beq	.L40
 980 004c 7B68     		ldr	r3, [r7, #4]
 981 004e 1B68     		ldr	r3, [r3]
 982 0050 DB68     		ldr	r3, [r3, #12]
 983 0052 DAB2     		uxtb	r2, r3
 984 0054 7B68     		ldr	r3, [r7, #4]
 985 0056 1B68     		ldr	r3, [r3]
 986 0058 62F48452 		orn	r2, r2, #4224
 987 005c DA60     		str	r2, [r3, #12]
 988 005e 7B68     		ldr	r3, [r7, #4]
 989 0060 0422     		movs	r2, #4
 990 0062 5A77     		strb	r2, [r3, #29]
 991 0064 0123     		movs	r3, #1
 992 0066 0AE0     		b	.L43
ARM GAS  C:\Users\user\AppData\Local\Temp\cc01GxlO.s 			page 18


 993              	.L40:
 994 0068 7B68     		ldr	r3, [r7, #4]
 995 006a 1B68     		ldr	r3, [r3]
 996 006c DB68     		ldr	r3, [r3, #12]
 997 006e 03F40063 		and	r3, r3, #2048
 998 0072 002B     		cmp	r3, #0
 999 0074 CFD0     		beq	.L44
 1000 0076 7B68     		ldr	r3, [r7, #4]
 1001 0078 0122     		movs	r2, #1
 1002 007a 5A77     		strb	r2, [r3, #29]
 1003 007c 0023     		movs	r3, #0
 1004              	.L43:
 1005 007e 1846     		mov	r0, r3
 1006 0080 1037     		adds	r7, r7, #16
 1007 0082 BD46     		mov	sp, r7
 1008              		@ sp needed
 1009 0084 80BD     		pop	{r7, pc}
 1011              		.section	.text.HAL_RTCEx_PollForTamper1Event,"ax",%progbits
 1012              		.align	1
 1013              		.global	HAL_RTCEx_PollForTamper1Event
 1014              		.syntax unified
 1015              		.thumb
 1016              		.thumb_func
 1018              	HAL_RTCEx_PollForTamper1Event:
 1019              		@ args = 0, pretend = 0, frame = 16
 1020              		@ frame_needed = 1, uses_anonymous_args = 0
 1021 0000 80B5     		push	{r7, lr}
 1022 0002 84B0     		sub	sp, sp, #16
 1023 0004 00AF     		add	r7, sp, #0
 1024 0006 7860     		str	r0, [r7, #4]
 1025 0008 3960     		str	r1, [r7]
 1026 000a 0023     		movs	r3, #0
 1027 000c FB60     		str	r3, [r7, #12]
 1028 000e FFF7FEFF 		bl	HAL_GetTick
 1029 0012 F860     		str	r0, [r7, #12]
 1030 0014 13E0     		b	.L47
 1031              	.L50:
 1032 0016 3B68     		ldr	r3, [r7]
 1033 0018 B3F1FF3F 		cmp	r3, #-1
 1034 001c 0FD0     		beq	.L47
 1035 001e 3B68     		ldr	r3, [r7]
 1036 0020 002B     		cmp	r3, #0
 1037 0022 07D0     		beq	.L48
 1038 0024 FFF7FEFF 		bl	HAL_GetTick
 1039 0028 0246     		mov	r2, r0
 1040 002a FB68     		ldr	r3, [r7, #12]
 1041 002c D31A     		subs	r3, r2, r3
 1042 002e 3A68     		ldr	r2, [r7]
 1043 0030 9A42     		cmp	r2, r3
 1044 0032 04D2     		bcs	.L47
 1045              	.L48:
 1046 0034 7B68     		ldr	r3, [r7, #4]
 1047 0036 0322     		movs	r2, #3
 1048 0038 5A77     		strb	r2, [r3, #29]
 1049 003a 0323     		movs	r3, #3
 1050 003c 13E0     		b	.L49
 1051              	.L47:
ARM GAS  C:\Users\user\AppData\Local\Temp\cc01GxlO.s 			page 19


 1052 003e 7B68     		ldr	r3, [r7, #4]
 1053 0040 1B68     		ldr	r3, [r3]
 1054 0042 DB68     		ldr	r3, [r3, #12]
 1055 0044 03F40053 		and	r3, r3, #8192
 1056 0048 002B     		cmp	r3, #0
 1057 004a E4D0     		beq	.L50
 1058 004c 7B68     		ldr	r3, [r7, #4]
 1059 004e 1B68     		ldr	r3, [r3]
 1060 0050 DB68     		ldr	r3, [r3, #12]
 1061 0052 DAB2     		uxtb	r2, r3
 1062 0054 7B68     		ldr	r3, [r7, #4]
 1063 0056 1B68     		ldr	r3, [r3]
 1064 0058 62F40252 		orn	r2, r2, #8320
 1065 005c DA60     		str	r2, [r3, #12]
 1066 005e 7B68     		ldr	r3, [r7, #4]
 1067 0060 0122     		movs	r2, #1
 1068 0062 5A77     		strb	r2, [r3, #29]
 1069 0064 0023     		movs	r3, #0
 1070              	.L49:
 1071 0066 1846     		mov	r0, r3
 1072 0068 1037     		adds	r7, r7, #16
 1073 006a BD46     		mov	sp, r7
 1074              		@ sp needed
 1075 006c 80BD     		pop	{r7, pc}
 1077              		.section	.text.HAL_RTCEx_PollForTamper2Event,"ax",%progbits
 1078              		.align	1
 1079              		.global	HAL_RTCEx_PollForTamper2Event
 1080              		.syntax unified
 1081              		.thumb
 1082              		.thumb_func
 1084              	HAL_RTCEx_PollForTamper2Event:
 1085              		@ args = 0, pretend = 0, frame = 16
 1086              		@ frame_needed = 1, uses_anonymous_args = 0
 1087 0000 80B5     		push	{r7, lr}
 1088 0002 84B0     		sub	sp, sp, #16
 1089 0004 00AF     		add	r7, sp, #0
 1090 0006 7860     		str	r0, [r7, #4]
 1091 0008 3960     		str	r1, [r7]
 1092 000a 0023     		movs	r3, #0
 1093 000c FB60     		str	r3, [r7, #12]
 1094 000e FFF7FEFF 		bl	HAL_GetTick
 1095 0012 F860     		str	r0, [r7, #12]
 1096 0014 13E0     		b	.L53
 1097              	.L56:
 1098 0016 3B68     		ldr	r3, [r7]
 1099 0018 B3F1FF3F 		cmp	r3, #-1
 1100 001c 0FD0     		beq	.L53
 1101 001e 3B68     		ldr	r3, [r7]
 1102 0020 002B     		cmp	r3, #0
 1103 0022 07D0     		beq	.L54
 1104 0024 FFF7FEFF 		bl	HAL_GetTick
 1105 0028 0246     		mov	r2, r0
 1106 002a FB68     		ldr	r3, [r7, #12]
 1107 002c D31A     		subs	r3, r2, r3
 1108 002e 3A68     		ldr	r2, [r7]
 1109 0030 9A42     		cmp	r2, r3
 1110 0032 04D2     		bcs	.L53
ARM GAS  C:\Users\user\AppData\Local\Temp\cc01GxlO.s 			page 20


 1111              	.L54:
 1112 0034 7B68     		ldr	r3, [r7, #4]
 1113 0036 0322     		movs	r2, #3
 1114 0038 5A77     		strb	r2, [r3, #29]
 1115 003a 0323     		movs	r3, #3
 1116 003c 13E0     		b	.L55
 1117              	.L53:
 1118 003e 7B68     		ldr	r3, [r7, #4]
 1119 0040 1B68     		ldr	r3, [r3]
 1120 0042 DB68     		ldr	r3, [r3, #12]
 1121 0044 03F48043 		and	r3, r3, #16384
 1122 0048 002B     		cmp	r3, #0
 1123 004a E4D0     		beq	.L56
 1124 004c 7B68     		ldr	r3, [r7, #4]
 1125 004e 1B68     		ldr	r3, [r3]
 1126 0050 DB68     		ldr	r3, [r3, #12]
 1127 0052 DAB2     		uxtb	r2, r3
 1128 0054 7B68     		ldr	r3, [r7, #4]
 1129 0056 1B68     		ldr	r3, [r3]
 1130 0058 62F48142 		orn	r2, r2, #16512
 1131 005c DA60     		str	r2, [r3, #12]
 1132 005e 7B68     		ldr	r3, [r7, #4]
 1133 0060 0122     		movs	r2, #1
 1134 0062 5A77     		strb	r2, [r3, #29]
 1135 0064 0023     		movs	r3, #0
 1136              	.L55:
 1137 0066 1846     		mov	r0, r3
 1138 0068 1037     		adds	r7, r7, #16
 1139 006a BD46     		mov	sp, r7
 1140              		@ sp needed
 1141 006c 80BD     		pop	{r7, pc}
 1143              		.section	.text.HAL_RTCEx_SetWakeUpTimer,"ax",%progbits
 1144              		.align	1
 1145              		.global	HAL_RTCEx_SetWakeUpTimer
 1146              		.syntax unified
 1147              		.thumb
 1148              		.thumb_func
 1150              	HAL_RTCEx_SetWakeUpTimer:
 1151              		@ args = 0, pretend = 0, frame = 24
 1152              		@ frame_needed = 1, uses_anonymous_args = 0
 1153 0000 80B5     		push	{r7, lr}
 1154 0002 86B0     		sub	sp, sp, #24
 1155 0004 00AF     		add	r7, sp, #0
 1156 0006 F860     		str	r0, [r7, #12]
 1157 0008 B960     		str	r1, [r7, #8]
 1158 000a 7A60     		str	r2, [r7, #4]
 1159 000c 0023     		movs	r3, #0
 1160 000e 7B61     		str	r3, [r7, #20]
 1161 0010 FB68     		ldr	r3, [r7, #12]
 1162 0012 1B7F     		ldrb	r3, [r3, #28]	@ zero_extendqisi2
 1163 0014 012B     		cmp	r3, #1
 1164 0016 01D1     		bne	.L58
 1165 0018 0223     		movs	r3, #2
 1166 001a 8AE0     		b	.L59
 1167              	.L58:
 1168 001c FB68     		ldr	r3, [r7, #12]
 1169 001e 0122     		movs	r2, #1
ARM GAS  C:\Users\user\AppData\Local\Temp\cc01GxlO.s 			page 21


 1170 0020 1A77     		strb	r2, [r3, #28]
 1171 0022 FB68     		ldr	r3, [r7, #12]
 1172 0024 0222     		movs	r2, #2
 1173 0026 5A77     		strb	r2, [r3, #29]
 1174 0028 FB68     		ldr	r3, [r7, #12]
 1175 002a 1B68     		ldr	r3, [r3]
 1176 002c CA22     		movs	r2, #202
 1177 002e 5A62     		str	r2, [r3, #36]
 1178 0030 FB68     		ldr	r3, [r7, #12]
 1179 0032 1B68     		ldr	r3, [r3]
 1180 0034 5322     		movs	r2, #83
 1181 0036 5A62     		str	r2, [r3, #36]
 1182 0038 FB68     		ldr	r3, [r7, #12]
 1183 003a 1B68     		ldr	r3, [r3]
 1184 003c 9B68     		ldr	r3, [r3, #8]
 1185 003e 03F48063 		and	r3, r3, #1024
 1186 0042 002B     		cmp	r3, #0
 1187 0044 1ED0     		beq	.L60
 1188 0046 FFF7FEFF 		bl	HAL_GetTick
 1189 004a 7861     		str	r0, [r7, #20]
 1190 004c 13E0     		b	.L61
 1191              	.L62:
 1192 004e FFF7FEFF 		bl	HAL_GetTick
 1193 0052 0246     		mov	r2, r0
 1194 0054 7B69     		ldr	r3, [r7, #20]
 1195 0056 D31A     		subs	r3, r2, r3
 1196 0058 B3F57A7F 		cmp	r3, #1000
 1197 005c 0BD9     		bls	.L61
 1198 005e FB68     		ldr	r3, [r7, #12]
 1199 0060 1B68     		ldr	r3, [r3]
 1200 0062 FF22     		movs	r2, #255
 1201 0064 5A62     		str	r2, [r3, #36]
 1202 0066 FB68     		ldr	r3, [r7, #12]
 1203 0068 0322     		movs	r2, #3
 1204 006a 5A77     		strb	r2, [r3, #29]
 1205 006c FB68     		ldr	r3, [r7, #12]
 1206 006e 0022     		movs	r2, #0
 1207 0070 1A77     		strb	r2, [r3, #28]
 1208 0072 0323     		movs	r3, #3
 1209 0074 5DE0     		b	.L59
 1210              	.L61:
 1211 0076 FB68     		ldr	r3, [r7, #12]
 1212 0078 1B68     		ldr	r3, [r3]
 1213 007a DB68     		ldr	r3, [r3, #12]
 1214 007c 03F00403 		and	r3, r3, #4
 1215 0080 002B     		cmp	r3, #0
 1216 0082 E4D1     		bne	.L62
 1217              	.L60:
 1218 0084 FB68     		ldr	r3, [r7, #12]
 1219 0086 1B68     		ldr	r3, [r3]
 1220 0088 9A68     		ldr	r2, [r3, #8]
 1221 008a FB68     		ldr	r3, [r7, #12]
 1222 008c 1B68     		ldr	r3, [r3]
 1223 008e 22F48062 		bic	r2, r2, #1024
 1224 0092 9A60     		str	r2, [r3, #8]
 1225 0094 FB68     		ldr	r3, [r7, #12]
 1226 0096 1B68     		ldr	r3, [r3]
ARM GAS  C:\Users\user\AppData\Local\Temp\cc01GxlO.s 			page 22


 1227 0098 DB68     		ldr	r3, [r3, #12]
 1228 009a DAB2     		uxtb	r2, r3
 1229 009c FB68     		ldr	r3, [r7, #12]
 1230 009e 1B68     		ldr	r3, [r3]
 1231 00a0 62F49062 		orn	r2, r2, #1152
 1232 00a4 DA60     		str	r2, [r3, #12]
 1233 00a6 FFF7FEFF 		bl	HAL_GetTick
 1234 00aa 7861     		str	r0, [r7, #20]
 1235 00ac 13E0     		b	.L63
 1236              	.L64:
 1237 00ae FFF7FEFF 		bl	HAL_GetTick
 1238 00b2 0246     		mov	r2, r0
 1239 00b4 7B69     		ldr	r3, [r7, #20]
 1240 00b6 D31A     		subs	r3, r2, r3
 1241 00b8 B3F57A7F 		cmp	r3, #1000
 1242 00bc 0BD9     		bls	.L63
 1243 00be FB68     		ldr	r3, [r7, #12]
 1244 00c0 1B68     		ldr	r3, [r3]
 1245 00c2 FF22     		movs	r2, #255
 1246 00c4 5A62     		str	r2, [r3, #36]
 1247 00c6 FB68     		ldr	r3, [r7, #12]
 1248 00c8 0322     		movs	r2, #3
 1249 00ca 5A77     		strb	r2, [r3, #29]
 1250 00cc FB68     		ldr	r3, [r7, #12]
 1251 00ce 0022     		movs	r2, #0
 1252 00d0 1A77     		strb	r2, [r3, #28]
 1253 00d2 0323     		movs	r3, #3
 1254 00d4 2DE0     		b	.L59
 1255              	.L63:
 1256 00d6 FB68     		ldr	r3, [r7, #12]
 1257 00d8 1B68     		ldr	r3, [r3]
 1258 00da DB68     		ldr	r3, [r3, #12]
 1259 00dc 03F00403 		and	r3, r3, #4
 1260 00e0 002B     		cmp	r3, #0
 1261 00e2 E4D0     		beq	.L64
 1262 00e4 FB68     		ldr	r3, [r7, #12]
 1263 00e6 1B68     		ldr	r3, [r3]
 1264 00e8 9A68     		ldr	r2, [r3, #8]
 1265 00ea FB68     		ldr	r3, [r7, #12]
 1266 00ec 1B68     		ldr	r3, [r3]
 1267 00ee 22F00702 		bic	r2, r2, #7
 1268 00f2 9A60     		str	r2, [r3, #8]
 1269 00f4 FB68     		ldr	r3, [r7, #12]
 1270 00f6 1B68     		ldr	r3, [r3]
 1271 00f8 9968     		ldr	r1, [r3, #8]
 1272 00fa FB68     		ldr	r3, [r7, #12]
 1273 00fc 1B68     		ldr	r3, [r3]
 1274 00fe 7A68     		ldr	r2, [r7, #4]
 1275 0100 0A43     		orrs	r2, r2, r1
 1276 0102 9A60     		str	r2, [r3, #8]
 1277 0104 FB68     		ldr	r3, [r7, #12]
 1278 0106 1B68     		ldr	r3, [r3]
 1279 0108 BA68     		ldr	r2, [r7, #8]
 1280 010a 5A61     		str	r2, [r3, #20]
 1281 010c FB68     		ldr	r3, [r7, #12]
 1282 010e 1B68     		ldr	r3, [r3]
 1283 0110 9A68     		ldr	r2, [r3, #8]
ARM GAS  C:\Users\user\AppData\Local\Temp\cc01GxlO.s 			page 23


 1284 0112 FB68     		ldr	r3, [r7, #12]
 1285 0114 1B68     		ldr	r3, [r3]
 1286 0116 42F48062 		orr	r2, r2, #1024
 1287 011a 9A60     		str	r2, [r3, #8]
 1288 011c FB68     		ldr	r3, [r7, #12]
 1289 011e 1B68     		ldr	r3, [r3]
 1290 0120 FF22     		movs	r2, #255
 1291 0122 5A62     		str	r2, [r3, #36]
 1292 0124 FB68     		ldr	r3, [r7, #12]
 1293 0126 0122     		movs	r2, #1
 1294 0128 5A77     		strb	r2, [r3, #29]
 1295 012a FB68     		ldr	r3, [r7, #12]
 1296 012c 0022     		movs	r2, #0
 1297 012e 1A77     		strb	r2, [r3, #28]
 1298 0130 0023     		movs	r3, #0
 1299              	.L59:
 1300 0132 1846     		mov	r0, r3
 1301 0134 1837     		adds	r7, r7, #24
 1302 0136 BD46     		mov	sp, r7
 1303              		@ sp needed
 1304 0138 80BD     		pop	{r7, pc}
 1306              		.section	.text.HAL_RTCEx_SetWakeUpTimer_IT,"ax",%progbits
 1307              		.align	1
 1308              		.global	HAL_RTCEx_SetWakeUpTimer_IT
 1309              		.syntax unified
 1310              		.thumb
 1311              		.thumb_func
 1313              	HAL_RTCEx_SetWakeUpTimer_IT:
 1314              		@ args = 0, pretend = 0, frame = 24
 1315              		@ frame_needed = 1, uses_anonymous_args = 0
 1316              		@ link register save eliminated.
 1317 0000 80B4     		push	{r7}
 1318 0002 87B0     		sub	sp, sp, #28
 1319 0004 00AF     		add	r7, sp, #0
 1320 0006 F860     		str	r0, [r7, #12]
 1321 0008 B960     		str	r1, [r7, #8]
 1322 000a 7A60     		str	r2, [r7, #4]
 1323 000c 594B     		ldr	r3, .L73
 1324 000e 1B68     		ldr	r3, [r3]
 1325 0010 594A     		ldr	r2, .L73+4
 1326 0012 A2FB0323 		umull	r2, r3, r2, r3
 1327 0016 DB0A     		lsrs	r3, r3, #11
 1328 0018 4FF47A72 		mov	r2, #1000
 1329 001c 02FB03F3 		mul	r3, r2, r3
 1330 0020 7B61     		str	r3, [r7, #20]
 1331 0022 FB68     		ldr	r3, [r7, #12]
 1332 0024 1B7F     		ldrb	r3, [r3, #28]	@ zero_extendqisi2
 1333 0026 012B     		cmp	r3, #1
 1334 0028 01D1     		bne	.L66
 1335 002a 0223     		movs	r3, #2
 1336 002c 9BE0     		b	.L67
 1337              	.L66:
 1338 002e FB68     		ldr	r3, [r7, #12]
 1339 0030 0122     		movs	r2, #1
 1340 0032 1A77     		strb	r2, [r3, #28]
 1341 0034 FB68     		ldr	r3, [r7, #12]
 1342 0036 0222     		movs	r2, #2
ARM GAS  C:\Users\user\AppData\Local\Temp\cc01GxlO.s 			page 24


 1343 0038 5A77     		strb	r2, [r3, #29]
 1344 003a FB68     		ldr	r3, [r7, #12]
 1345 003c 1B68     		ldr	r3, [r3]
 1346 003e CA22     		movs	r2, #202
 1347 0040 5A62     		str	r2, [r3, #36]
 1348 0042 FB68     		ldr	r3, [r7, #12]
 1349 0044 1B68     		ldr	r3, [r3]
 1350 0046 5322     		movs	r2, #83
 1351 0048 5A62     		str	r2, [r3, #36]
 1352 004a FB68     		ldr	r3, [r7, #12]
 1353 004c 1B68     		ldr	r3, [r3]
 1354 004e 9B68     		ldr	r3, [r3, #8]
 1355 0050 03F48063 		and	r3, r3, #1024
 1356 0054 002B     		cmp	r3, #0
 1357 0056 17D0     		beq	.L68
 1358              	.L70:
 1359 0058 7B69     		ldr	r3, [r7, #20]
 1360 005a 5A1E     		subs	r2, r3, #1
 1361 005c 7A61     		str	r2, [r7, #20]
 1362 005e 002B     		cmp	r3, #0
 1363 0060 0BD1     		bne	.L69
 1364 0062 FB68     		ldr	r3, [r7, #12]
 1365 0064 1B68     		ldr	r3, [r3]
 1366 0066 FF22     		movs	r2, #255
 1367 0068 5A62     		str	r2, [r3, #36]
 1368 006a FB68     		ldr	r3, [r7, #12]
 1369 006c 0322     		movs	r2, #3
 1370 006e 5A77     		strb	r2, [r3, #29]
 1371 0070 FB68     		ldr	r3, [r7, #12]
 1372 0072 0022     		movs	r2, #0
 1373 0074 1A77     		strb	r2, [r3, #28]
 1374 0076 0323     		movs	r3, #3
 1375 0078 75E0     		b	.L67
 1376              	.L69:
 1377 007a FB68     		ldr	r3, [r7, #12]
 1378 007c 1B68     		ldr	r3, [r3]
 1379 007e DB68     		ldr	r3, [r3, #12]
 1380 0080 03F00403 		and	r3, r3, #4
 1381 0084 002B     		cmp	r3, #0
 1382 0086 E7D1     		bne	.L70
 1383              	.L68:
 1384 0088 FB68     		ldr	r3, [r7, #12]
 1385 008a 1B68     		ldr	r3, [r3]
 1386 008c 9A68     		ldr	r2, [r3, #8]
 1387 008e FB68     		ldr	r3, [r7, #12]
 1388 0090 1B68     		ldr	r3, [r3]
 1389 0092 22F48062 		bic	r2, r2, #1024
 1390 0096 9A60     		str	r2, [r3, #8]
 1391 0098 FB68     		ldr	r3, [r7, #12]
 1392 009a 1B68     		ldr	r3, [r3]
 1393 009c DB68     		ldr	r3, [r3, #12]
 1394 009e DAB2     		uxtb	r2, r3
 1395 00a0 FB68     		ldr	r3, [r7, #12]
 1396 00a2 1B68     		ldr	r3, [r3]
 1397 00a4 62F49062 		orn	r2, r2, #1152
 1398 00a8 DA60     		str	r2, [r3, #12]
 1399 00aa 324B     		ldr	r3, .L73
ARM GAS  C:\Users\user\AppData\Local\Temp\cc01GxlO.s 			page 25


 1400 00ac 1B68     		ldr	r3, [r3]
 1401 00ae 324A     		ldr	r2, .L73+4
 1402 00b0 A2FB0323 		umull	r2, r3, r2, r3
 1403 00b4 DB0A     		lsrs	r3, r3, #11
 1404 00b6 4FF47A72 		mov	r2, #1000
 1405 00ba 02FB03F3 		mul	r3, r2, r3
 1406 00be 7B61     		str	r3, [r7, #20]
 1407              	.L72:
 1408 00c0 7B69     		ldr	r3, [r7, #20]
 1409 00c2 5A1E     		subs	r2, r3, #1
 1410 00c4 7A61     		str	r2, [r7, #20]
 1411 00c6 002B     		cmp	r3, #0
 1412 00c8 0BD1     		bne	.L71
 1413 00ca FB68     		ldr	r3, [r7, #12]
 1414 00cc 1B68     		ldr	r3, [r3]
 1415 00ce FF22     		movs	r2, #255
 1416 00d0 5A62     		str	r2, [r3, #36]
 1417 00d2 FB68     		ldr	r3, [r7, #12]
 1418 00d4 0322     		movs	r2, #3
 1419 00d6 5A77     		strb	r2, [r3, #29]
 1420 00d8 FB68     		ldr	r3, [r7, #12]
 1421 00da 0022     		movs	r2, #0
 1422 00dc 1A77     		strb	r2, [r3, #28]
 1423 00de 0323     		movs	r3, #3
 1424 00e0 41E0     		b	.L67
 1425              	.L71:
 1426 00e2 FB68     		ldr	r3, [r7, #12]
 1427 00e4 1B68     		ldr	r3, [r3]
 1428 00e6 DB68     		ldr	r3, [r3, #12]
 1429 00e8 03F00403 		and	r3, r3, #4
 1430 00ec 002B     		cmp	r3, #0
 1431 00ee E7D0     		beq	.L72
 1432 00f0 FB68     		ldr	r3, [r7, #12]
 1433 00f2 1B68     		ldr	r3, [r3]
 1434 00f4 9A68     		ldr	r2, [r3, #8]
 1435 00f6 FB68     		ldr	r3, [r7, #12]
 1436 00f8 1B68     		ldr	r3, [r3]
 1437 00fa 22F00702 		bic	r2, r2, #7
 1438 00fe 9A60     		str	r2, [r3, #8]
 1439 0100 FB68     		ldr	r3, [r7, #12]
 1440 0102 1B68     		ldr	r3, [r3]
 1441 0104 9968     		ldr	r1, [r3, #8]
 1442 0106 FB68     		ldr	r3, [r7, #12]
 1443 0108 1B68     		ldr	r3, [r3]
 1444 010a 7A68     		ldr	r2, [r7, #4]
 1445 010c 0A43     		orrs	r2, r2, r1
 1446 010e 9A60     		str	r2, [r3, #8]
 1447 0110 FB68     		ldr	r3, [r7, #12]
 1448 0112 1B68     		ldr	r3, [r3]
 1449 0114 BA68     		ldr	r2, [r7, #8]
 1450 0116 5A61     		str	r2, [r3, #20]
 1451 0118 184B     		ldr	r3, .L73+8
 1452 011a 1B68     		ldr	r3, [r3]
 1453 011c 174A     		ldr	r2, .L73+8
 1454 011e 43F48003 		orr	r3, r3, #4194304
 1455 0122 1360     		str	r3, [r2]
 1456 0124 154B     		ldr	r3, .L73+8
ARM GAS  C:\Users\user\AppData\Local\Temp\cc01GxlO.s 			page 26


 1457 0126 9B68     		ldr	r3, [r3, #8]
 1458 0128 144A     		ldr	r2, .L73+8
 1459 012a 43F48003 		orr	r3, r3, #4194304
 1460 012e 9360     		str	r3, [r2, #8]
 1461 0130 FB68     		ldr	r3, [r7, #12]
 1462 0132 1B68     		ldr	r3, [r3]
 1463 0134 9A68     		ldr	r2, [r3, #8]
 1464 0136 FB68     		ldr	r3, [r7, #12]
 1465 0138 1B68     		ldr	r3, [r3]
 1466 013a 42F48042 		orr	r2, r2, #16384
 1467 013e 9A60     		str	r2, [r3, #8]
 1468 0140 FB68     		ldr	r3, [r7, #12]
 1469 0142 1B68     		ldr	r3, [r3]
 1470 0144 9A68     		ldr	r2, [r3, #8]
 1471 0146 FB68     		ldr	r3, [r7, #12]
 1472 0148 1B68     		ldr	r3, [r3]
 1473 014a 42F48062 		orr	r2, r2, #1024
 1474 014e 9A60     		str	r2, [r3, #8]
 1475 0150 FB68     		ldr	r3, [r7, #12]
 1476 0152 1B68     		ldr	r3, [r3]
 1477 0154 FF22     		movs	r2, #255
 1478 0156 5A62     		str	r2, [r3, #36]
 1479 0158 FB68     		ldr	r3, [r7, #12]
 1480 015a 0122     		movs	r2, #1
 1481 015c 5A77     		strb	r2, [r3, #29]
 1482 015e FB68     		ldr	r3, [r7, #12]
 1483 0160 0022     		movs	r2, #0
 1484 0162 1A77     		strb	r2, [r3, #28]
 1485 0164 0023     		movs	r3, #0
 1486              	.L67:
 1487 0166 1846     		mov	r0, r3
 1488 0168 1C37     		adds	r7, r7, #28
 1489 016a BD46     		mov	sp, r7
 1490              		@ sp needed
 1491 016c 5DF8047B 		ldr	r7, [sp], #4
 1492 0170 7047     		bx	lr
 1493              	.L74:
 1494 0172 00BF     		.align	2
 1495              	.L73:
 1496 0174 00000000 		.word	SystemCoreClock
 1497 0178 D34D6210 		.word	274877907
 1498 017c 003C0140 		.word	1073822720
 1500              		.section	.text.HAL_RTCEx_DeactivateWakeUpTimer,"ax",%progbits
 1501              		.align	1
 1502              		.global	HAL_RTCEx_DeactivateWakeUpTimer
 1503              		.syntax unified
 1504              		.thumb
 1505              		.thumb_func
 1507              	HAL_RTCEx_DeactivateWakeUpTimer:
 1508              		@ args = 0, pretend = 0, frame = 16
 1509              		@ frame_needed = 1, uses_anonymous_args = 0
 1510 0000 80B5     		push	{r7, lr}
 1511 0002 84B0     		sub	sp, sp, #16
 1512 0004 00AF     		add	r7, sp, #0
 1513 0006 7860     		str	r0, [r7, #4]
 1514 0008 0023     		movs	r3, #0
 1515 000a FB60     		str	r3, [r7, #12]
ARM GAS  C:\Users\user\AppData\Local\Temp\cc01GxlO.s 			page 27


 1516 000c 7B68     		ldr	r3, [r7, #4]
 1517 000e 1B7F     		ldrb	r3, [r3, #28]	@ zero_extendqisi2
 1518 0010 012B     		cmp	r3, #1
 1519 0012 01D1     		bne	.L76
 1520 0014 0223     		movs	r3, #2
 1521 0016 47E0     		b	.L77
 1522              	.L76:
 1523 0018 7B68     		ldr	r3, [r7, #4]
 1524 001a 0122     		movs	r2, #1
 1525 001c 1A77     		strb	r2, [r3, #28]
 1526 001e 7B68     		ldr	r3, [r7, #4]
 1527 0020 0222     		movs	r2, #2
 1528 0022 5A77     		strb	r2, [r3, #29]
 1529 0024 7B68     		ldr	r3, [r7, #4]
 1530 0026 1B68     		ldr	r3, [r3]
 1531 0028 CA22     		movs	r2, #202
 1532 002a 5A62     		str	r2, [r3, #36]
 1533 002c 7B68     		ldr	r3, [r7, #4]
 1534 002e 1B68     		ldr	r3, [r3]
 1535 0030 5322     		movs	r2, #83
 1536 0032 5A62     		str	r2, [r3, #36]
 1537 0034 7B68     		ldr	r3, [r7, #4]
 1538 0036 1B68     		ldr	r3, [r3]
 1539 0038 9A68     		ldr	r2, [r3, #8]
 1540 003a 7B68     		ldr	r3, [r7, #4]
 1541 003c 1B68     		ldr	r3, [r3]
 1542 003e 22F48062 		bic	r2, r2, #1024
 1543 0042 9A60     		str	r2, [r3, #8]
 1544 0044 7B68     		ldr	r3, [r7, #4]
 1545 0046 1B68     		ldr	r3, [r3]
 1546 0048 9A68     		ldr	r2, [r3, #8]
 1547 004a 7B68     		ldr	r3, [r7, #4]
 1548 004c 1B68     		ldr	r3, [r3]
 1549 004e 22F48042 		bic	r2, r2, #16384
 1550 0052 9A60     		str	r2, [r3, #8]
 1551 0054 FFF7FEFF 		bl	HAL_GetTick
 1552 0058 F860     		str	r0, [r7, #12]
 1553 005a 13E0     		b	.L78
 1554              	.L79:
 1555 005c FFF7FEFF 		bl	HAL_GetTick
 1556 0060 0246     		mov	r2, r0
 1557 0062 FB68     		ldr	r3, [r7, #12]
 1558 0064 D31A     		subs	r3, r2, r3
 1559 0066 B3F57A7F 		cmp	r3, #1000
 1560 006a 0BD9     		bls	.L78
 1561 006c 7B68     		ldr	r3, [r7, #4]
 1562 006e 1B68     		ldr	r3, [r3]
 1563 0070 FF22     		movs	r2, #255
 1564 0072 5A62     		str	r2, [r3, #36]
 1565 0074 7B68     		ldr	r3, [r7, #4]
 1566 0076 0322     		movs	r2, #3
 1567 0078 5A77     		strb	r2, [r3, #29]
 1568 007a 7B68     		ldr	r3, [r7, #4]
 1569 007c 0022     		movs	r2, #0
 1570 007e 1A77     		strb	r2, [r3, #28]
 1571 0080 0323     		movs	r3, #3
 1572 0082 11E0     		b	.L77
ARM GAS  C:\Users\user\AppData\Local\Temp\cc01GxlO.s 			page 28


 1573              	.L78:
 1574 0084 7B68     		ldr	r3, [r7, #4]
 1575 0086 1B68     		ldr	r3, [r3]
 1576 0088 DB68     		ldr	r3, [r3, #12]
 1577 008a 03F00403 		and	r3, r3, #4
 1578 008e 002B     		cmp	r3, #0
 1579 0090 E4D0     		beq	.L79
 1580 0092 7B68     		ldr	r3, [r7, #4]
 1581 0094 1B68     		ldr	r3, [r3]
 1582 0096 FF22     		movs	r2, #255
 1583 0098 5A62     		str	r2, [r3, #36]
 1584 009a 7B68     		ldr	r3, [r7, #4]
 1585 009c 0122     		movs	r2, #1
 1586 009e 5A77     		strb	r2, [r3, #29]
 1587 00a0 7B68     		ldr	r3, [r7, #4]
 1588 00a2 0022     		movs	r2, #0
 1589 00a4 1A77     		strb	r2, [r3, #28]
 1590 00a6 0023     		movs	r3, #0
 1591              	.L77:
 1592 00a8 1846     		mov	r0, r3
 1593 00aa 1037     		adds	r7, r7, #16
 1594 00ac BD46     		mov	sp, r7
 1595              		@ sp needed
 1596 00ae 80BD     		pop	{r7, pc}
 1598              		.section	.text.HAL_RTCEx_GetWakeUpTimer,"ax",%progbits
 1599              		.align	1
 1600              		.global	HAL_RTCEx_GetWakeUpTimer
 1601              		.syntax unified
 1602              		.thumb
 1603              		.thumb_func
 1605              	HAL_RTCEx_GetWakeUpTimer:
 1606              		@ args = 0, pretend = 0, frame = 8
 1607              		@ frame_needed = 1, uses_anonymous_args = 0
 1608              		@ link register save eliminated.
 1609 0000 80B4     		push	{r7}
 1610 0002 83B0     		sub	sp, sp, #12
 1611 0004 00AF     		add	r7, sp, #0
 1612 0006 7860     		str	r0, [r7, #4]
 1613 0008 7B68     		ldr	r3, [r7, #4]
 1614 000a 1B68     		ldr	r3, [r3]
 1615 000c 5B69     		ldr	r3, [r3, #20]
 1616 000e 9BB2     		uxth	r3, r3
 1617 0010 1846     		mov	r0, r3
 1618 0012 0C37     		adds	r7, r7, #12
 1619 0014 BD46     		mov	sp, r7
 1620              		@ sp needed
 1621 0016 5DF8047B 		ldr	r7, [sp], #4
 1622 001a 7047     		bx	lr
 1624              		.section	.text.HAL_RTCEx_WakeUpTimerIRQHandler,"ax",%progbits
 1625              		.align	1
 1626              		.global	HAL_RTCEx_WakeUpTimerIRQHandler
 1627              		.syntax unified
 1628              		.thumb
 1629              		.thumb_func
 1631              	HAL_RTCEx_WakeUpTimerIRQHandler:
 1632              		@ args = 0, pretend = 0, frame = 8
 1633              		@ frame_needed = 1, uses_anonymous_args = 0
ARM GAS  C:\Users\user\AppData\Local\Temp\cc01GxlO.s 			page 29


 1634 0000 80B5     		push	{r7, lr}
 1635 0002 82B0     		sub	sp, sp, #8
 1636 0004 00AF     		add	r7, sp, #0
 1637 0006 7860     		str	r0, [r7, #4]
 1638 0008 7B68     		ldr	r3, [r7, #4]
 1639 000a 1B68     		ldr	r3, [r3]
 1640 000c DB68     		ldr	r3, [r3, #12]
 1641 000e 03F48063 		and	r3, r3, #1024
 1642 0012 002B     		cmp	r3, #0
 1643 0014 0BD0     		beq	.L83
 1644 0016 7868     		ldr	r0, [r7, #4]
 1645 0018 FFF7FEFF 		bl	HAL_RTCEx_WakeUpTimerEventCallback
 1646 001c 7B68     		ldr	r3, [r7, #4]
 1647 001e 1B68     		ldr	r3, [r3]
 1648 0020 DB68     		ldr	r3, [r3, #12]
 1649 0022 DAB2     		uxtb	r2, r3
 1650 0024 7B68     		ldr	r3, [r7, #4]
 1651 0026 1B68     		ldr	r3, [r3]
 1652 0028 62F49062 		orn	r2, r2, #1152
 1653 002c DA60     		str	r2, [r3, #12]
 1654              	.L83:
 1655 002e 054B     		ldr	r3, .L84
 1656 0030 4FF48002 		mov	r2, #4194304
 1657 0034 5A61     		str	r2, [r3, #20]
 1658 0036 7B68     		ldr	r3, [r7, #4]
 1659 0038 0122     		movs	r2, #1
 1660 003a 5A77     		strb	r2, [r3, #29]
 1661 003c 00BF     		nop
 1662 003e 0837     		adds	r7, r7, #8
 1663 0040 BD46     		mov	sp, r7
 1664              		@ sp needed
 1665 0042 80BD     		pop	{r7, pc}
 1666              	.L85:
 1667              		.align	2
 1668              	.L84:
 1669 0044 003C0140 		.word	1073822720
 1671              		.section	.text.HAL_RTCEx_WakeUpTimerEventCallback,"ax",%progbits
 1672              		.align	1
 1673              		.weak	HAL_RTCEx_WakeUpTimerEventCallback
 1674              		.syntax unified
 1675              		.thumb
 1676              		.thumb_func
 1678              	HAL_RTCEx_WakeUpTimerEventCallback:
 1679              		@ args = 0, pretend = 0, frame = 8
 1680              		@ frame_needed = 1, uses_anonymous_args = 0
 1681              		@ link register save eliminated.
 1682 0000 80B4     		push	{r7}
 1683 0002 83B0     		sub	sp, sp, #12
 1684 0004 00AF     		add	r7, sp, #0
 1685 0006 7860     		str	r0, [r7, #4]
 1686 0008 00BF     		nop
 1687 000a 0C37     		adds	r7, r7, #12
 1688 000c BD46     		mov	sp, r7
 1689              		@ sp needed
 1690 000e 5DF8047B 		ldr	r7, [sp], #4
 1691 0012 7047     		bx	lr
 1693              		.section	.text.HAL_RTCEx_PollForWakeUpTimerEvent,"ax",%progbits
ARM GAS  C:\Users\user\AppData\Local\Temp\cc01GxlO.s 			page 30


 1694              		.align	1
 1695              		.global	HAL_RTCEx_PollForWakeUpTimerEvent
 1696              		.syntax unified
 1697              		.thumb
 1698              		.thumb_func
 1700              	HAL_RTCEx_PollForWakeUpTimerEvent:
 1701              		@ args = 0, pretend = 0, frame = 16
 1702              		@ frame_needed = 1, uses_anonymous_args = 0
 1703 0000 80B5     		push	{r7, lr}
 1704 0002 84B0     		sub	sp, sp, #16
 1705 0004 00AF     		add	r7, sp, #0
 1706 0006 7860     		str	r0, [r7, #4]
 1707 0008 3960     		str	r1, [r7]
 1708 000a 0023     		movs	r3, #0
 1709 000c FB60     		str	r3, [r7, #12]
 1710 000e FFF7FEFF 		bl	HAL_GetTick
 1711 0012 F860     		str	r0, [r7, #12]
 1712 0014 13E0     		b	.L89
 1713              	.L92:
 1714 0016 3B68     		ldr	r3, [r7]
 1715 0018 B3F1FF3F 		cmp	r3, #-1
 1716 001c 0FD0     		beq	.L89
 1717 001e 3B68     		ldr	r3, [r7]
 1718 0020 002B     		cmp	r3, #0
 1719 0022 07D0     		beq	.L90
 1720 0024 FFF7FEFF 		bl	HAL_GetTick
 1721 0028 0246     		mov	r2, r0
 1722 002a FB68     		ldr	r3, [r7, #12]
 1723 002c D31A     		subs	r3, r2, r3
 1724 002e 3A68     		ldr	r2, [r7]
 1725 0030 9A42     		cmp	r2, r3
 1726 0032 04D2     		bcs	.L89
 1727              	.L90:
 1728 0034 7B68     		ldr	r3, [r7, #4]
 1729 0036 0322     		movs	r2, #3
 1730 0038 5A77     		strb	r2, [r3, #29]
 1731 003a 0323     		movs	r3, #3
 1732 003c 13E0     		b	.L91
 1733              	.L89:
 1734 003e 7B68     		ldr	r3, [r7, #4]
 1735 0040 1B68     		ldr	r3, [r3]
 1736 0042 DB68     		ldr	r3, [r3, #12]
 1737 0044 03F48063 		and	r3, r3, #1024
 1738 0048 002B     		cmp	r3, #0
 1739 004a E4D0     		beq	.L92
 1740 004c 7B68     		ldr	r3, [r7, #4]
 1741 004e 1B68     		ldr	r3, [r3]
 1742 0050 DB68     		ldr	r3, [r3, #12]
 1743 0052 DAB2     		uxtb	r2, r3
 1744 0054 7B68     		ldr	r3, [r7, #4]
 1745 0056 1B68     		ldr	r3, [r3]
 1746 0058 62F49062 		orn	r2, r2, #1152
 1747 005c DA60     		str	r2, [r3, #12]
 1748 005e 7B68     		ldr	r3, [r7, #4]
 1749 0060 0122     		movs	r2, #1
 1750 0062 5A77     		strb	r2, [r3, #29]
 1751 0064 0023     		movs	r3, #0
ARM GAS  C:\Users\user\AppData\Local\Temp\cc01GxlO.s 			page 31


 1752              	.L91:
 1753 0066 1846     		mov	r0, r3
 1754 0068 1037     		adds	r7, r7, #16
 1755 006a BD46     		mov	sp, r7
 1756              		@ sp needed
 1757 006c 80BD     		pop	{r7, pc}
 1759              		.section	.text.HAL_RTCEx_BKUPWrite,"ax",%progbits
 1760              		.align	1
 1761              		.global	HAL_RTCEx_BKUPWrite
 1762              		.syntax unified
 1763              		.thumb
 1764              		.thumb_func
 1766              	HAL_RTCEx_BKUPWrite:
 1767              		@ args = 0, pretend = 0, frame = 24
 1768              		@ frame_needed = 1, uses_anonymous_args = 0
 1769              		@ link register save eliminated.
 1770 0000 80B4     		push	{r7}
 1771 0002 87B0     		sub	sp, sp, #28
 1772 0004 00AF     		add	r7, sp, #0
 1773 0006 F860     		str	r0, [r7, #12]
 1774 0008 B960     		str	r1, [r7, #8]
 1775 000a 7A60     		str	r2, [r7, #4]
 1776 000c 0023     		movs	r3, #0
 1777 000e 7B61     		str	r3, [r7, #20]
 1778 0010 FB68     		ldr	r3, [r7, #12]
 1779 0012 1B68     		ldr	r3, [r3]
 1780 0014 5033     		adds	r3, r3, #80
 1781 0016 7B61     		str	r3, [r7, #20]
 1782 0018 BB68     		ldr	r3, [r7, #8]
 1783 001a 9B00     		lsls	r3, r3, #2
 1784 001c 7A69     		ldr	r2, [r7, #20]
 1785 001e 1344     		add	r3, r3, r2
 1786 0020 7B61     		str	r3, [r7, #20]
 1787 0022 7B69     		ldr	r3, [r7, #20]
 1788 0024 7A68     		ldr	r2, [r7, #4]
 1789 0026 1A60     		str	r2, [r3]
 1790 0028 00BF     		nop
 1791 002a 1C37     		adds	r7, r7, #28
 1792 002c BD46     		mov	sp, r7
 1793              		@ sp needed
 1794 002e 5DF8047B 		ldr	r7, [sp], #4
 1795 0032 7047     		bx	lr
 1797              		.section	.text.HAL_RTCEx_BKUPRead,"ax",%progbits
 1798              		.align	1
 1799              		.global	HAL_RTCEx_BKUPRead
 1800              		.syntax unified
 1801              		.thumb
 1802              		.thumb_func
 1804              	HAL_RTCEx_BKUPRead:
 1805              		@ args = 0, pretend = 0, frame = 16
 1806              		@ frame_needed = 1, uses_anonymous_args = 0
 1807              		@ link register save eliminated.
 1808 0000 80B4     		push	{r7}
 1809 0002 85B0     		sub	sp, sp, #20
 1810 0004 00AF     		add	r7, sp, #0
 1811 0006 7860     		str	r0, [r7, #4]
 1812 0008 3960     		str	r1, [r7]
ARM GAS  C:\Users\user\AppData\Local\Temp\cc01GxlO.s 			page 32


 1813 000a 0023     		movs	r3, #0
 1814 000c FB60     		str	r3, [r7, #12]
 1815 000e 7B68     		ldr	r3, [r7, #4]
 1816 0010 1B68     		ldr	r3, [r3]
 1817 0012 5033     		adds	r3, r3, #80
 1818 0014 FB60     		str	r3, [r7, #12]
 1819 0016 3B68     		ldr	r3, [r7]
 1820 0018 9B00     		lsls	r3, r3, #2
 1821 001a FA68     		ldr	r2, [r7, #12]
 1822 001c 1344     		add	r3, r3, r2
 1823 001e FB60     		str	r3, [r7, #12]
 1824 0020 FB68     		ldr	r3, [r7, #12]
 1825 0022 1B68     		ldr	r3, [r3]
 1826 0024 1846     		mov	r0, r3
 1827 0026 1437     		adds	r7, r7, #20
 1828 0028 BD46     		mov	sp, r7
 1829              		@ sp needed
 1830 002a 5DF8047B 		ldr	r7, [sp], #4
 1831 002e 7047     		bx	lr
 1833              		.section	.text.HAL_RTCEx_SetCoarseCalib,"ax",%progbits
 1834              		.align	1
 1835              		.global	HAL_RTCEx_SetCoarseCalib
 1836              		.syntax unified
 1837              		.thumb
 1838              		.thumb_func
 1840              	HAL_RTCEx_SetCoarseCalib:
 1841              		@ args = 0, pretend = 0, frame = 24
 1842              		@ frame_needed = 1, uses_anonymous_args = 0
 1843 0000 80B5     		push	{r7, lr}
 1844 0002 86B0     		sub	sp, sp, #24
 1845 0004 00AF     		add	r7, sp, #0
 1846 0006 F860     		str	r0, [r7, #12]
 1847 0008 B960     		str	r1, [r7, #8]
 1848 000a 7A60     		str	r2, [r7, #4]
 1849 000c FB68     		ldr	r3, [r7, #12]
 1850 000e 1B7F     		ldrb	r3, [r3, #28]	@ zero_extendqisi2
 1851 0010 012B     		cmp	r3, #1
 1852 0012 01D1     		bne	.L97
 1853 0014 0223     		movs	r3, #2
 1854 0016 36E0     		b	.L98
 1855              	.L97:
 1856 0018 FB68     		ldr	r3, [r7, #12]
 1857 001a 0122     		movs	r2, #1
 1858 001c 1A77     		strb	r2, [r3, #28]
 1859 001e FB68     		ldr	r3, [r7, #12]
 1860 0020 0222     		movs	r2, #2
 1861 0022 5A77     		strb	r2, [r3, #29]
 1862 0024 FB68     		ldr	r3, [r7, #12]
 1863 0026 1B68     		ldr	r3, [r3]
 1864 0028 CA22     		movs	r2, #202
 1865 002a 5A62     		str	r2, [r3, #36]
 1866 002c FB68     		ldr	r3, [r7, #12]
 1867 002e 1B68     		ldr	r3, [r3]
 1868 0030 5322     		movs	r2, #83
 1869 0032 5A62     		str	r2, [r3, #36]
 1870 0034 F868     		ldr	r0, [r7, #12]
 1871 0036 FFF7FEFF 		bl	RTC_EnterInitMode
ARM GAS  C:\Users\user\AppData\Local\Temp\cc01GxlO.s 			page 33


 1872 003a 0346     		mov	r3, r0
 1873 003c FB75     		strb	r3, [r7, #23]
 1874 003e FB7D     		ldrb	r3, [r7, #23]	@ zero_extendqisi2
 1875 0040 002B     		cmp	r3, #0
 1876 0042 12D1     		bne	.L99
 1877 0044 FB68     		ldr	r3, [r7, #12]
 1878 0046 1B68     		ldr	r3, [r3]
 1879 0048 9A68     		ldr	r2, [r3, #8]
 1880 004a FB68     		ldr	r3, [r7, #12]
 1881 004c 1B68     		ldr	r3, [r3]
 1882 004e 42F08002 		orr	r2, r2, #128
 1883 0052 9A60     		str	r2, [r3, #8]
 1884 0054 FB68     		ldr	r3, [r7, #12]
 1885 0056 1B68     		ldr	r3, [r3]
 1886 0058 B968     		ldr	r1, [r7, #8]
 1887 005a 7A68     		ldr	r2, [r7, #4]
 1888 005c 0A43     		orrs	r2, r2, r1
 1889 005e 9A61     		str	r2, [r3, #24]
 1890 0060 F868     		ldr	r0, [r7, #12]
 1891 0062 FFF7FEFF 		bl	RTC_ExitInitMode
 1892 0066 0346     		mov	r3, r0
 1893 0068 FB75     		strb	r3, [r7, #23]
 1894              	.L99:
 1895 006a FB7D     		ldrb	r3, [r7, #23]	@ zero_extendqisi2
 1896 006c 002B     		cmp	r3, #0
 1897 006e 02D1     		bne	.L100
 1898 0070 FB68     		ldr	r3, [r7, #12]
 1899 0072 0122     		movs	r2, #1
 1900 0074 5A77     		strb	r2, [r3, #29]
 1901              	.L100:
 1902 0076 FB68     		ldr	r3, [r7, #12]
 1903 0078 1B68     		ldr	r3, [r3]
 1904 007a FF22     		movs	r2, #255
 1905 007c 5A62     		str	r2, [r3, #36]
 1906 007e FB68     		ldr	r3, [r7, #12]
 1907 0080 0022     		movs	r2, #0
 1908 0082 1A77     		strb	r2, [r3, #28]
 1909 0084 FB7D     		ldrb	r3, [r7, #23]	@ zero_extendqisi2
 1910              	.L98:
 1911 0086 1846     		mov	r0, r3
 1912 0088 1837     		adds	r7, r7, #24
 1913 008a BD46     		mov	sp, r7
 1914              		@ sp needed
 1915 008c 80BD     		pop	{r7, pc}
 1917              		.section	.text.HAL_RTCEx_DeactivateCoarseCalib,"ax",%progbits
 1918              		.align	1
 1919              		.global	HAL_RTCEx_DeactivateCoarseCalib
 1920              		.syntax unified
 1921              		.thumb
 1922              		.thumb_func
 1924              	HAL_RTCEx_DeactivateCoarseCalib:
 1925              		@ args = 0, pretend = 0, frame = 16
 1926              		@ frame_needed = 1, uses_anonymous_args = 0
 1927 0000 80B5     		push	{r7, lr}
 1928 0002 84B0     		sub	sp, sp, #16
 1929 0004 00AF     		add	r7, sp, #0
 1930 0006 7860     		str	r0, [r7, #4]
ARM GAS  C:\Users\user\AppData\Local\Temp\cc01GxlO.s 			page 34


 1931 0008 7B68     		ldr	r3, [r7, #4]
 1932 000a 1B7F     		ldrb	r3, [r3, #28]	@ zero_extendqisi2
 1933 000c 012B     		cmp	r3, #1
 1934 000e 01D1     		bne	.L102
 1935 0010 0223     		movs	r3, #2
 1936 0012 30E0     		b	.L103
 1937              	.L102:
 1938 0014 7B68     		ldr	r3, [r7, #4]
 1939 0016 0122     		movs	r2, #1
 1940 0018 1A77     		strb	r2, [r3, #28]
 1941 001a 7B68     		ldr	r3, [r7, #4]
 1942 001c 0222     		movs	r2, #2
 1943 001e 5A77     		strb	r2, [r3, #29]
 1944 0020 7B68     		ldr	r3, [r7, #4]
 1945 0022 1B68     		ldr	r3, [r3]
 1946 0024 CA22     		movs	r2, #202
 1947 0026 5A62     		str	r2, [r3, #36]
 1948 0028 7B68     		ldr	r3, [r7, #4]
 1949 002a 1B68     		ldr	r3, [r3]
 1950 002c 5322     		movs	r2, #83
 1951 002e 5A62     		str	r2, [r3, #36]
 1952 0030 7868     		ldr	r0, [r7, #4]
 1953 0032 FFF7FEFF 		bl	RTC_EnterInitMode
 1954 0036 0346     		mov	r3, r0
 1955 0038 FB73     		strb	r3, [r7, #15]
 1956 003a FB7B     		ldrb	r3, [r7, #15]	@ zero_extendqisi2
 1957 003c 002B     		cmp	r3, #0
 1958 003e 0CD1     		bne	.L104
 1959 0040 7B68     		ldr	r3, [r7, #4]
 1960 0042 1B68     		ldr	r3, [r3]
 1961 0044 9A68     		ldr	r2, [r3, #8]
 1962 0046 7B68     		ldr	r3, [r7, #4]
 1963 0048 1B68     		ldr	r3, [r3]
 1964 004a 22F08002 		bic	r2, r2, #128
 1965 004e 9A60     		str	r2, [r3, #8]
 1966 0050 7868     		ldr	r0, [r7, #4]
 1967 0052 FFF7FEFF 		bl	RTC_ExitInitMode
 1968 0056 0346     		mov	r3, r0
 1969 0058 FB73     		strb	r3, [r7, #15]
 1970              	.L104:
 1971 005a FB7B     		ldrb	r3, [r7, #15]	@ zero_extendqisi2
 1972 005c 002B     		cmp	r3, #0
 1973 005e 02D1     		bne	.L105
 1974 0060 7B68     		ldr	r3, [r7, #4]
 1975 0062 0122     		movs	r2, #1
 1976 0064 5A77     		strb	r2, [r3, #29]
 1977              	.L105:
 1978 0066 7B68     		ldr	r3, [r7, #4]
 1979 0068 1B68     		ldr	r3, [r3]
 1980 006a FF22     		movs	r2, #255
 1981 006c 5A62     		str	r2, [r3, #36]
 1982 006e 7B68     		ldr	r3, [r7, #4]
 1983 0070 0022     		movs	r2, #0
 1984 0072 1A77     		strb	r2, [r3, #28]
 1985 0074 FB7B     		ldrb	r3, [r7, #15]	@ zero_extendqisi2
 1986              	.L103:
 1987 0076 1846     		mov	r0, r3
ARM GAS  C:\Users\user\AppData\Local\Temp\cc01GxlO.s 			page 35


 1988 0078 1037     		adds	r7, r7, #16
 1989 007a BD46     		mov	sp, r7
 1990              		@ sp needed
 1991 007c 80BD     		pop	{r7, pc}
 1993              		.section	.text.HAL_RTCEx_SetSmoothCalib,"ax",%progbits
 1994              		.align	1
 1995              		.global	HAL_RTCEx_SetSmoothCalib
 1996              		.syntax unified
 1997              		.thumb
 1998              		.thumb_func
 2000              	HAL_RTCEx_SetSmoothCalib:
 2001              		@ args = 0, pretend = 0, frame = 24
 2002              		@ frame_needed = 1, uses_anonymous_args = 0
 2003 0000 80B5     		push	{r7, lr}
 2004 0002 86B0     		sub	sp, sp, #24
 2005 0004 00AF     		add	r7, sp, #0
 2006 0006 F860     		str	r0, [r7, #12]
 2007 0008 B960     		str	r1, [r7, #8]
 2008 000a 7A60     		str	r2, [r7, #4]
 2009 000c 3B60     		str	r3, [r7]
 2010 000e 0023     		movs	r3, #0
 2011 0010 7B61     		str	r3, [r7, #20]
 2012 0012 FB68     		ldr	r3, [r7, #12]
 2013 0014 1B7F     		ldrb	r3, [r3, #28]	@ zero_extendqisi2
 2014 0016 012B     		cmp	r3, #1
 2015 0018 01D1     		bne	.L107
 2016 001a 0223     		movs	r3, #2
 2017 001c 47E0     		b	.L108
 2018              	.L107:
 2019 001e FB68     		ldr	r3, [r7, #12]
 2020 0020 0122     		movs	r2, #1
 2021 0022 1A77     		strb	r2, [r3, #28]
 2022 0024 FB68     		ldr	r3, [r7, #12]
 2023 0026 0222     		movs	r2, #2
 2024 0028 5A77     		strb	r2, [r3, #29]
 2025 002a FB68     		ldr	r3, [r7, #12]
 2026 002c 1B68     		ldr	r3, [r3]
 2027 002e CA22     		movs	r2, #202
 2028 0030 5A62     		str	r2, [r3, #36]
 2029 0032 FB68     		ldr	r3, [r7, #12]
 2030 0034 1B68     		ldr	r3, [r3]
 2031 0036 5322     		movs	r2, #83
 2032 0038 5A62     		str	r2, [r3, #36]
 2033 003a FB68     		ldr	r3, [r7, #12]
 2034 003c 1B68     		ldr	r3, [r3]
 2035 003e DB68     		ldr	r3, [r3, #12]
 2036 0040 03F48033 		and	r3, r3, #65536
 2037 0044 002B     		cmp	r3, #0
 2038 0046 1ED0     		beq	.L109
 2039 0048 FFF7FEFF 		bl	HAL_GetTick
 2040 004c 7861     		str	r0, [r7, #20]
 2041 004e 13E0     		b	.L110
 2042              	.L111:
 2043 0050 FFF7FEFF 		bl	HAL_GetTick
 2044 0054 0246     		mov	r2, r0
 2045 0056 7B69     		ldr	r3, [r7, #20]
 2046 0058 D31A     		subs	r3, r2, r3
ARM GAS  C:\Users\user\AppData\Local\Temp\cc01GxlO.s 			page 36


 2047 005a B3F57A7F 		cmp	r3, #1000
 2048 005e 0BD9     		bls	.L110
 2049 0060 FB68     		ldr	r3, [r7, #12]
 2050 0062 1B68     		ldr	r3, [r3]
 2051 0064 FF22     		movs	r2, #255
 2052 0066 5A62     		str	r2, [r3, #36]
 2053 0068 FB68     		ldr	r3, [r7, #12]
 2054 006a 0322     		movs	r2, #3
 2055 006c 5A77     		strb	r2, [r3, #29]
 2056 006e FB68     		ldr	r3, [r7, #12]
 2057 0070 0022     		movs	r2, #0
 2058 0072 1A77     		strb	r2, [r3, #28]
 2059 0074 0323     		movs	r3, #3
 2060 0076 1AE0     		b	.L108
 2061              	.L110:
 2062 0078 FB68     		ldr	r3, [r7, #12]
 2063 007a 1B68     		ldr	r3, [r3]
 2064 007c DB68     		ldr	r3, [r3, #12]
 2065 007e 03F48033 		and	r3, r3, #65536
 2066 0082 002B     		cmp	r3, #0
 2067 0084 E4D1     		bne	.L111
 2068              	.L109:
 2069 0086 BA68     		ldr	r2, [r7, #8]
 2070 0088 7B68     		ldr	r3, [r7, #4]
 2071 008a 42EA0301 		orr	r1, r2, r3
 2072 008e FB68     		ldr	r3, [r7, #12]
 2073 0090 1B68     		ldr	r3, [r3]
 2074 0092 3A68     		ldr	r2, [r7]
 2075 0094 0A43     		orrs	r2, r2, r1
 2076 0096 DA63     		str	r2, [r3, #60]
 2077 0098 FB68     		ldr	r3, [r7, #12]
 2078 009a 1B68     		ldr	r3, [r3]
 2079 009c FF22     		movs	r2, #255
 2080 009e 5A62     		str	r2, [r3, #36]
 2081 00a0 FB68     		ldr	r3, [r7, #12]
 2082 00a2 0122     		movs	r2, #1
 2083 00a4 5A77     		strb	r2, [r3, #29]
 2084 00a6 FB68     		ldr	r3, [r7, #12]
 2085 00a8 0022     		movs	r2, #0
 2086 00aa 1A77     		strb	r2, [r3, #28]
 2087 00ac 0023     		movs	r3, #0
 2088              	.L108:
 2089 00ae 1846     		mov	r0, r3
 2090 00b0 1837     		adds	r7, r7, #24
 2091 00b2 BD46     		mov	sp, r7
 2092              		@ sp needed
 2093 00b4 80BD     		pop	{r7, pc}
 2095              		.section	.text.HAL_RTCEx_SetSynchroShift,"ax",%progbits
 2096              		.align	1
 2097              		.global	HAL_RTCEx_SetSynchroShift
 2098              		.syntax unified
 2099              		.thumb
 2100              		.thumb_func
 2102              	HAL_RTCEx_SetSynchroShift:
 2103              		@ args = 0, pretend = 0, frame = 24
 2104              		@ frame_needed = 1, uses_anonymous_args = 0
 2105 0000 80B5     		push	{r7, lr}
ARM GAS  C:\Users\user\AppData\Local\Temp\cc01GxlO.s 			page 37


 2106 0002 86B0     		sub	sp, sp, #24
 2107 0004 00AF     		add	r7, sp, #0
 2108 0006 F860     		str	r0, [r7, #12]
 2109 0008 B960     		str	r1, [r7, #8]
 2110 000a 7A60     		str	r2, [r7, #4]
 2111 000c 0023     		movs	r3, #0
 2112 000e 7B61     		str	r3, [r7, #20]
 2113 0010 FB68     		ldr	r3, [r7, #12]
 2114 0012 1B7F     		ldrb	r3, [r3, #28]	@ zero_extendqisi2
 2115 0014 012B     		cmp	r3, #1
 2116 0016 01D1     		bne	.L113
 2117 0018 0223     		movs	r3, #2
 2118 001a 69E0     		b	.L114
 2119              	.L113:
 2120 001c FB68     		ldr	r3, [r7, #12]
 2121 001e 0122     		movs	r2, #1
 2122 0020 1A77     		strb	r2, [r3, #28]
 2123 0022 FB68     		ldr	r3, [r7, #12]
 2124 0024 0222     		movs	r2, #2
 2125 0026 5A77     		strb	r2, [r3, #29]
 2126 0028 FB68     		ldr	r3, [r7, #12]
 2127 002a 1B68     		ldr	r3, [r3]
 2128 002c CA22     		movs	r2, #202
 2129 002e 5A62     		str	r2, [r3, #36]
 2130 0030 FB68     		ldr	r3, [r7, #12]
 2131 0032 1B68     		ldr	r3, [r3]
 2132 0034 5322     		movs	r2, #83
 2133 0036 5A62     		str	r2, [r3, #36]
 2134 0038 FFF7FEFF 		bl	HAL_GetTick
 2135 003c 7861     		str	r0, [r7, #20]
 2136 003e 13E0     		b	.L115
 2137              	.L116:
 2138 0040 FFF7FEFF 		bl	HAL_GetTick
 2139 0044 0246     		mov	r2, r0
 2140 0046 7B69     		ldr	r3, [r7, #20]
 2141 0048 D31A     		subs	r3, r2, r3
 2142 004a B3F57A7F 		cmp	r3, #1000
 2143 004e 0BD9     		bls	.L115
 2144 0050 FB68     		ldr	r3, [r7, #12]
 2145 0052 1B68     		ldr	r3, [r3]
 2146 0054 FF22     		movs	r2, #255
 2147 0056 5A62     		str	r2, [r3, #36]
 2148 0058 FB68     		ldr	r3, [r7, #12]
 2149 005a 0322     		movs	r2, #3
 2150 005c 5A77     		strb	r2, [r3, #29]
 2151 005e FB68     		ldr	r3, [r7, #12]
 2152 0060 0022     		movs	r2, #0
 2153 0062 1A77     		strb	r2, [r3, #28]
 2154 0064 0323     		movs	r3, #3
 2155 0066 43E0     		b	.L114
 2156              	.L115:
 2157 0068 FB68     		ldr	r3, [r7, #12]
 2158 006a 1B68     		ldr	r3, [r3]
 2159 006c DB68     		ldr	r3, [r3, #12]
 2160 006e 03F00803 		and	r3, r3, #8
 2161 0072 002B     		cmp	r3, #0
 2162 0074 E4D1     		bne	.L116
ARM GAS  C:\Users\user\AppData\Local\Temp\cc01GxlO.s 			page 38


 2163 0076 FB68     		ldr	r3, [r7, #12]
 2164 0078 1B68     		ldr	r3, [r3]
 2165 007a 9B68     		ldr	r3, [r3, #8]
 2166 007c 03F01003 		and	r3, r3, #16
 2167 0080 002B     		cmp	r3, #0
 2168 0082 1ED1     		bne	.L117
 2169 0084 FB68     		ldr	r3, [r7, #12]
 2170 0086 1B68     		ldr	r3, [r3]
 2171 0088 7968     		ldr	r1, [r7, #4]
 2172 008a BA68     		ldr	r2, [r7, #8]
 2173 008c 0A43     		orrs	r2, r2, r1
 2174 008e DA62     		str	r2, [r3, #44]
 2175 0090 FB68     		ldr	r3, [r7, #12]
 2176 0092 1B68     		ldr	r3, [r3]
 2177 0094 9B68     		ldr	r3, [r3, #8]
 2178 0096 03F02003 		and	r3, r3, #32
 2179 009a 002B     		cmp	r3, #0
 2180 009c 1DD1     		bne	.L118
 2181 009e F868     		ldr	r0, [r7, #12]
 2182 00a0 FFF7FEFF 		bl	HAL_RTC_WaitForSynchro
 2183 00a4 0346     		mov	r3, r0
 2184 00a6 002B     		cmp	r3, #0
 2185 00a8 17D0     		beq	.L118
 2186 00aa FB68     		ldr	r3, [r7, #12]
 2187 00ac 1B68     		ldr	r3, [r3]
 2188 00ae FF22     		movs	r2, #255
 2189 00b0 5A62     		str	r2, [r3, #36]
 2190 00b2 FB68     		ldr	r3, [r7, #12]
 2191 00b4 0422     		movs	r2, #4
 2192 00b6 5A77     		strb	r2, [r3, #29]
 2193 00b8 FB68     		ldr	r3, [r7, #12]
 2194 00ba 0022     		movs	r2, #0
 2195 00bc 1A77     		strb	r2, [r3, #28]
 2196 00be 0123     		movs	r3, #1
 2197 00c0 16E0     		b	.L114
 2198              	.L117:
 2199 00c2 FB68     		ldr	r3, [r7, #12]
 2200 00c4 1B68     		ldr	r3, [r3]
 2201 00c6 FF22     		movs	r2, #255
 2202 00c8 5A62     		str	r2, [r3, #36]
 2203 00ca FB68     		ldr	r3, [r7, #12]
 2204 00cc 0422     		movs	r2, #4
 2205 00ce 5A77     		strb	r2, [r3, #29]
 2206 00d0 FB68     		ldr	r3, [r7, #12]
 2207 00d2 0022     		movs	r2, #0
 2208 00d4 1A77     		strb	r2, [r3, #28]
 2209 00d6 0123     		movs	r3, #1
 2210 00d8 0AE0     		b	.L114
 2211              	.L118:
 2212 00da FB68     		ldr	r3, [r7, #12]
 2213 00dc 1B68     		ldr	r3, [r3]
 2214 00de FF22     		movs	r2, #255
 2215 00e0 5A62     		str	r2, [r3, #36]
 2216 00e2 FB68     		ldr	r3, [r7, #12]
 2217 00e4 0122     		movs	r2, #1
 2218 00e6 5A77     		strb	r2, [r3, #29]
 2219 00e8 FB68     		ldr	r3, [r7, #12]
ARM GAS  C:\Users\user\AppData\Local\Temp\cc01GxlO.s 			page 39


 2220 00ea 0022     		movs	r2, #0
 2221 00ec 1A77     		strb	r2, [r3, #28]
 2222 00ee 0023     		movs	r3, #0
 2223              	.L114:
 2224 00f0 1846     		mov	r0, r3
 2225 00f2 1837     		adds	r7, r7, #24
 2226 00f4 BD46     		mov	sp, r7
 2227              		@ sp needed
 2228 00f6 80BD     		pop	{r7, pc}
 2230              		.section	.text.HAL_RTCEx_SetCalibrationOutPut,"ax",%progbits
 2231              		.align	1
 2232              		.global	HAL_RTCEx_SetCalibrationOutPut
 2233              		.syntax unified
 2234              		.thumb
 2235              		.thumb_func
 2237              	HAL_RTCEx_SetCalibrationOutPut:
 2238              		@ args = 0, pretend = 0, frame = 8
 2239              		@ frame_needed = 1, uses_anonymous_args = 0
 2240              		@ link register save eliminated.
 2241 0000 80B4     		push	{r7}
 2242 0002 83B0     		sub	sp, sp, #12
 2243 0004 00AF     		add	r7, sp, #0
 2244 0006 7860     		str	r0, [r7, #4]
 2245 0008 3960     		str	r1, [r7]
 2246 000a 7B68     		ldr	r3, [r7, #4]
 2247 000c 1B7F     		ldrb	r3, [r3, #28]	@ zero_extendqisi2
 2248 000e 012B     		cmp	r3, #1
 2249 0010 01D1     		bne	.L120
 2250 0012 0223     		movs	r3, #2
 2251 0014 30E0     		b	.L121
 2252              	.L120:
 2253 0016 7B68     		ldr	r3, [r7, #4]
 2254 0018 0122     		movs	r2, #1
 2255 001a 1A77     		strb	r2, [r3, #28]
 2256 001c 7B68     		ldr	r3, [r7, #4]
 2257 001e 0222     		movs	r2, #2
 2258 0020 5A77     		strb	r2, [r3, #29]
 2259 0022 7B68     		ldr	r3, [r7, #4]
 2260 0024 1B68     		ldr	r3, [r3]
 2261 0026 CA22     		movs	r2, #202
 2262 0028 5A62     		str	r2, [r3, #36]
 2263 002a 7B68     		ldr	r3, [r7, #4]
 2264 002c 1B68     		ldr	r3, [r3]
 2265 002e 5322     		movs	r2, #83
 2266 0030 5A62     		str	r2, [r3, #36]
 2267 0032 7B68     		ldr	r3, [r7, #4]
 2268 0034 1B68     		ldr	r3, [r3]
 2269 0036 9A68     		ldr	r2, [r3, #8]
 2270 0038 7B68     		ldr	r3, [r7, #4]
 2271 003a 1B68     		ldr	r3, [r3]
 2272 003c 22F40022 		bic	r2, r2, #524288
 2273 0040 9A60     		str	r2, [r3, #8]
 2274 0042 7B68     		ldr	r3, [r7, #4]
 2275 0044 1B68     		ldr	r3, [r3]
 2276 0046 9968     		ldr	r1, [r3, #8]
 2277 0048 7B68     		ldr	r3, [r7, #4]
 2278 004a 1B68     		ldr	r3, [r3]
ARM GAS  C:\Users\user\AppData\Local\Temp\cc01GxlO.s 			page 40


 2279 004c 3A68     		ldr	r2, [r7]
 2280 004e 0A43     		orrs	r2, r2, r1
 2281 0050 9A60     		str	r2, [r3, #8]
 2282 0052 7B68     		ldr	r3, [r7, #4]
 2283 0054 1B68     		ldr	r3, [r3]
 2284 0056 9A68     		ldr	r2, [r3, #8]
 2285 0058 7B68     		ldr	r3, [r7, #4]
 2286 005a 1B68     		ldr	r3, [r3]
 2287 005c 42F40002 		orr	r2, r2, #8388608
 2288 0060 9A60     		str	r2, [r3, #8]
 2289 0062 7B68     		ldr	r3, [r7, #4]
 2290 0064 1B68     		ldr	r3, [r3]
 2291 0066 FF22     		movs	r2, #255
 2292 0068 5A62     		str	r2, [r3, #36]
 2293 006a 7B68     		ldr	r3, [r7, #4]
 2294 006c 0122     		movs	r2, #1
 2295 006e 5A77     		strb	r2, [r3, #29]
 2296 0070 7B68     		ldr	r3, [r7, #4]
 2297 0072 0022     		movs	r2, #0
 2298 0074 1A77     		strb	r2, [r3, #28]
 2299 0076 0023     		movs	r3, #0
 2300              	.L121:
 2301 0078 1846     		mov	r0, r3
 2302 007a 0C37     		adds	r7, r7, #12
 2303 007c BD46     		mov	sp, r7
 2304              		@ sp needed
 2305 007e 5DF8047B 		ldr	r7, [sp], #4
 2306 0082 7047     		bx	lr
 2308              		.section	.text.HAL_RTCEx_DeactivateCalibrationOutPut,"ax",%progbits
 2309              		.align	1
 2310              		.global	HAL_RTCEx_DeactivateCalibrationOutPut
 2311              		.syntax unified
 2312              		.thumb
 2313              		.thumb_func
 2315              	HAL_RTCEx_DeactivateCalibrationOutPut:
 2316              		@ args = 0, pretend = 0, frame = 8
 2317              		@ frame_needed = 1, uses_anonymous_args = 0
 2318              		@ link register save eliminated.
 2319 0000 80B4     		push	{r7}
 2320 0002 83B0     		sub	sp, sp, #12
 2321 0004 00AF     		add	r7, sp, #0
 2322 0006 7860     		str	r0, [r7, #4]
 2323 0008 7B68     		ldr	r3, [r7, #4]
 2324 000a 1B7F     		ldrb	r3, [r3, #28]	@ zero_extendqisi2
 2325 000c 012B     		cmp	r3, #1
 2326 000e 01D1     		bne	.L123
 2327 0010 0223     		movs	r3, #2
 2328 0012 20E0     		b	.L124
 2329              	.L123:
 2330 0014 7B68     		ldr	r3, [r7, #4]
 2331 0016 0122     		movs	r2, #1
 2332 0018 1A77     		strb	r2, [r3, #28]
 2333 001a 7B68     		ldr	r3, [r7, #4]
 2334 001c 0222     		movs	r2, #2
 2335 001e 5A77     		strb	r2, [r3, #29]
 2336 0020 7B68     		ldr	r3, [r7, #4]
 2337 0022 1B68     		ldr	r3, [r3]
ARM GAS  C:\Users\user\AppData\Local\Temp\cc01GxlO.s 			page 41


 2338 0024 CA22     		movs	r2, #202
 2339 0026 5A62     		str	r2, [r3, #36]
 2340 0028 7B68     		ldr	r3, [r7, #4]
 2341 002a 1B68     		ldr	r3, [r3]
 2342 002c 5322     		movs	r2, #83
 2343 002e 5A62     		str	r2, [r3, #36]
 2344 0030 7B68     		ldr	r3, [r7, #4]
 2345 0032 1B68     		ldr	r3, [r3]
 2346 0034 9A68     		ldr	r2, [r3, #8]
 2347 0036 7B68     		ldr	r3, [r7, #4]
 2348 0038 1B68     		ldr	r3, [r3]
 2349 003a 22F40002 		bic	r2, r2, #8388608
 2350 003e 9A60     		str	r2, [r3, #8]
 2351 0040 7B68     		ldr	r3, [r7, #4]
 2352 0042 1B68     		ldr	r3, [r3]
 2353 0044 FF22     		movs	r2, #255
 2354 0046 5A62     		str	r2, [r3, #36]
 2355 0048 7B68     		ldr	r3, [r7, #4]
 2356 004a 0122     		movs	r2, #1
 2357 004c 5A77     		strb	r2, [r3, #29]
 2358 004e 7B68     		ldr	r3, [r7, #4]
 2359 0050 0022     		movs	r2, #0
 2360 0052 1A77     		strb	r2, [r3, #28]
 2361 0054 0023     		movs	r3, #0
 2362              	.L124:
 2363 0056 1846     		mov	r0, r3
 2364 0058 0C37     		adds	r7, r7, #12
 2365 005a BD46     		mov	sp, r7
 2366              		@ sp needed
 2367 005c 5DF8047B 		ldr	r7, [sp], #4
 2368 0060 7047     		bx	lr
 2370              		.section	.text.HAL_RTCEx_SetRefClock,"ax",%progbits
 2371              		.align	1
 2372              		.global	HAL_RTCEx_SetRefClock
 2373              		.syntax unified
 2374              		.thumb
 2375              		.thumb_func
 2377              	HAL_RTCEx_SetRefClock:
 2378              		@ args = 0, pretend = 0, frame = 16
 2379              		@ frame_needed = 1, uses_anonymous_args = 0
 2380 0000 80B5     		push	{r7, lr}
 2381 0002 84B0     		sub	sp, sp, #16
 2382 0004 00AF     		add	r7, sp, #0
 2383 0006 7860     		str	r0, [r7, #4]
 2384 0008 7B68     		ldr	r3, [r7, #4]
 2385 000a 1B7F     		ldrb	r3, [r3, #28]	@ zero_extendqisi2
 2386 000c 012B     		cmp	r3, #1
 2387 000e 01D1     		bne	.L126
 2388 0010 0223     		movs	r3, #2
 2389 0012 30E0     		b	.L127
 2390              	.L126:
 2391 0014 7B68     		ldr	r3, [r7, #4]
 2392 0016 0122     		movs	r2, #1
 2393 0018 1A77     		strb	r2, [r3, #28]
 2394 001a 7B68     		ldr	r3, [r7, #4]
 2395 001c 0222     		movs	r2, #2
 2396 001e 5A77     		strb	r2, [r3, #29]
ARM GAS  C:\Users\user\AppData\Local\Temp\cc01GxlO.s 			page 42


 2397 0020 7B68     		ldr	r3, [r7, #4]
 2398 0022 1B68     		ldr	r3, [r3]
 2399 0024 CA22     		movs	r2, #202
 2400 0026 5A62     		str	r2, [r3, #36]
 2401 0028 7B68     		ldr	r3, [r7, #4]
 2402 002a 1B68     		ldr	r3, [r3]
 2403 002c 5322     		movs	r2, #83
 2404 002e 5A62     		str	r2, [r3, #36]
 2405 0030 7868     		ldr	r0, [r7, #4]
 2406 0032 FFF7FEFF 		bl	RTC_EnterInitMode
 2407 0036 0346     		mov	r3, r0
 2408 0038 FB73     		strb	r3, [r7, #15]
 2409 003a FB7B     		ldrb	r3, [r7, #15]	@ zero_extendqisi2
 2410 003c 002B     		cmp	r3, #0
 2411 003e 0CD1     		bne	.L128
 2412 0040 7B68     		ldr	r3, [r7, #4]
 2413 0042 1B68     		ldr	r3, [r3]
 2414 0044 9A68     		ldr	r2, [r3, #8]
 2415 0046 7B68     		ldr	r3, [r7, #4]
 2416 0048 1B68     		ldr	r3, [r3]
 2417 004a 42F01002 		orr	r2, r2, #16
 2418 004e 9A60     		str	r2, [r3, #8]
 2419 0050 7868     		ldr	r0, [r7, #4]
 2420 0052 FFF7FEFF 		bl	RTC_ExitInitMode
 2421 0056 0346     		mov	r3, r0
 2422 0058 FB73     		strb	r3, [r7, #15]
 2423              	.L128:
 2424 005a FB7B     		ldrb	r3, [r7, #15]	@ zero_extendqisi2
 2425 005c 002B     		cmp	r3, #0
 2426 005e 02D1     		bne	.L129
 2427 0060 7B68     		ldr	r3, [r7, #4]
 2428 0062 0122     		movs	r2, #1
 2429 0064 5A77     		strb	r2, [r3, #29]
 2430              	.L129:
 2431 0066 7B68     		ldr	r3, [r7, #4]
 2432 0068 1B68     		ldr	r3, [r3]
 2433 006a FF22     		movs	r2, #255
 2434 006c 5A62     		str	r2, [r3, #36]
 2435 006e 7B68     		ldr	r3, [r7, #4]
 2436 0070 0022     		movs	r2, #0
 2437 0072 1A77     		strb	r2, [r3, #28]
 2438 0074 FB7B     		ldrb	r3, [r7, #15]	@ zero_extendqisi2
 2439              	.L127:
 2440 0076 1846     		mov	r0, r3
 2441 0078 1037     		adds	r7, r7, #16
 2442 007a BD46     		mov	sp, r7
 2443              		@ sp needed
 2444 007c 80BD     		pop	{r7, pc}
 2446              		.section	.text.HAL_RTCEx_DeactivateRefClock,"ax",%progbits
 2447              		.align	1
 2448              		.global	HAL_RTCEx_DeactivateRefClock
 2449              		.syntax unified
 2450              		.thumb
 2451              		.thumb_func
 2453              	HAL_RTCEx_DeactivateRefClock:
 2454              		@ args = 0, pretend = 0, frame = 16
 2455              		@ frame_needed = 1, uses_anonymous_args = 0
ARM GAS  C:\Users\user\AppData\Local\Temp\cc01GxlO.s 			page 43


 2456 0000 80B5     		push	{r7, lr}
 2457 0002 84B0     		sub	sp, sp, #16
 2458 0004 00AF     		add	r7, sp, #0
 2459 0006 7860     		str	r0, [r7, #4]
 2460 0008 7B68     		ldr	r3, [r7, #4]
 2461 000a 1B7F     		ldrb	r3, [r3, #28]	@ zero_extendqisi2
 2462 000c 012B     		cmp	r3, #1
 2463 000e 01D1     		bne	.L131
 2464 0010 0223     		movs	r3, #2
 2465 0012 30E0     		b	.L132
 2466              	.L131:
 2467 0014 7B68     		ldr	r3, [r7, #4]
 2468 0016 0122     		movs	r2, #1
 2469 0018 1A77     		strb	r2, [r3, #28]
 2470 001a 7B68     		ldr	r3, [r7, #4]
 2471 001c 0222     		movs	r2, #2
 2472 001e 5A77     		strb	r2, [r3, #29]
 2473 0020 7B68     		ldr	r3, [r7, #4]
 2474 0022 1B68     		ldr	r3, [r3]
 2475 0024 CA22     		movs	r2, #202
 2476 0026 5A62     		str	r2, [r3, #36]
 2477 0028 7B68     		ldr	r3, [r7, #4]
 2478 002a 1B68     		ldr	r3, [r3]
 2479 002c 5322     		movs	r2, #83
 2480 002e 5A62     		str	r2, [r3, #36]
 2481 0030 7868     		ldr	r0, [r7, #4]
 2482 0032 FFF7FEFF 		bl	RTC_EnterInitMode
 2483 0036 0346     		mov	r3, r0
 2484 0038 FB73     		strb	r3, [r7, #15]
 2485 003a FB7B     		ldrb	r3, [r7, #15]	@ zero_extendqisi2
 2486 003c 002B     		cmp	r3, #0
 2487 003e 0CD1     		bne	.L133
 2488 0040 7B68     		ldr	r3, [r7, #4]
 2489 0042 1B68     		ldr	r3, [r3]
 2490 0044 9A68     		ldr	r2, [r3, #8]
 2491 0046 7B68     		ldr	r3, [r7, #4]
 2492 0048 1B68     		ldr	r3, [r3]
 2493 004a 22F01002 		bic	r2, r2, #16
 2494 004e 9A60     		str	r2, [r3, #8]
 2495 0050 7868     		ldr	r0, [r7, #4]
 2496 0052 FFF7FEFF 		bl	RTC_ExitInitMode
 2497 0056 0346     		mov	r3, r0
 2498 0058 FB73     		strb	r3, [r7, #15]
 2499              	.L133:
 2500 005a FB7B     		ldrb	r3, [r7, #15]	@ zero_extendqisi2
 2501 005c 002B     		cmp	r3, #0
 2502 005e 02D1     		bne	.L134
 2503 0060 7B68     		ldr	r3, [r7, #4]
 2504 0062 0122     		movs	r2, #1
 2505 0064 5A77     		strb	r2, [r3, #29]
 2506              	.L134:
 2507 0066 7B68     		ldr	r3, [r7, #4]
 2508 0068 1B68     		ldr	r3, [r3]
 2509 006a FF22     		movs	r2, #255
 2510 006c 5A62     		str	r2, [r3, #36]
 2511 006e 7B68     		ldr	r3, [r7, #4]
 2512 0070 0022     		movs	r2, #0
ARM GAS  C:\Users\user\AppData\Local\Temp\cc01GxlO.s 			page 44


 2513 0072 1A77     		strb	r2, [r3, #28]
 2514 0074 FB7B     		ldrb	r3, [r7, #15]	@ zero_extendqisi2
 2515              	.L132:
 2516 0076 1846     		mov	r0, r3
 2517 0078 1037     		adds	r7, r7, #16
 2518 007a BD46     		mov	sp, r7
 2519              		@ sp needed
 2520 007c 80BD     		pop	{r7, pc}
 2522              		.section	.text.HAL_RTCEx_EnableBypassShadow,"ax",%progbits
 2523              		.align	1
 2524              		.global	HAL_RTCEx_EnableBypassShadow
 2525              		.syntax unified
 2526              		.thumb
 2527              		.thumb_func
 2529              	HAL_RTCEx_EnableBypassShadow:
 2530              		@ args = 0, pretend = 0, frame = 8
 2531              		@ frame_needed = 1, uses_anonymous_args = 0
 2532              		@ link register save eliminated.
 2533 0000 80B4     		push	{r7}
 2534 0002 83B0     		sub	sp, sp, #12
 2535 0004 00AF     		add	r7, sp, #0
 2536 0006 7860     		str	r0, [r7, #4]
 2537 0008 7B68     		ldr	r3, [r7, #4]
 2538 000a 1B7F     		ldrb	r3, [r3, #28]	@ zero_extendqisi2
 2539 000c 012B     		cmp	r3, #1
 2540 000e 01D1     		bne	.L136
 2541 0010 0223     		movs	r3, #2
 2542 0012 20E0     		b	.L137
 2543              	.L136:
 2544 0014 7B68     		ldr	r3, [r7, #4]
 2545 0016 0122     		movs	r2, #1
 2546 0018 1A77     		strb	r2, [r3, #28]
 2547 001a 7B68     		ldr	r3, [r7, #4]
 2548 001c 0222     		movs	r2, #2
 2549 001e 5A77     		strb	r2, [r3, #29]
 2550 0020 7B68     		ldr	r3, [r7, #4]
 2551 0022 1B68     		ldr	r3, [r3]
 2552 0024 CA22     		movs	r2, #202
 2553 0026 5A62     		str	r2, [r3, #36]
 2554 0028 7B68     		ldr	r3, [r7, #4]
 2555 002a 1B68     		ldr	r3, [r3]
 2556 002c 5322     		movs	r2, #83
 2557 002e 5A62     		str	r2, [r3, #36]
 2558 0030 7B68     		ldr	r3, [r7, #4]
 2559 0032 1B68     		ldr	r3, [r3]
 2560 0034 9A68     		ldr	r2, [r3, #8]
 2561 0036 7B68     		ldr	r3, [r7, #4]
 2562 0038 1B68     		ldr	r3, [r3]
 2563 003a 42F02002 		orr	r2, r2, #32
 2564 003e 9A60     		str	r2, [r3, #8]
 2565 0040 7B68     		ldr	r3, [r7, #4]
 2566 0042 1B68     		ldr	r3, [r3]
 2567 0044 FF22     		movs	r2, #255
 2568 0046 5A62     		str	r2, [r3, #36]
 2569 0048 7B68     		ldr	r3, [r7, #4]
 2570 004a 0122     		movs	r2, #1
 2571 004c 5A77     		strb	r2, [r3, #29]
ARM GAS  C:\Users\user\AppData\Local\Temp\cc01GxlO.s 			page 45


 2572 004e 7B68     		ldr	r3, [r7, #4]
 2573 0050 0022     		movs	r2, #0
 2574 0052 1A77     		strb	r2, [r3, #28]
 2575 0054 0023     		movs	r3, #0
 2576              	.L137:
 2577 0056 1846     		mov	r0, r3
 2578 0058 0C37     		adds	r7, r7, #12
 2579 005a BD46     		mov	sp, r7
 2580              		@ sp needed
 2581 005c 5DF8047B 		ldr	r7, [sp], #4
 2582 0060 7047     		bx	lr
 2584              		.section	.text.HAL_RTCEx_DisableBypassShadow,"ax",%progbits
 2585              		.align	1
 2586              		.global	HAL_RTCEx_DisableBypassShadow
 2587              		.syntax unified
 2588              		.thumb
 2589              		.thumb_func
 2591              	HAL_RTCEx_DisableBypassShadow:
 2592              		@ args = 0, pretend = 0, frame = 8
 2593              		@ frame_needed = 1, uses_anonymous_args = 0
 2594              		@ link register save eliminated.
 2595 0000 80B4     		push	{r7}
 2596 0002 83B0     		sub	sp, sp, #12
 2597 0004 00AF     		add	r7, sp, #0
 2598 0006 7860     		str	r0, [r7, #4]
 2599 0008 7B68     		ldr	r3, [r7, #4]
 2600 000a 1B7F     		ldrb	r3, [r3, #28]	@ zero_extendqisi2
 2601 000c 012B     		cmp	r3, #1
 2602 000e 01D1     		bne	.L139
 2603 0010 0223     		movs	r3, #2
 2604 0012 20E0     		b	.L140
 2605              	.L139:
 2606 0014 7B68     		ldr	r3, [r7, #4]
 2607 0016 0122     		movs	r2, #1
 2608 0018 1A77     		strb	r2, [r3, #28]
 2609 001a 7B68     		ldr	r3, [r7, #4]
 2610 001c 0222     		movs	r2, #2
 2611 001e 5A77     		strb	r2, [r3, #29]
 2612 0020 7B68     		ldr	r3, [r7, #4]
 2613 0022 1B68     		ldr	r3, [r3]
 2614 0024 CA22     		movs	r2, #202
 2615 0026 5A62     		str	r2, [r3, #36]
 2616 0028 7B68     		ldr	r3, [r7, #4]
 2617 002a 1B68     		ldr	r3, [r3]
 2618 002c 5322     		movs	r2, #83
 2619 002e 5A62     		str	r2, [r3, #36]
 2620 0030 7B68     		ldr	r3, [r7, #4]
 2621 0032 1B68     		ldr	r3, [r3]
 2622 0034 9A68     		ldr	r2, [r3, #8]
 2623 0036 7B68     		ldr	r3, [r7, #4]
 2624 0038 1B68     		ldr	r3, [r3]
 2625 003a 02F0DF02 		and	r2, r2, #223
 2626 003e 9A60     		str	r2, [r3, #8]
 2627 0040 7B68     		ldr	r3, [r7, #4]
 2628 0042 1B68     		ldr	r3, [r3]
 2629 0044 FF22     		movs	r2, #255
 2630 0046 5A62     		str	r2, [r3, #36]
ARM GAS  C:\Users\user\AppData\Local\Temp\cc01GxlO.s 			page 46


 2631 0048 7B68     		ldr	r3, [r7, #4]
 2632 004a 0122     		movs	r2, #1
 2633 004c 5A77     		strb	r2, [r3, #29]
 2634 004e 7B68     		ldr	r3, [r7, #4]
 2635 0050 0022     		movs	r2, #0
 2636 0052 1A77     		strb	r2, [r3, #28]
 2637 0054 0023     		movs	r3, #0
 2638              	.L140:
 2639 0056 1846     		mov	r0, r3
 2640 0058 0C37     		adds	r7, r7, #12
 2641 005a BD46     		mov	sp, r7
 2642              		@ sp needed
 2643 005c 5DF8047B 		ldr	r7, [sp], #4
 2644 0060 7047     		bx	lr
 2646              		.section	.text.HAL_RTCEx_AlarmBEventCallback,"ax",%progbits
 2647              		.align	1
 2648              		.weak	HAL_RTCEx_AlarmBEventCallback
 2649              		.syntax unified
 2650              		.thumb
 2651              		.thumb_func
 2653              	HAL_RTCEx_AlarmBEventCallback:
 2654              		@ args = 0, pretend = 0, frame = 8
 2655              		@ frame_needed = 1, uses_anonymous_args = 0
 2656              		@ link register save eliminated.
 2657 0000 80B4     		push	{r7}
 2658 0002 83B0     		sub	sp, sp, #12
 2659 0004 00AF     		add	r7, sp, #0
 2660 0006 7860     		str	r0, [r7, #4]
 2661 0008 00BF     		nop
 2662 000a 0C37     		adds	r7, r7, #12
 2663 000c BD46     		mov	sp, r7
 2664              		@ sp needed
 2665 000e 5DF8047B 		ldr	r7, [sp], #4
 2666 0012 7047     		bx	lr
 2668              		.section	.text.HAL_RTCEx_PollForAlarmBEvent,"ax",%progbits
 2669              		.align	1
 2670              		.global	HAL_RTCEx_PollForAlarmBEvent
 2671              		.syntax unified
 2672              		.thumb
 2673              		.thumb_func
 2675              	HAL_RTCEx_PollForAlarmBEvent:
 2676              		@ args = 0, pretend = 0, frame = 16
 2677              		@ frame_needed = 1, uses_anonymous_args = 0
 2678 0000 80B5     		push	{r7, lr}
 2679 0002 84B0     		sub	sp, sp, #16
 2680 0004 00AF     		add	r7, sp, #0
 2681 0006 7860     		str	r0, [r7, #4]
 2682 0008 3960     		str	r1, [r7]
 2683 000a 0023     		movs	r3, #0
 2684 000c FB60     		str	r3, [r7, #12]
 2685 000e FFF7FEFF 		bl	HAL_GetTick
 2686 0012 F860     		str	r0, [r7, #12]
 2687 0014 13E0     		b	.L144
 2688              	.L147:
 2689 0016 3B68     		ldr	r3, [r7]
 2690 0018 B3F1FF3F 		cmp	r3, #-1
 2691 001c 0FD0     		beq	.L144
ARM GAS  C:\Users\user\AppData\Local\Temp\cc01GxlO.s 			page 47


 2692 001e 3B68     		ldr	r3, [r7]
 2693 0020 002B     		cmp	r3, #0
 2694 0022 07D0     		beq	.L145
 2695 0024 FFF7FEFF 		bl	HAL_GetTick
 2696 0028 0246     		mov	r2, r0
 2697 002a FB68     		ldr	r3, [r7, #12]
 2698 002c D31A     		subs	r3, r2, r3
 2699 002e 3A68     		ldr	r2, [r7]
 2700 0030 9A42     		cmp	r2, r3
 2701 0032 04D2     		bcs	.L144
 2702              	.L145:
 2703 0034 7B68     		ldr	r3, [r7, #4]
 2704 0036 0322     		movs	r2, #3
 2705 0038 5A77     		strb	r2, [r3, #29]
 2706 003a 0323     		movs	r3, #3
 2707 003c 13E0     		b	.L146
 2708              	.L144:
 2709 003e 7B68     		ldr	r3, [r7, #4]
 2710 0040 1B68     		ldr	r3, [r3]
 2711 0042 DB68     		ldr	r3, [r3, #12]
 2712 0044 03F40073 		and	r3, r3, #512
 2713 0048 002B     		cmp	r3, #0
 2714 004a E4D0     		beq	.L147
 2715 004c 7B68     		ldr	r3, [r7, #4]
 2716 004e 1B68     		ldr	r3, [r3]
 2717 0050 DB68     		ldr	r3, [r3, #12]
 2718 0052 DAB2     		uxtb	r2, r3
 2719 0054 7B68     		ldr	r3, [r7, #4]
 2720 0056 1B68     		ldr	r3, [r3]
 2721 0058 62F42072 		orn	r2, r2, #640
 2722 005c DA60     		str	r2, [r3, #12]
 2723 005e 7B68     		ldr	r3, [r7, #4]
 2724 0060 0122     		movs	r2, #1
 2725 0062 5A77     		strb	r2, [r3, #29]
 2726 0064 0023     		movs	r3, #0
 2727              	.L146:
 2728 0066 1846     		mov	r0, r3
 2729 0068 1037     		adds	r7, r7, #16
 2730 006a BD46     		mov	sp, r7
 2731              		@ sp needed
 2732 006c 80BD     		pop	{r7, pc}
 2734              		.ident	"GCC: (GNU Tools for STM32 12.3.rel1.20240306-1730) 12.3.1 20230626"
ARM GAS  C:\Users\user\AppData\Local\Temp\cc01GxlO.s 			page 48

