ARM GAS  C:\Users\user\AppData\Local\Temp\ccBNhODr.s 			page 1


   1              		.cpu cortex-m4
   2              		.arch armv7e-m
   3              		.fpu fpv4-sp-d16
   4              		.eabi_attribute 27, 1
   5              		.eabi_attribute 28, 1
   6              		.eabi_attribute 20, 1
   7              		.eabi_attribute 21, 1
   8              		.eabi_attribute 23, 3
   9              		.eabi_attribute 24, 1
  10              		.eabi_attribute 25, 1
  11              		.eabi_attribute 26, 1
  12              		.eabi_attribute 30, 6
  13              		.eabi_attribute 34, 1
  14              		.eabi_attribute 18, 4
  15              		.file	"system_stm32f4xx.c"
  16              		.text
  17              		.global	SystemCoreClock
  18              		.section	.data.SystemCoreClock,"aw"
  19              		.align	2
  22              	SystemCoreClock:
  23 0000 0024F400 		.word	16000000
  24              		.global	AHBPrescTable
  25              		.section	.rodata.AHBPrescTable,"a"
  26              		.align	2
  29              	AHBPrescTable:
  30 0000 00000000 		.ascii	"\000\000\000\000\000\000\000\000\001\002\003\004\006"
  30      00000000 
  30      01020304 
  30      06
  31 000d 070809   		.ascii	"\007\010\011"
  32              		.global	APBPrescTable
  33              		.section	.rodata.APBPrescTable,"a"
  34              		.align	2
  37              	APBPrescTable:
  38 0000 00000000 		.ascii	"\000\000\000\000\001\002\003\004"
  38      01020304 
  39              		.section	.text.SystemInit,"ax",%progbits
  40              		.align	1
  41              		.global	SystemInit
  42              		.syntax unified
  43              		.thumb
  44              		.thumb_func
  46              	SystemInit:
  47              		@ args = 0, pretend = 0, frame = 0
  48              		@ frame_needed = 1, uses_anonymous_args = 0
  49              		@ link register save eliminated.
  50 0000 80B4     		push	{r7}
  51 0002 00AF     		add	r7, sp, #0
  52 0004 064B     		ldr	r3, .L2
  53 0006 D3F88830 		ldr	r3, [r3, #136]
  54 000a 054A     		ldr	r2, .L2
  55 000c 43F47003 		orr	r3, r3, #15728640
  56 0010 C2F88830 		str	r3, [r2, #136]
  57 0014 00BF     		nop
  58 0016 BD46     		mov	sp, r7
  59              		@ sp needed
  60 0018 5DF8047B 		ldr	r7, [sp], #4
ARM GAS  C:\Users\user\AppData\Local\Temp\ccBNhODr.s 			page 2


  61 001c 7047     		bx	lr
  62              	.L3:
  63 001e 00BF     		.align	2
  64              	.L2:
  65 0020 00ED00E0 		.word	-536810240
  67              		.section	.text.SystemCoreClockUpdate,"ax",%progbits
  68              		.align	1
  69              		.global	SystemCoreClockUpdate
  70              		.syntax unified
  71              		.thumb
  72              		.thumb_func
  74              	SystemCoreClockUpdate:
  75              		@ args = 0, pretend = 0, frame = 24
  76              		@ frame_needed = 1, uses_anonymous_args = 0
  77              		@ link register save eliminated.
  78 0000 80B4     		push	{r7}
  79 0002 87B0     		sub	sp, sp, #28
  80 0004 00AF     		add	r7, sp, #0
  81 0006 0023     		movs	r3, #0
  82 0008 3B61     		str	r3, [r7, #16]
  83 000a 0023     		movs	r3, #0
  84 000c 7B61     		str	r3, [r7, #20]
  85 000e 0223     		movs	r3, #2
  86 0010 FB60     		str	r3, [r7, #12]
  87 0012 0023     		movs	r3, #0
  88 0014 BB60     		str	r3, [r7, #8]
  89 0016 0223     		movs	r3, #2
  90 0018 7B60     		str	r3, [r7, #4]
  91 001a 344B     		ldr	r3, .L12
  92 001c 9B68     		ldr	r3, [r3, #8]
  93 001e 03F00C03 		and	r3, r3, #12
  94 0022 3B61     		str	r3, [r7, #16]
  95 0024 3B69     		ldr	r3, [r7, #16]
  96 0026 082B     		cmp	r3, #8
  97 0028 11D0     		beq	.L5
  98 002a 3B69     		ldr	r3, [r7, #16]
  99 002c 082B     		cmp	r3, #8
 100 002e 44D8     		bhi	.L6
 101 0030 3B69     		ldr	r3, [r7, #16]
 102 0032 002B     		cmp	r3, #0
 103 0034 03D0     		beq	.L7
 104 0036 3B69     		ldr	r3, [r7, #16]
 105 0038 042B     		cmp	r3, #4
 106 003a 04D0     		beq	.L8
 107 003c 3DE0     		b	.L6
 108              	.L7:
 109 003e 2C4B     		ldr	r3, .L12+4
 110 0040 2C4A     		ldr	r2, .L12+8
 111 0042 1A60     		str	r2, [r3]
 112 0044 3DE0     		b	.L9
 113              	.L8:
 114 0046 2A4B     		ldr	r3, .L12+4
 115 0048 2B4A     		ldr	r2, .L12+12
 116 004a 1A60     		str	r2, [r3]
 117 004c 39E0     		b	.L9
 118              	.L5:
 119 004e 274B     		ldr	r3, .L12
ARM GAS  C:\Users\user\AppData\Local\Temp\ccBNhODr.s 			page 3


 120 0050 5B68     		ldr	r3, [r3, #4]
 121 0052 9B0D     		lsrs	r3, r3, #22
 122 0054 03F00103 		and	r3, r3, #1
 123 0058 BB60     		str	r3, [r7, #8]
 124 005a 244B     		ldr	r3, .L12
 125 005c 5B68     		ldr	r3, [r3, #4]
 126 005e 03F03F03 		and	r3, r3, #63
 127 0062 7B60     		str	r3, [r7, #4]
 128 0064 BB68     		ldr	r3, [r7, #8]
 129 0066 002B     		cmp	r3, #0
 130 0068 0CD0     		beq	.L10
 131 006a 234A     		ldr	r2, .L12+12
 132 006c 7B68     		ldr	r3, [r7, #4]
 133 006e B2FBF3F3 		udiv	r3, r2, r3
 134 0072 1E4A     		ldr	r2, .L12
 135 0074 5268     		ldr	r2, [r2, #4]
 136 0076 9209     		lsrs	r2, r2, #6
 137 0078 C2F30802 		ubfx	r2, r2, #0, #9
 138 007c 02FB03F3 		mul	r3, r2, r3
 139 0080 7B61     		str	r3, [r7, #20]
 140 0082 0BE0     		b	.L11
 141              	.L10:
 142 0084 1B4A     		ldr	r2, .L12+8
 143 0086 7B68     		ldr	r3, [r7, #4]
 144 0088 B2FBF3F3 		udiv	r3, r2, r3
 145 008c 174A     		ldr	r2, .L12
 146 008e 5268     		ldr	r2, [r2, #4]
 147 0090 9209     		lsrs	r2, r2, #6
 148 0092 C2F30802 		ubfx	r2, r2, #0, #9
 149 0096 02FB03F3 		mul	r3, r2, r3
 150 009a 7B61     		str	r3, [r7, #20]
 151              	.L11:
 152 009c 134B     		ldr	r3, .L12
 153 009e 5B68     		ldr	r3, [r3, #4]
 154 00a0 1B0C     		lsrs	r3, r3, #16
 155 00a2 03F00303 		and	r3, r3, #3
 156 00a6 0133     		adds	r3, r3, #1
 157 00a8 5B00     		lsls	r3, r3, #1
 158 00aa FB60     		str	r3, [r7, #12]
 159 00ac 7A69     		ldr	r2, [r7, #20]
 160 00ae FB68     		ldr	r3, [r7, #12]
 161 00b0 B2FBF3F3 		udiv	r3, r2, r3
 162 00b4 0E4A     		ldr	r2, .L12+4
 163 00b6 1360     		str	r3, [r2]
 164 00b8 03E0     		b	.L9
 165              	.L6:
 166 00ba 0D4B     		ldr	r3, .L12+4
 167 00bc 0D4A     		ldr	r2, .L12+8
 168 00be 1A60     		str	r2, [r3]
 169 00c0 00BF     		nop
 170              	.L9:
 171 00c2 0A4B     		ldr	r3, .L12
 172 00c4 9B68     		ldr	r3, [r3, #8]
 173 00c6 1B09     		lsrs	r3, r3, #4
 174 00c8 03F00F03 		and	r3, r3, #15
 175 00cc 0B4A     		ldr	r2, .L12+16
 176 00ce D35C     		ldrb	r3, [r2, r3]	@ zero_extendqisi2
ARM GAS  C:\Users\user\AppData\Local\Temp\ccBNhODr.s 			page 4


 177 00d0 3B61     		str	r3, [r7, #16]
 178 00d2 074B     		ldr	r3, .L12+4
 179 00d4 1A68     		ldr	r2, [r3]
 180 00d6 3B69     		ldr	r3, [r7, #16]
 181 00d8 22FA03F3 		lsr	r3, r2, r3
 182 00dc 044A     		ldr	r2, .L12+4
 183 00de 1360     		str	r3, [r2]
 184 00e0 00BF     		nop
 185 00e2 1C37     		adds	r7, r7, #28
 186 00e4 BD46     		mov	sp, r7
 187              		@ sp needed
 188 00e6 5DF8047B 		ldr	r7, [sp], #4
 189 00ea 7047     		bx	lr
 190              	.L13:
 191              		.align	2
 192              	.L12:
 193 00ec 00380240 		.word	1073887232
 194 00f0 00000000 		.word	SystemCoreClock
 195 00f4 0024F400 		.word	16000000
 196 00f8 00127A00 		.word	8000000
 197 00fc 00000000 		.word	AHBPrescTable
 199              		.ident	"GCC: (GNU Tools for STM32 12.3.rel1.20240306-1730) 12.3.1 20230626"
ARM GAS  C:\Users\user\AppData\Local\Temp\ccBNhODr.s 			page 5


DEFINED SYMBOLS
                            *ABS*:00000000 system_stm32f4xx.c
C:\Users\user\AppData\Local\Temp\ccBNhODr.s:22     .data.SystemCoreClock:00000000 SystemCoreClock
C:\Users\user\AppData\Local\Temp\ccBNhODr.s:19     .data.SystemCoreClock:00000000 $d
C:\Users\user\AppData\Local\Temp\ccBNhODr.s:29     .rodata.AHBPrescTable:00000000 AHBPrescTable
C:\Users\user\AppData\Local\Temp\ccBNhODr.s:26     .rodata.AHBPrescTable:00000000 $d
C:\Users\user\AppData\Local\Temp\ccBNhODr.s:37     .rodata.APBPrescTable:00000000 APBPrescTable
C:\Users\user\AppData\Local\Temp\ccBNhODr.s:34     .rodata.APBPrescTable:00000000 $d
C:\Users\user\AppData\Local\Temp\ccBNhODr.s:40     .text.SystemInit:00000000 $t
C:\Users\user\AppData\Local\Temp\ccBNhODr.s:46     .text.SystemInit:00000000 SystemInit
C:\Users\user\AppData\Local\Temp\ccBNhODr.s:65     .text.SystemInit:00000020 $d
C:\Users\user\AppData\Local\Temp\ccBNhODr.s:68     .text.SystemCoreClockUpdate:00000000 $t
C:\Users\user\AppData\Local\Temp\ccBNhODr.s:74     .text.SystemCoreClockUpdate:00000000 SystemCoreClockUpdate
C:\Users\user\AppData\Local\Temp\ccBNhODr.s:193    .text.SystemCoreClockUpdate:000000ec $d

NO UNDEFINED SYMBOLS
